
openblt_stm32f767.elf:     file format elf32-littlearm

Sections:
Idx Name          Size      VMA       LMA       File off  Algn
  0 .shared       00000040  20000000  20000000  00030000  2**2
                  ALLOC
  1 .isr_vector   000001f8  08000000  08000000  00010000  2**0
                  CONTENTS, ALLOC, LOAD, READONLY, DATA
  2 .text         00004618  080001f8  080001f8  000101f8  2**2
                  CONTENTS, ALLOC, LOAD, READONLY, CODE
  3 .rodata       000000b8  08004810  08004810  00014810  2**2
                  CONTENTS, ALLOC, LOAD, READONLY, DATA
  4 .ARM          00000008  080048c8  080048c8  000148c8  2**2
                  CONTENTS, ALLOC, LOAD, READONLY, DATA
  5 .init_array   00000004  080048d0  080048d0  000148d0  2**2
                  CONTENTS, ALLOC, LOAD, DATA
  6 .fini_array   00000004  080048d4  080048d4  000148d4  2**2
                  CONTENTS, ALLOC, LOAD, DATA
  7 .data         0000000c  20000040  080048d8  00020040  2**2
                  CONTENTS, ALLOC, LOAD, DATA
  8 .bss          00003dac  2000004c  080048e4  0002004c  2**2
                  ALLOC
  9 ._user_heap_stack 00000600  20003df8  080048e4  00023df8  2**0
                  ALLOC
 10 .ARM.attributes 00000030  00000000  00000000  0002004c  2**0
                  CONTENTS, READONLY
 11 .debug_info   00018000  00000000  00000000  0002007c  2**0
                  CONTENTS, READONLY, DEBUGGING
 12 .debug_abbrev 00003d63  00000000  00000000  0003807c  2**0
                  CONTENTS, READONLY, DEBUGGING
 13 .debug_aranges 00000c50  00000000  00000000  0003bde0  2**3
                  CONTENTS, READONLY, DEBUGGING
 14 .debug_ranges 00000ad0  00000000  00000000  0003ca30  2**3
                  CONTENTS, READONLY, DEBUGGING
 15 .debug_macro  000296cf  00000000  00000000  0003d500  2**0
                  CONTENTS, READONLY, DEBUGGING
 16 .debug_line   00010c63  00000000  00000000  00066bcf  2**0
                  CONTENTS, READONLY, DEBUGGING
 17 .debug_str    000f12c5  00000000  00000000  00077832  2**0
                  CONTENTS, READONLY, DEBUGGING
 18 .comment      0000007b  00000000  00000000  00168af7  2**0
                  CONTENTS, READONLY
 19 .debug_frame  00001d74  00000000  00000000  00168b74  2**2
                  CONTENTS, READONLY, DEBUGGING
 20 .debug_loc    000049f1  00000000  00000000  0016a8e8  2**0
                  CONTENTS, READONLY, DEBUGGING

Disassembly of section .text:

080001f8 <__do_global_dtors_aux>:
 80001f8:	b510      	push	{r4, lr}
 80001fa:	4c05      	ldr	r4, [pc, #20]	; (8000210 <__do_global_dtors_aux+0x18>)
 80001fc:	7823      	ldrb	r3, [r4, #0]
 80001fe:	b933      	cbnz	r3, 800020e <__do_global_dtors_aux+0x16>
 8000200:	4b04      	ldr	r3, [pc, #16]	; (8000214 <__do_global_dtors_aux+0x1c>)
 8000202:	b113      	cbz	r3, 800020a <__do_global_dtors_aux+0x12>
 8000204:	4804      	ldr	r0, [pc, #16]	; (8000218 <__do_global_dtors_aux+0x20>)
 8000206:	f3af 8000 	nop.w
 800020a:	2301      	movs	r3, #1
 800020c:	7023      	strb	r3, [r4, #0]
 800020e:	bd10      	pop	{r4, pc}
 8000210:	2000004c 	.word	0x2000004c
 8000214:	00000000 	.word	0x00000000
 8000218:	080047f8 	.word	0x080047f8

0800021c <frame_dummy>:
 800021c:	b508      	push	{r3, lr}
 800021e:	4b03      	ldr	r3, [pc, #12]	; (800022c <frame_dummy+0x10>)
 8000220:	b11b      	cbz	r3, 800022a <frame_dummy+0xe>
 8000222:	4903      	ldr	r1, [pc, #12]	; (8000230 <frame_dummy+0x14>)
 8000224:	4803      	ldr	r0, [pc, #12]	; (8000234 <frame_dummy+0x18>)
 8000226:	f3af 8000 	nop.w
 800022a:	bd08      	pop	{r3, pc}
 800022c:	00000000 	.word	0x00000000
 8000230:	20000050 	.word	0x20000050
 8000234:	080047f8 	.word	0x080047f8

08000238 <__aeabi_uldivmod>:
 8000238:	b953      	cbnz	r3, 8000250 <__aeabi_uldivmod+0x18>
 800023a:	b94a      	cbnz	r2, 8000250 <__aeabi_uldivmod+0x18>
 800023c:	2900      	cmp	r1, #0
 800023e:	bf08      	it	eq
 8000240:	2800      	cmpeq	r0, #0
 8000242:	bf1c      	itt	ne
 8000244:	f04f 31ff 	movne.w	r1, #4294967295	; 0xffffffff
 8000248:	f04f 30ff 	movne.w	r0, #4294967295	; 0xffffffff
 800024c:	f000 b972 	b.w	8000534 <__aeabi_idiv0>
 8000250:	f1ad 0c08 	sub.w	ip, sp, #8
 8000254:	e96d ce04 	strd	ip, lr, [sp, #-16]!
 8000258:	f000 f806 	bl	8000268 <__udivmoddi4>
 800025c:	f8dd e004 	ldr.w	lr, [sp, #4]
 8000260:	e9dd 2302 	ldrd	r2, r3, [sp, #8]
 8000264:	b004      	add	sp, #16
 8000266:	4770      	bx	lr

08000268 <__udivmoddi4>:
 8000268:	e92d 47f0 	stmdb	sp!, {r4, r5, r6, r7, r8, r9, sl, lr}
 800026c:	9e08      	ldr	r6, [sp, #32]
 800026e:	4604      	mov	r4, r0
 8000270:	4688      	mov	r8, r1
 8000272:	2b00      	cmp	r3, #0
 8000274:	d14b      	bne.n	800030e <__udivmoddi4+0xa6>
 8000276:	428a      	cmp	r2, r1
 8000278:	4615      	mov	r5, r2
 800027a:	d967      	bls.n	800034c <__udivmoddi4+0xe4>
 800027c:	fab2 f282 	clz	r2, r2
 8000280:	b14a      	cbz	r2, 8000296 <__udivmoddi4+0x2e>
 8000282:	f1c2 0720 	rsb	r7, r2, #32
 8000286:	fa01 f302 	lsl.w	r3, r1, r2
 800028a:	fa20 f707 	lsr.w	r7, r0, r7
 800028e:	4095      	lsls	r5, r2
 8000290:	ea47 0803 	orr.w	r8, r7, r3
 8000294:	4094      	lsls	r4, r2
 8000296:	ea4f 4e15 	mov.w	lr, r5, lsr #16
 800029a:	0c23      	lsrs	r3, r4, #16
 800029c:	fbb8 f7fe 	udiv	r7, r8, lr
 80002a0:	fa1f fc85 	uxth.w	ip, r5
 80002a4:	fb0e 8817 	mls	r8, lr, r7, r8
 80002a8:	ea43 4308 	orr.w	r3, r3, r8, lsl #16
 80002ac:	fb07 f10c 	mul.w	r1, r7, ip
 80002b0:	4299      	cmp	r1, r3
 80002b2:	d909      	bls.n	80002c8 <__udivmoddi4+0x60>
 80002b4:	18eb      	adds	r3, r5, r3
 80002b6:	f107 30ff 	add.w	r0, r7, #4294967295	; 0xffffffff
 80002ba:	f080 811b 	bcs.w	80004f4 <__udivmoddi4+0x28c>
 80002be:	4299      	cmp	r1, r3
 80002c0:	f240 8118 	bls.w	80004f4 <__udivmoddi4+0x28c>
 80002c4:	3f02      	subs	r7, #2
 80002c6:	442b      	add	r3, r5
 80002c8:	1a5b      	subs	r3, r3, r1
 80002ca:	b2a4      	uxth	r4, r4
 80002cc:	fbb3 f0fe 	udiv	r0, r3, lr
 80002d0:	fb0e 3310 	mls	r3, lr, r0, r3
 80002d4:	ea44 4403 	orr.w	r4, r4, r3, lsl #16
 80002d8:	fb00 fc0c 	mul.w	ip, r0, ip
 80002dc:	45a4      	cmp	ip, r4
 80002de:	d909      	bls.n	80002f4 <__udivmoddi4+0x8c>
 80002e0:	192c      	adds	r4, r5, r4
 80002e2:	f100 33ff 	add.w	r3, r0, #4294967295	; 0xffffffff
 80002e6:	f080 8107 	bcs.w	80004f8 <__udivmoddi4+0x290>
 80002ea:	45a4      	cmp	ip, r4
 80002ec:	f240 8104 	bls.w	80004f8 <__udivmoddi4+0x290>
 80002f0:	3802      	subs	r0, #2
 80002f2:	442c      	add	r4, r5
 80002f4:	ea40 4007 	orr.w	r0, r0, r7, lsl #16
 80002f8:	eba4 040c 	sub.w	r4, r4, ip
 80002fc:	2700      	movs	r7, #0
 80002fe:	b11e      	cbz	r6, 8000308 <__udivmoddi4+0xa0>
 8000300:	40d4      	lsrs	r4, r2
 8000302:	2300      	movs	r3, #0
 8000304:	e9c6 4300 	strd	r4, r3, [r6]
 8000308:	4639      	mov	r1, r7
 800030a:	e8bd 87f0 	ldmia.w	sp!, {r4, r5, r6, r7, r8, r9, sl, pc}
 800030e:	428b      	cmp	r3, r1
 8000310:	d909      	bls.n	8000326 <__udivmoddi4+0xbe>
 8000312:	2e00      	cmp	r6, #0
 8000314:	f000 80eb 	beq.w	80004ee <__udivmoddi4+0x286>
 8000318:	2700      	movs	r7, #0
 800031a:	e9c6 0100 	strd	r0, r1, [r6]
 800031e:	4638      	mov	r0, r7
 8000320:	4639      	mov	r1, r7
 8000322:	e8bd 87f0 	ldmia.w	sp!, {r4, r5, r6, r7, r8, r9, sl, pc}
 8000326:	fab3 f783 	clz	r7, r3
 800032a:	2f00      	cmp	r7, #0
 800032c:	d147      	bne.n	80003be <__udivmoddi4+0x156>
 800032e:	428b      	cmp	r3, r1
 8000330:	d302      	bcc.n	8000338 <__udivmoddi4+0xd0>
 8000332:	4282      	cmp	r2, r0
 8000334:	f200 80fa 	bhi.w	800052c <__udivmoddi4+0x2c4>
 8000338:	1a84      	subs	r4, r0, r2
 800033a:	eb61 0303 	sbc.w	r3, r1, r3
 800033e:	2001      	movs	r0, #1
 8000340:	4698      	mov	r8, r3
 8000342:	2e00      	cmp	r6, #0
 8000344:	d0e0      	beq.n	8000308 <__udivmoddi4+0xa0>
 8000346:	e9c6 4800 	strd	r4, r8, [r6]
 800034a:	e7dd      	b.n	8000308 <__udivmoddi4+0xa0>
 800034c:	b902      	cbnz	r2, 8000350 <__udivmoddi4+0xe8>
 800034e:	deff      	udf	#255	; 0xff
 8000350:	fab2 f282 	clz	r2, r2
 8000354:	2a00      	cmp	r2, #0
 8000356:	f040 808f 	bne.w	8000478 <__udivmoddi4+0x210>
 800035a:	1b49      	subs	r1, r1, r5
 800035c:	ea4f 4e15 	mov.w	lr, r5, lsr #16
 8000360:	fa1f f885 	uxth.w	r8, r5
 8000364:	2701      	movs	r7, #1
 8000366:	fbb1 fcfe 	udiv	ip, r1, lr
 800036a:	0c23      	lsrs	r3, r4, #16
 800036c:	fb0e 111c 	mls	r1, lr, ip, r1
 8000370:	ea43 4301 	orr.w	r3, r3, r1, lsl #16
 8000374:	fb08 f10c 	mul.w	r1, r8, ip
 8000378:	4299      	cmp	r1, r3
 800037a:	d907      	bls.n	800038c <__udivmoddi4+0x124>
 800037c:	18eb      	adds	r3, r5, r3
 800037e:	f10c 30ff 	add.w	r0, ip, #4294967295	; 0xffffffff
 8000382:	d202      	bcs.n	800038a <__udivmoddi4+0x122>
 8000384:	4299      	cmp	r1, r3
 8000386:	f200 80cd 	bhi.w	8000524 <__udivmoddi4+0x2bc>
 800038a:	4684      	mov	ip, r0
 800038c:	1a59      	subs	r1, r3, r1
 800038e:	b2a3      	uxth	r3, r4
 8000390:	fbb1 f0fe 	udiv	r0, r1, lr
 8000394:	fb0e 1410 	mls	r4, lr, r0, r1
 8000398:	ea43 4404 	orr.w	r4, r3, r4, lsl #16
 800039c:	fb08 f800 	mul.w	r8, r8, r0
 80003a0:	45a0      	cmp	r8, r4
 80003a2:	d907      	bls.n	80003b4 <__udivmoddi4+0x14c>
 80003a4:	192c      	adds	r4, r5, r4
 80003a6:	f100 33ff 	add.w	r3, r0, #4294967295	; 0xffffffff
 80003aa:	d202      	bcs.n	80003b2 <__udivmoddi4+0x14a>
 80003ac:	45a0      	cmp	r8, r4
 80003ae:	f200 80b6 	bhi.w	800051e <__udivmoddi4+0x2b6>
 80003b2:	4618      	mov	r0, r3
 80003b4:	eba4 0408 	sub.w	r4, r4, r8
 80003b8:	ea40 400c 	orr.w	r0, r0, ip, lsl #16
 80003bc:	e79f      	b.n	80002fe <__udivmoddi4+0x96>
 80003be:	f1c7 0c20 	rsb	ip, r7, #32
 80003c2:	40bb      	lsls	r3, r7
 80003c4:	fa22 fe0c 	lsr.w	lr, r2, ip
 80003c8:	ea4e 0e03 	orr.w	lr, lr, r3
 80003cc:	fa01 f407 	lsl.w	r4, r1, r7
 80003d0:	fa20 f50c 	lsr.w	r5, r0, ip
 80003d4:	fa21 f30c 	lsr.w	r3, r1, ip
 80003d8:	ea4f 481e 	mov.w	r8, lr, lsr #16
 80003dc:	4325      	orrs	r5, r4
 80003de:	fbb3 f9f8 	udiv	r9, r3, r8
 80003e2:	0c2c      	lsrs	r4, r5, #16
 80003e4:	fb08 3319 	mls	r3, r8, r9, r3
 80003e8:	fa1f fa8e 	uxth.w	sl, lr
 80003ec:	ea44 4303 	orr.w	r3, r4, r3, lsl #16
 80003f0:	fb09 f40a 	mul.w	r4, r9, sl
 80003f4:	429c      	cmp	r4, r3
 80003f6:	fa02 f207 	lsl.w	r2, r2, r7
 80003fa:	fa00 f107 	lsl.w	r1, r0, r7
 80003fe:	d90b      	bls.n	8000418 <__udivmoddi4+0x1b0>
 8000400:	eb1e 0303 	adds.w	r3, lr, r3
 8000404:	f109 30ff 	add.w	r0, r9, #4294967295	; 0xffffffff
 8000408:	f080 8087 	bcs.w	800051a <__udivmoddi4+0x2b2>
 800040c:	429c      	cmp	r4, r3
 800040e:	f240 8084 	bls.w	800051a <__udivmoddi4+0x2b2>
 8000412:	f1a9 0902 	sub.w	r9, r9, #2
 8000416:	4473      	add	r3, lr
 8000418:	1b1b      	subs	r3, r3, r4
 800041a:	b2ad      	uxth	r5, r5
 800041c:	fbb3 f0f8 	udiv	r0, r3, r8
 8000420:	fb08 3310 	mls	r3, r8, r0, r3
 8000424:	ea45 4403 	orr.w	r4, r5, r3, lsl #16
 8000428:	fb00 fa0a 	mul.w	sl, r0, sl
 800042c:	45a2      	cmp	sl, r4
 800042e:	d908      	bls.n	8000442 <__udivmoddi4+0x1da>
 8000430:	eb1e 0404 	adds.w	r4, lr, r4
 8000434:	f100 33ff 	add.w	r3, r0, #4294967295	; 0xffffffff
 8000438:	d26b      	bcs.n	8000512 <__udivmoddi4+0x2aa>
 800043a:	45a2      	cmp	sl, r4
 800043c:	d969      	bls.n	8000512 <__udivmoddi4+0x2aa>
 800043e:	3802      	subs	r0, #2
 8000440:	4474      	add	r4, lr
 8000442:	ea40 4009 	orr.w	r0, r0, r9, lsl #16
 8000446:	fba0 8902 	umull	r8, r9, r0, r2
 800044a:	eba4 040a 	sub.w	r4, r4, sl
 800044e:	454c      	cmp	r4, r9
 8000450:	46c2      	mov	sl, r8
 8000452:	464b      	mov	r3, r9
 8000454:	d354      	bcc.n	8000500 <__udivmoddi4+0x298>
 8000456:	d051      	beq.n	80004fc <__udivmoddi4+0x294>
 8000458:	2e00      	cmp	r6, #0
 800045a:	d069      	beq.n	8000530 <__udivmoddi4+0x2c8>
 800045c:	ebb1 050a 	subs.w	r5, r1, sl
 8000460:	eb64 0403 	sbc.w	r4, r4, r3
 8000464:	fa04 fc0c 	lsl.w	ip, r4, ip
 8000468:	40fd      	lsrs	r5, r7
 800046a:	40fc      	lsrs	r4, r7
 800046c:	ea4c 0505 	orr.w	r5, ip, r5
 8000470:	e9c6 5400 	strd	r5, r4, [r6]
 8000474:	2700      	movs	r7, #0
 8000476:	e747      	b.n	8000308 <__udivmoddi4+0xa0>
 8000478:	f1c2 0320 	rsb	r3, r2, #32
 800047c:	fa20 f703 	lsr.w	r7, r0, r3
 8000480:	4095      	lsls	r5, r2
 8000482:	fa01 f002 	lsl.w	r0, r1, r2
 8000486:	fa21 f303 	lsr.w	r3, r1, r3
 800048a:	ea4f 4e15 	mov.w	lr, r5, lsr #16
 800048e:	4338      	orrs	r0, r7
 8000490:	0c01      	lsrs	r1, r0, #16
 8000492:	fbb3 f7fe 	udiv	r7, r3, lr
 8000496:	fa1f f885 	uxth.w	r8, r5
 800049a:	fb0e 3317 	mls	r3, lr, r7, r3
 800049e:	ea41 4103 	orr.w	r1, r1, r3, lsl #16
 80004a2:	fb07 f308 	mul.w	r3, r7, r8
 80004a6:	428b      	cmp	r3, r1
 80004a8:	fa04 f402 	lsl.w	r4, r4, r2
 80004ac:	d907      	bls.n	80004be <__udivmoddi4+0x256>
 80004ae:	1869      	adds	r1, r5, r1
 80004b0:	f107 3cff 	add.w	ip, r7, #4294967295	; 0xffffffff
 80004b4:	d22f      	bcs.n	8000516 <__udivmoddi4+0x2ae>
 80004b6:	428b      	cmp	r3, r1
 80004b8:	d92d      	bls.n	8000516 <__udivmoddi4+0x2ae>
 80004ba:	3f02      	subs	r7, #2
 80004bc:	4429      	add	r1, r5
 80004be:	1acb      	subs	r3, r1, r3
 80004c0:	b281      	uxth	r1, r0
 80004c2:	fbb3 f0fe 	udiv	r0, r3, lr
 80004c6:	fb0e 3310 	mls	r3, lr, r0, r3
 80004ca:	ea41 4103 	orr.w	r1, r1, r3, lsl #16
 80004ce:	fb00 f308 	mul.w	r3, r0, r8
 80004d2:	428b      	cmp	r3, r1
 80004d4:	d907      	bls.n	80004e6 <__udivmoddi4+0x27e>
 80004d6:	1869      	adds	r1, r5, r1
 80004d8:	f100 3cff 	add.w	ip, r0, #4294967295	; 0xffffffff
 80004dc:	d217      	bcs.n	800050e <__udivmoddi4+0x2a6>
 80004de:	428b      	cmp	r3, r1
 80004e0:	d915      	bls.n	800050e <__udivmoddi4+0x2a6>
 80004e2:	3802      	subs	r0, #2
 80004e4:	4429      	add	r1, r5
 80004e6:	1ac9      	subs	r1, r1, r3
 80004e8:	ea40 4707 	orr.w	r7, r0, r7, lsl #16
 80004ec:	e73b      	b.n	8000366 <__udivmoddi4+0xfe>
 80004ee:	4637      	mov	r7, r6
 80004f0:	4630      	mov	r0, r6
 80004f2:	e709      	b.n	8000308 <__udivmoddi4+0xa0>
 80004f4:	4607      	mov	r7, r0
 80004f6:	e6e7      	b.n	80002c8 <__udivmoddi4+0x60>
 80004f8:	4618      	mov	r0, r3
 80004fa:	e6fb      	b.n	80002f4 <__udivmoddi4+0x8c>
 80004fc:	4541      	cmp	r1, r8
 80004fe:	d2ab      	bcs.n	8000458 <__udivmoddi4+0x1f0>
 8000500:	ebb8 0a02 	subs.w	sl, r8, r2
 8000504:	eb69 020e 	sbc.w	r2, r9, lr
 8000508:	3801      	subs	r0, #1
 800050a:	4613      	mov	r3, r2
 800050c:	e7a4      	b.n	8000458 <__udivmoddi4+0x1f0>
 800050e:	4660      	mov	r0, ip
 8000510:	e7e9      	b.n	80004e6 <__udivmoddi4+0x27e>
 8000512:	4618      	mov	r0, r3
 8000514:	e795      	b.n	8000442 <__udivmoddi4+0x1da>
 8000516:	4667      	mov	r7, ip
 8000518:	e7d1      	b.n	80004be <__udivmoddi4+0x256>
 800051a:	4681      	mov	r9, r0
 800051c:	e77c      	b.n	8000418 <__udivmoddi4+0x1b0>
 800051e:	3802      	subs	r0, #2
 8000520:	442c      	add	r4, r5
 8000522:	e747      	b.n	80003b4 <__udivmoddi4+0x14c>
 8000524:	f1ac 0c02 	sub.w	ip, ip, #2
 8000528:	442b      	add	r3, r5
 800052a:	e72f      	b.n	800038c <__udivmoddi4+0x124>
 800052c:	4638      	mov	r0, r7
 800052e:	e708      	b.n	8000342 <__udivmoddi4+0xda>
 8000530:	4637      	mov	r7, r6
 8000532:	e6e9      	b.n	8000308 <__udivmoddi4+0xa0>

08000534 <__aeabi_idiv0>:
 8000534:	4770      	bx	lr
 8000536:	bf00      	nop

08000538 <CpuIrqDisable>:
** \return    none.
**
****************************************************************************************/
void CpuIrqDisable(void)
{
  __asm volatile ("cpsid i");
 8000538:	b672      	cpsid	i
} /*** end of CpuIrqDisable ***/
 800053a:	4770      	bx	lr

0800053c <CpuIrqEnable>:
** \return    none.
**
****************************************************************************************/
void CpuIrqEnable(void)
{
  __asm volatile ("cpsie i");
 800053c:	b662      	cpsie	i
} /*** end of CpuIrqEnable ***/
 800053e:	4770      	bx	lr

08000540 <CpuInit>:
** \brief     Initializes the CPU module.
** \return    none.
**
****************************************************************************************/
void CpuInit(void)
{
 8000540:	b508      	push	{r3, lr}
  /* bootloader runs in polling mode so disable the global interrupts. this is done for
   * safety reasons. if the bootloader was started from a running user program, it could 
   * be that the user program did not properly disable the interrupt generation of 
   * peripherals.
   */
  CpuIrqDisable();
 8000542:	f7ff fff9 	bl	8000538 <CpuIrqDisable>
} /*** end of CpuInit ***/
 8000546:	bd08      	pop	{r3, pc}

08000548 <CpuStartUserProgram>:
**            does not return.
** \return    none.
**
****************************************************************************************/
void CpuStartUserProgram(void)
{
 8000548:	b510      	push	{r4, lr}
  void (*pProgResetHandler)(void);

  /* check if a user program is present by verifying the checksum */
  if (NvmVerifyChecksum() == BLT_FALSE)
 800054a:	f000 f9ff 	bl	800094c <NvmVerifyChecksum>
 800054e:	b1a0      	cbz	r0, 800057a <CpuStartUserProgram+0x32>
    return;
  }
#endif
#if (BOOT_COM_ENABLE > 0)
  /* release the communication interface */
  ComFree();
 8000550:	f000 facc 	bl	8000aec <ComFree>
#endif
  /* reset the timer */

  /* reset the HAL */
  HAL_DeInit();
 8000554:	f002 fbcc 	bl	8002cf0 <HAL_DeInit>
  TimerReset();
 8000558:	f000 fa0c 	bl	8000974 <TimerReset>
  /* remap user program's vector table */
  SCB->VTOR = CPU_USER_PROGRAM_VECTABLE_OFFSET & (blt_int32u)0x1FFFFF80;
 800055c:	f000 f9fa 	bl	8000954 <NvmGetUserProgBaseAddress>
 8000560:	4b07      	ldr	r3, [pc, #28]	; (8000580 <CpuStartUserProgram+0x38>)
 8000562:	4003      	ands	r3, r0
 8000564:	4a07      	ldr	r2, [pc, #28]	; (8000584 <CpuStartUserProgram+0x3c>)
 8000566:	6093      	str	r3, [r2, #8]
  /* set the address where the bootloader needs to jump to. this is the address of
   * the 2nd entry in the user program's vector table. this address points to the
   * user program's reset handler.
   */
  pProgResetHandler = (void(*)(void))(*((blt_addr *)CPU_USER_PROGRAM_STARTADDR_PTR));
 8000568:	f000 f9f4 	bl	8000954 <NvmGetUserProgBaseAddress>
 800056c:	6844      	ldr	r4, [r0, #4]
   * not have to be done by the user program.
   */
#if (Display == 1)
  CpuIrqEnable();
  #endif
  CpuIrqEnable();
 800056e:	f7ff ffe5 	bl	800053c <CpuIrqEnable>
  /* start the user program by activating its reset interrupt service routine */
  pProgResetHandler();
 8000572:	47a0      	blx	r4
  /* theoretically, the code never gets here because the user program should now be
   * running and the previous function call should not return. In case it did return
   * for whatever reason, make sure all communication interfaces are initialized so that
   * firmware updates can be started.
   */
  ComDeferredInit();
 8000574:	f000 faea 	bl	8000b4c <ComDeferredInit>
#endif
} /*** end of CpuStartUserProgram ***/
 8000578:	bd10      	pop	{r4, pc}
    ComDeferredInit();
 800057a:	f000 fae7 	bl	8000b4c <ComDeferredInit>
    return;
 800057e:	e7fb      	b.n	8000578 <CpuStartUserProgram+0x30>
 8000580:	1fffff80 	.word	0x1fffff80
 8000584:	e000ed00 	.word	0xe000ed00

08000588 <CpuMemCopy>:
** \param     len  length of the data in bytes.
** \return    none.
**
****************************************************************************************/
void CpuMemCopy(blt_addr dest, blt_addr src, blt_int16u len)
{
 8000588:	b570      	push	{r4, r5, r6, lr}
  /* set casted pointers */
  from = (blt_int8u *)src;
  to = (blt_int8u *)dest;

  /* copy all bytes from source address to destination address */
  while (len-- > 0)
 800058a:	e008      	b.n	800059e <CpuMemCopy+0x16>
  {
    /* store byte value from source to destination */
    *to++ = *from++;
 800058c:	1c4d      	adds	r5, r1, #1
 800058e:	1c46      	adds	r6, r0, #1
 8000590:	780b      	ldrb	r3, [r1, #0]
 8000592:	7003      	strb	r3, [r0, #0]
    /* keep the watchdog happy */
    CopService();
 8000594:	f000 faea 	bl	8000b6c <CopService>
    *to++ = *from++;
 8000598:	4630      	mov	r0, r6
 800059a:	4629      	mov	r1, r5
  while (len-- > 0)
 800059c:	4622      	mov	r2, r4
 800059e:	1e53      	subs	r3, r2, #1
 80005a0:	b29c      	uxth	r4, r3
 80005a2:	2a00      	cmp	r2, #0
 80005a4:	d1f2      	bne.n	800058c <CpuMemCopy+0x4>
  }
} /*** end of CpuMemCopy ***/
 80005a6:	bd70      	pop	{r4, r5, r6, pc}

080005a8 <FlashGetSector>:
** \param     address Address in the flash sector.
** \return    Flash sector number or FLASH_INVALID_SECTOR.
**
****************************************************************************************/
static blt_int8u FlashGetSector(blt_addr address)
{
 80005a8:	b538      	push	{r3, r4, r5, lr}
 80005aa:	4605      	mov	r5, r0
  blt_int8u result = FLASH_INVALID_SECTOR;
  blt_int8u sectorIdx;

  /* search through the sectors to find the right one */
  for (sectorIdx = 0; sectorIdx < FLASH_TOTAL_SECTORS; sectorIdx++)
 80005ac:	2400      	movs	r4, #0
 80005ae:	e001      	b.n	80005b4 <FlashGetSector+0xc>
 80005b0:	3401      	adds	r4, #1
 80005b2:	b2e4      	uxtb	r4, r4
 80005b4:	2c0a      	cmp	r4, #10
 80005b6:	d815      	bhi.n	80005e4 <FlashGetSector+0x3c>
  {
    /* keep the watchdog happy */
    CopService();
 80005b8:	f000 fad8 	bl	8000b6c <CopService>
    /* is the address in this sector? */
    if ((address >= flashLayout[sectorIdx].sector_start) && \
 80005bc:	eb04 0244 	add.w	r2, r4, r4, lsl #1
 80005c0:	0093      	lsls	r3, r2, #2
 80005c2:	4a09      	ldr	r2, [pc, #36]	; (80005e8 <FlashGetSector+0x40>)
 80005c4:	58d3      	ldr	r3, [r2, r3]
 80005c6:	42ab      	cmp	r3, r5
 80005c8:	d8f2      	bhi.n	80005b0 <FlashGetSector+0x8>
        (address < (flashLayout[sectorIdx].sector_start + \
                    flashLayout[sectorIdx].sector_size)))
 80005ca:	eb04 0244 	add.w	r2, r4, r4, lsl #1
 80005ce:	0091      	lsls	r1, r2, #2
 80005d0:	4a05      	ldr	r2, [pc, #20]	; (80005e8 <FlashGetSector+0x40>)
 80005d2:	440a      	add	r2, r1
 80005d4:	6852      	ldr	r2, [r2, #4]
        (address < (flashLayout[sectorIdx].sector_start + \
 80005d6:	4413      	add	r3, r2
    if ((address >= flashLayout[sectorIdx].sector_start) && \
 80005d8:	42ab      	cmp	r3, r5
 80005da:	d9e9      	bls.n	80005b0 <FlashGetSector+0x8>
    {
      /* found the sector we are looking for so store it */
      result = flashLayout[sectorIdx].sector_num;
 80005dc:	4b02      	ldr	r3, [pc, #8]	; (80005e8 <FlashGetSector+0x40>)
 80005de:	440b      	add	r3, r1
 80005e0:	7a18      	ldrb	r0, [r3, #8]
      /* all done so no need to continue looping */
      break;
 80005e2:	e000      	b.n	80005e6 <FlashGetSector+0x3e>
  blt_int8u result = FLASH_INVALID_SECTOR;
 80005e4:	20ff      	movs	r0, #255	; 0xff
    }
  }
  /* give the result back to the caller */
  return result;
} /*** end of FlashGetSector ***/
 80005e6:	bd38      	pop	{r3, r4, r5, pc}
 80005e8:	08004810 	.word	0x08004810

080005ec <FlashInitBlock>:
{
 80005ec:	b508      	push	{r3, lr}
  if ((address % FLASH_WRITE_BLOCK_SIZE) != 0)
 80005ee:	f3c1 0308 	ubfx	r3, r1, #0, #9
 80005f2:	b953      	cbnz	r3, 800060a <FlashInitBlock+0x1e>
  if (block->base_addr == address)
 80005f4:	6803      	ldr	r3, [r0, #0]
 80005f6:	428b      	cmp	r3, r1
 80005f8:	d009      	beq.n	800060e <FlashInitBlock+0x22>
  block->base_addr = address;
 80005fa:	f840 1b04 	str.w	r1, [r0], #4
  CpuMemCopy((blt_addr)block->data, address, FLASH_WRITE_BLOCK_SIZE);
 80005fe:	f44f 7200 	mov.w	r2, #512	; 0x200
 8000602:	f7ff ffc1 	bl	8000588 <CpuMemCopy>
  return BLT_TRUE;
 8000606:	2001      	movs	r0, #1
 8000608:	e000      	b.n	800060c <FlashInitBlock+0x20>
    return BLT_FALSE;
 800060a:	2000      	movs	r0, #0
} /*** end of FlashInitBlock ***/
 800060c:	bd08      	pop	{r3, pc}
    return BLT_TRUE;
 800060e:	2001      	movs	r0, #1
 8000610:	e7fc      	b.n	800060c <FlashInitBlock+0x20>

08000612 <FlashWriteBlock>:
{
 8000612:	e92d 41f0 	stmdb	sp!, {r4, r5, r6, r7, r8, lr}
 8000616:	4607      	mov	r7, r0
  HAL_FLASH_Unlock();
 8000618:	f003 f8aa 	bl	8003770 <HAL_FLASH_Unlock>
  for (word_cnt=0; word_cnt<(FLASH_WRITE_BLOCK_SIZE/sizeof(blt_int32u)); word_cnt++)
 800061c:	2400      	movs	r4, #0
 800061e:	2c7f      	cmp	r4, #127	; 0x7f
 8000620:	d814      	bhi.n	800064c <FlashWriteBlock+0x3a>
    prog_addr = block->base_addr + (word_cnt * sizeof(blt_int32u));
 8000622:	683e      	ldr	r6, [r7, #0]
 8000624:	00a3      	lsls	r3, r4, #2
 8000626:	eb06 0803 	add.w	r8, r6, r3
    prog_data = *(volatile blt_int32u *)(&block->data[word_cnt * sizeof(blt_int32u)]);
 800062a:	443b      	add	r3, r7
 800062c:	685d      	ldr	r5, [r3, #4]
    CopService();
 800062e:	f000 fa9d 	bl	8000b6c <CopService>
    if (HAL_FLASH_Program(FLASH_TYPEPROGRAM_WORD, prog_addr, prog_data) != HAL_OK)
 8000632:	462a      	mov	r2, r5
 8000634:	2300      	movs	r3, #0
 8000636:	4641      	mov	r1, r8
 8000638:	2002      	movs	r0, #2
 800063a:	f003 f8ef 	bl	800381c <HAL_FLASH_Program>
 800063e:	b938      	cbnz	r0, 8000650 <FlashWriteBlock+0x3e>
    if (*(volatile blt_int32u *)prog_addr != prog_data)
 8000640:	f856 3024 	ldr.w	r3, [r6, r4, lsl #2]
 8000644:	42ab      	cmp	r3, r5
 8000646:	d109      	bne.n	800065c <FlashWriteBlock+0x4a>
  for (word_cnt=0; word_cnt<(FLASH_WRITE_BLOCK_SIZE/sizeof(blt_int32u)); word_cnt++)
 8000648:	3401      	adds	r4, #1
 800064a:	e7e8      	b.n	800061e <FlashWriteBlock+0xc>
  blt_bool   result = BLT_TRUE;
 800064c:	2401      	movs	r4, #1
 800064e:	e000      	b.n	8000652 <FlashWriteBlock+0x40>
      result = BLT_FALSE;
 8000650:	2400      	movs	r4, #0
  HAL_FLASH_Lock();
 8000652:	f003 f8a5 	bl	80037a0 <HAL_FLASH_Lock>
} /*** end of FlashWriteBlock ***/
 8000656:	4620      	mov	r0, r4
 8000658:	e8bd 81f0 	ldmia.w	sp!, {r4, r5, r6, r7, r8, pc}
      result = BLT_FALSE;
 800065c:	2400      	movs	r4, #0
 800065e:	e7f8      	b.n	8000652 <FlashWriteBlock+0x40>

08000660 <FlashSwitchBlock>:
{
 8000660:	b538      	push	{r3, r4, r5, lr}
 8000662:	460d      	mov	r5, r1
  if (block == &bootBlockInfo)
 8000664:	4b0c      	ldr	r3, [pc, #48]	; (8000698 <FlashSwitchBlock+0x38>)
 8000666:	4298      	cmp	r0, r3
 8000668:	d011      	beq.n	800068e <FlashSwitchBlock+0x2e>
 800066a:	4604      	mov	r4, r0
  else if (base_addr == flashLayout[0].sector_start)
 800066c:	4b0b      	ldr	r3, [pc, #44]	; (800069c <FlashSwitchBlock+0x3c>)
 800066e:	4299      	cmp	r1, r3
 8000670:	d107      	bne.n	8000682 <FlashSwitchBlock+0x22>
    block = &bootBlockInfo;
 8000672:	4c09      	ldr	r4, [pc, #36]	; (8000698 <FlashSwitchBlock+0x38>)
  if (FlashInitBlock(block, base_addr) == BLT_FALSE)
 8000674:	4629      	mov	r1, r5
 8000676:	4620      	mov	r0, r4
 8000678:	f7ff ffb8 	bl	80005ec <FlashInitBlock>
 800067c:	b148      	cbz	r0, 8000692 <FlashSwitchBlock+0x32>
} /*** end of FlashSwitchBlock ***/
 800067e:	4620      	mov	r0, r4
 8000680:	bd38      	pop	{r3, r4, r5, pc}
    if (FlashWriteBlock(block) == BLT_FALSE)
 8000682:	f7ff ffc6 	bl	8000612 <FlashWriteBlock>
 8000686:	2800      	cmp	r0, #0
 8000688:	d1f4      	bne.n	8000674 <FlashSwitchBlock+0x14>
      return BLT_NULL;
 800068a:	2400      	movs	r4, #0
 800068c:	e7f7      	b.n	800067e <FlashSwitchBlock+0x1e>
    block = &blockInfo;
 800068e:	4c04      	ldr	r4, [pc, #16]	; (80006a0 <FlashSwitchBlock+0x40>)
 8000690:	e7f0      	b.n	8000674 <FlashSwitchBlock+0x14>
    return BLT_NULL;
 8000692:	2400      	movs	r4, #0
 8000694:	e7f3      	b.n	800067e <FlashSwitchBlock+0x1e>
 8000696:	bf00      	nop
 8000698:	2000026c 	.word	0x2000026c
 800069c:	08008000 	.word	0x08008000
 80006a0:	20000068 	.word	0x20000068

080006a4 <FlashAddToBlock>:
{
 80006a4:	e92d 41f0 	stmdb	sp!, {r4, r5, r6, r7, r8, lr}
 80006a8:	4606      	mov	r6, r0
 80006aa:	460c      	mov	r4, r1
 80006ac:	4617      	mov	r7, r2
 80006ae:	461d      	mov	r5, r3
  current_base_addr = (address/FLASH_WRITE_BLOCK_SIZE)*FLASH_WRITE_BLOCK_SIZE;
 80006b0:	f8df 8074 	ldr.w	r8, [pc, #116]	; 8000728 <FlashAddToBlock+0x84>
 80006b4:	ea01 0808 	and.w	r8, r1, r8
  if (block->base_addr == FLASH_INVALID_ADDRESS)
 80006b8:	6803      	ldr	r3, [r0, #0]
 80006ba:	f1b3 3fff 	cmp.w	r3, #4294967295	; 0xffffffff
 80006be:	d007      	beq.n	80006d0 <FlashAddToBlock+0x2c>
  if (block->base_addr != current_base_addr)
 80006c0:	6833      	ldr	r3, [r6, #0]
 80006c2:	4543      	cmp	r3, r8
 80006c4:	d10b      	bne.n	80006de <FlashAddToBlock+0x3a>
  dst = &(block->data[address - block->base_addr]);
 80006c6:	6833      	ldr	r3, [r6, #0]
 80006c8:	1ae4      	subs	r4, r4, r3
 80006ca:	4434      	add	r4, r6
 80006cc:	3404      	adds	r4, #4
 80006ce:	e015      	b.n	80006fc <FlashAddToBlock+0x58>
    if (FlashInitBlock(block, current_base_addr) == BLT_FALSE)
 80006d0:	4641      	mov	r1, r8
 80006d2:	f7ff ff8b 	bl	80005ec <FlashInitBlock>
 80006d6:	4603      	mov	r3, r0
 80006d8:	2800      	cmp	r0, #0
 80006da:	d1f1      	bne.n	80006c0 <FlashAddToBlock+0x1c>
 80006dc:	e01f      	b.n	800071e <FlashAddToBlock+0x7a>
    block = FlashSwitchBlock(block, current_base_addr);
 80006de:	4641      	mov	r1, r8
 80006e0:	4630      	mov	r0, r6
 80006e2:	f7ff ffbd 	bl	8000660 <FlashSwitchBlock>
    if (block == BLT_NULL)
 80006e6:	4606      	mov	r6, r0
 80006e8:	2800      	cmp	r0, #0
 80006ea:	d1ec      	bne.n	80006c6 <FlashAddToBlock+0x22>
      return BLT_FALSE;
 80006ec:	2300      	movs	r3, #0
 80006ee:	e016      	b.n	800071e <FlashAddToBlock+0x7a>
    *dst = *src;
 80006f0:	f817 3b01 	ldrb.w	r3, [r7], #1
 80006f4:	f804 3b01 	strb.w	r3, [r4], #1
  while (len > 0);
 80006f8:	3d01      	subs	r5, #1
 80006fa:	d00f      	beq.n	800071c <FlashAddToBlock+0x78>
    CopService();
 80006fc:	f000 fa36 	bl	8000b6c <CopService>
    if ((blt_addr)(dst-&(block->data[0])) >= FLASH_WRITE_BLOCK_SIZE)
 8000700:	1d33      	adds	r3, r6, #4
 8000702:	1ae3      	subs	r3, r4, r3
 8000704:	f5b3 7f00 	cmp.w	r3, #512	; 0x200
 8000708:	d3f2      	bcc.n	80006f0 <FlashAddToBlock+0x4c>
      block = FlashSwitchBlock(block, current_base_addr+FLASH_WRITE_BLOCK_SIZE);
 800070a:	f508 7100 	add.w	r1, r8, #512	; 0x200
 800070e:	4630      	mov	r0, r6
 8000710:	f7ff ffa6 	bl	8000660 <FlashSwitchBlock>
      if (block == BLT_NULL)
 8000714:	4606      	mov	r6, r0
 8000716:	b128      	cbz	r0, 8000724 <FlashAddToBlock+0x80>
      dst = &(block->data[0]);
 8000718:	1d04      	adds	r4, r0, #4
 800071a:	e7e9      	b.n	80006f0 <FlashAddToBlock+0x4c>
  return BLT_TRUE;
 800071c:	2301      	movs	r3, #1
} /*** end of FlashAddToBlock ***/
 800071e:	4618      	mov	r0, r3
 8000720:	e8bd 81f0 	ldmia.w	sp!, {r4, r5, r6, r7, r8, pc}
        return BLT_FALSE;
 8000724:	2300      	movs	r3, #0
 8000726:	e7fa      	b.n	800071e <FlashAddToBlock+0x7a>
 8000728:	fffffe00 	.word	0xfffffe00

0800072c <FlashEraseSectors>:
{
 800072c:	b570      	push	{r4, r5, r6, lr}
 800072e:	b086      	sub	sp, #24
 8000730:	4604      	mov	r4, r0
 8000732:	460e      	mov	r6, r1
  blt_int32u eraseSectorError = 0;
 8000734:	2300      	movs	r3, #0
 8000736:	9300      	str	r3, [sp, #0]
  if (first_sector > last_sector)
 8000738:	4288      	cmp	r0, r1
 800073a:	d819      	bhi.n	8000770 <FlashEraseSectors+0x44>
  blt_bool result = BLT_TRUE;
 800073c:	2501      	movs	r5, #1
  if ((first_sector < flashLayout[0].sector_num) || \
 800073e:	b1ec      	cbz	r4, 800077c <FlashEraseSectors+0x50>
 8000740:	2e0b      	cmp	r6, #11
 8000742:	d81f      	bhi.n	8000784 <FlashEraseSectors+0x58>
  if (result == BLT_TRUE)
 8000744:	b1dd      	cbz	r5, 800077e <FlashEraseSectors+0x52>
    eraseInitStruct.TypeErase = FLASH_TYPEERASE_SECTORS;
 8000746:	2300      	movs	r3, #0
 8000748:	9301      	str	r3, [sp, #4]
    eraseInitStruct.VoltageRange = FLASH_VOLTAGE_RANGE_3;
 800074a:	2302      	movs	r3, #2
 800074c:	9305      	str	r3, [sp, #20]
    eraseInitStruct.NbSectors = 1;
 800074e:	2301      	movs	r3, #1
 8000750:	9304      	str	r3, [sp, #16]
    HAL_FLASH_Unlock();
 8000752:	f003 f80d 	bl	8003770 <HAL_FLASH_Unlock>
    for (sectorIdx=first_sector; sectorIdx<= last_sector; sectorIdx++)
 8000756:	42b4      	cmp	r4, r6
 8000758:	d80d      	bhi.n	8000776 <FlashEraseSectors+0x4a>
      CopService();
 800075a:	f000 fa07 	bl	8000b6c <CopService>
      eraseInitStruct.Sector = sectorIdx;
 800075e:	9403      	str	r4, [sp, #12]
      if(HAL_FLASHEx_Erase(&eraseInitStruct, (uint32_t *)&eraseSectorError) != HAL_OK)
 8000760:	4669      	mov	r1, sp
 8000762:	a801      	add	r0, sp, #4
 8000764:	f003 f8f2 	bl	800394c <HAL_FLASHEx_Erase>
 8000768:	b920      	cbnz	r0, 8000774 <FlashEraseSectors+0x48>
    for (sectorIdx=first_sector; sectorIdx<= last_sector; sectorIdx++)
 800076a:	3401      	adds	r4, #1
 800076c:	b2e4      	uxtb	r4, r4
 800076e:	e7f2      	b.n	8000756 <FlashEraseSectors+0x2a>
    result = BLT_FALSE;
 8000770:	2500      	movs	r5, #0
 8000772:	e7e4      	b.n	800073e <FlashEraseSectors+0x12>
        result = BLT_FALSE;
 8000774:	2500      	movs	r5, #0
    HAL_FLASH_Lock();
 8000776:	f003 f813 	bl	80037a0 <HAL_FLASH_Lock>
 800077a:	e000      	b.n	800077e <FlashEraseSectors+0x52>
 800077c:	2500      	movs	r5, #0
} /*** end of FlashEraseSectors ***/
 800077e:	4628      	mov	r0, r5
 8000780:	b006      	add	sp, #24
 8000782:	bd70      	pop	{r4, r5, r6, pc}
 8000784:	2500      	movs	r5, #0
 8000786:	e7fa      	b.n	800077e <FlashEraseSectors+0x52>

08000788 <FlashInit>:
  blockInfo.base_addr = FLASH_INVALID_ADDRESS;
 8000788:	f04f 33ff 	mov.w	r3, #4294967295	; 0xffffffff
 800078c:	4a02      	ldr	r2, [pc, #8]	; (8000798 <FlashInit+0x10>)
 800078e:	6013      	str	r3, [r2, #0]
  bootBlockInfo.base_addr = FLASH_INVALID_ADDRESS;
 8000790:	4a02      	ldr	r2, [pc, #8]	; (800079c <FlashInit+0x14>)
 8000792:	6013      	str	r3, [r2, #0]
} /*** end of FlashInit ***/
 8000794:	4770      	bx	lr
 8000796:	bf00      	nop
 8000798:	20000068 	.word	0x20000068
 800079c:	2000026c 	.word	0x2000026c

080007a0 <FlashWrite>:
{
 80007a0:	b570      	push	{r4, r5, r6, lr}
  if ((len - 1) > (FLASH_END_ADDRESS - addr))
 80007a2:	1e4b      	subs	r3, r1, #1
 80007a4:	4c14      	ldr	r4, [pc, #80]	; (80007f8 <FlashWrite+0x58>)
 80007a6:	1a24      	subs	r4, r4, r0
 80007a8:	42a3      	cmp	r3, r4
 80007aa:	d901      	bls.n	80007b0 <FlashWrite+0x10>
    return BLT_FALSE;
 80007ac:	2000      	movs	r0, #0
} /*** end of FlashWrite ***/
 80007ae:	bd70      	pop	{r4, r5, r6, pc}
 80007b0:	4616      	mov	r6, r2
 80007b2:	460d      	mov	r5, r1
 80007b4:	4604      	mov	r4, r0
  if ((FlashGetSector(addr) == FLASH_INVALID_SECTOR) || \
 80007b6:	f7ff fef7 	bl	80005a8 <FlashGetSector>
 80007ba:	28ff      	cmp	r0, #255	; 0xff
 80007bc:	d018      	beq.n	80007f0 <FlashWrite+0x50>
      (FlashGetSector(addr+len-1) == FLASH_INVALID_SECTOR))
 80007be:	1928      	adds	r0, r5, r4
 80007c0:	3801      	subs	r0, #1
 80007c2:	f7ff fef1 	bl	80005a8 <FlashGetSector>
  if ((FlashGetSector(addr) == FLASH_INVALID_SECTOR) || \
 80007c6:	28ff      	cmp	r0, #255	; 0xff
 80007c8:	d014      	beq.n	80007f4 <FlashWrite+0x54>
  base_addr = (addr/FLASH_WRITE_BLOCK_SIZE)*FLASH_WRITE_BLOCK_SIZE;
 80007ca:	4b0c      	ldr	r3, [pc, #48]	; (80007fc <FlashWrite+0x5c>)
 80007cc:	4023      	ands	r3, r4
  if (base_addr == flashLayout[0].sector_start)
 80007ce:	4a0c      	ldr	r2, [pc, #48]	; (8000800 <FlashWrite+0x60>)
 80007d0:	4293      	cmp	r3, r2
 80007d2:	d006      	beq.n	80007e2 <FlashWrite+0x42>
  return FlashAddToBlock(&blockInfo, addr, data, len);
 80007d4:	462b      	mov	r3, r5
 80007d6:	4632      	mov	r2, r6
 80007d8:	4621      	mov	r1, r4
 80007da:	480a      	ldr	r0, [pc, #40]	; (8000804 <FlashWrite+0x64>)
 80007dc:	f7ff ff62 	bl	80006a4 <FlashAddToBlock>
 80007e0:	e7e5      	b.n	80007ae <FlashWrite+0xe>
    return FlashAddToBlock(&bootBlockInfo, addr, data, len);
 80007e2:	462b      	mov	r3, r5
 80007e4:	4632      	mov	r2, r6
 80007e6:	4621      	mov	r1, r4
 80007e8:	4807      	ldr	r0, [pc, #28]	; (8000808 <FlashWrite+0x68>)
 80007ea:	f7ff ff5b 	bl	80006a4 <FlashAddToBlock>
 80007ee:	e7de      	b.n	80007ae <FlashWrite+0xe>
    return BLT_FALSE;
 80007f0:	2000      	movs	r0, #0
 80007f2:	e7dc      	b.n	80007ae <FlashWrite+0xe>
 80007f4:	2000      	movs	r0, #0
 80007f6:	e7da      	b.n	80007ae <FlashWrite+0xe>
 80007f8:	081fffff 	.word	0x081fffff
 80007fc:	fffffe00 	.word	0xfffffe00
 8000800:	08008000 	.word	0x08008000
 8000804:	20000068 	.word	0x20000068
 8000808:	2000026c 	.word	0x2000026c

0800080c <FlashErase>:
  if ((len - 1) > (FLASH_END_ADDRESS - addr))
 800080c:	1e4a      	subs	r2, r1, #1
 800080e:	4b0d      	ldr	r3, [pc, #52]	; (8000844 <FlashErase+0x38>)
 8000810:	1a1b      	subs	r3, r3, r0
 8000812:	429a      	cmp	r2, r3
 8000814:	d901      	bls.n	800081a <FlashErase+0xe>
    return BLT_FALSE;
 8000816:	2000      	movs	r0, #0
} /*** end of FlashErase ***/
 8000818:	4770      	bx	lr
{
 800081a:	b570      	push	{r4, r5, r6, lr}
 800081c:	460c      	mov	r4, r1
 800081e:	4605      	mov	r5, r0
  first_sector = FlashGetSector(addr);
 8000820:	f7ff fec2 	bl	80005a8 <FlashGetSector>
 8000824:	4606      	mov	r6, r0
  last_sector  = FlashGetSector(addr+len-1);
 8000826:	1960      	adds	r0, r4, r5
 8000828:	3801      	subs	r0, #1
 800082a:	f7ff febd 	bl	80005a8 <FlashGetSector>
  if ((first_sector == FLASH_INVALID_SECTOR) || (last_sector == FLASH_INVALID_SECTOR))
 800082e:	28ff      	cmp	r0, #255	; 0xff
 8000830:	bf18      	it	ne
 8000832:	2eff      	cmpne	r6, #255	; 0xff
 8000834:	d101      	bne.n	800083a <FlashErase+0x2e>
    return BLT_FALSE;
 8000836:	2000      	movs	r0, #0
} /*** end of FlashErase ***/
 8000838:	bd70      	pop	{r4, r5, r6, pc}
  return FlashEraseSectors(first_sector, last_sector);
 800083a:	4601      	mov	r1, r0
 800083c:	4630      	mov	r0, r6
 800083e:	f7ff ff75 	bl	800072c <FlashEraseSectors>
 8000842:	e7f9      	b.n	8000838 <FlashErase+0x2c>
 8000844:	081fffff 	.word	0x081fffff

08000848 <FlashWriteChecksum>:
  if (bootBlockInfo.base_addr == FLASH_INVALID_ADDRESS)
 8000848:	4b10      	ldr	r3, [pc, #64]	; (800088c <FlashWriteChecksum+0x44>)
 800084a:	681b      	ldr	r3, [r3, #0]
 800084c:	f1b3 3fff 	cmp.w	r3, #4294967295	; 0xffffffff
 8000850:	d01a      	beq.n	8000888 <FlashWriteChecksum+0x40>
{
 8000852:	b500      	push	{lr}
 8000854:	b083      	sub	sp, #12
  signature_checksum += *((blt_int32u *)(&bootBlockInfo.data[0+0x00]));
 8000856:	4a0d      	ldr	r2, [pc, #52]	; (800088c <FlashWriteChecksum+0x44>)
 8000858:	6853      	ldr	r3, [r2, #4]
  signature_checksum += *((blt_int32u *)(&bootBlockInfo.data[0+0x04]));
 800085a:	6891      	ldr	r1, [r2, #8]
 800085c:	440b      	add	r3, r1
  signature_checksum += *((blt_int32u *)(&bootBlockInfo.data[0+0x08]));
 800085e:	68d1      	ldr	r1, [r2, #12]
 8000860:	440b      	add	r3, r1
  signature_checksum += *((blt_int32u *)(&bootBlockInfo.data[0+0x0C]));
 8000862:	6911      	ldr	r1, [r2, #16]
 8000864:	440b      	add	r3, r1
  signature_checksum += *((blt_int32u *)(&bootBlockInfo.data[0+0x10]));
 8000866:	6951      	ldr	r1, [r2, #20]
 8000868:	440b      	add	r3, r1
  signature_checksum += *((blt_int32u *)(&bootBlockInfo.data[0+0x14]));
 800086a:	6991      	ldr	r1, [r2, #24]
 800086c:	440b      	add	r3, r1
  signature_checksum += *((blt_int32u *)(&bootBlockInfo.data[0+0x18]));
 800086e:	69d2      	ldr	r2, [r2, #28]
 8000870:	4413      	add	r3, r2
  signature_checksum += 1; /* two's complement */
 8000872:	425b      	negs	r3, r3
 8000874:	aa02      	add	r2, sp, #8
 8000876:	f842 3d04 	str.w	r3, [r2, #-4]!
  return FlashWrite(flashLayout[0].sector_start+BOOT_FLASH_VECTOR_TABLE_CS_OFFSET,
 800087a:	2104      	movs	r1, #4
 800087c:	4804      	ldr	r0, [pc, #16]	; (8000890 <FlashWriteChecksum+0x48>)
 800087e:	f7ff ff8f 	bl	80007a0 <FlashWrite>
} /*** end of FlashWriteChecksum ***/
 8000882:	b003      	add	sp, #12
 8000884:	f85d fb04 	ldr.w	pc, [sp], #4
    return BLT_TRUE;
 8000888:	2001      	movs	r0, #1
} /*** end of FlashWriteChecksum ***/
 800088a:	4770      	bx	lr
 800088c:	2000026c 	.word	0x2000026c
 8000890:	080081f8 	.word	0x080081f8

08000894 <FlashVerifyChecksum>:
  signature_checksum += *((blt_int32u *)(flashLayout[0].sector_start));
 8000894:	4b0d      	ldr	r3, [pc, #52]	; (80008cc <FlashVerifyChecksum+0x38>)
 8000896:	681b      	ldr	r3, [r3, #0]
  signature_checksum += *((blt_int32u *)(flashLayout[0].sector_start+0x04));
 8000898:	4a0d      	ldr	r2, [pc, #52]	; (80008d0 <FlashVerifyChecksum+0x3c>)
 800089a:	6812      	ldr	r2, [r2, #0]
 800089c:	441a      	add	r2, r3
  signature_checksum += *((blt_int32u *)(flashLayout[0].sector_start+0x08));
 800089e:	4b0d      	ldr	r3, [pc, #52]	; (80008d4 <FlashVerifyChecksum+0x40>)
 80008a0:	681b      	ldr	r3, [r3, #0]
 80008a2:	4413      	add	r3, r2
  signature_checksum += *((blt_int32u *)(flashLayout[0].sector_start+0x0C));
 80008a4:	4a0c      	ldr	r2, [pc, #48]	; (80008d8 <FlashVerifyChecksum+0x44>)
 80008a6:	6812      	ldr	r2, [r2, #0]
 80008a8:	4413      	add	r3, r2
  signature_checksum += *((blt_int32u *)(flashLayout[0].sector_start+0x10));
 80008aa:	4a0c      	ldr	r2, [pc, #48]	; (80008dc <FlashVerifyChecksum+0x48>)
 80008ac:	6812      	ldr	r2, [r2, #0]
 80008ae:	441a      	add	r2, r3
  signature_checksum += *((blt_int32u *)(flashLayout[0].sector_start+0x14));
 80008b0:	4b0b      	ldr	r3, [pc, #44]	; (80008e0 <FlashVerifyChecksum+0x4c>)
 80008b2:	681b      	ldr	r3, [r3, #0]
 80008b4:	441a      	add	r2, r3
  signature_checksum += *((blt_int32u *)(flashLayout[0].sector_start+0x18));
 80008b6:	4b0b      	ldr	r3, [pc, #44]	; (80008e4 <FlashVerifyChecksum+0x50>)
 80008b8:	681b      	ldr	r3, [r3, #0]
 80008ba:	4413      	add	r3, r2
  signature_checksum += *((blt_int32u *)(flashLayout[0].sector_start+BOOT_FLASH_VECTOR_TABLE_CS_OFFSET));
 80008bc:	4a0a      	ldr	r2, [pc, #40]	; (80008e8 <FlashVerifyChecksum+0x54>)
 80008be:	6812      	ldr	r2, [r2, #0]
  if (signature_checksum == 0)
 80008c0:	42da      	cmn	r2, r3
 80008c2:	d001      	beq.n	80008c8 <FlashVerifyChecksum+0x34>
  return BLT_FALSE;
 80008c4:	2000      	movs	r0, #0
} /*** end of FlashVerifyChecksum ***/
 80008c6:	4770      	bx	lr
    return BLT_TRUE;
 80008c8:	2001      	movs	r0, #1
 80008ca:	4770      	bx	lr
 80008cc:	08008000 	.word	0x08008000
 80008d0:	08008004 	.word	0x08008004
 80008d4:	08008008 	.word	0x08008008
 80008d8:	0800800c 	.word	0x0800800c
 80008dc:	08008010 	.word	0x08008010
 80008e0:	08008014 	.word	0x08008014
 80008e4:	08008018 	.word	0x08008018
 80008e8:	080081f8 	.word	0x080081f8

080008ec <FlashDone>:
{
 80008ec:	b508      	push	{r3, lr}
  if (bootBlockInfo.base_addr != FLASH_INVALID_ADDRESS)
 80008ee:	4b0d      	ldr	r3, [pc, #52]	; (8000924 <FlashDone+0x38>)
 80008f0:	681b      	ldr	r3, [r3, #0]
 80008f2:	f1b3 3fff 	cmp.w	r3, #4294967295	; 0xffffffff
 80008f6:	d10b      	bne.n	8000910 <FlashDone+0x24>
  if (blockInfo.base_addr != FLASH_INVALID_ADDRESS)
 80008f8:	4b0b      	ldr	r3, [pc, #44]	; (8000928 <FlashDone+0x3c>)
 80008fa:	681b      	ldr	r3, [r3, #0]
 80008fc:	f1b3 3fff 	cmp.w	r3, #4294967295	; 0xffffffff
 8000900:	d00d      	beq.n	800091e <FlashDone+0x32>
    if (FlashWriteBlock(&blockInfo) == BLT_FALSE)
 8000902:	4809      	ldr	r0, [pc, #36]	; (8000928 <FlashDone+0x3c>)
 8000904:	f7ff fe85 	bl	8000612 <FlashWriteBlock>
 8000908:	4603      	mov	r3, r0
 800090a:	b148      	cbz	r0, 8000920 <FlashDone+0x34>
  return BLT_TRUE;
 800090c:	2301      	movs	r3, #1
 800090e:	e007      	b.n	8000920 <FlashDone+0x34>
    if (FlashWriteBlock(&bootBlockInfo) == BLT_FALSE)
 8000910:	4804      	ldr	r0, [pc, #16]	; (8000924 <FlashDone+0x38>)
 8000912:	f7ff fe7e 	bl	8000612 <FlashWriteBlock>
 8000916:	4603      	mov	r3, r0
 8000918:	2800      	cmp	r0, #0
 800091a:	d1ed      	bne.n	80008f8 <FlashDone+0xc>
 800091c:	e000      	b.n	8000920 <FlashDone+0x34>
  return BLT_TRUE;
 800091e:	2301      	movs	r3, #1
} /*** end of FlashDone ***/
 8000920:	4618      	mov	r0, r3
 8000922:	bd08      	pop	{r3, pc}
 8000924:	2000026c 	.word	0x2000026c
 8000928:	20000068 	.word	0x20000068

0800092c <FlashGetUserProgBaseAddress>:
} /*** end of FlashGetUserProgBaseAddress ***/
 800092c:	4800      	ldr	r0, [pc, #0]	; (8000930 <FlashGetUserProgBaseAddress+0x4>)
 800092e:	4770      	bx	lr
 8000930:	08008000 	.word	0x08008000

08000934 <NvmInit>:
** \brief     Initializes the NVM driver.
** \return    none.
**
****************************************************************************************/
void NvmInit(void)
{
 8000934:	b508      	push	{r3, lr}
   */
  NvmInitHook();
#endif

  /* init the internal driver */
  FlashInit();
 8000936:	f7ff ff27 	bl	8000788 <FlashInit>
} /*** end of NvmInit ***/
 800093a:	bd08      	pop	{r3, pc}

0800093c <NvmWrite>:
** \param     data Pointer to the data buffer.
** \return    BLT_TRUE if successful, BLT_FALSE otherwise.
**
****************************************************************************************/
blt_bool NvmWrite(blt_addr addr, blt_int32u len, blt_int8u *data)
{
 800093c:	b508      	push	{r3, lr}
    return BLT_FALSE;
  }
#endif

  /* still here so the internal driver should try and perform the program operation */
  return FlashWrite(addr, len, data);
 800093e:	f7ff ff2f 	bl	80007a0 <FlashWrite>
} /*** end of NvmWrite ***/
 8000942:	bd08      	pop	{r3, pc}

08000944 <NvmErase>:
** \param     len  Length in bytes.
** \return    BLT_TRUE if successful, BLT_FALSE otherwise.
**
****************************************************************************************/
blt_bool NvmErase(blt_addr addr, blt_int32u len)
{
 8000944:	b508      	push	{r3, lr}
    return BLT_FALSE;
  }
#endif

  /* still here so the internal driver should try and perform the erase operation */
  return FlashErase(addr, len);
 8000946:	f7ff ff61 	bl	800080c <FlashErase>
} /*** end of NvmErase ***/
 800094a:	bd08      	pop	{r3, pc}

0800094c <NvmVerifyChecksum>:
**            present and can be started.
** \return    BLT_TRUE if successful, BLT_FALSE otherwise.
**
****************************************************************************************/
blt_bool NvmVerifyChecksum(void)
{
 800094c:	b508      	push	{r3, lr}
#if (BOOT_NVM_CHECKSUM_HOOKS_ENABLE > 0)
  /* check checksum using the application specific method. */
  return NvmVerifyChecksumHook();
#else
  /* check checksum using the interally supported method. */
  return FlashVerifyChecksum();
 800094e:	f7ff ffa1 	bl	8000894 <FlashVerifyChecksum>
#endif
} /*** end of NvmVerifyChecksum ***/
 8000952:	bd08      	pop	{r3, pc}

08000954 <NvmGetUserProgBaseAddress>:
**            program. This is typically that start of the vector table.
** \return    Base address.
**
****************************************************************************************/
blt_addr NvmGetUserProgBaseAddress(void)
{
 8000954:	b508      	push	{r3, lr}
  return FlashGetUserProgBaseAddress();
 8000956:	f7ff ffe9 	bl	800092c <FlashGetUserProgBaseAddress>
} /*** end of NvmGetUserProgBaseAddress ***/
 800095a:	bd08      	pop	{r3, pc}

0800095c <NvmDone>:
**            to determine if a valid user program is present in flash.
** \return    BLT_TRUE if successful, BLT_FALSE otherwise.
**
****************************************************************************************/
blt_bool NvmDone(void)
{
 800095c:	b508      	push	{r3, lr}
  {
    return BLT_FALSE;
  }
#else
  /* compute and write checksum, which is programmed by the internal driver. */
  if (FlashWriteChecksum() == BLT_FALSE)
 800095e:	f7ff ff73 	bl	8000848 <FlashWriteChecksum>
 8000962:	4603      	mov	r3, r0
 8000964:	b908      	cbnz	r0, 800096a <NvmDone+0xe>
  }
#endif

  /* finish up internal driver operations */
  return FlashDone();
} /*** end of NvmDone ***/
 8000966:	4618      	mov	r0, r3
 8000968:	bd08      	pop	{r3, pc}
  return FlashDone();
 800096a:	f7ff ffbf 	bl	80008ec <FlashDone>
 800096e:	4603      	mov	r3, r0
 8000970:	e7f9      	b.n	8000966 <NvmDone+0xa>
	...

08000974 <TimerReset>:
**
****************************************************************************************/
void TimerReset(void)
{
  /* Set the systick's status and control register back into the default reset value. */
	  SysTick->CTRL = 0;
 8000974:	4b02      	ldr	r3, [pc, #8]	; (8000980 <TimerReset+0xc>)
 8000976:	2200      	movs	r2, #0
 8000978:	601a      	str	r2, [r3, #0]
	  SysTick->LOAD = 0;
 800097a:	605a      	str	r2, [r3, #4]
	  SysTick->VAL = 0;
 800097c:	609a      	str	r2, [r3, #8]

} /* end of TimerReset */
 800097e:	4770      	bx	lr
 8000980:	e000e010 	.word	0xe000e010

08000984 <TimerInit>:
{
 8000984:	b508      	push	{r3, lr}
  TimerReset();
 8000986:	f7ff fff5 	bl	8000974 <TimerReset>
  SysTick->LOAD = BOOT_CPU_SYSTEM_SPEED_KHZ - 1;
 800098a:	4b05      	ldr	r3, [pc, #20]	; (80009a0 <TimerInit+0x1c>)
 800098c:	4a05      	ldr	r2, [pc, #20]	; (80009a4 <TimerInit+0x20>)
 800098e:	605a      	str	r2, [r3, #4]
  SysTick->VAL = 0;
 8000990:	2200      	movs	r2, #0
 8000992:	609a      	str	r2, [r3, #8]
  SysTick->CTRL = SysTick_CTRL_CLKSOURCE_Msk | SysTick_CTRL_ENABLE_Msk;
 8000994:	2105      	movs	r1, #5
 8000996:	6019      	str	r1, [r3, #0]
  millisecond_counter = 0;
 8000998:	4b03      	ldr	r3, [pc, #12]	; (80009a8 <TimerInit+0x24>)
 800099a:	601a      	str	r2, [r3, #0]
} /*** end of TimerInit ***/
 800099c:	bd08      	pop	{r3, pc}
 800099e:	bf00      	nop
 80009a0:	e000e010 	.word	0xe000e010
 80009a4:	00034bbf 	.word	0x00034bbf
 80009a8:	20000470 	.word	0x20000470

080009ac <TimerUpdate>:
**
****************************************************************************************/
void TimerUpdate(void)
{
  /* Check if the millisecond event occurred. */
  if ((SysTick->CTRL & SysTick_CTRL_COUNTFLAG_Msk) != 0)
 80009ac:	4b04      	ldr	r3, [pc, #16]	; (80009c0 <TimerUpdate+0x14>)
 80009ae:	681b      	ldr	r3, [r3, #0]
 80009b0:	f413 3f80 	tst.w	r3, #65536	; 0x10000
 80009b4:	d003      	beq.n	80009be <TimerUpdate+0x12>
  {
    /* Increment the millisecond counter. */
    millisecond_counter++;
 80009b6:	4a03      	ldr	r2, [pc, #12]	; (80009c4 <TimerUpdate+0x18>)
 80009b8:	6813      	ldr	r3, [r2, #0]
 80009ba:	3301      	adds	r3, #1
 80009bc:	6013      	str	r3, [r2, #0]
  }
} /*** end of TimerUpdate ***/
 80009be:	4770      	bx	lr
 80009c0:	e000e010 	.word	0xe000e010
 80009c4:	20000470 	.word	0x20000470

080009c8 <TimerGet>:
** \brief     Obtains the counter value of the millisecond timer.
** \return    Current value of the millisecond timer.
**
****************************************************************************************/
blt_int32u TimerGet(void)
{
 80009c8:	b508      	push	{r3, lr}
  /* Updating timer here allows this function to be called in a loop with timeout
   * detection.
   */
  TimerUpdate();
 80009ca:	f7ff ffef 	bl	80009ac <TimerUpdate>
  /* Read and return the amount of milliseconds that passed since initialization. */
  return millisecond_counter;
} /*** end of TimerGet ***/
 80009ce:	4b01      	ldr	r3, [pc, #4]	; (80009d4 <TimerGet+0xc>)
 80009d0:	6818      	ldr	r0, [r3, #0]
 80009d2:	bd08      	pop	{r3, pc}
 80009d4:	20000470 	.word	0x20000470

080009d8 <HAL_GetTick>:
**            tick functionality works in polling mode.
** \return    Current value of the millisecond timer.
**
****************************************************************************************/
uint32_t HAL_GetTick(void)
{
 80009d8:	b508      	push	{r3, lr}
  /* Link to the bootloader's 1ms timer. */
  return TimerGet();
 80009da:	f7ff fff5 	bl	80009c8 <TimerGet>
} /*** end of HAL_GetTick ***/
 80009de:	bd08      	pop	{r3, pc}

080009e0 <SysTick_Handler>:
**
****************************************************************************************/
void SysTick_Handler(void)
{
  /* Nothing to do here. */
} /*** end of SysTick_Handler ***/
 80009e0:	4770      	bx	lr

080009e2 <AssertFailure>:
** \param     line   Linenumber in the source file where the assertion occurred.
** \return    none
**
****************************************************************************************/
void AssertFailure(blt_char *file, blt_int32u line)
{
 80009e2:	b508      	push	{r3, lr}
  /* hang the software so that it requires a hard reset */
  for (;;)
  {
    /* keep servicing the watchdog so that this one does not cause a reset */
    CopService();
 80009e4:	f000 f8c2 	bl	8000b6c <CopService>
 80009e8:	e7fc      	b.n	80009e4 <AssertFailure+0x2>
	...

080009ec <BackDoorCheck>:
**            controls the opening/closing of the backdoor.
** \return    none
**
****************************************************************************************/
void BackDoorCheck(void)
{
 80009ec:	b508      	push	{r3, lr}
#if (BOOT_BACKDOOR_HOOKS_ENABLE == 0)
#if (BOOT_COM_ENABLE > 0)
  /* check if a connection with the host was already established. in this case the
   * backdoor stays open anyway, so no need to check if it needs to be closed.
   */
  if (ComIsConnected() == BLT_TRUE)
 80009ee:	f000 f8a5 	bl	8000b3c <ComIsConnected>
 80009f2:	2801      	cmp	r0, #1
 80009f4:	d003      	beq.n	80009fe <BackDoorCheck+0x12>
    return;
  }
#endif

  /* when the backdoor is still open, check if it's time to close it */
  if (backdoorOpen == BLT_TRUE)
 80009f6:	4b0b      	ldr	r3, [pc, #44]	; (8000a24 <BackDoorCheck+0x38>)
 80009f8:	781b      	ldrb	r3, [r3, #0]
 80009fa:	2b01      	cmp	r3, #1
 80009fc:	d000      	beq.n	8000a00 <BackDoorCheck+0x14>
   		CpuStartUserProgram();
      }
    }
  }
#endif
} /*** end of BackDoorCheck ***/
 80009fe:	bd08      	pop	{r3, pc}
    if (TimerGet() >= (BOOT_BACKDOOR_ENTRY_TIMEOUT_MS + backdoorExtensionTime + backdoorOpenTime))
 8000a00:	f7ff ffe2 	bl	80009c8 <TimerGet>
 8000a04:	4b08      	ldr	r3, [pc, #32]	; (8000a28 <BackDoorCheck+0x3c>)
 8000a06:	681b      	ldr	r3, [r3, #0]
 8000a08:	4a08      	ldr	r2, [pc, #32]	; (8000a2c <BackDoorCheck+0x40>)
 8000a0a:	6812      	ldr	r2, [r2, #0]
 8000a0c:	4413      	add	r3, r2
 8000a0e:	f503 63fa 	add.w	r3, r3, #2000	; 0x7d0
 8000a12:	4298      	cmp	r0, r3
 8000a14:	d3f3      	bcc.n	80009fe <BackDoorCheck+0x12>
      backdoorOpen = BLT_FALSE;
 8000a16:	4b03      	ldr	r3, [pc, #12]	; (8000a24 <BackDoorCheck+0x38>)
 8000a18:	2200      	movs	r2, #0
 8000a1a:	701a      	strb	r2, [r3, #0]
   		CpuStartUserProgram();
 8000a1c:	f7ff fd94 	bl	8000548 <CpuStartUserProgram>
 8000a20:	e7ed      	b.n	80009fe <BackDoorCheck+0x12>
 8000a22:	bf00      	nop
 8000a24:	20000478 	.word	0x20000478
 8000a28:	20000474 	.word	0x20000474
 8000a2c:	2000047c 	.word	0x2000047c

08000a30 <BackDoorSetExtension>:
**
****************************************************************************************/
void BackDoorSetExtension(blt_int32u extension_ms)
{
  /* update the extension time */
  backdoorExtensionTime = extension_ms;
 8000a30:	4b01      	ldr	r3, [pc, #4]	; (8000a38 <BackDoorSetExtension+0x8>)
 8000a32:	6018      	str	r0, [r3, #0]
} /*** end of BackDoorSetExtension ***/
 8000a34:	4770      	bx	lr
 8000a36:	bf00      	nop
 8000a38:	20000474 	.word	0x20000474

08000a3c <BackDoorGetExtension>:
****************************************************************************************/
blt_int32u BackDoorGetExtension(void)
{
  /* read out and reutrn the currently configured extension time */
  return backdoorExtensionTime;
} /*** end of BackDoorGetExtension ***/
 8000a3c:	4b01      	ldr	r3, [pc, #4]	; (8000a44 <BackDoorGetExtension+0x8>)
 8000a3e:	6818      	ldr	r0, [r3, #0]
 8000a40:	4770      	bx	lr
 8000a42:	bf00      	nop
 8000a44:	20000474 	.word	0x20000474

08000a48 <BackDoorRestartTimer>:
**            called.
** \return    none
**
****************************************************************************************/
void BackDoorRestartTimer(void)
{
 8000a48:	b508      	push	{r3, lr}
  /* only restart the time if the backdoor is actually still open */
  if (backdoorOpen == BLT_TRUE)
 8000a4a:	4b05      	ldr	r3, [pc, #20]	; (8000a60 <BackDoorRestartTimer+0x18>)
 8000a4c:	781b      	ldrb	r3, [r3, #0]
 8000a4e:	2b01      	cmp	r3, #1
 8000a50:	d000      	beq.n	8000a54 <BackDoorRestartTimer+0xc>
  {
    backdoorOpenTime = TimerGet();
  }
} /*** end of BackDoorRestartTimer ***/
 8000a52:	bd08      	pop	{r3, pc}
    backdoorOpenTime = TimerGet();
 8000a54:	f7ff ffb8 	bl	80009c8 <TimerGet>
 8000a58:	4b02      	ldr	r3, [pc, #8]	; (8000a64 <BackDoorRestartTimer+0x1c>)
 8000a5a:	6018      	str	r0, [r3, #0]
} /*** end of BackDoorRestartTimer ***/
 8000a5c:	e7f9      	b.n	8000a52 <BackDoorRestartTimer+0xa>
 8000a5e:	bf00      	nop
 8000a60:	20000478 	.word	0x20000478
 8000a64:	2000047c 	.word	0x2000047c

08000a68 <BackDoorInit>:
{
 8000a68:	b508      	push	{r3, lr}
  backdoorOpen = BLT_TRUE;
 8000a6a:	4b04      	ldr	r3, [pc, #16]	; (8000a7c <BackDoorInit+0x14>)
 8000a6c:	2201      	movs	r2, #1
 8000a6e:	701a      	strb	r2, [r3, #0]
  BackDoorRestartTimer();
 8000a70:	f7ff ffea 	bl	8000a48 <BackDoorRestartTimer>
  BackDoorCheck();
 8000a74:	f7ff ffba 	bl	80009ec <BackDoorCheck>
} /*** end of BackDoorInit ***/
 8000a78:	bd08      	pop	{r3, pc}
 8000a7a:	bf00      	nop
 8000a7c:	20000478 	.word	0x20000478

08000a80 <BootInit>:
** \brief     Initializes the bootloader core.
** \return    none
**
****************************************************************************************/
void BootInit(void)
{
 8000a80:	b508      	push	{r3, lr}
  /* initialize the CPU */
  CpuInit();
 8000a82:	f7ff fd5d 	bl	8000540 <CpuInit>
  /* initialize the watchdog */
  CopInit();
 8000a86:	f000 f86d 	bl	8000b64 <CopInit>
  /* initialize the millisecond timer */
  TimerInit();
 8000a8a:	f7ff ff7b 	bl	8000984 <TimerInit>
  /* initialize the non-volatile memory driver */
  NvmInit();
 8000a8e:	f7ff ff51 	bl	8000934 <NvmInit>
  /* initialize the file system module */
  FileInit();
#endif
#if (BOOT_COM_ENABLE > 0)
  /* initialize the communication module */
  ComInit();
 8000a92:	f000 f80d 	bl	8000ab0 <ComInit>
#if (ADDON_GATEWAY_MOD_ENABLE > 0)
  /* initialize the gateway module */
  GatewayInit();
#endif
  /* initialize the backdoor entry */
  BackDoorInit();
 8000a96:	f7ff ffe7 	bl	8000a68 <BackDoorInit>
} /*** end of BootInit ***/
 8000a9a:	bd08      	pop	{r3, pc}

08000a9c <BootTask>:
** \brief     Task function of the bootloader core that drives the program.
** \return    none
**
****************************************************************************************/
void BootTask(void)
{
 8000a9c:	b508      	push	{r3, lr}
  /* service the watchdog */
  CopService();
 8000a9e:	f000 f865 	bl	8000b6c <CopService>
  /* update the millisecond timer */
  TimerUpdate();
 8000aa2:	f7ff ff83 	bl	80009ac <TimerUpdate>
  /* call worker task for updating firmware from locally attached file storage */
  FileTask();
#endif /* BOOT_FILE_SYS_ENABLE > 0 */
#if (BOOT_COM_ENABLE > 0)
  /* process possibly pending communication data */
  ComTask();
 8000aa6:	f000 f807 	bl	8000ab8 <ComTask>
#if (ADDON_GATEWAY_MOD_ENABLE > 0)
  /* run the gateway */
  GatewayTask();
#endif
  /* control the backdoor */
  BackDoorCheck();
 8000aaa:	f7ff ff9f 	bl	80009ec <BackDoorCheck>
} /*** end of BootTask ***/
 8000aae:	bd08      	pop	{r3, pc}

08000ab0 <ComInit>:
**            the communication.
** \return    none
**
****************************************************************************************/
void ComInit(void)
{
 8000ab0:	b508      	push	{r3, lr}
  /* initialize the XCP communication protocol */
  XcpInit();
 8000ab2:	f000 fb55 	bl	8001160 <XcpInit>
  NetInit();
  /* set it as active */
  comActiveInterface = COM_IF_NET;
  #endif
#endif
} /*** end of ComInit ***/
 8000ab6:	bd08      	pop	{r3, pc}

08000ab8 <ComTask>:
**            and submitting the request to process newly received data.
** \return    none
**
****************************************************************************************/
void ComTask(void)
{
 8000ab8:	b500      	push	{lr}
 8000aba:	b083      	sub	sp, #12
    /* process packet */
    XcpPacketReceived(&xcpCtoReqPacket[0], xcpPacketLen);
  }
#endif
#if (BOOT_COM_NET_ENABLE > 0)
  if (NetReceivePacket(&xcpCtoReqPacket[0], &xcpPacketLen) == BLT_TRUE)
 8000abc:	f10d 0107 	add.w	r1, sp, #7
 8000ac0:	4808      	ldr	r0, [pc, #32]	; (8000ae4 <ComTask+0x2c>)
 8000ac2:	f000 f97b 	bl	8000dbc <NetReceivePacket>
 8000ac6:	2801      	cmp	r0, #1
 8000ac8:	d002      	beq.n	8000ad0 <ComTask+0x18>
    comActiveInterface = COM_IF_NET;
    /* process packet */
    XcpPacketReceived(&xcpCtoReqPacket[0], xcpPacketLen);
  }
#endif
} /*** end of ComTask ***/
 8000aca:	b003      	add	sp, #12
 8000acc:	f85d fb04 	ldr.w	pc, [sp], #4
    comActiveInterface = COM_IF_NET;
 8000ad0:	4b05      	ldr	r3, [pc, #20]	; (8000ae8 <ComTask+0x30>)
 8000ad2:	2203      	movs	r2, #3
 8000ad4:	701a      	strb	r2, [r3, #0]
    XcpPacketReceived(&xcpCtoReqPacket[0], xcpPacketLen);
 8000ad6:	f89d 1007 	ldrb.w	r1, [sp, #7]
 8000ada:	4802      	ldr	r0, [pc, #8]	; (8000ae4 <ComTask+0x2c>)
 8000adc:	f000 fb60 	bl	80011a0 <XcpPacketReceived>
} /*** end of ComTask ***/
 8000ae0:	e7f3      	b.n	8000aca <ComTask+0x12>
 8000ae2:	bf00      	nop
 8000ae4:	20000480 	.word	0x20000480
 8000ae8:	20000040 	.word	0x20000040

08000aec <ComFree>:
{
#if (BOOT_COM_USB_ENABLE > 0)
  /* disconnect the usb device from the usb host */
  UsbFree();
#endif
} /*** end of ComFree ***/
 8000aec:	4770      	bx	lr
	...

08000af0 <ComTransmitPacket>:
** \param     len  Number of data bytes that need to be transmitted.
** \return    none
**
****************************************************************************************/
void ComTransmitPacket(blt_int8u *data, blt_int16u len)
{
 8000af0:	b508      	push	{r3, lr}
  {
    UsbTransmitPacket(data, len);
  }
#endif
#if (BOOT_COM_NET_ENABLE > 0)
  if (comActiveInterface == COM_IF_NET)
 8000af2:	4b05      	ldr	r3, [pc, #20]	; (8000b08 <ComTransmitPacket+0x18>)
 8000af4:	781b      	ldrb	r3, [r3, #0]
 8000af6:	2b03      	cmp	r3, #3
 8000af8:	d002      	beq.n	8000b00 <ComTransmitPacket+0x10>
    NetTransmitPacket(data, len);
  }
#endif

  /* send signal that the packet was transmitted */
  XcpPacketTransmitted();
 8000afa:	f000 fb49 	bl	8001190 <XcpPacketTransmitted>
} /*** end of ComTransmitPacket ***/
 8000afe:	bd08      	pop	{r3, pc}
    NetTransmitPacket(data, len);
 8000b00:	b2c9      	uxtb	r1, r1
 8000b02:	f000 f937 	bl	8000d74 <NetTransmitPacket>
 8000b06:	e7f8      	b.n	8000afa <ComTransmitPacket+0xa>
 8000b08:	20000040 	.word	0x20000040

08000b0c <ComGetActiveInterfaceMaxRxLen>:
blt_int16u ComGetActiveInterfaceMaxRxLen(void)
{
  blt_int16u result;

  /* filter on communication interface identifier */
  switch (comActiveInterface)
 8000b0c:	4b04      	ldr	r3, [pc, #16]	; (8000b20 <ComGetActiveInterfaceMaxRxLen+0x14>)
 8000b0e:	781b      	ldrb	r3, [r3, #0]
 8000b10:	3b01      	subs	r3, #1
 8000b12:	2b01      	cmp	r3, #1
 8000b14:	d901      	bls.n	8000b1a <ComGetActiveInterfaceMaxRxLen+0xe>
  {
    case COM_IF_RS232:
      result = BOOT_COM_RS232_RX_MAX_DATA;
 8000b16:	2040      	movs	r0, #64	; 0x40
 8000b18:	4770      	bx	lr
      break;

    case COM_IF_CAN:
      result = BOOT_COM_CAN_RX_MAX_DATA;
 8000b1a:	2000      	movs	r0, #0
      result = BOOT_COM_RX_MAX_DATA;
      break;
  }

  return result;
} /*** end of ComGetActiveInterfaceMaxRxLen ***/
 8000b1c:	4770      	bx	lr
 8000b1e:	bf00      	nop
 8000b20:	20000040 	.word	0x20000040

08000b24 <ComGetActiveInterfaceMaxTxLen>:
blt_int16u ComGetActiveInterfaceMaxTxLen(void)
{
  blt_int16u result;

  /* filter on communication interface identifier */
  switch (comActiveInterface)
 8000b24:	4b04      	ldr	r3, [pc, #16]	; (8000b38 <ComGetActiveInterfaceMaxTxLen+0x14>)
 8000b26:	781b      	ldrb	r3, [r3, #0]
 8000b28:	3b01      	subs	r3, #1
 8000b2a:	2b01      	cmp	r3, #1
 8000b2c:	d901      	bls.n	8000b32 <ComGetActiveInterfaceMaxTxLen+0xe>
  {
    case COM_IF_RS232:
      result = BOOT_COM_RS232_TX_MAX_DATA;
 8000b2e:	2040      	movs	r0, #64	; 0x40
 8000b30:	4770      	bx	lr
      break;

    case COM_IF_CAN:
      result = BOOT_COM_CAN_TX_MAX_DATA;
 8000b32:	2000      	movs	r0, #0
      result = BOOT_COM_TX_MAX_DATA;
      break;
  }

  return result;
} /*** end of ComGetActiveInterfaceMaxTxLen ***/
 8000b34:	4770      	bx	lr
 8000b36:	bf00      	nop
 8000b38:	20000040 	.word	0x20000040

08000b3c <ComIsConnected>:
** \brief     This function obtains the XCP connection state.
** \return    BLT_TRUE when an XCP connection is established, BLT_FALSE otherwise.
**
****************************************************************************************/
blt_bool ComIsConnected(void)
{
 8000b3c:	b508      	push	{r3, lr}
  blt_bool result = BLT_FALSE;

  /* Is there an active XCP connection? This indicates that the communication interface
   * is in the connection state. 
   */  
  if (XcpIsConnected())
 8000b3e:	f000 fb1d 	bl	800117c <XcpIsConnected>
 8000b42:	4603      	mov	r3, r0
 8000b44:	b100      	cbz	r0, 8000b48 <ComIsConnected+0xc>
  {
    result = BLT_TRUE;
 8000b46:	2301      	movs	r3, #1
    result = BLT_TRUE;
  }
#endif
  /* give the result back to the caller. */
  return result;
} /*** end of ComIsConnected ***/
 8000b48:	4618      	mov	r0, r3
 8000b4a:	bd08      	pop	{r3, pc}

08000b4c <ComDeferredInit>:
**            a request.
** \return    none
**
****************************************************************************************/
void ComDeferredInit(void)
{
 8000b4c:	b508      	push	{r3, lr}
#if (BOOT_COM_NET_ENABLE > 0)
  #if (BOOT_COM_NET_DEFERRED_INIT_ENABLE == 1)
  /* perform deferred initialization the TCP/IP interface */
  NetDeferredInit();
 8000b4e:	f000 f901 	bl	8000d54 <NetDeferredInit>
  /* set it as active */
  comActiveInterface = COM_IF_NET;
 8000b52:	4b03      	ldr	r3, [pc, #12]	; (8000b60 <ComDeferredInit+0x14>)
 8000b54:	2203      	movs	r2, #3
 8000b56:	701a      	strb	r2, [r3, #0]
#if (BOOT_BACKDOOR_HOOKS_ENABLE == 0)
  /* the default internal timed backdoor mechanism should start its timer after the
   * communication interfaces are initialized. since a deferred initialization was now
   * performed, the backdoor timer should be restarted.
   */
  BackDoorRestartTimer();
 8000b58:	f7ff ff76 	bl	8000a48 <BackDoorRestartTimer>
#endif
} /*** end of ComDeferredInit ***/
 8000b5c:	bd08      	pop	{r3, pc}
 8000b5e:	bf00      	nop
 8000b60:	20000040 	.word	0x20000040

08000b64 <CopInit>:
** \brief     Watchdog initialization function.
** \return    none
**
****************************************************************************************/
void CopInit(void)
{
 8000b64:	b508      	push	{r3, lr}
#if (BOOT_COP_HOOKS_ENABLE > 0)
  CopInitHook();
 8000b66:	f001 fede 	bl	8002926 <CopInitHook>
#endif
} /*** end of CopInit ***/
 8000b6a:	bd08      	pop	{r3, pc}

08000b6c <CopService>:
** \brief     Watchdog service function to prevent the watchdog from timing out.
** \return    none
**
****************************************************************************************/
void CopService(void)
{
 8000b6c:	b508      	push	{r3, lr}
#if (BOOT_COP_HOOKS_ENABLE > 0)
  CopServiceHook();
 8000b6e:	f001 fedf 	bl	8002930 <CopServiceHook>
#endif
} /*** end of CopService ***/
 8000b72:	bd08      	pop	{r3, pc}

08000b74 <NetServerTask>:
** \brief     Runs the TCP/IP server task.
** \return    none.
**
****************************************************************************************/
static void NetServerTask(void)
{
 8000b74:	b510      	push	{r4, lr}
  blt_int32u connection;
  blt_int32u packetLen;

  /* check for an RX packet and read it. */
  packetLen = netdev_read();
 8000b76:	f003 fd95 	bl	80046a4 <netdev_read>
  if (packetLen > 0)
 8000b7a:	b9b8      	cbnz	r0, 8000bac <NetServerTask+0x38>
      }
    }
  }

  /* process TCP/IP Periodic Timer here. */
  if (TimerGet() >= periodicTimerTimeOut)
 8000b7c:	f7ff ff24 	bl	80009c8 <TimerGet>
 8000b80:	4b46      	ldr	r3, [pc, #280]	; (8000c9c <NetServerTask+0x128>)
 8000b82:	681b      	ldr	r3, [r3, #0]
 8000b84:	4298      	cmp	r0, r3
 8000b86:	d309      	bcc.n	8000b9c <NetServerTask+0x28>
  {
    periodicTimerTimeOut += NET_UIP_PERIODIC_TIMER_MS;
 8000b88:	f503 73fa 	add.w	r3, r3, #500	; 0x1f4
 8000b8c:	4a43      	ldr	r2, [pc, #268]	; (8000c9c <NetServerTask+0x128>)
 8000b8e:	6013      	str	r3, [r2, #0]
    for (connection = 0; connection < UIP_CONNS; connection++)
 8000b90:	2400      	movs	r4, #0
 8000b92:	2c00      	cmp	r4, #0
 8000b94:	d037      	beq.n	8000c06 <NetServerTask+0x92>
        uip_len = 0;
      }
    }

#if UIP_UDP
    for (connection = 0; connection < UIP_UDP_CONNS; connection++)
 8000b96:	2400      	movs	r4, #0
 8000b98:	2c00      	cmp	r4, #0
 8000b9a:	d04a      	beq.n	8000c32 <NetServerTask+0xbe>
    }
#endif
  }

  /* process ARP Timer here. */
  if (TimerGet() >= ARPTimerTimeOut)
 8000b9c:	f7ff ff14 	bl	80009c8 <TimerGet>
 8000ba0:	4b3f      	ldr	r3, [pc, #252]	; (8000ca0 <NetServerTask+0x12c>)
 8000ba2:	681b      	ldr	r3, [r3, #0]
 8000ba4:	4298      	cmp	r0, r3
 8000ba6:	d259      	bcs.n	8000c5c <NetServerTask+0xe8>
    for (connection = 0; connection < UIP_UDP_CONNS; connection++)
 8000ba8:	2400      	movs	r4, #0
 8000baa:	e060      	b.n	8000c6e <NetServerTask+0xfa>
    uip_len = (blt_int16u)packetLen;
 8000bac:	4a3d      	ldr	r2, [pc, #244]	; (8000ca4 <NetServerTask+0x130>)
 8000bae:	8010      	strh	r0, [r2, #0]
    if (NET_UIP_HEADER_BUF->type == htons(UIP_ETHTYPE_IP))
 8000bb0:	4b3d      	ldr	r3, [pc, #244]	; (8000ca8 <NetServerTask+0x134>)
 8000bb2:	899c      	ldrh	r4, [r3, #12]
 8000bb4:	f44f 6000 	mov.w	r0, #2048	; 0x800
 8000bb8:	f000 fe86 	bl	80018c8 <htons>
 8000bbc:	4284      	cmp	r4, r0
 8000bbe:	d013      	beq.n	8000be8 <NetServerTask+0x74>
    else if (NET_UIP_HEADER_BUF->type == htons(UIP_ETHTYPE_ARP))
 8000bc0:	4b39      	ldr	r3, [pc, #228]	; (8000ca8 <NetServerTask+0x134>)
 8000bc2:	899c      	ldrh	r4, [r3, #12]
 8000bc4:	f640 0006 	movw	r0, #2054	; 0x806
 8000bc8:	f000 fe7e 	bl	80018c8 <htons>
 8000bcc:	4284      	cmp	r4, r0
 8000bce:	d1d5      	bne.n	8000b7c <NetServerTask+0x8>
      uip_arp_arpin();
 8000bd0:	f001 fd7c 	bl	80026cc <uip_arp_arpin>
      if (uip_len > 0)
 8000bd4:	4b33      	ldr	r3, [pc, #204]	; (8000ca4 <NetServerTask+0x130>)
 8000bd6:	881b      	ldrh	r3, [r3, #0]
 8000bd8:	2b00      	cmp	r3, #0
 8000bda:	d0cf      	beq.n	8000b7c <NetServerTask+0x8>
        netdev_send();
 8000bdc:	f003 fd8c 	bl	80046f8 <netdev_send>
        uip_len = 0;
 8000be0:	4b30      	ldr	r3, [pc, #192]	; (8000ca4 <NetServerTask+0x130>)
 8000be2:	2200      	movs	r2, #0
 8000be4:	801a      	strh	r2, [r3, #0]
 8000be6:	e7c9      	b.n	8000b7c <NetServerTask+0x8>
      uip_input();
 8000be8:	2001      	movs	r0, #1
 8000bea:	f000 fea7 	bl	800193c <uip_process>
      if (uip_len > 0)
 8000bee:	4b2d      	ldr	r3, [pc, #180]	; (8000ca4 <NetServerTask+0x130>)
 8000bf0:	881b      	ldrh	r3, [r3, #0]
 8000bf2:	2b00      	cmp	r3, #0
 8000bf4:	d0c2      	beq.n	8000b7c <NetServerTask+0x8>
        uip_arp_out();
 8000bf6:	f001 fdd9 	bl	80027ac <uip_arp_out>
        netdev_send();
 8000bfa:	f003 fd7d 	bl	80046f8 <netdev_send>
        uip_len = 0;
 8000bfe:	4b29      	ldr	r3, [pc, #164]	; (8000ca4 <NetServerTask+0x130>)
 8000c00:	2200      	movs	r2, #0
 8000c02:	801a      	strh	r2, [r3, #0]
 8000c04:	e7ba      	b.n	8000b7c <NetServerTask+0x8>
      uip_periodic(connection);
 8000c06:	2368      	movs	r3, #104	; 0x68
 8000c08:	4a28      	ldr	r2, [pc, #160]	; (8000cac <NetServerTask+0x138>)
 8000c0a:	fb03 2304 	mla	r3, r3, r4, r2
 8000c0e:	4a28      	ldr	r2, [pc, #160]	; (8000cb0 <NetServerTask+0x13c>)
 8000c10:	6013      	str	r3, [r2, #0]
 8000c12:	2002      	movs	r0, #2
 8000c14:	f000 fe92 	bl	800193c <uip_process>
      if (uip_len > 0)
 8000c18:	4b22      	ldr	r3, [pc, #136]	; (8000ca4 <NetServerTask+0x130>)
 8000c1a:	881b      	ldrh	r3, [r3, #0]
 8000c1c:	b90b      	cbnz	r3, 8000c22 <NetServerTask+0xae>
    for (connection = 0; connection < UIP_CONNS; connection++)
 8000c1e:	3401      	adds	r4, #1
 8000c20:	e7b7      	b.n	8000b92 <NetServerTask+0x1e>
        uip_arp_out();
 8000c22:	f001 fdc3 	bl	80027ac <uip_arp_out>
        netdev_send();
 8000c26:	f003 fd67 	bl	80046f8 <netdev_send>
        uip_len = 0;
 8000c2a:	4b1e      	ldr	r3, [pc, #120]	; (8000ca4 <NetServerTask+0x130>)
 8000c2c:	2200      	movs	r2, #0
 8000c2e:	801a      	strh	r2, [r3, #0]
 8000c30:	e7f5      	b.n	8000c1e <NetServerTask+0xaa>
      uip_udp_periodic(connection);
 8000c32:	4b20      	ldr	r3, [pc, #128]	; (8000cb4 <NetServerTask+0x140>)
 8000c34:	eb03 1384 	add.w	r3, r3, r4, lsl #6
 8000c38:	4a1f      	ldr	r2, [pc, #124]	; (8000cb8 <NetServerTask+0x144>)
 8000c3a:	6013      	str	r3, [r2, #0]
 8000c3c:	2005      	movs	r0, #5
 8000c3e:	f000 fe7d 	bl	800193c <uip_process>
      if(uip_len > 0)
 8000c42:	4b18      	ldr	r3, [pc, #96]	; (8000ca4 <NetServerTask+0x130>)
 8000c44:	881b      	ldrh	r3, [r3, #0]
 8000c46:	b90b      	cbnz	r3, 8000c4c <NetServerTask+0xd8>
    for (connection = 0; connection < UIP_UDP_CONNS; connection++)
 8000c48:	3401      	adds	r4, #1
 8000c4a:	e7a5      	b.n	8000b98 <NetServerTask+0x24>
        uip_arp_out();
 8000c4c:	f001 fdae 	bl	80027ac <uip_arp_out>
        netdev_send();
 8000c50:	f003 fd52 	bl	80046f8 <netdev_send>
        uip_len = 0;
 8000c54:	4b13      	ldr	r3, [pc, #76]	; (8000ca4 <NetServerTask+0x130>)
 8000c56:	2200      	movs	r2, #0
 8000c58:	801a      	strh	r2, [r3, #0]
 8000c5a:	e7f5      	b.n	8000c48 <NetServerTask+0xd4>
  {
    ARPTimerTimeOut += NET_UIP_ARP_TIMER_MS;
 8000c5c:	f242 7210 	movw	r2, #10000	; 0x2710
 8000c60:	441a      	add	r2, r3
 8000c62:	4b0f      	ldr	r3, [pc, #60]	; (8000ca0 <NetServerTask+0x12c>)
 8000c64:	601a      	str	r2, [r3, #0]
    uip_arp_timer();
 8000c66:	f001 fcfd 	bl	8002664 <uip_arp_timer>
 8000c6a:	e79d      	b.n	8000ba8 <NetServerTask+0x34>
  }

  /* perform polling operations here. */
  for (connection = 0; connection < UIP_CONNS; connection++)
 8000c6c:	3401      	adds	r4, #1
 8000c6e:	b9a4      	cbnz	r4, 8000c9a <NetServerTask+0x126>
  {
    uip_poll_conn(&uip_conns[connection]);
 8000c70:	2368      	movs	r3, #104	; 0x68
 8000c72:	4a0e      	ldr	r2, [pc, #56]	; (8000cac <NetServerTask+0x138>)
 8000c74:	fb03 2304 	mla	r3, r3, r4, r2
 8000c78:	4a0d      	ldr	r2, [pc, #52]	; (8000cb0 <NetServerTask+0x13c>)
 8000c7a:	6013      	str	r3, [r2, #0]
 8000c7c:	2003      	movs	r0, #3
 8000c7e:	f000 fe5d 	bl	800193c <uip_process>
    /* If the above function invocation resulted in data that
     * should be sent out on the network, the global variable
     * uip_len is set to a value > 0.
     */
    if (uip_len > 0)
 8000c82:	4b08      	ldr	r3, [pc, #32]	; (8000ca4 <NetServerTask+0x130>)
 8000c84:	881b      	ldrh	r3, [r3, #0]
 8000c86:	2b00      	cmp	r3, #0
 8000c88:	d0f0      	beq.n	8000c6c <NetServerTask+0xf8>
    {
      uip_arp_out();
 8000c8a:	f001 fd8f 	bl	80027ac <uip_arp_out>
      netdev_send();
 8000c8e:	f003 fd33 	bl	80046f8 <netdev_send>
      uip_len = 0;
 8000c92:	4b04      	ldr	r3, [pc, #16]	; (8000ca4 <NetServerTask+0x130>)
 8000c94:	2200      	movs	r2, #0
 8000c96:	801a      	strh	r2, [r3, #0]
 8000c98:	e7e8      	b.n	8000c6c <NetServerTask+0xf8>
    }
  }

} /*** end of NetServerTask ***/
 8000c9a:	bd10      	pop	{r4, pc}
 8000c9c:	200004c8 	.word	0x200004c8
 8000ca0:	200004c0 	.word	0x200004c0
 8000ca4:	200005dc 	.word	0x200005dc
 8000ca8:	20000670 	.word	0x20000670
 8000cac:	200005f8 	.word	0x200005f8
 8000cb0:	200005f4 	.word	0x200005f4
 8000cb4:	20000cb4 	.word	0x20000cb4
 8000cb8:	200005ec 	.word	0x200005ec

08000cbc <NetInit>:
{
 8000cbc:	b508      	push	{r3, lr}
  if (netInitializationDeferred == BLT_FALSE)
 8000cbe:	4b1e      	ldr	r3, [pc, #120]	; (8000d38 <NetInit+0x7c>)
 8000cc0:	781b      	ldrb	r3, [r3, #0]
 8000cc2:	b103      	cbz	r3, 8000cc6 <NetInit+0xa>
} /*** end of NetInit ***/
 8000cc4:	bd08      	pop	{r3, pc}
    netdev_init();
 8000cc6:	f003 fca1 	bl	800460c <netdev_init>
    periodicTimerTimeOut = TimerGet() + NET_UIP_PERIODIC_TIMER_MS;
 8000cca:	f7ff fe7d 	bl	80009c8 <TimerGet>
 8000cce:	f500 70fa 	add.w	r0, r0, #500	; 0x1f4
 8000cd2:	4b1a      	ldr	r3, [pc, #104]	; (8000d3c <NetInit+0x80>)
 8000cd4:	6018      	str	r0, [r3, #0]
    ARPTimerTimeOut = TimerGet() + NET_UIP_ARP_TIMER_MS;
 8000cd6:	f7ff fe77 	bl	80009c8 <TimerGet>
 8000cda:	f242 7310 	movw	r3, #10000	; 0x2710
 8000cde:	4403      	add	r3, r0
 8000ce0:	4a17      	ldr	r2, [pc, #92]	; (8000d40 <NetInit+0x84>)
 8000ce2:	6013      	str	r3, [r2, #0]
    uip_init();
 8000ce4:	f000 fd98 	bl	8001818 <uip_init>
    uip_sethostaddr(ipaddr);
 8000ce8:	4b16      	ldr	r3, [pc, #88]	; (8000d44 <NetInit+0x88>)
 8000cea:	f64a 02c0 	movw	r2, #43200	; 0xa8c0
 8000cee:	801a      	strh	r2, [r3, #0]
 8000cf0:	f244 6101 	movw	r1, #17921	; 0x4601
 8000cf4:	8059      	strh	r1, [r3, #2]
    uip_setnetmask(ipaddr);
 8000cf6:	4b14      	ldr	r3, [pc, #80]	; (8000d48 <NetInit+0x8c>)
 8000cf8:	f64f 71ff 	movw	r1, #65535	; 0xffff
 8000cfc:	8019      	strh	r1, [r3, #0]
 8000cfe:	21ff      	movs	r1, #255	; 0xff
 8000d00:	8059      	strh	r1, [r3, #2]
    uip_setdraddr(ipaddr);
 8000d02:	4b12      	ldr	r3, [pc, #72]	; (8000d4c <NetInit+0x90>)
 8000d04:	801a      	strh	r2, [r3, #0]
 8000d06:	f240 1201 	movw	r2, #257	; 0x101
 8000d0a:	805a      	strh	r2, [r3, #2]
    uip_listen(HTONS(BOOT_COM_NET_PORT));
 8000d0c:	f64e 0003 	movw	r0, #59395	; 0xe803
 8000d10:	f000 fdc2 	bl	8001898 <uip_listen>
    netdev_init_mac();
 8000d14:	f003 fcb2 	bl	800467c <netdev_init_mac>
    if (BackDoorGetExtension() < BOOT_COM_NET_BACKDOOR_EXTENSION_MS)
 8000d18:	f7ff fe90 	bl	8000a3c <BackDoorGetExtension>
 8000d1c:	f644 631f 	movw	r3, #19999	; 0x4e1f
 8000d20:	4298      	cmp	r0, r3
 8000d22:	d903      	bls.n	8000d2c <NetInit+0x70>
    netInitializedFlag = BLT_TRUE;
 8000d24:	4b0a      	ldr	r3, [pc, #40]	; (8000d50 <NetInit+0x94>)
 8000d26:	2201      	movs	r2, #1
 8000d28:	701a      	strb	r2, [r3, #0]
} /*** end of NetInit ***/
 8000d2a:	e7cb      	b.n	8000cc4 <NetInit+0x8>
      BackDoorSetExtension(BOOT_COM_NET_BACKDOOR_EXTENSION_MS);
 8000d2c:	f644 6020 	movw	r0, #20000	; 0x4e20
 8000d30:	f7ff fe7e 	bl	8000a30 <BackDoorSetExtension>
 8000d34:	e7f6      	b.n	8000d24 <NetInit+0x68>
 8000d36:	bf00      	nop
 8000d38:	20000041 	.word	0x20000041
 8000d3c:	200004c8 	.word	0x200004c8
 8000d40:	200004c0 	.word	0x200004c0
 8000d44:	2000066c 	.word	0x2000066c
 8000d48:	20000668 	.word	0x20000668
 8000d4c:	20000664 	.word	0x20000664
 8000d50:	200004c4 	.word	0x200004c4

08000d54 <NetDeferredInit>:
{
 8000d54:	b508      	push	{r3, lr}
  netInitializationDeferred = BLT_FALSE;
 8000d56:	4b05      	ldr	r3, [pc, #20]	; (8000d6c <NetDeferredInit+0x18>)
 8000d58:	2200      	movs	r2, #0
 8000d5a:	701a      	strb	r2, [r3, #0]
  if (netInitializedFlag == BLT_FALSE)
 8000d5c:	4b04      	ldr	r3, [pc, #16]	; (8000d70 <NetDeferredInit+0x1c>)
 8000d5e:	781b      	ldrb	r3, [r3, #0]
 8000d60:	b103      	cbz	r3, 8000d64 <NetDeferredInit+0x10>
} /*** end of NetDeferredInit ***/
 8000d62:	bd08      	pop	{r3, pc}
    NetInit();
 8000d64:	f7ff ffaa 	bl	8000cbc <NetInit>
} /*** end of NetDeferredInit ***/
 8000d68:	e7fb      	b.n	8000d62 <NetDeferredInit+0xe>
 8000d6a:	bf00      	nop
 8000d6c:	20000041 	.word	0x20000041
 8000d70:	200004c4 	.word	0x200004c4

08000d74 <NetTransmitPacket>:
  if (netInitializedFlag == BLT_TRUE)
 8000d74:	4b0f      	ldr	r3, [pc, #60]	; (8000db4 <NetTransmitPacket+0x40>)
 8000d76:	781b      	ldrb	r3, [r3, #0]
 8000d78:	2b01      	cmp	r3, #1
 8000d7a:	d000      	beq.n	8000d7e <NetTransmitPacket+0xa>
 8000d7c:	4770      	bx	lr
{
 8000d7e:	b470      	push	{r4, r5, r6}
    s = &(uip_conn->appstate);
 8000d80:	4b0d      	ldr	r3, [pc, #52]	; (8000db8 <NetTransmitPacket+0x44>)
 8000d82:	681c      	ldr	r4, [r3, #0]
    *(blt_int32u *)&(s->dto_data[0]) = s->dto_counter;
 8000d84:	69e6      	ldr	r6, [r4, #28]
 8000d86:	6226      	str	r6, [r4, #32]
    for (cnt=0; cnt<len; cnt++)
 8000d88:	2300      	movs	r3, #0
 8000d8a:	e006      	b.n	8000d9a <NetTransmitPacket+0x26>
      s->dto_data[cnt+4] = data[cnt];
 8000d8c:	1d1a      	adds	r2, r3, #4
 8000d8e:	5cc5      	ldrb	r5, [r0, r3]
 8000d90:	4422      	add	r2, r4
 8000d92:	f882 5020 	strb.w	r5, [r2, #32]
    for (cnt=0; cnt<len; cnt++)
 8000d96:	3301      	adds	r3, #1
 8000d98:	b29b      	uxth	r3, r3
 8000d9a:	b28a      	uxth	r2, r1
 8000d9c:	429a      	cmp	r2, r3
 8000d9e:	d8f5      	bhi.n	8000d8c <NetTransmitPacket+0x18>
    s->dto_len = len + 4;
 8000da0:	3204      	adds	r2, #4
 8000da2:	f8a4 2064 	strh.w	r2, [r4, #100]	; 0x64
    s->dto_tx_req = BLT_TRUE;
 8000da6:	2301      	movs	r3, #1
 8000da8:	f884 3066 	strb.w	r3, [r4, #102]	; 0x66
    s->dto_counter++;
 8000dac:	441e      	add	r6, r3
 8000dae:	61e6      	str	r6, [r4, #28]
} /*** end of NetTransmitPacket ***/
 8000db0:	bc70      	pop	{r4, r5, r6}
 8000db2:	4770      	bx	lr
 8000db4:	200004c4 	.word	0x200004c4
 8000db8:	200005f4 	.word	0x200005f4

08000dbc <NetReceivePacket>:
{
 8000dbc:	b508      	push	{r3, lr}
  if (netInitializedFlag == BLT_TRUE)
 8000dbe:	4b04      	ldr	r3, [pc, #16]	; (8000dd0 <NetReceivePacket+0x14>)
 8000dc0:	781b      	ldrb	r3, [r3, #0]
 8000dc2:	2b01      	cmp	r3, #1
 8000dc4:	d001      	beq.n	8000dca <NetReceivePacket+0xe>
} /*** end of NetReceivePacket ***/
 8000dc6:	2000      	movs	r0, #0
 8000dc8:	bd08      	pop	{r3, pc}
    NetServerTask();
 8000dca:	f7ff fed3 	bl	8000b74 <NetServerTask>
 8000dce:	e7fa      	b.n	8000dc6 <NetReceivePacket+0xa>
 8000dd0:	200004c4 	.word	0x200004c4

08000dd4 <NetApp>:
{
 8000dd4:	b510      	push	{r4, lr}
  s = &(uip_conn->appstate);
 8000dd6:	4b29      	ldr	r3, [pc, #164]	; (8000e7c <NetApp+0xa8>)
 8000dd8:	681c      	ldr	r4, [r3, #0]
  if (uip_connected())
 8000dda:	4b29      	ldr	r3, [pc, #164]	; (8000e80 <NetApp+0xac>)
 8000ddc:	781b      	ldrb	r3, [r3, #0]
 8000dde:	f013 0f40 	tst.w	r3, #64	; 0x40
 8000de2:	d12a      	bne.n	8000e3a <NetApp+0x66>
  if (uip_acked())
 8000de4:	f013 0f01 	tst.w	r3, #1
 8000de8:	d002      	beq.n	8000df0 <NetApp+0x1c>
    s->dto_tx_pending = BLT_FALSE;
 8000dea:	2200      	movs	r2, #0
 8000dec:	f884 2067 	strb.w	r2, [r4, #103]	; 0x67
  if (uip_rexmit())
 8000df0:	f013 0f04 	tst.w	r3, #4
 8000df4:	d003      	beq.n	8000dfe <NetApp+0x2a>
    if (s->dto_tx_pending == BLT_TRUE)
 8000df6:	f894 3067 	ldrb.w	r3, [r4, #103]	; 0x67
 8000dfa:	2b01      	cmp	r3, #1
 8000dfc:	d027      	beq.n	8000e4e <NetApp+0x7a>
  if (uip_poll())
 8000dfe:	4b20      	ldr	r3, [pc, #128]	; (8000e80 <NetApp+0xac>)
 8000e00:	781b      	ldrb	r3, [r3, #0]
 8000e02:	f013 0f08 	tst.w	r3, #8
 8000e06:	d003      	beq.n	8000e10 <NetApp+0x3c>
    if (s->dto_tx_req == BLT_TRUE)
 8000e08:	f894 3066 	ldrb.w	r3, [r4, #102]	; 0x66
 8000e0c:	2b01      	cmp	r3, #1
 8000e0e:	d025      	beq.n	8000e5c <NetApp+0x88>
  if (uip_newdata())
 8000e10:	4b1b      	ldr	r3, [pc, #108]	; (8000e80 <NetApp+0xac>)
 8000e12:	781b      	ldrb	r3, [r3, #0]
 8000e14:	f013 0f02 	tst.w	r3, #2
 8000e18:	d018      	beq.n	8000e4c <NetApp+0x78>
    if ( ((uip_datalen() - 4) <= BOOT_COM_NET_RX_MAX_DATA) &&
 8000e1a:	4b1a      	ldr	r3, [pc, #104]	; (8000e84 <NetApp+0xb0>)
 8000e1c:	8819      	ldrh	r1, [r3, #0]
 8000e1e:	1f0b      	subs	r3, r1, #4
 8000e20:	2b40      	cmp	r3, #64	; 0x40
 8000e22:	dc13      	bgt.n	8000e4c <NetApp+0x78>
         (s->dto_tx_pending == BLT_FALSE) )
 8000e24:	f894 3067 	ldrb.w	r3, [r4, #103]	; 0x67
    if ( ((uip_datalen() - 4) <= BOOT_COM_NET_RX_MAX_DATA) &&
 8000e28:	b983      	cbnz	r3, 8000e4c <NetApp+0x78>
      newDataPtr = uip_appdata;
 8000e2a:	4b17      	ldr	r3, [pc, #92]	; (8000e88 <NetApp+0xb4>)
 8000e2c:	6818      	ldr	r0, [r3, #0]
      XcpPacketReceived(&newDataPtr[4], (blt_int8u)(uip_datalen() - 4));
 8000e2e:	3904      	subs	r1, #4
 8000e30:	b2c9      	uxtb	r1, r1
 8000e32:	3004      	adds	r0, #4
 8000e34:	f000 f9b4 	bl	80011a0 <XcpPacketReceived>
 8000e38:	e008      	b.n	8000e4c <NetApp+0x78>
    s->dto_counter = 1;
 8000e3a:	2301      	movs	r3, #1
 8000e3c:	61e3      	str	r3, [r4, #28]
    s->dto_len = 0;
 8000e3e:	2300      	movs	r3, #0
 8000e40:	f8a4 3064 	strh.w	r3, [r4, #100]	; 0x64
    s->dto_tx_req = BLT_FALSE;
 8000e44:	f884 3066 	strb.w	r3, [r4, #102]	; 0x66
    s->dto_tx_pending = BLT_FALSE;
 8000e48:	f884 3067 	strb.w	r3, [r4, #103]	; 0x67
} /*** end of NetApp ***/
 8000e4c:	bd10      	pop	{r4, pc}
      uip_send(s->dto_data, s->dto_len);
 8000e4e:	f8b4 1064 	ldrh.w	r1, [r4, #100]	; 0x64
 8000e52:	f104 0020 	add.w	r0, r4, #32
 8000e56:	f001 fb71 	bl	800253c <uip_send>
 8000e5a:	e7d0      	b.n	8000dfe <NetApp+0x2a>
      s->dto_tx_req = BLT_FALSE;
 8000e5c:	2300      	movs	r3, #0
 8000e5e:	f884 3066 	strb.w	r3, [r4, #102]	; 0x66
      if (s->dto_len > 0)
 8000e62:	f8b4 1064 	ldrh.w	r1, [r4, #100]	; 0x64
 8000e66:	2900      	cmp	r1, #0
 8000e68:	d0d2      	beq.n	8000e10 <NetApp+0x3c>
        s->dto_tx_pending = BLT_TRUE;
 8000e6a:	2301      	movs	r3, #1
 8000e6c:	f884 3067 	strb.w	r3, [r4, #103]	; 0x67
        uip_send(s->dto_data, s->dto_len);
 8000e70:	f104 0020 	add.w	r0, r4, #32
 8000e74:	f001 fb62 	bl	800253c <uip_send>
 8000e78:	e7ca      	b.n	8000e10 <NetApp+0x3c>
 8000e7a:	bf00      	nop
 8000e7c:	200005f4 	.word	0x200005f4
 8000e80:	200005e8 	.word	0x200005e8
 8000e84:	200005dc 	.word	0x200005dc
 8000e88:	200005f0 	.word	0x200005f0

08000e8c <XcpProtectResources>:
** \return    none
**
****************************************************************************************/
static void XcpProtectResources(void)
{
  xcpInfo.protection = 0;
 8000e8c:	4b01      	ldr	r3, [pc, #4]	; (8000e94 <XcpProtectResources+0x8>)
 8000e8e:	2200      	movs	r2, #0
 8000e90:	705a      	strb	r2, [r3, #1]

#if (XCP_RES_DATA_STIMULATION_EN == 1)
  xcpInfo.protection |= XCP_RES_STIM;
#endif
#endif /* XCP_SEED_KEY_PROTECTION_EN == 1 */
} /*** end of XcpProtectResources ***/
 8000e92:	4770      	bx	lr
 8000e94:	200004cc 	.word	0x200004cc

08000e98 <XcpSetCtoError>:
**
****************************************************************************************/
static void XcpSetCtoError(blt_int8u error)
{
  /* prepare the error packet */
  xcpInfo.ctoData[0] = XCP_PID_ERR;
 8000e98:	4b03      	ldr	r3, [pc, #12]	; (8000ea8 <XcpSetCtoError+0x10>)
 8000e9a:	22fe      	movs	r2, #254	; 0xfe
 8000e9c:	70da      	strb	r2, [r3, #3]
  xcpInfo.ctoData[1] = error;
 8000e9e:	7118      	strb	r0, [r3, #4]
  xcpInfo.ctoLen = 2;
 8000ea0:	2202      	movs	r2, #2
 8000ea2:	f8a3 2044 	strh.w	r2, [r3, #68]	; 0x44
} /*** end of XcpSetCtoError ***/
 8000ea6:	4770      	bx	lr
 8000ea8:	200004cc 	.word	0x200004cc

08000eac <XcpCmdDisconnect>:
** \param     data Pointer to a byte buffer with the packet data.
** \return    none
**
****************************************************************************************/
static void XcpCmdDisconnect(blt_int8u *data)
{
 8000eac:	b510      	push	{r4, lr}
  /* suppress compiler warning for unused parameter */
  data = data;

  /* indicate that the xcp connection is disconnected */
  xcpInfo.connected = 0;
 8000eae:	4c05      	ldr	r4, [pc, #20]	; (8000ec4 <XcpCmdDisconnect+0x18>)
 8000eb0:	2300      	movs	r3, #0
 8000eb2:	7023      	strb	r3, [r4, #0]

  /* enable resource protection */
  XcpProtectResources();
 8000eb4:	f7ff ffea 	bl	8000e8c <XcpProtectResources>

  /* set packet id to command response packet */
  xcpInfo.ctoData[0] = XCP_PID_RES;
 8000eb8:	23ff      	movs	r3, #255	; 0xff
 8000eba:	70e3      	strb	r3, [r4, #3]

  /* set packet length */
  xcpInfo.ctoLen = 1;
 8000ebc:	2301      	movs	r3, #1
 8000ebe:	f8a4 3044 	strh.w	r3, [r4, #68]	; 0x44
} /*** end of XcpCmdDisconnect ***/
 8000ec2:	bd10      	pop	{r4, pc}
 8000ec4:	200004cc 	.word	0x200004cc

08000ec8 <XcpCmdGetStatus>:
{
  /* suppress compiler warning for unused parameter */
  data = data;

  /* set packet id to command response packet */
  xcpInfo.ctoData[0] = XCP_PID_RES;
 8000ec8:	4b06      	ldr	r3, [pc, #24]	; (8000ee4 <XcpCmdGetStatus+0x1c>)
 8000eca:	22ff      	movs	r2, #255	; 0xff
 8000ecc:	70da      	strb	r2, [r3, #3]

  /* report session status */
  xcpInfo.ctoData[1] = 0;
 8000ece:	2200      	movs	r2, #0
 8000ed0:	711a      	strb	r2, [r3, #4]

  /* report current resource protection status */
  xcpInfo.ctoData[2] = xcpInfo.protection;
 8000ed2:	7859      	ldrb	r1, [r3, #1]
 8000ed4:	7159      	strb	r1, [r3, #5]

  /* reset reserved and session configuration id values */
  xcpInfo.ctoData[3] = 0;
 8000ed6:	719a      	strb	r2, [r3, #6]
  xcpInfo.ctoData[4] = 0;
 8000ed8:	71da      	strb	r2, [r3, #7]
  xcpInfo.ctoData[5] = 0;
 8000eda:	721a      	strb	r2, [r3, #8]

  /* set packet length */
  xcpInfo.ctoLen = 6;
 8000edc:	2206      	movs	r2, #6
 8000ede:	f8a3 2044 	strh.w	r2, [r3, #68]	; 0x44
} /*** end of XcpCmdGetStatus ***/
 8000ee2:	4770      	bx	lr
 8000ee4:	200004cc 	.word	0x200004cc

08000ee8 <XcpCmdSynch>:
** \param     data Pointer to a byte buffer with the packet data.
** \return    none
**
****************************************************************************************/
static void XcpCmdSynch(blt_int8u *data)
{
 8000ee8:	b508      	push	{r3, lr}
  /* suppress compiler warning for unused parameter */
  data = data;

  /* synch requires a negative response */
  XcpSetCtoError(XCP_ERR_CMD_SYNCH);
 8000eea:	2000      	movs	r0, #0
 8000eec:	f7ff ffd4 	bl	8000e98 <XcpSetCtoError>
} /*** end of XcpCmdSynch ***/
 8000ef0:	bd08      	pop	{r3, pc}
	...

08000ef4 <XcpCmdGetId>:
{
  /* suppress compiler warning for unused parameter */
  data = data;

  /* set packet id to command response packet */
  xcpInfo.ctoData[0] = XCP_PID_RES;
 8000ef4:	4b07      	ldr	r3, [pc, #28]	; (8000f14 <XcpCmdGetId+0x20>)
 8000ef6:	22ff      	movs	r2, #255	; 0xff
 8000ef8:	70da      	strb	r2, [r3, #3]

  /* point mta to start of station id string */
  xcpInfo.mta = (blt_int32u)&xcpStationId[0];
 8000efa:	4a07      	ldr	r2, [pc, #28]	; (8000f18 <XcpCmdGetId+0x24>)
 8000efc:	649a      	str	r2, [r3, #72]	; 0x48

  /* set station id mode to 0 */
  xcpInfo.ctoData[1] = 0;
 8000efe:	2200      	movs	r2, #0
 8000f00:	711a      	strb	r2, [r3, #4]

  /* reset reserved values */
  xcpInfo.ctoData[2] = 0;
 8000f02:	715a      	strb	r2, [r3, #5]
  xcpInfo.ctoData[3] = 0;
 8000f04:	719a      	strb	r2, [r3, #6]

  /* store station id length (excl. null termination) for response packet */
  *(blt_int32u *)&xcpInfo.ctoData[4] = (sizeof(xcpStationId)/sizeof(xcpStationId[0])) - 1;
 8000f06:	2207      	movs	r2, #7
 8000f08:	f8c3 2007 	str.w	r2, [r3, #7]

  /* set packet length */
  xcpInfo.ctoLen = 8;
 8000f0c:	2208      	movs	r2, #8
 8000f0e:	f8a3 2044 	strh.w	r2, [r3, #68]	; 0x44
} /*** end of XcpCmdGetId ***/
 8000f12:	4770      	bx	lr
 8000f14:	200004cc 	.word	0x200004cc
 8000f18:	08004894 	.word	0x08004894

08000f1c <XcpCmdSetMta>:
**
****************************************************************************************/
static void XcpCmdSetMta(blt_int8u *data)
{
  /* set packet id to command response packet */
  xcpInfo.ctoData[0] = XCP_PID_RES;
 8000f1c:	4b04      	ldr	r3, [pc, #16]	; (8000f30 <XcpCmdSetMta+0x14>)
 8000f1e:	22ff      	movs	r2, #255	; 0xff
 8000f20:	70da      	strb	r2, [r3, #3]

  /* update mta. current implementation ignores address extension */
  xcpInfo.mta = *(blt_int32u *)&data[4];
 8000f22:	6842      	ldr	r2, [r0, #4]
 8000f24:	649a      	str	r2, [r3, #72]	; 0x48

  /* set packet length */
  xcpInfo.ctoLen = 1;
 8000f26:	2201      	movs	r2, #1
 8000f28:	f8a3 2044 	strh.w	r2, [r3, #68]	; 0x44
} /*** end of XcpCmdSetMta ***/
 8000f2c:	4770      	bx	lr
 8000f2e:	bf00      	nop
 8000f30:	200004cc 	.word	0x200004cc

08000f34 <XcpCmdProgramPrepare>:
** \param     data Pointer to a byte buffer with the packet data.
** \return    none
**
****************************************************************************************/
static void XcpCmdProgramPrepare(blt_int8u *data)
{
 8000f34:	b508      	push	{r3, lr}
    return;
  }
#endif

  /* programming with kernel currently not needed and therefore not supported */
  XcpSetCtoError(XCP_ERR_GENERIC);
 8000f36:	2031      	movs	r0, #49	; 0x31
 8000f38:	f7ff ffae 	bl	8000e98 <XcpSetCtoError>
  return;
} /*** end of XcpCmdProgramPrepare ***/
 8000f3c:	bd08      	pop	{r3, pc}
	...

08000f40 <XcpCmdProgramStart>:
{
 8000f40:	b538      	push	{r3, r4, r5, lr}
  xcpInfo.ctoData[0] = XCP_PID_RES;
 8000f42:	4c08      	ldr	r4, [pc, #32]	; (8000f64 <XcpCmdProgramStart+0x24>)
 8000f44:	23ff      	movs	r3, #255	; 0xff
 8000f46:	70e3      	strb	r3, [r4, #3]
  xcpInfo.ctoData[1] = 0;
 8000f48:	2500      	movs	r5, #0
 8000f4a:	7125      	strb	r5, [r4, #4]
  xcpInfo.ctoData[2] = 0;
 8000f4c:	7165      	strb	r5, [r4, #5]
  xcpInfo.ctoData[3] = (blt_int8u)XCP_CTO_PACKET_LEN;
 8000f4e:	f7ff fddd 	bl	8000b0c <ComGetActiveInterfaceMaxRxLen>
 8000f52:	71a0      	strb	r0, [r4, #6]
  xcpInfo.ctoData[4] = 0;
 8000f54:	71e5      	strb	r5, [r4, #7]
  xcpInfo.ctoData[5] = 0;
 8000f56:	7225      	strb	r5, [r4, #8]
  xcpInfo.ctoData[6] = 0;
 8000f58:	7265      	strb	r5, [r4, #9]
  xcpInfo.ctoLen = 7;
 8000f5a:	2307      	movs	r3, #7
 8000f5c:	f8a4 3044 	strh.w	r3, [r4, #68]	; 0x44
} /*** end of XcpCmdProgramStart ***/
 8000f60:	bd38      	pop	{r3, r4, r5, pc}
 8000f62:	bf00      	nop
 8000f64:	200004cc 	.word	0x200004cc

08000f68 <XcpCmdConnect>:
{
 8000f68:	b538      	push	{r3, r4, r5, lr}
  XcpProtectResources();
 8000f6a:	f7ff ff8f 	bl	8000e8c <XcpProtectResources>
  xcpInfo.connected = 1;
 8000f6e:	4c0e      	ldr	r4, [pc, #56]	; (8000fa8 <XcpCmdConnect+0x40>)
 8000f70:	2501      	movs	r5, #1
 8000f72:	7025      	strb	r5, [r4, #0]
  xcpInfo.ctoData[0] = XCP_PID_RES;
 8000f74:	23ff      	movs	r3, #255	; 0xff
 8000f76:	70e3      	strb	r3, [r4, #3]
  xcpInfo.ctoData[1] |= XCP_RES_PGM;
 8000f78:	2310      	movs	r3, #16
 8000f7a:	7123      	strb	r3, [r4, #4]
  xcpInfo.ctoData[2] = 0;
 8000f7c:	2300      	movs	r3, #0
 8000f7e:	7163      	strb	r3, [r4, #5]
  xcpInfo.ctoData[3] = (blt_int8u)XCP_CTO_PACKET_LEN;
 8000f80:	f7ff fdc4 	bl	8000b0c <ComGetActiveInterfaceMaxRxLen>
 8000f84:	71a0      	strb	r0, [r4, #6]
  xcpInfo.ctoData[4] = (blt_int8u)XCP_DTO_PACKET_LEN;
 8000f86:	f7ff fdcd 	bl	8000b24 <ComGetActiveInterfaceMaxTxLen>
 8000f8a:	71e0      	strb	r0, [r4, #7]
  xcpInfo.ctoData[5] = (blt_int8u)(XCP_DTO_PACKET_LEN >> 8);
 8000f8c:	f7ff fdca 	bl	8000b24 <ComGetActiveInterfaceMaxTxLen>
 8000f90:	f3c0 2007 	ubfx	r0, r0, #8, #8
 8000f94:	7220      	strb	r0, [r4, #8]
  xcpInfo.ctoData[6] = XCP_VERSION_PROTOCOL_LAYER >> 8;
 8000f96:	7265      	strb	r5, [r4, #9]
  xcpInfo.ctoData[7] = XCP_VERSION_TRANSPORT_LAYER >> 8;
 8000f98:	72a5      	strb	r5, [r4, #10]
  xcpInfo.ctoLen = 8;
 8000f9a:	2308      	movs	r3, #8
 8000f9c:	f8a4 3044 	strh.w	r3, [r4, #68]	; 0x44
  NvmInit();
 8000fa0:	f7ff fcc8 	bl	8000934 <NvmInit>
} /*** end of XcpCmdConnect ***/
 8000fa4:	bd38      	pop	{r3, r4, r5, pc}
 8000fa6:	bf00      	nop
 8000fa8:	200004cc 	.word	0x200004cc

08000fac <XcpCmdUpload>:
{
 8000fac:	b538      	push	{r3, r4, r5, lr}
 8000fae:	4605      	mov	r5, r0
  if (data[1] > (XCP_CTO_PACKET_LEN-1))
 8000fb0:	7844      	ldrb	r4, [r0, #1]
 8000fb2:	f7ff fdab 	bl	8000b0c <ComGetActiveInterfaceMaxRxLen>
 8000fb6:	3801      	subs	r0, #1
 8000fb8:	4284      	cmp	r4, r0
 8000fba:	dc10      	bgt.n	8000fde <XcpCmdUpload+0x32>
  CpuMemCopy((blt_addr)destPtr,(blt_addr)xcpInfo.mta, len);
 8000fbc:	4c0a      	ldr	r4, [pc, #40]	; (8000fe8 <XcpCmdUpload+0x3c>)
 8000fbe:	786a      	ldrb	r2, [r5, #1]
 8000fc0:	6ca1      	ldr	r1, [r4, #72]	; 0x48
 8000fc2:	1d20      	adds	r0, r4, #4
 8000fc4:	f7ff fae0 	bl	8000588 <CpuMemCopy>
  xcpInfo.ctoData[0] = XCP_PID_RES;
 8000fc8:	23ff      	movs	r3, #255	; 0xff
 8000fca:	70e3      	strb	r3, [r4, #3]
  xcpInfo.mta += data[1];
 8000fcc:	786a      	ldrb	r2, [r5, #1]
 8000fce:	6ca3      	ldr	r3, [r4, #72]	; 0x48
 8000fd0:	4413      	add	r3, r2
 8000fd2:	64a3      	str	r3, [r4, #72]	; 0x48
  xcpInfo.ctoLen = data[1]+1;
 8000fd4:	786b      	ldrb	r3, [r5, #1]
 8000fd6:	3301      	adds	r3, #1
 8000fd8:	f8a4 3044 	strh.w	r3, [r4, #68]	; 0x44
} /*** end of XcpCmdUpload ***/
 8000fdc:	bd38      	pop	{r3, r4, r5, pc}
    XcpSetCtoError(XCP_ERR_OUT_OF_RANGE);
 8000fde:	2022      	movs	r0, #34	; 0x22
 8000fe0:	f7ff ff5a 	bl	8000e98 <XcpSetCtoError>
    return;
 8000fe4:	e7fa      	b.n	8000fdc <XcpCmdUpload+0x30>
 8000fe6:	bf00      	nop
 8000fe8:	200004cc 	.word	0x200004cc

08000fec <XcpCmdShortUpload>:
{
 8000fec:	b538      	push	{r3, r4, r5, lr}
 8000fee:	4604      	mov	r4, r0
  if (data[1] > (XCP_CTO_PACKET_LEN-1))
 8000ff0:	7845      	ldrb	r5, [r0, #1]
 8000ff2:	f7ff fd8b 	bl	8000b0c <ComGetActiveInterfaceMaxRxLen>
 8000ff6:	3801      	subs	r0, #1
 8000ff8:	4285      	cmp	r5, r0
 8000ffa:	dc11      	bgt.n	8001020 <XcpCmdShortUpload+0x34>
  xcpInfo.mta = *(blt_int32u *)&data[4];
 8000ffc:	6861      	ldr	r1, [r4, #4]
 8000ffe:	4d0a      	ldr	r5, [pc, #40]	; (8001028 <XcpCmdShortUpload+0x3c>)
 8001000:	64a9      	str	r1, [r5, #72]	; 0x48
  CpuMemCopy((blt_addr)destPtr,(blt_addr)xcpInfo.mta, len);
 8001002:	7862      	ldrb	r2, [r4, #1]
 8001004:	1d28      	adds	r0, r5, #4
 8001006:	f7ff fabf 	bl	8000588 <CpuMemCopy>
  xcpInfo.ctoData[0] = XCP_PID_RES;
 800100a:	23ff      	movs	r3, #255	; 0xff
 800100c:	70eb      	strb	r3, [r5, #3]
  xcpInfo.mta += data[1];
 800100e:	7862      	ldrb	r2, [r4, #1]
 8001010:	6cab      	ldr	r3, [r5, #72]	; 0x48
 8001012:	4413      	add	r3, r2
 8001014:	64ab      	str	r3, [r5, #72]	; 0x48
  xcpInfo.ctoLen = data[1]+1;
 8001016:	7863      	ldrb	r3, [r4, #1]
 8001018:	3301      	adds	r3, #1
 800101a:	f8a5 3044 	strh.w	r3, [r5, #68]	; 0x44
} /*** end of XcpCmdShortUpload ***/
 800101e:	bd38      	pop	{r3, r4, r5, pc}
    XcpSetCtoError(XCP_ERR_OUT_OF_RANGE);
 8001020:	2022      	movs	r0, #34	; 0x22
 8001022:	f7ff ff39 	bl	8000e98 <XcpSetCtoError>
    return;
 8001026:	e7fa      	b.n	800101e <XcpCmdShortUpload+0x32>
 8001028:	200004cc 	.word	0x200004cc

0800102c <XcpComputeChecksum>:
{
 800102c:	b5f8      	push	{r3, r4, r5, r6, r7, lr}
 800102e:	4605      	mov	r5, r0
 8001030:	4617      	mov	r7, r2
  blt_int8u cs = 0;
 8001032:	2400      	movs	r4, #0
  while (length-- > 0)
 8001034:	e006      	b.n	8001044 <XcpComputeChecksum+0x18>
    cs += *((blt_int8u *)(blt_addr)address);
 8001036:	f815 3b01 	ldrb.w	r3, [r5], #1
 800103a:	441c      	add	r4, r3
 800103c:	b2e4      	uxtb	r4, r4
    CopService();
 800103e:	f7ff fd95 	bl	8000b6c <CopService>
  while (length-- > 0)
 8001042:	4631      	mov	r1, r6
 8001044:	1e4e      	subs	r6, r1, #1
 8001046:	2900      	cmp	r1, #0
 8001048:	d1f5      	bne.n	8001036 <XcpComputeChecksum+0xa>
  *checksum = cs;
 800104a:	603c      	str	r4, [r7, #0]
} /*** end of XcpComputeChecksum ***/
 800104c:	2001      	movs	r0, #1
 800104e:	bdf8      	pop	{r3, r4, r5, r6, r7, pc}

08001050 <XcpCmdBuildCheckSum>:
{
 8001050:	b510      	push	{r4, lr}
  xcpInfo.ctoData[0] = XCP_PID_RES;
 8001052:	4c08      	ldr	r4, [pc, #32]	; (8001074 <XcpCmdBuildCheckSum+0x24>)
 8001054:	23ff      	movs	r3, #255	; 0xff
 8001056:	70e3      	strb	r3, [r4, #3]
  xcpInfo.ctoData[1] = XcpComputeChecksum(xcpInfo.mta, *(blt_int32u *)&data[4],
 8001058:	1de2      	adds	r2, r4, #7
 800105a:	6841      	ldr	r1, [r0, #4]
 800105c:	6ca0      	ldr	r0, [r4, #72]	; 0x48
 800105e:	f7ff ffe5 	bl	800102c <XcpComputeChecksum>
 8001062:	7120      	strb	r0, [r4, #4]
  xcpInfo.ctoData[2] = 0;
 8001064:	2300      	movs	r3, #0
 8001066:	7163      	strb	r3, [r4, #5]
  xcpInfo.ctoData[3] = 0;
 8001068:	71a3      	strb	r3, [r4, #6]
  xcpInfo.ctoLen = 8;
 800106a:	2308      	movs	r3, #8
 800106c:	f8a4 3044 	strh.w	r3, [r4, #68]	; 0x44
} /*** end of XcpCmdBuildCheckSum ***/
 8001070:	bd10      	pop	{r4, pc}
 8001072:	bf00      	nop
 8001074:	200004cc 	.word	0x200004cc

08001078 <XcpCmdProgramMax>:
{
 8001078:	b538      	push	{r3, r4, r5, lr}
 800107a:	4605      	mov	r5, r0
  if (NvmWrite((blt_addr)xcpInfo.mta, XCP_CTO_PACKET_LEN-1, &data[1]) == BLT_FALSE)
 800107c:	4b0d      	ldr	r3, [pc, #52]	; (80010b4 <XcpCmdProgramMax+0x3c>)
 800107e:	6c9c      	ldr	r4, [r3, #72]	; 0x48
 8001080:	f7ff fd44 	bl	8000b0c <ComGetActiveInterfaceMaxRxLen>
 8001084:	1c6a      	adds	r2, r5, #1
 8001086:	1e41      	subs	r1, r0, #1
 8001088:	4620      	mov	r0, r4
 800108a:	f7ff fc57 	bl	800093c <NvmWrite>
 800108e:	b160      	cbz	r0, 80010aa <XcpCmdProgramMax+0x32>
  xcpInfo.ctoData[0] = XCP_PID_RES;
 8001090:	4c08      	ldr	r4, [pc, #32]	; (80010b4 <XcpCmdProgramMax+0x3c>)
 8001092:	23ff      	movs	r3, #255	; 0xff
 8001094:	70e3      	strb	r3, [r4, #3]
  xcpInfo.mta += XCP_CTO_PACKET_LEN-1;
 8001096:	f7ff fd39 	bl	8000b0c <ComGetActiveInterfaceMaxRxLen>
 800109a:	3801      	subs	r0, #1
 800109c:	6ca3      	ldr	r3, [r4, #72]	; 0x48
 800109e:	4403      	add	r3, r0
 80010a0:	64a3      	str	r3, [r4, #72]	; 0x48
  xcpInfo.ctoLen = 1;
 80010a2:	2301      	movs	r3, #1
 80010a4:	f8a4 3044 	strh.w	r3, [r4, #68]	; 0x44
} /*** end of XcpCmdProgramMax ***/
 80010a8:	bd38      	pop	{r3, r4, r5, pc}
    XcpSetCtoError(XCP_ERR_GENERIC);
 80010aa:	2031      	movs	r0, #49	; 0x31
 80010ac:	f7ff fef4 	bl	8000e98 <XcpSetCtoError>
    return;
 80010b0:	e7fa      	b.n	80010a8 <XcpCmdProgramMax+0x30>
 80010b2:	bf00      	nop
 80010b4:	200004cc 	.word	0x200004cc

080010b8 <XcpCmdProgram>:
{
 80010b8:	b538      	push	{r3, r4, r5, lr}
 80010ba:	4604      	mov	r4, r0
  if (data[1] > (XCP_CTO_PACKET_LEN-2))
 80010bc:	7845      	ldrb	r5, [r0, #1]
 80010be:	f7ff fd25 	bl	8000b0c <ComGetActiveInterfaceMaxRxLen>
 80010c2:	3802      	subs	r0, #2
 80010c4:	4285      	cmp	r5, r0
 80010c6:	dc0e      	bgt.n	80010e6 <XcpCmdProgram+0x2e>
  xcpInfo.ctoData[0] = XCP_PID_RES;
 80010c8:	4b11      	ldr	r3, [pc, #68]	; (8001110 <XcpCmdProgram+0x58>)
 80010ca:	22ff      	movs	r2, #255	; 0xff
 80010cc:	70da      	strb	r2, [r3, #3]
  xcpInfo.ctoLen = 1;
 80010ce:	2201      	movs	r2, #1
 80010d0:	f8a3 2044 	strh.w	r2, [r3, #68]	; 0x44
  if (data[1] == 0)
 80010d4:	7861      	ldrb	r1, [r4, #1]
 80010d6:	b951      	cbnz	r1, 80010ee <XcpCmdProgram+0x36>
    if (NvmDone() == BLT_FALSE)
 80010d8:	f7ff fc40 	bl	800095c <NvmDone>
 80010dc:	b930      	cbnz	r0, 80010ec <XcpCmdProgram+0x34>
      XcpSetCtoError(XCP_ERR_GENERIC);
 80010de:	2031      	movs	r0, #49	; 0x31
 80010e0:	f7ff feda 	bl	8000e98 <XcpSetCtoError>
 80010e4:	e002      	b.n	80010ec <XcpCmdProgram+0x34>
    XcpSetCtoError(XCP_ERR_OUT_OF_RANGE);
 80010e6:	2022      	movs	r0, #34	; 0x22
 80010e8:	f7ff fed6 	bl	8000e98 <XcpSetCtoError>
} /*** end of XcpCmdProgram ***/
 80010ec:	bd38      	pop	{r3, r4, r5, pc}
  if (NvmWrite((blt_addr)xcpInfo.mta, data[1], &data[2]) == BLT_FALSE)
 80010ee:	1ca2      	adds	r2, r4, #2
 80010f0:	4b07      	ldr	r3, [pc, #28]	; (8001110 <XcpCmdProgram+0x58>)
 80010f2:	6c98      	ldr	r0, [r3, #72]	; 0x48
 80010f4:	f7ff fc22 	bl	800093c <NvmWrite>
 80010f8:	b128      	cbz	r0, 8001106 <XcpCmdProgram+0x4e>
  xcpInfo.mta += data[1];
 80010fa:	7861      	ldrb	r1, [r4, #1]
 80010fc:	4a04      	ldr	r2, [pc, #16]	; (8001110 <XcpCmdProgram+0x58>)
 80010fe:	6c93      	ldr	r3, [r2, #72]	; 0x48
 8001100:	440b      	add	r3, r1
 8001102:	6493      	str	r3, [r2, #72]	; 0x48
 8001104:	e7f2      	b.n	80010ec <XcpCmdProgram+0x34>
    XcpSetCtoError(XCP_ERR_GENERIC);
 8001106:	2031      	movs	r0, #49	; 0x31
 8001108:	f7ff fec6 	bl	8000e98 <XcpSetCtoError>
    return;
 800110c:	e7ee      	b.n	80010ec <XcpCmdProgram+0x34>
 800110e:	bf00      	nop
 8001110:	200004cc 	.word	0x200004cc

08001114 <XcpCmdProgramClear>:
{
 8001114:	b508      	push	{r3, lr}
  if (NvmErase((blt_addr)xcpInfo.mta, *(blt_int32u *)&data[4]) == BLT_FALSE)
 8001116:	6841      	ldr	r1, [r0, #4]
 8001118:	4b07      	ldr	r3, [pc, #28]	; (8001138 <XcpCmdProgramClear+0x24>)
 800111a:	6c98      	ldr	r0, [r3, #72]	; 0x48
 800111c:	f7ff fc12 	bl	8000944 <NvmErase>
 8001120:	b130      	cbz	r0, 8001130 <XcpCmdProgramClear+0x1c>
  xcpInfo.ctoData[0] = XCP_PID_RES;
 8001122:	4b05      	ldr	r3, [pc, #20]	; (8001138 <XcpCmdProgramClear+0x24>)
 8001124:	22ff      	movs	r2, #255	; 0xff
 8001126:	70da      	strb	r2, [r3, #3]
  xcpInfo.ctoLen = 1;
 8001128:	2201      	movs	r2, #1
 800112a:	f8a3 2044 	strh.w	r2, [r3, #68]	; 0x44
} /*** end of XcpCmdProgramClear ***/
 800112e:	bd08      	pop	{r3, pc}
    XcpSetCtoError(XCP_ERR_GENERIC);
 8001130:	2031      	movs	r0, #49	; 0x31
 8001132:	f7ff feb1 	bl	8000e98 <XcpSetCtoError>
    return;
 8001136:	e7fa      	b.n	800112e <XcpCmdProgramClear+0x1a>
 8001138:	200004cc 	.word	0x200004cc

0800113c <XcpCmdProgramReset>:
{
 800113c:	b508      	push	{r3, lr}
  CpuStartUserProgram();
 800113e:	f7ff fa03 	bl	8000548 <CpuStartUserProgram>
  xcpInfo.ctoData[0] = XCP_PID_RES;
 8001142:	4b03      	ldr	r3, [pc, #12]	; (8001150 <XcpCmdProgramReset+0x14>)
 8001144:	22ff      	movs	r2, #255	; 0xff
 8001146:	70da      	strb	r2, [r3, #3]
  xcpInfo.ctoLen = 1;
 8001148:	2201      	movs	r2, #1
 800114a:	f8a3 2044 	strh.w	r2, [r3, #68]	; 0x44
} /*** end of XcpCmdProgramReset ***/
 800114e:	bd08      	pop	{r3, pc}
 8001150:	200004cc 	.word	0x200004cc

08001154 <XcpTransmitPacket>:
{
 8001154:	b508      	push	{r3, lr}
  ComTransmitPacket(data, len);
 8001156:	b289      	uxth	r1, r1
 8001158:	f7ff fcca 	bl	8000af0 <ComTransmitPacket>
} /*** end of XcpTransmitPacket ***/
 800115c:	bd08      	pop	{r3, pc}
	...

08001160 <XcpInit>:
  xcpInfo.connected = 0;
 8001160:	4b05      	ldr	r3, [pc, #20]	; (8001178 <XcpInit+0x18>)
 8001162:	2200      	movs	r2, #0
 8001164:	701a      	strb	r2, [r3, #0]
  xcpInfo.mta = 0;
 8001166:	649a      	str	r2, [r3, #72]	; 0x48
  xcpInfo.ctoPending = 0;
 8001168:	f883 2043 	strb.w	r2, [r3, #67]	; 0x43
  xcpInfo.ctoLen = 0;
 800116c:	f8a3 2044 	strh.w	r2, [r3, #68]	; 0x44
  xcpInfo.s_n_k_resource = 0;
 8001170:	709a      	strb	r2, [r3, #2]
  xcpInfo.protection = 0;
 8001172:	705a      	strb	r2, [r3, #1]
} /*** end of XcpInit ***/
 8001174:	4770      	bx	lr
 8001176:	bf00      	nop
 8001178:	200004cc 	.word	0x200004cc

0800117c <XcpIsConnected>:
  if (xcpInfo.connected == 0)
 800117c:	4b03      	ldr	r3, [pc, #12]	; (800118c <XcpIsConnected+0x10>)
 800117e:	781b      	ldrb	r3, [r3, #0]
 8001180:	b10b      	cbz	r3, 8001186 <XcpIsConnected+0xa>
  return BLT_TRUE;
 8001182:	2001      	movs	r0, #1
} /*** end of XcpIsConnected ***/
 8001184:	4770      	bx	lr
    return BLT_FALSE;
 8001186:	2000      	movs	r0, #0
 8001188:	4770      	bx	lr
 800118a:	bf00      	nop
 800118c:	200004cc 	.word	0x200004cc

08001190 <XcpPacketTransmitted>:
  xcpInfo.ctoPending = 0;
 8001190:	4b02      	ldr	r3, [pc, #8]	; (800119c <XcpPacketTransmitted+0xc>)
 8001192:	2200      	movs	r2, #0
 8001194:	f883 2043 	strb.w	r2, [r3, #67]	; 0x43
} /*** end of XcpPacketTransmitted ***/
 8001198:	4770      	bx	lr
 800119a:	bf00      	nop
 800119c:	200004cc 	.word	0x200004cc

080011a0 <XcpPacketReceived>:
{
 80011a0:	b508      	push	{r3, lr}
  if (data[0] == XCP_CMD_CONNECT)
 80011a2:	7803      	ldrb	r3, [r0, #0]
 80011a4:	2bff      	cmp	r3, #255	; 0xff
 80011a6:	d004      	beq.n	80011b2 <XcpPacketReceived+0x12>
  else if (xcpInfo.connected == 1)
 80011a8:	4a35      	ldr	r2, [pc, #212]	; (8001280 <XcpPacketReceived+0xe0>)
 80011aa:	7812      	ldrb	r2, [r2, #0]
 80011ac:	2a01      	cmp	r2, #1
 80011ae:	d014      	beq.n	80011da <XcpPacketReceived+0x3a>
} /*** end of XcpPacketReceived ***/
 80011b0:	bd08      	pop	{r3, pc}
    XcpCmdConnect(data);
 80011b2:	f7ff fed9 	bl	8000f68 <XcpCmdConnect>
  if (xcpInfo.ctoPending == 1)
 80011b6:	4b32      	ldr	r3, [pc, #200]	; (8001280 <XcpPacketReceived+0xe0>)
 80011b8:	f893 3043 	ldrb.w	r3, [r3, #67]	; 0x43
 80011bc:	2b01      	cmp	r3, #1
 80011be:	d05a      	beq.n	8001276 <XcpPacketReceived+0xd6>
  if (xcpInfo.ctoLen > 0)
 80011c0:	4b2f      	ldr	r3, [pc, #188]	; (8001280 <XcpPacketReceived+0xe0>)
 80011c2:	f9b3 1044 	ldrsh.w	r1, [r3, #68]	; 0x44
 80011c6:	2900      	cmp	r1, #0
 80011c8:	ddf2      	ble.n	80011b0 <XcpPacketReceived+0x10>
    xcpInfo.ctoPending = 1;
 80011ca:	4618      	mov	r0, r3
 80011cc:	2301      	movs	r3, #1
 80011ce:	f880 3043 	strb.w	r3, [r0, #67]	; 0x43
    XcpTransmitPacket(xcpInfo.ctoData, xcpInfo.ctoLen);
 80011d2:	3003      	adds	r0, #3
 80011d4:	f7ff ffbe 	bl	8001154 <XcpTransmitPacket>
 80011d8:	e7ea      	b.n	80011b0 <XcpPacketReceived+0x10>
	switch (data[0])
 80011da:	3bc9      	subs	r3, #201	; 0xc9
 80011dc:	2b35      	cmp	r3, #53	; 0x35
 80011de:	d846      	bhi.n	800126e <XcpPacketReceived+0xce>
 80011e0:	e8df f003 	tbb	[pc, r3]
 80011e4:	42454533 	.word	0x42454533
 80011e8:	363f4545 	.word	0x363f4545
 80011ec:	4545393c 	.word	0x4545393c
 80011f0:	45454545 	.word	0x45454545
 80011f4:	45454545 	.word	0x45454545
 80011f8:	45454545 	.word	0x45454545
 80011fc:	45454545 	.word	0x45454545
 8001200:	45454545 	.word	0x45454545
 8001204:	45454545 	.word	0x45454545
 8001208:	45454545 	.word	0x45454545
 800120c:	1e244545 	.word	0x1e244545
 8001210:	4545211b 	.word	0x4545211b
 8001214:	2a452745 	.word	0x2a452745
 8001218:	302d      	.short	0x302d
        XcpCmdUpload(data);
 800121a:	f7ff fec7 	bl	8000fac <XcpCmdUpload>
        break;
 800121e:	e7ca      	b.n	80011b6 <XcpPacketReceived+0x16>
        XcpCmdShortUpload(data);
 8001220:	f7ff fee4 	bl	8000fec <XcpCmdShortUpload>
        break;
 8001224:	e7c7      	b.n	80011b6 <XcpPacketReceived+0x16>
        XcpCmdSetMta(data);
 8001226:	f7ff fe79 	bl	8000f1c <XcpCmdSetMta>
        break;
 800122a:	e7c4      	b.n	80011b6 <XcpPacketReceived+0x16>
        XcpCmdBuildCheckSum(data);
 800122c:	f7ff ff10 	bl	8001050 <XcpCmdBuildCheckSum>
        break;
 8001230:	e7c1      	b.n	80011b6 <XcpPacketReceived+0x16>
        XcpCmdGetId(data);
 8001232:	f7ff fe5f 	bl	8000ef4 <XcpCmdGetId>
        break;
 8001236:	e7be      	b.n	80011b6 <XcpPacketReceived+0x16>
        XcpCmdSynch(data);
 8001238:	f7ff fe56 	bl	8000ee8 <XcpCmdSynch>
        break;
 800123c:	e7bb      	b.n	80011b6 <XcpPacketReceived+0x16>
        XcpCmdGetStatus(data);
 800123e:	f7ff fe43 	bl	8000ec8 <XcpCmdGetStatus>
        break;
 8001242:	e7b8      	b.n	80011b6 <XcpPacketReceived+0x16>
        XcpCmdDisconnect(data);
 8001244:	f7ff fe32 	bl	8000eac <XcpCmdDisconnect>
        break;
 8001248:	e7b5      	b.n	80011b6 <XcpPacketReceived+0x16>
        XcpCmdProgramMax(data);
 800124a:	f7ff ff15 	bl	8001078 <XcpCmdProgramMax>
        break;
 800124e:	e7b2      	b.n	80011b6 <XcpPacketReceived+0x16>
        XcpCmdProgram(data);
 8001250:	f7ff ff32 	bl	80010b8 <XcpCmdProgram>
        break;
 8001254:	e7af      	b.n	80011b6 <XcpPacketReceived+0x16>
        XcpCmdProgramStart(data);
 8001256:	f7ff fe73 	bl	8000f40 <XcpCmdProgramStart>
        break;
 800125a:	e7ac      	b.n	80011b6 <XcpPacketReceived+0x16>
        XcpCmdProgramClear(data);
 800125c:	f7ff ff5a 	bl	8001114 <XcpCmdProgramClear>
        break;
 8001260:	e7a9      	b.n	80011b6 <XcpPacketReceived+0x16>
        XcpCmdProgramReset(data);
 8001262:	f7ff ff6b 	bl	800113c <XcpCmdProgramReset>
        break;
 8001266:	e7a6      	b.n	80011b6 <XcpPacketReceived+0x16>
        XcpCmdProgramPrepare(data);
 8001268:	f7ff fe64 	bl	8000f34 <XcpCmdProgramPrepare>
        break;
 800126c:	e7a3      	b.n	80011b6 <XcpPacketReceived+0x16>
        XcpSetCtoError(XCP_ERR_CMD_UNKNOWN);
 800126e:	2020      	movs	r0, #32
 8001270:	f7ff fe12 	bl	8000e98 <XcpSetCtoError>
        break;
 8001274:	e79f      	b.n	80011b6 <XcpPacketReceived+0x16>
    XcpSetCtoError(XCP_ERR_CMD_BUSY);
 8001276:	2010      	movs	r0, #16
 8001278:	f7ff fe0e 	bl	8000e98 <XcpSetCtoError>
 800127c:	e7a0      	b.n	80011c0 <XcpPacketReceived+0x20>
 800127e:	bf00      	nop
 8001280:	200004cc 	.word	0x200004cc

08001284 <add_msg_type>:

/*---------------------------------------------------------------------------*/
static u8_t *
add_msg_type(u8_t *optptr, u8_t type)
{
  *optptr++ = DHCP_OPTION_MSG_TYPE;
 8001284:	2335      	movs	r3, #53	; 0x35
 8001286:	7003      	strb	r3, [r0, #0]
  *optptr++ = 1;
 8001288:	2301      	movs	r3, #1
 800128a:	7043      	strb	r3, [r0, #1]
  *optptr++ = type;
 800128c:	7081      	strb	r1, [r0, #2]
  return optptr;
}
 800128e:	3003      	adds	r0, #3
 8001290:	4770      	bx	lr
	...

08001294 <add_server_id>:
/*---------------------------------------------------------------------------*/
static u8_t *
add_server_id(u8_t *optptr)
{
  *optptr++ = DHCP_OPTION_SERVER_ID;
 8001294:	2336      	movs	r3, #54	; 0x36
 8001296:	7003      	strb	r3, [r0, #0]
  *optptr++ = 4;
 8001298:	2304      	movs	r3, #4
 800129a:	7043      	strb	r3, [r0, #1]
  memcpy(optptr, s.serverid, 4);
 800129c:	4b02      	ldr	r3, [pc, #8]	; (80012a8 <add_server_id+0x14>)
 800129e:	69db      	ldr	r3, [r3, #28]
 80012a0:	f8c0 3002 	str.w	r3, [r0, #2]
  return optptr + 4;
}
 80012a4:	3006      	adds	r0, #6
 80012a6:	4770      	bx	lr
 80012a8:	20000518 	.word	0x20000518

080012ac <add_req_ipaddr>:
/*---------------------------------------------------------------------------*/
static u8_t *
add_req_ipaddr(u8_t *optptr)
{
  *optptr++ = DHCP_OPTION_REQ_IPADDR;
 80012ac:	2332      	movs	r3, #50	; 0x32
 80012ae:	7003      	strb	r3, [r0, #0]
  *optptr++ = 4;
 80012b0:	2304      	movs	r3, #4
 80012b2:	7043      	strb	r3, [r0, #1]
  memcpy(optptr, s.ipaddr, 4);
 80012b4:	4b02      	ldr	r3, [pc, #8]	; (80012c0 <add_req_ipaddr+0x14>)
 80012b6:	6a5b      	ldr	r3, [r3, #36]	; 0x24
 80012b8:	f8c0 3002 	str.w	r3, [r0, #2]
  return optptr + 4;
}
 80012bc:	3006      	adds	r0, #6
 80012be:	4770      	bx	lr
 80012c0:	20000518 	.word	0x20000518

080012c4 <add_req_options>:
/*---------------------------------------------------------------------------*/
static u8_t *
add_req_options(u8_t *optptr)
{
  *optptr++ = DHCP_OPTION_REQ_LIST;
 80012c4:	2337      	movs	r3, #55	; 0x37
 80012c6:	7003      	strb	r3, [r0, #0]
  *optptr++ = 3;
 80012c8:	2303      	movs	r3, #3
 80012ca:	7043      	strb	r3, [r0, #1]
  *optptr++ = DHCP_OPTION_SUBNET_MASK;
 80012cc:	2201      	movs	r2, #1
 80012ce:	7082      	strb	r2, [r0, #2]
  *optptr++ = DHCP_OPTION_ROUTER;
 80012d0:	70c3      	strb	r3, [r0, #3]
  *optptr++ = DHCP_OPTION_DNS_SERVER;
 80012d2:	2306      	movs	r3, #6
 80012d4:	7103      	strb	r3, [r0, #4]
  return optptr;
}
 80012d6:	3005      	adds	r0, #5
 80012d8:	4770      	bx	lr

080012da <add_end>:
/*---------------------------------------------------------------------------*/
static u8_t *
add_end(u8_t *optptr)
{
  *optptr++ = DHCP_OPTION_END;
 80012da:	23ff      	movs	r3, #255	; 0xff
 80012dc:	7003      	strb	r3, [r0, #0]
  return optptr;
}
 80012de:	3001      	adds	r0, #1
 80012e0:	4770      	bx	lr
	...

080012e4 <parse_options>:
  uip_send(uip_appdata, end - (u8_t *)uip_appdata);
}
/*---------------------------------------------------------------------------*/
static u8_t
parse_options(u8_t *optptr, int len)
{
 80012e4:	4603      	mov	r3, r0
  u8_t *end = optptr + len;
 80012e6:	4401      	add	r1, r0
  u8_t type = 0;
 80012e8:	2000      	movs	r0, #0

  while (optptr < end)
 80012ea:	428b      	cmp	r3, r1
 80012ec:	d234      	bcs.n	8001358 <parse_options+0x74>
{
 80012ee:	b410      	push	{r4}
 80012f0:	e010      	b.n	8001314 <parse_options+0x30>
  {
    switch (*optptr)
 80012f2:	2a36      	cmp	r2, #54	; 0x36
 80012f4:	d023      	beq.n	800133e <parse_options+0x5a>
 80012f6:	2aff      	cmp	r2, #255	; 0xff
 80012f8:	d02b      	beq.n	8001352 <parse_options+0x6e>
 80012fa:	2a35      	cmp	r2, #53	; 0x35
 80012fc:	d105      	bne.n	800130a <parse_options+0x26>
        break;
      case DHCP_OPTION_DNS_SERVER:
        memcpy(s.dnsaddr, optptr + 2, 4);
        break;
      case DHCP_OPTION_MSG_TYPE:
        type = *(optptr + 2);
 80012fe:	7898      	ldrb	r0, [r3, #2]
        break;
 8001300:	e003      	b.n	800130a <parse_options+0x26>
        memcpy(s.netmask, optptr + 2, 4);
 8001302:	f8d3 4002 	ldr.w	r4, [r3, #2]
 8001306:	4a15      	ldr	r2, [pc, #84]	; (800135c <parse_options+0x78>)
 8001308:	6294      	str	r4, [r2, #40]	; 0x28
        break;
      case DHCP_OPTION_END:
        return type;
    }

    optptr += optptr[1] + 2;
 800130a:	785a      	ldrb	r2, [r3, #1]
 800130c:	3202      	adds	r2, #2
 800130e:	4413      	add	r3, r2
  while (optptr < end)
 8001310:	428b      	cmp	r3, r1
 8001312:	d21e      	bcs.n	8001352 <parse_options+0x6e>
    switch (*optptr)
 8001314:	781a      	ldrb	r2, [r3, #0]
 8001316:	2a33      	cmp	r2, #51	; 0x33
 8001318:	d016      	beq.n	8001348 <parse_options+0x64>
 800131a:	d8ea      	bhi.n	80012f2 <parse_options+0xe>
 800131c:	2a03      	cmp	r2, #3
 800131e:	d004      	beq.n	800132a <parse_options+0x46>
 8001320:	2a06      	cmp	r2, #6
 8001322:	d007      	beq.n	8001334 <parse_options+0x50>
 8001324:	2a01      	cmp	r2, #1
 8001326:	d1f0      	bne.n	800130a <parse_options+0x26>
 8001328:	e7eb      	b.n	8001302 <parse_options+0x1e>
        memcpy(s.default_router, optptr + 2, 4);
 800132a:	f8d3 4002 	ldr.w	r4, [r3, #2]
 800132e:	4a0b      	ldr	r2, [pc, #44]	; (800135c <parse_options+0x78>)
 8001330:	6314      	str	r4, [r2, #48]	; 0x30
        break;
 8001332:	e7ea      	b.n	800130a <parse_options+0x26>
        memcpy(s.dnsaddr, optptr + 2, 4);
 8001334:	f8d3 4002 	ldr.w	r4, [r3, #2]
 8001338:	4a08      	ldr	r2, [pc, #32]	; (800135c <parse_options+0x78>)
 800133a:	62d4      	str	r4, [r2, #44]	; 0x2c
        break;
 800133c:	e7e5      	b.n	800130a <parse_options+0x26>
        memcpy(s.serverid, optptr + 2, 4);
 800133e:	f8d3 4002 	ldr.w	r4, [r3, #2]
 8001342:	4a06      	ldr	r2, [pc, #24]	; (800135c <parse_options+0x78>)
 8001344:	61d4      	str	r4, [r2, #28]
        break;
 8001346:	e7e0      	b.n	800130a <parse_options+0x26>
        memcpy(s.lease_time, optptr + 2, 4);
 8001348:	f8d3 4002 	ldr.w	r4, [r3, #2]
 800134c:	4a03      	ldr	r2, [pc, #12]	; (800135c <parse_options+0x78>)
 800134e:	6214      	str	r4, [r2, #32]
        break;
 8001350:	e7db      	b.n	800130a <parse_options+0x26>
  }
  return type;
}
 8001352:	f85d 4b04 	ldr.w	r4, [sp], #4
 8001356:	4770      	bx	lr
 8001358:	4770      	bx	lr
 800135a:	bf00      	nop
 800135c:	20000518 	.word	0x20000518

08001360 <dhcpc_configured>:
/*---------------------------------------------------------------------------*/
void
dhcpc_configured(const struct dhcpc_state *s)
{
  /* set the IP address received from the DHCP server. */
  uip_sethostaddr(&s->ipaddr);
 8001360:	4b07      	ldr	r3, [pc, #28]	; (8001380 <dhcpc_configured+0x20>)
 8001362:	8c82      	ldrh	r2, [r0, #36]	; 0x24
 8001364:	801a      	strh	r2, [r3, #0]
 8001366:	8cc2      	ldrh	r2, [r0, #38]	; 0x26
 8001368:	805a      	strh	r2, [r3, #2]
  /* set the network mask received from the DHCP server. */
  uip_setnetmask(&s->netmask);
 800136a:	4b06      	ldr	r3, [pc, #24]	; (8001384 <dhcpc_configured+0x24>)
 800136c:	8d02      	ldrh	r2, [r0, #40]	; 0x28
 800136e:	801a      	strh	r2, [r3, #0]
 8001370:	8d42      	ldrh	r2, [r0, #42]	; 0x2a
 8001372:	805a      	strh	r2, [r3, #2]
  /* set the gateway address received from the DHCP server. */
  uip_setdraddr(&s->default_router);
 8001374:	4b04      	ldr	r3, [pc, #16]	; (8001388 <dhcpc_configured+0x28>)
 8001376:	8e02      	ldrh	r2, [r0, #48]	; 0x30
 8001378:	801a      	strh	r2, [r3, #0]
 800137a:	8e42      	ldrh	r2, [r0, #50]	; 0x32
 800137c:	805a      	strh	r2, [r3, #2]
}
 800137e:	4770      	bx	lr
 8001380:	2000066c 	.word	0x2000066c
 8001384:	20000668 	.word	0x20000668
 8001388:	20000664 	.word	0x20000664

0800138c <create_msg>:
{
 800138c:	b5f8      	push	{r3, r4, r5, r6, r7, lr}
 800138e:	4604      	mov	r4, r0
  m->op = DHCP_REQUEST;
 8001390:	2301      	movs	r3, #1
 8001392:	7003      	strb	r3, [r0, #0]
  m->htype = DHCP_HTYPE_ETHERNET;
 8001394:	7043      	strb	r3, [r0, #1]
  m->hlen = s.mac_len;
 8001396:	4b18      	ldr	r3, [pc, #96]	; (80013f8 <create_msg+0x6c>)
 8001398:	699a      	ldr	r2, [r3, #24]
 800139a:	7082      	strb	r2, [r0, #2]
  m->hops = 0;
 800139c:	2500      	movs	r5, #0
 800139e:	70c5      	strb	r5, [r0, #3]
  memcpy(m->xid, xid, sizeof(m->xid));
 80013a0:	4a16      	ldr	r2, [pc, #88]	; (80013fc <create_msg+0x70>)
 80013a2:	6812      	ldr	r2, [r2, #0]
 80013a4:	6042      	str	r2, [r0, #4]
  m->secs = 0;
 80013a6:	8105      	strh	r5, [r0, #8]
  m->flags = HTONS(BOOTP_BROADCAST); /*  Broadcast bit. */
 80013a8:	2780      	movs	r7, #128	; 0x80
 80013aa:	8147      	strh	r7, [r0, #10]
  memcpy(m->ciaddr, uip_hostaddr, sizeof(m->ciaddr));
 80013ac:	4a14      	ldr	r2, [pc, #80]	; (8001400 <create_msg+0x74>)
 80013ae:	6812      	ldr	r2, [r2, #0]
 80013b0:	60c2      	str	r2, [r0, #12]
  memset(m->yiaddr, 0, sizeof(m->yiaddr));
 80013b2:	6105      	str	r5, [r0, #16]
  memset(m->siaddr, 0, sizeof(m->siaddr));
 80013b4:	6145      	str	r5, [r0, #20]
  memset(m->giaddr, 0, sizeof(m->giaddr));
 80013b6:	6185      	str	r5, [r0, #24]
  memcpy(m->chaddr, s.mac_addr, s.mac_len);
 80013b8:	699e      	ldr	r6, [r3, #24]
 80013ba:	4632      	mov	r2, r6
 80013bc:	6959      	ldr	r1, [r3, #20]
 80013be:	301c      	adds	r0, #28
 80013c0:	f003 fa07 	bl	80047d2 <memcpy>
  memset(&m->chaddr[s.mac_len], 0, sizeof(m->chaddr) - s.mac_len);
 80013c4:	f106 0018 	add.w	r0, r6, #24
 80013c8:	4420      	add	r0, r4
 80013ca:	f1c6 0210 	rsb	r2, r6, #16
 80013ce:	4629      	mov	r1, r5
 80013d0:	3004      	adds	r0, #4
 80013d2:	f003 fa09 	bl	80047e8 <memset>
  memset(m->sname, 0, sizeof(m->sname));
 80013d6:	2240      	movs	r2, #64	; 0x40
 80013d8:	4629      	mov	r1, r5
 80013da:	f104 002c 	add.w	r0, r4, #44	; 0x2c
 80013de:	f003 fa03 	bl	80047e8 <memset>
  memset(m->file, 0, sizeof(m->file));
 80013e2:	463a      	mov	r2, r7
 80013e4:	4629      	mov	r1, r5
 80013e6:	f104 006c 	add.w	r0, r4, #108	; 0x6c
 80013ea:	f003 f9fd 	bl	80047e8 <memset>
  memcpy(m->options, magic_cookie, sizeof(magic_cookie));
 80013ee:	4b05      	ldr	r3, [pc, #20]	; (8001404 <create_msg+0x78>)
 80013f0:	681b      	ldr	r3, [r3, #0]
 80013f2:	f8c4 30ec 	str.w	r3, [r4, #236]	; 0xec
}
 80013f6:	bdf8      	pop	{r3, r4, r5, r6, r7, pc}
 80013f8:	20000518 	.word	0x20000518
 80013fc:	080048a0 	.word	0x080048a0
 8001400:	2000066c 	.word	0x2000066c
 8001404:	0800489c 	.word	0x0800489c

08001408 <send_discover>:
{
 8001408:	b538      	push	{r3, r4, r5, lr}
  struct dhcp_msg *m = (struct dhcp_msg *)uip_appdata;
 800140a:	4c0a      	ldr	r4, [pc, #40]	; (8001434 <send_discover+0x2c>)
 800140c:	6825      	ldr	r5, [r4, #0]
  create_msg(m);
 800140e:	4628      	mov	r0, r5
 8001410:	f7ff ffbc 	bl	800138c <create_msg>
  end = add_msg_type(&m->options[4], DHCPDISCOVER);
 8001414:	2101      	movs	r1, #1
 8001416:	f105 00f0 	add.w	r0, r5, #240	; 0xf0
 800141a:	f7ff ff33 	bl	8001284 <add_msg_type>
  end = add_req_options(end);
 800141e:	f7ff ff51 	bl	80012c4 <add_req_options>
  end = add_end(end);
 8001422:	f7ff ff5a 	bl	80012da <add_end>
  uip_send(uip_appdata, end - (u8_t *)uip_appdata);
 8001426:	6823      	ldr	r3, [r4, #0]
 8001428:	1ac1      	subs	r1, r0, r3
 800142a:	4618      	mov	r0, r3
 800142c:	f001 f886 	bl	800253c <uip_send>
}
 8001430:	bd38      	pop	{r3, r4, r5, pc}
 8001432:	bf00      	nop
 8001434:	200005f0 	.word	0x200005f0

08001438 <send_request>:
{
 8001438:	b538      	push	{r3, r4, r5, lr}
  struct dhcp_msg *m = (struct dhcp_msg *)uip_appdata;
 800143a:	4c0b      	ldr	r4, [pc, #44]	; (8001468 <send_request+0x30>)
 800143c:	6825      	ldr	r5, [r4, #0]
  create_msg(m);
 800143e:	4628      	mov	r0, r5
 8001440:	f7ff ffa4 	bl	800138c <create_msg>
  end = add_msg_type(&m->options[4], DHCPREQUEST);
 8001444:	2103      	movs	r1, #3
 8001446:	f105 00f0 	add.w	r0, r5, #240	; 0xf0
 800144a:	f7ff ff1b 	bl	8001284 <add_msg_type>
  end = add_server_id(end);
 800144e:	f7ff ff21 	bl	8001294 <add_server_id>
  end = add_req_ipaddr(end);
 8001452:	f7ff ff2b 	bl	80012ac <add_req_ipaddr>
  end = add_end(end);
 8001456:	f7ff ff40 	bl	80012da <add_end>
  uip_send(uip_appdata, end - (u8_t *)uip_appdata);
 800145a:	6823      	ldr	r3, [r4, #0]
 800145c:	1ac1      	subs	r1, r0, r3
 800145e:	4618      	mov	r0, r3
 8001460:	f001 f86c 	bl	800253c <uip_send>
}
 8001464:	bd38      	pop	{r3, r4, r5, pc}
 8001466:	bf00      	nop
 8001468:	200005f0 	.word	0x200005f0

0800146c <parse_msg>:
{
 800146c:	b510      	push	{r4, lr}
  struct dhcp_msg *m = (struct dhcp_msg *)uip_appdata;
 800146e:	4b11      	ldr	r3, [pc, #68]	; (80014b4 <parse_msg+0x48>)
 8001470:	681c      	ldr	r4, [r3, #0]
  if (m->op == DHCP_REPLY &&
 8001472:	7823      	ldrb	r3, [r4, #0]
 8001474:	2b02      	cmp	r3, #2
 8001476:	d001      	beq.n	800147c <parse_msg+0x10>
  return 0;
 8001478:	2000      	movs	r0, #0
}
 800147a:	bd10      	pop	{r4, pc}
      memcmp(m->xid, xid, sizeof(xid)) == 0 &&
 800147c:	2204      	movs	r2, #4
 800147e:	490e      	ldr	r1, [pc, #56]	; (80014b8 <parse_msg+0x4c>)
 8001480:	18a0      	adds	r0, r4, r2
 8001482:	f003 f997 	bl	80047b4 <memcmp>
  if (m->op == DHCP_REPLY &&
 8001486:	b998      	cbnz	r0, 80014b0 <parse_msg+0x44>
      memcmp(m->chaddr, s.mac_addr, s.mac_len) == 0)
 8001488:	4b0c      	ldr	r3, [pc, #48]	; (80014bc <parse_msg+0x50>)
 800148a:	699a      	ldr	r2, [r3, #24]
 800148c:	6959      	ldr	r1, [r3, #20]
 800148e:	f104 001c 	add.w	r0, r4, #28
 8001492:	f003 f98f 	bl	80047b4 <memcmp>
      memcmp(m->xid, xid, sizeof(xid)) == 0 &&
 8001496:	b108      	cbz	r0, 800149c <parse_msg+0x30>
  return 0;
 8001498:	2000      	movs	r0, #0
 800149a:	e7ee      	b.n	800147a <parse_msg+0xe>
    memcpy(s.ipaddr, m->yiaddr, 4);
 800149c:	6922      	ldr	r2, [r4, #16]
 800149e:	4b07      	ldr	r3, [pc, #28]	; (80014bc <parse_msg+0x50>)
 80014a0:	625a      	str	r2, [r3, #36]	; 0x24
    return parse_options(&m->options[4], uip_datalen());
 80014a2:	4b07      	ldr	r3, [pc, #28]	; (80014c0 <parse_msg+0x54>)
 80014a4:	8819      	ldrh	r1, [r3, #0]
 80014a6:	f104 00f0 	add.w	r0, r4, #240	; 0xf0
 80014aa:	f7ff ff1b 	bl	80012e4 <parse_options>
 80014ae:	e7e4      	b.n	800147a <parse_msg+0xe>
  return 0;
 80014b0:	2000      	movs	r0, #0
 80014b2:	e7e2      	b.n	800147a <parse_msg+0xe>
 80014b4:	200005f0 	.word	0x200005f0
 80014b8:	080048a0 	.word	0x080048a0
 80014bc:	20000518 	.word	0x20000518
 80014c0:	200005dc 	.word	0x200005dc

080014c4 <dhcpc_request>:
  uip_sethostaddr(ipaddr);
 80014c4:	4b02      	ldr	r3, [pc, #8]	; (80014d0 <dhcpc_request+0xc>)
 80014c6:	2200      	movs	r2, #0
 80014c8:	801a      	strh	r2, [r3, #0]
 80014ca:	805a      	strh	r2, [r3, #2]
}
 80014cc:	4770      	bx	lr
 80014ce:	bf00      	nop
 80014d0:	2000066c 	.word	0x2000066c

080014d4 <handle_dhcp>:
{
 80014d4:	b538      	push	{r3, r4, r5, lr}
  PT_BEGIN(&s.pt);
 80014d6:	4b98      	ldr	r3, [pc, #608]	; (8001738 <handle_dhcp+0x264>)
 80014d8:	881b      	ldrh	r3, [r3, #0]
 80014da:	f5b3 7f93 	cmp.w	r3, #294	; 0x126
 80014de:	d015      	beq.n	800150c <handle_dhcp+0x38>
 80014e0:	d859      	bhi.n	8001596 <handle_dhcp+0xc2>
 80014e2:	f240 120f 	movw	r2, #271	; 0x10f
 80014e6:	4293      	cmp	r3, r2
 80014e8:	f000 809a 	beq.w	8001620 <handle_dhcp+0x14c>
 80014ec:	f5b3 7f88 	cmp.w	r3, #272	; 0x110
 80014f0:	d347      	bcc.n	8001582 <handle_dhcp+0xae>
 80014f2:	f5b3 7f88 	cmp.w	r3, #272	; 0x110
 80014f6:	f000 8097 	beq.w	8001628 <handle_dhcp+0x154>
 80014fa:	f240 1225 	movw	r2, #293	; 0x125
 80014fe:	4293      	cmp	r3, r2
 8001500:	f040 8115 	bne.w	800172e <handle_dhcp+0x25a>
    PT_WAIT_UNTIL(&s.pt, uip_newdata() || timer_expired(&s.timer));
 8001504:	4b8c      	ldr	r3, [pc, #560]	; (8001738 <handle_dhcp+0x264>)
 8001506:	f44f 7293 	mov.w	r2, #294	; 0x126
 800150a:	801a      	strh	r2, [r3, #0]
 800150c:	4b8b      	ldr	r3, [pc, #556]	; (800173c <handle_dhcp+0x268>)
 800150e:	781b      	ldrb	r3, [r3, #0]
 8001510:	f013 0f02 	tst.w	r3, #2
 8001514:	f000 80cb 	beq.w	80016ae <handle_dhcp+0x1da>
    if (uip_newdata() && parse_msg() == DHCPACK)
 8001518:	4b88      	ldr	r3, [pc, #544]	; (800173c <handle_dhcp+0x268>)
 800151a:	781b      	ldrb	r3, [r3, #0]
 800151c:	f013 0f02 	tst.w	r3, #2
 8001520:	f040 80cd 	bne.w	80016be <handle_dhcp+0x1ea>
    if (s.ticks <= CLOCK_SECOND * 10)
 8001524:	4b84      	ldr	r3, [pc, #528]	; (8001738 <handle_dhcp+0x264>)
 8001526:	691b      	ldr	r3, [r3, #16]
 8001528:	f242 7210 	movw	r2, #10000	; 0x2710
 800152c:	4293      	cmp	r3, r2
 800152e:	f300 80cf 	bgt.w	80016d0 <handle_dhcp+0x1fc>
      s.ticks += CLOCK_SECOND;
 8001532:	4a81      	ldr	r2, [pc, #516]	; (8001738 <handle_dhcp+0x264>)
 8001534:	f503 737a 	add.w	r3, r3, #1000	; 0x3e8
 8001538:	6113      	str	r3, [r2, #16]
  while (s.state != STATE_CONFIG_RECEIVED);
 800153a:	7893      	ldrb	r3, [r2, #2]
 800153c:	2b03      	cmp	r3, #3
 800153e:	f040 80a9 	bne.w	8001694 <handle_dhcp+0x1c0>
  dhcpc_configured(&s);
 8001542:	487d      	ldr	r0, [pc, #500]	; (8001738 <handle_dhcp+0x264>)
 8001544:	f7ff ff0c 	bl	8001360 <dhcpc_configured>
    lease_renew_time  = ((unsigned long)(ntohs(s.lease_time[0])) << 16u);
 8001548:	4d7b      	ldr	r5, [pc, #492]	; (8001738 <handle_dhcp+0x264>)
 800154a:	8c28      	ldrh	r0, [r5, #32]
 800154c:	f000 f9bc 	bl	80018c8 <htons>
 8001550:	0404      	lsls	r4, r0, #16
    lease_renew_time |= (ntohs(s.lease_time[1]));
 8001552:	8c68      	ldrh	r0, [r5, #34]	; 0x22
 8001554:	f000 f9b8 	bl	80018c8 <htons>
 8001558:	4320      	orrs	r0, r4
    lease_renew_time /= 2;
 800155a:	0840      	lsrs	r0, r0, #1
    if ((lease_renew_time * CLOCK_SECOND) <= INT_MAX)
 800155c:	f44f 747a 	mov.w	r4, #1000	; 0x3e8
 8001560:	fb04 f000 	mul.w	r0, r4, r0
 8001564:	2800      	cmp	r0, #0
 8001566:	f2c0 80b7 	blt.w	80016d8 <handle_dhcp+0x204>
      s.ticks = lease_renew_time * CLOCK_SECOND;
 800156a:	6128      	str	r0, [r5, #16]
    timer_set(&s.timer, s.ticks);
 800156c:	4c72      	ldr	r4, [pc, #456]	; (8001738 <handle_dhcp+0x264>)
 800156e:	6921      	ldr	r1, [r4, #16]
 8001570:	f104 0008 	add.w	r0, r4, #8
 8001574:	f001 f9c4 	bl	8002900 <timer_set>
    PT_YIELD(&s.pt);
 8001578:	f240 1355 	movw	r3, #341	; 0x155
 800157c:	8023      	strh	r3, [r4, #0]
 800157e:	2003      	movs	r0, #3
 8001580:	e075      	b.n	800166e <handle_dhcp+0x19a>
  PT_BEGIN(&s.pt);
 8001582:	2b00      	cmp	r3, #0
 8001584:	f040 80d3 	bne.w	800172e <handle_dhcp+0x25a>
  s.state = STATE_SENDING;
 8001588:	4b6b      	ldr	r3, [pc, #428]	; (8001738 <handle_dhcp+0x264>)
 800158a:	2201      	movs	r2, #1
 800158c:	709a      	strb	r2, [r3, #2]
  s.ticks = CLOCK_SECOND;
 800158e:	f44f 727a 	mov.w	r2, #1000	; 0x3e8
 8001592:	611a      	str	r2, [r3, #16]
 8001594:	e05f      	b.n	8001656 <handle_dhcp+0x182>
  PT_BEGIN(&s.pt);
 8001596:	f5b3 7fab 	cmp.w	r3, #342	; 0x156
 800159a:	d03a      	beq.n	8001612 <handle_dhcp+0x13e>
 800159c:	d930      	bls.n	8001600 <handle_dhcp+0x12c>
 800159e:	f5b3 7fb5 	cmp.w	r3, #362	; 0x16a
 80015a2:	f000 80a7 	beq.w	80016f4 <handle_dhcp+0x220>
 80015a6:	f240 126b 	movw	r2, #363	; 0x16b
 80015aa:	4293      	cmp	r3, r2
 80015ac:	f040 80bf 	bne.w	800172e <handle_dhcp+0x25a>
      PT_WAIT_UNTIL(&s.pt, uip_newdata() || timer_expired(&s.timer));
 80015b0:	4b62      	ldr	r3, [pc, #392]	; (800173c <handle_dhcp+0x268>)
 80015b2:	781b      	ldrb	r3, [r3, #0]
 80015b4:	f013 0f02 	tst.w	r3, #2
 80015b8:	f000 80a1 	beq.w	80016fe <handle_dhcp+0x22a>
      if (uip_newdata() && parse_msg() == DHCPACK)
 80015bc:	4b5f      	ldr	r3, [pc, #380]	; (800173c <handle_dhcp+0x268>)
 80015be:	781b      	ldrb	r3, [r3, #0]
 80015c0:	f013 0f02 	tst.w	r3, #2
 80015c4:	f040 80a3 	bne.w	800170e <handle_dhcp+0x23a>
      if (s.ticks <= CLOCK_SECOND * 10)
 80015c8:	4b5b      	ldr	r3, [pc, #364]	; (8001738 <handle_dhcp+0x264>)
 80015ca:	691b      	ldr	r3, [r3, #16]
 80015cc:	f242 7210 	movw	r2, #10000	; 0x2710
 80015d0:	4293      	cmp	r3, r2
 80015d2:	f300 80a8 	bgt.w	8001726 <handle_dhcp+0x252>
        s.ticks += CLOCK_SECOND;
 80015d6:	4a58      	ldr	r2, [pc, #352]	; (8001738 <handle_dhcp+0x264>)
 80015d8:	f503 737a 	add.w	r3, r3, #1000	; 0x3e8
 80015dc:	6113      	str	r3, [r2, #16]
    while (s.state != STATE_CONFIG_RECEIVED);
 80015de:	7893      	ldrb	r3, [r2, #2]
 80015e0:	2b03      	cmp	r3, #3
 80015e2:	f000 809c 	beq.w	800171e <handle_dhcp+0x24a>
      send_request();
 80015e6:	f7ff ff27 	bl	8001438 <send_request>
      timer_set(&s.timer, s.ticks);
 80015ea:	4c53      	ldr	r4, [pc, #332]	; (8001738 <handle_dhcp+0x264>)
 80015ec:	6921      	ldr	r1, [r4, #16]
 80015ee:	f104 0008 	add.w	r0, r4, #8
 80015f2:	f001 f985 	bl	8002900 <timer_set>
      PT_YIELD(&s.pt);
 80015f6:	f44f 73b5 	mov.w	r3, #362	; 0x16a
 80015fa:	8023      	strh	r3, [r4, #0]
 80015fc:	2003      	movs	r0, #3
 80015fe:	e036      	b.n	800166e <handle_dhcp+0x19a>
  PT_BEGIN(&s.pt);
 8001600:	f240 1255 	movw	r2, #341	; 0x155
 8001604:	4293      	cmp	r3, r2
 8001606:	f040 8092 	bne.w	800172e <handle_dhcp+0x25a>
    PT_WAIT_UNTIL(&s.pt, timer_expired(&s.timer));
 800160a:	4b4b      	ldr	r3, [pc, #300]	; (8001738 <handle_dhcp+0x264>)
 800160c:	f44f 72ab 	mov.w	r2, #342	; 0x156
 8001610:	801a      	strh	r2, [r3, #0]
 8001612:	484b      	ldr	r0, [pc, #300]	; (8001740 <handle_dhcp+0x26c>)
 8001614:	f001 f97b 	bl	800290e <timer_expired>
 8001618:	2800      	cmp	r0, #0
 800161a:	d162      	bne.n	80016e2 <handle_dhcp+0x20e>
 800161c:	2000      	movs	r0, #0
 800161e:	e026      	b.n	800166e <handle_dhcp+0x19a>
    PT_WAIT_UNTIL(&s.pt, uip_newdata() || timer_expired(&s.timer));
 8001620:	4b45      	ldr	r3, [pc, #276]	; (8001738 <handle_dhcp+0x264>)
 8001622:	f44f 7288 	mov.w	r2, #272	; 0x110
 8001626:	801a      	strh	r2, [r3, #0]
 8001628:	4b44      	ldr	r3, [pc, #272]	; (800173c <handle_dhcp+0x268>)
 800162a:	781b      	ldrb	r3, [r3, #0]
 800162c:	f013 0f02 	tst.w	r3, #2
 8001630:	d01e      	beq.n	8001670 <handle_dhcp+0x19c>
    if (uip_newdata() && parse_msg() == DHCPOFFER)
 8001632:	4b42      	ldr	r3, [pc, #264]	; (800173c <handle_dhcp+0x268>)
 8001634:	781b      	ldrb	r3, [r3, #0]
 8001636:	f013 0f02 	tst.w	r3, #2
 800163a:	d120      	bne.n	800167e <handle_dhcp+0x1aa>
    if (s.ticks < CLOCK_SECOND * 60)
 800163c:	4b3e      	ldr	r3, [pc, #248]	; (8001738 <handle_dhcp+0x264>)
 800163e:	691b      	ldr	r3, [r3, #16]
 8001640:	f64e 225f 	movw	r2, #59999	; 0xea5f
 8001644:	4293      	cmp	r3, r2
 8001646:	dc02      	bgt.n	800164e <handle_dhcp+0x17a>
      s.ticks *= 2;
 8001648:	005b      	lsls	r3, r3, #1
 800164a:	4a3b      	ldr	r2, [pc, #236]	; (8001738 <handle_dhcp+0x264>)
 800164c:	6113      	str	r3, [r2, #16]
  while (s.state != STATE_OFFER_RECEIVED);
 800164e:	4b3a      	ldr	r3, [pc, #232]	; (8001738 <handle_dhcp+0x264>)
 8001650:	789b      	ldrb	r3, [r3, #2]
 8001652:	2b02      	cmp	r3, #2
 8001654:	d01a      	beq.n	800168c <handle_dhcp+0x1b8>
    send_discover();
 8001656:	f7ff fed7 	bl	8001408 <send_discover>
    timer_set(&s.timer, s.ticks);
 800165a:	4c37      	ldr	r4, [pc, #220]	; (8001738 <handle_dhcp+0x264>)
 800165c:	6921      	ldr	r1, [r4, #16]
 800165e:	f104 0008 	add.w	r0, r4, #8
 8001662:	f001 f94d 	bl	8002900 <timer_set>
    PT_YIELD(&s.pt);
 8001666:	f240 130f 	movw	r3, #271	; 0x10f
 800166a:	8023      	strh	r3, [r4, #0]
 800166c:	2003      	movs	r0, #3
}
 800166e:	bd38      	pop	{r3, r4, r5, pc}
    PT_WAIT_UNTIL(&s.pt, uip_newdata() || timer_expired(&s.timer));
 8001670:	4833      	ldr	r0, [pc, #204]	; (8001740 <handle_dhcp+0x26c>)
 8001672:	f001 f94c 	bl	800290e <timer_expired>
 8001676:	2800      	cmp	r0, #0
 8001678:	d1db      	bne.n	8001632 <handle_dhcp+0x15e>
 800167a:	2000      	movs	r0, #0
 800167c:	e7f7      	b.n	800166e <handle_dhcp+0x19a>
    if (uip_newdata() && parse_msg() == DHCPOFFER)
 800167e:	f7ff fef5 	bl	800146c <parse_msg>
 8001682:	2802      	cmp	r0, #2
 8001684:	d1da      	bne.n	800163c <handle_dhcp+0x168>
      s.state = STATE_OFFER_RECEIVED;
 8001686:	4b2c      	ldr	r3, [pc, #176]	; (8001738 <handle_dhcp+0x264>)
 8001688:	2202      	movs	r2, #2
 800168a:	709a      	strb	r2, [r3, #2]
  s.ticks = CLOCK_SECOND;
 800168c:	4b2a      	ldr	r3, [pc, #168]	; (8001738 <handle_dhcp+0x264>)
 800168e:	f44f 727a 	mov.w	r2, #1000	; 0x3e8
 8001692:	611a      	str	r2, [r3, #16]
    send_request();
 8001694:	f7ff fed0 	bl	8001438 <send_request>
    timer_set(&s.timer, s.ticks);
 8001698:	4c27      	ldr	r4, [pc, #156]	; (8001738 <handle_dhcp+0x264>)
 800169a:	6921      	ldr	r1, [r4, #16]
 800169c:	f104 0008 	add.w	r0, r4, #8
 80016a0:	f001 f92e 	bl	8002900 <timer_set>
    PT_YIELD(&s.pt);
 80016a4:	f240 1325 	movw	r3, #293	; 0x125
 80016a8:	8023      	strh	r3, [r4, #0]
 80016aa:	2003      	movs	r0, #3
 80016ac:	e7df      	b.n	800166e <handle_dhcp+0x19a>
    PT_WAIT_UNTIL(&s.pt, uip_newdata() || timer_expired(&s.timer));
 80016ae:	4824      	ldr	r0, [pc, #144]	; (8001740 <handle_dhcp+0x26c>)
 80016b0:	f001 f92d 	bl	800290e <timer_expired>
 80016b4:	2800      	cmp	r0, #0
 80016b6:	f47f af2f 	bne.w	8001518 <handle_dhcp+0x44>
 80016ba:	2000      	movs	r0, #0
 80016bc:	e7d7      	b.n	800166e <handle_dhcp+0x19a>
    if (uip_newdata() && parse_msg() == DHCPACK)
 80016be:	f7ff fed5 	bl	800146c <parse_msg>
 80016c2:	2805      	cmp	r0, #5
 80016c4:	f47f af2e 	bne.w	8001524 <handle_dhcp+0x50>
      s.state = STATE_CONFIG_RECEIVED;
 80016c8:	4b1b      	ldr	r3, [pc, #108]	; (8001738 <handle_dhcp+0x264>)
 80016ca:	2203      	movs	r2, #3
 80016cc:	709a      	strb	r2, [r3, #2]
      break;
 80016ce:	e738      	b.n	8001542 <handle_dhcp+0x6e>
      PT_RESTART(&s.pt);
 80016d0:	2000      	movs	r0, #0
 80016d2:	4b19      	ldr	r3, [pc, #100]	; (8001738 <handle_dhcp+0x264>)
 80016d4:	8018      	strh	r0, [r3, #0]
 80016d6:	e7ca      	b.n	800166e <handle_dhcp+0x19a>
      s.ticks = INT_MAX;
 80016d8:	4b17      	ldr	r3, [pc, #92]	; (8001738 <handle_dhcp+0x264>)
 80016da:	f06f 4200 	mvn.w	r2, #2147483648	; 0x80000000
 80016de:	611a      	str	r2, [r3, #16]
 80016e0:	e744      	b.n	800156c <handle_dhcp+0x98>
    s.state = STATE_OFFER_RECEIVED;
 80016e2:	4b15      	ldr	r3, [pc, #84]	; (8001738 <handle_dhcp+0x264>)
 80016e4:	2202      	movs	r2, #2
 80016e6:	709a      	strb	r2, [r3, #2]
    s.ticks = CLOCK_SECOND;
 80016e8:	f44f 727a 	mov.w	r2, #1000	; 0x3e8
 80016ec:	611a      	str	r2, [r3, #16]
    dhcpc_request();
 80016ee:	f7ff fee9 	bl	80014c4 <dhcpc_request>
 80016f2:	e778      	b.n	80015e6 <handle_dhcp+0x112>
      PT_WAIT_UNTIL(&s.pt, uip_newdata() || timer_expired(&s.timer));
 80016f4:	4b10      	ldr	r3, [pc, #64]	; (8001738 <handle_dhcp+0x264>)
 80016f6:	f240 126b 	movw	r2, #363	; 0x16b
 80016fa:	801a      	strh	r2, [r3, #0]
 80016fc:	e758      	b.n	80015b0 <handle_dhcp+0xdc>
 80016fe:	4810      	ldr	r0, [pc, #64]	; (8001740 <handle_dhcp+0x26c>)
 8001700:	f001 f905 	bl	800290e <timer_expired>
 8001704:	2800      	cmp	r0, #0
 8001706:	f47f af59 	bne.w	80015bc <handle_dhcp+0xe8>
 800170a:	2000      	movs	r0, #0
 800170c:	e7af      	b.n	800166e <handle_dhcp+0x19a>
      if (uip_newdata() && parse_msg() == DHCPACK)
 800170e:	f7ff fead 	bl	800146c <parse_msg>
 8001712:	2805      	cmp	r0, #5
 8001714:	f47f af58 	bne.w	80015c8 <handle_dhcp+0xf4>
        s.state = STATE_CONFIG_RECEIVED;
 8001718:	4b07      	ldr	r3, [pc, #28]	; (8001738 <handle_dhcp+0x264>)
 800171a:	2203      	movs	r2, #3
 800171c:	709a      	strb	r2, [r3, #2]
    dhcpc_configured(&s);
 800171e:	4806      	ldr	r0, [pc, #24]	; (8001738 <handle_dhcp+0x264>)
 8001720:	f7ff fe1e 	bl	8001360 <dhcpc_configured>
    lease_renew_time  = ((unsigned long)(ntohs(s.lease_time[0])) << 16u);
 8001724:	e710      	b.n	8001548 <handle_dhcp+0x74>
        PT_RESTART(&s.pt);
 8001726:	2000      	movs	r0, #0
 8001728:	4b03      	ldr	r3, [pc, #12]	; (8001738 <handle_dhcp+0x264>)
 800172a:	8018      	strh	r0, [r3, #0]
 800172c:	e79f      	b.n	800166e <handle_dhcp+0x19a>
  PT_END(&s.pt);
 800172e:	4b02      	ldr	r3, [pc, #8]	; (8001738 <handle_dhcp+0x264>)
 8001730:	2200      	movs	r2, #0
 8001732:	801a      	strh	r2, [r3, #0]
 8001734:	2002      	movs	r0, #2
 8001736:	e79a      	b.n	800166e <handle_dhcp+0x19a>
 8001738:	20000518 	.word	0x20000518
 800173c:	200005e8 	.word	0x200005e8
 8001740:	20000520 	.word	0x20000520

08001744 <dhcpc_appcall>:
{
 8001744:	b508      	push	{r3, lr}
  handle_dhcp();
 8001746:	f7ff fec5 	bl	80014d4 <handle_dhcp>
}
 800174a:	bd08      	pop	{r3, pc}

0800174c <chksum>:

#if ! UIP_ARCH_CHKSUM
/*---------------------------------------------------------------------------*/
static u16_t
chksum(u16_t sum, const u8_t *data, u16_t len)
{
 800174c:	b410      	push	{r4}
  u16_t t;
  const u8_t *dataptr;
  const u8_t *last_byte;

  dataptr = data;
  last_byte = data + len - 1;
 800174e:	3a01      	subs	r2, #1
 8001750:	440a      	add	r2, r1

  while (dataptr < last_byte)  	/* At least two more bytes */
 8001752:	e000      	b.n	8001756 <chksum+0xa>
    sum += t;
    if (sum < t)
    {
      sum++;		/* carry */
    }
    dataptr += 2;
 8001754:	3102      	adds	r1, #2
  while (dataptr < last_byte)  	/* At least two more bytes */
 8001756:	4291      	cmp	r1, r2
 8001758:	d20b      	bcs.n	8001772 <chksum+0x26>
    t = (dataptr[0] << 8) + dataptr[1];
 800175a:	780c      	ldrb	r4, [r1, #0]
 800175c:	784b      	ldrb	r3, [r1, #1]
 800175e:	eb03 2304 	add.w	r3, r3, r4, lsl #8
 8001762:	b29b      	uxth	r3, r3
    sum += t;
 8001764:	4418      	add	r0, r3
 8001766:	b280      	uxth	r0, r0
    if (sum < t)
 8001768:	4283      	cmp	r3, r0
 800176a:	d9f3      	bls.n	8001754 <chksum+0x8>
      sum++;		/* carry */
 800176c:	3001      	adds	r0, #1
 800176e:	b280      	uxth	r0, r0
 8001770:	e7f0      	b.n	8001754 <chksum+0x8>
  }

  if (dataptr == last_byte)
 8001772:	d002      	beq.n	800177a <chksum+0x2e>
    }
  }

  /* Return sum in host byte order. */
  return sum;
}
 8001774:	f85d 4b04 	ldr.w	r4, [sp], #4
 8001778:	4770      	bx	lr
    t = (dataptr[0] << 8) + 0;
 800177a:	780b      	ldrb	r3, [r1, #0]
 800177c:	021b      	lsls	r3, r3, #8
    sum += t;
 800177e:	4418      	add	r0, r3
 8001780:	b280      	uxth	r0, r0
    if (sum < t)
 8001782:	4283      	cmp	r3, r0
 8001784:	d9f6      	bls.n	8001774 <chksum+0x28>
      sum++;		/* carry */
 8001786:	3001      	adds	r0, #1
 8001788:	b280      	uxth	r0, r0
 800178a:	e7f3      	b.n	8001774 <chksum+0x28>

0800178c <uip_add32>:
{
 800178c:	b470      	push	{r4, r5, r6}
  uip_acc32[3] = op32[3] + (op16 & 0xff);
 800178e:	78c5      	ldrb	r5, [r0, #3]
 8001790:	440d      	add	r5, r1
 8001792:	b2ed      	uxtb	r5, r5
 8001794:	4c13      	ldr	r4, [pc, #76]	; (80017e4 <uip_add32+0x58>)
 8001796:	70e5      	strb	r5, [r4, #3]
  uip_acc32[2] = op32[2] + (op16 >> 8);
 8001798:	7883      	ldrb	r3, [r0, #2]
 800179a:	0a0e      	lsrs	r6, r1, #8
 800179c:	4433      	add	r3, r6
 800179e:	b2db      	uxtb	r3, r3
 80017a0:	70a3      	strb	r3, [r4, #2]
  uip_acc32[1] = op32[1];
 80017a2:	7842      	ldrb	r2, [r0, #1]
 80017a4:	7062      	strb	r2, [r4, #1]
  uip_acc32[0] = op32[0];
 80017a6:	7800      	ldrb	r0, [r0, #0]
 80017a8:	7020      	strb	r0, [r4, #0]
  if (uip_acc32[2] < (op16 >> 8))
 80017aa:	b29c      	uxth	r4, r3
 80017ac:	42a6      	cmp	r6, r4
 80017ae:	d906      	bls.n	80017be <uip_add32+0x32>
    ++uip_acc32[1];
 80017b0:	3201      	adds	r2, #1
 80017b2:	b2d2      	uxtb	r2, r2
 80017b4:	4c0b      	ldr	r4, [pc, #44]	; (80017e4 <uip_add32+0x58>)
 80017b6:	7062      	strb	r2, [r4, #1]
    if (uip_acc32[1] == 0)
 80017b8:	b90a      	cbnz	r2, 80017be <uip_add32+0x32>
      ++uip_acc32[0];
 80017ba:	3001      	adds	r0, #1
 80017bc:	7020      	strb	r0, [r4, #0]
  if (uip_acc32[3] < (op16 & 0xff))
 80017be:	b2c9      	uxtb	r1, r1
 80017c0:	428d      	cmp	r5, r1
 80017c2:	da0c      	bge.n	80017de <uip_add32+0x52>
    ++uip_acc32[2];
 80017c4:	3301      	adds	r3, #1
 80017c6:	b2db      	uxtb	r3, r3
 80017c8:	4a06      	ldr	r2, [pc, #24]	; (80017e4 <uip_add32+0x58>)
 80017ca:	7093      	strb	r3, [r2, #2]
    if (uip_acc32[2] == 0)
 80017cc:	b93b      	cbnz	r3, 80017de <uip_add32+0x52>
      ++uip_acc32[1];
 80017ce:	7853      	ldrb	r3, [r2, #1]
 80017d0:	3301      	adds	r3, #1
 80017d2:	b2db      	uxtb	r3, r3
 80017d4:	7053      	strb	r3, [r2, #1]
      if (uip_acc32[1] == 0)
 80017d6:	b913      	cbnz	r3, 80017de <uip_add32+0x52>
        ++uip_acc32[0];
 80017d8:	7813      	ldrb	r3, [r2, #0]
 80017da:	3301      	adds	r3, #1
 80017dc:	7013      	strb	r3, [r2, #0]
}
 80017de:	bc70      	pop	{r4, r5, r6}
 80017e0:	4770      	bx	lr
 80017e2:	bf00      	nop
 80017e4:	200005e4 	.word	0x200005e4

080017e8 <uip_add_rcv_nxt>:
#endif /* UIP_REASSEMBLY */
/*---------------------------------------------------------------------------*/
#if UIP_TCP
static void
uip_add_rcv_nxt(u16_t n)
{
 80017e8:	b510      	push	{r4, lr}
  uip_add32(uip_conn->rcv_nxt, n);
 80017ea:	4c09      	ldr	r4, [pc, #36]	; (8001810 <uip_add_rcv_nxt+0x28>)
 80017ec:	6823      	ldr	r3, [r4, #0]
 80017ee:	4601      	mov	r1, r0
 80017f0:	f103 0008 	add.w	r0, r3, #8
 80017f4:	f7ff ffca 	bl	800178c <uip_add32>
  uip_conn->rcv_nxt[0] = uip_acc32[0];
 80017f8:	6823      	ldr	r3, [r4, #0]
 80017fa:	4a06      	ldr	r2, [pc, #24]	; (8001814 <uip_add_rcv_nxt+0x2c>)
 80017fc:	7811      	ldrb	r1, [r2, #0]
 80017fe:	7219      	strb	r1, [r3, #8]
  uip_conn->rcv_nxt[1] = uip_acc32[1];
 8001800:	7851      	ldrb	r1, [r2, #1]
 8001802:	7259      	strb	r1, [r3, #9]
  uip_conn->rcv_nxt[2] = uip_acc32[2];
 8001804:	7891      	ldrb	r1, [r2, #2]
 8001806:	7299      	strb	r1, [r3, #10]
  uip_conn->rcv_nxt[3] = uip_acc32[3];
 8001808:	78d2      	ldrb	r2, [r2, #3]
 800180a:	72da      	strb	r2, [r3, #11]
}
 800180c:	bd10      	pop	{r4, pc}
 800180e:	bf00      	nop
 8001810:	200005f4 	.word	0x200005f4
 8001814:	200005e4 	.word	0x200005e4

08001818 <uip_init>:
  for (c = 0; c < UIP_LISTENPORTS; ++c)
 8001818:	4b1a      	ldr	r3, [pc, #104]	; (8001884 <uip_init+0x6c>)
 800181a:	2200      	movs	r2, #0
 800181c:	701a      	strb	r2, [r3, #0]
 800181e:	e006      	b.n	800182e <uip_init+0x16>
    uip_listenports[c] = 0;
 8001820:	4a19      	ldr	r2, [pc, #100]	; (8001888 <uip_init+0x70>)
 8001822:	2100      	movs	r1, #0
 8001824:	f822 1013 	strh.w	r1, [r2, r3, lsl #1]
  for (c = 0; c < UIP_LISTENPORTS; ++c)
 8001828:	3301      	adds	r3, #1
 800182a:	4a16      	ldr	r2, [pc, #88]	; (8001884 <uip_init+0x6c>)
 800182c:	7013      	strb	r3, [r2, #0]
 800182e:	4b15      	ldr	r3, [pc, #84]	; (8001884 <uip_init+0x6c>)
 8001830:	781b      	ldrb	r3, [r3, #0]
 8001832:	2b00      	cmp	r3, #0
 8001834:	d0f4      	beq.n	8001820 <uip_init+0x8>
  for (c = 0; c < UIP_CONNS; ++c)
 8001836:	4b13      	ldr	r3, [pc, #76]	; (8001884 <uip_init+0x6c>)
 8001838:	2200      	movs	r2, #0
 800183a:	701a      	strb	r2, [r3, #0]
 800183c:	e008      	b.n	8001850 <uip_init+0x38>
    uip_conns[c].tcpstateflags = UIP_CLOSED;
 800183e:	4913      	ldr	r1, [pc, #76]	; (800188c <uip_init+0x74>)
 8001840:	2268      	movs	r2, #104	; 0x68
 8001842:	fb02 1203 	mla	r2, r2, r3, r1
 8001846:	2100      	movs	r1, #0
 8001848:	7651      	strb	r1, [r2, #25]
  for (c = 0; c < UIP_CONNS; ++c)
 800184a:	3301      	adds	r3, #1
 800184c:	4a0d      	ldr	r2, [pc, #52]	; (8001884 <uip_init+0x6c>)
 800184e:	7013      	strb	r3, [r2, #0]
 8001850:	4b0c      	ldr	r3, [pc, #48]	; (8001884 <uip_init+0x6c>)
 8001852:	781b      	ldrb	r3, [r3, #0]
 8001854:	2b00      	cmp	r3, #0
 8001856:	d0f2      	beq.n	800183e <uip_init+0x26>
  lastport = 1024;
 8001858:	4b0d      	ldr	r3, [pc, #52]	; (8001890 <uip_init+0x78>)
 800185a:	f44f 6280 	mov.w	r2, #1024	; 0x400
 800185e:	801a      	strh	r2, [r3, #0]
  for (c = 0; c < UIP_UDP_CONNS; ++c)
 8001860:	4b08      	ldr	r3, [pc, #32]	; (8001884 <uip_init+0x6c>)
 8001862:	2200      	movs	r2, #0
 8001864:	701a      	strb	r2, [r3, #0]
 8001866:	e007      	b.n	8001878 <uip_init+0x60>
    uip_udp_conns[c].lport = 0;
 8001868:	4a0a      	ldr	r2, [pc, #40]	; (8001894 <uip_init+0x7c>)
 800186a:	eb02 1283 	add.w	r2, r2, r3, lsl #6
 800186e:	2100      	movs	r1, #0
 8001870:	8091      	strh	r1, [r2, #4]
  for (c = 0; c < UIP_UDP_CONNS; ++c)
 8001872:	3301      	adds	r3, #1
 8001874:	4a03      	ldr	r2, [pc, #12]	; (8001884 <uip_init+0x6c>)
 8001876:	7013      	strb	r3, [r2, #0]
 8001878:	4b02      	ldr	r3, [pc, #8]	; (8001884 <uip_init+0x6c>)
 800187a:	781b      	ldrb	r3, [r3, #0]
 800187c:	2b00      	cmp	r3, #0
 800187e:	d0f3      	beq.n	8001868 <uip_init+0x50>
}
 8001880:	4770      	bx	lr
 8001882:	bf00      	nop
 8001884:	2000054c 	.word	0x2000054c
 8001888:	20000660 	.word	0x20000660
 800188c:	200005f8 	.word	0x200005f8
 8001890:	20000554 	.word	0x20000554
 8001894:	20000cb4 	.word	0x20000cb4

08001898 <uip_listen>:
  for (c = 0; c < UIP_LISTENPORTS; ++c)
 8001898:	4b09      	ldr	r3, [pc, #36]	; (80018c0 <uip_listen+0x28>)
 800189a:	2200      	movs	r2, #0
 800189c:	701a      	strb	r2, [r3, #0]
 800189e:	4b08      	ldr	r3, [pc, #32]	; (80018c0 <uip_listen+0x28>)
 80018a0:	781b      	ldrb	r3, [r3, #0]
 80018a2:	b963      	cbnz	r3, 80018be <uip_listen+0x26>
    if (uip_listenports[c] == 0)
 80018a4:	4619      	mov	r1, r3
 80018a6:	4a07      	ldr	r2, [pc, #28]	; (80018c4 <uip_listen+0x2c>)
 80018a8:	f832 2013 	ldrh.w	r2, [r2, r3, lsl #1]
 80018ac:	b11a      	cbz	r2, 80018b6 <uip_listen+0x1e>
  for (c = 0; c < UIP_LISTENPORTS; ++c)
 80018ae:	3301      	adds	r3, #1
 80018b0:	4a03      	ldr	r2, [pc, #12]	; (80018c0 <uip_listen+0x28>)
 80018b2:	7013      	strb	r3, [r2, #0]
 80018b4:	e7f3      	b.n	800189e <uip_listen+0x6>
      uip_listenports[c] = port;
 80018b6:	4b03      	ldr	r3, [pc, #12]	; (80018c4 <uip_listen+0x2c>)
 80018b8:	f823 0011 	strh.w	r0, [r3, r1, lsl #1]
      return;
 80018bc:	4770      	bx	lr
}
 80018be:	4770      	bx	lr
 80018c0:	2000054c 	.word	0x2000054c
 80018c4:	20000660 	.word	0x20000660

080018c8 <htons>:
}
/*---------------------------------------------------------------------------*/
u16_t
htons(u16_t val)
{
  return HTONS(val);
 80018c8:	0a03      	lsrs	r3, r0, #8
 80018ca:	ea43 2000 	orr.w	r0, r3, r0, lsl #8
}
 80018ce:	b280      	uxth	r0, r0
 80018d0:	4770      	bx	lr
	...

080018d4 <uip_ipchksum>:
{
 80018d4:	b508      	push	{r3, lr}
  sum = chksum(0, &uip_buf[UIP_LLH_LEN], UIP_IPH_LEN);
 80018d6:	2214      	movs	r2, #20
 80018d8:	4905      	ldr	r1, [pc, #20]	; (80018f0 <uip_ipchksum+0x1c>)
 80018da:	2000      	movs	r0, #0
 80018dc:	f7ff ff36 	bl	800174c <chksum>
  return (sum == 0) ? 0xffff : htons(sum);
 80018e0:	b110      	cbz	r0, 80018e8 <uip_ipchksum+0x14>
 80018e2:	f7ff fff1 	bl	80018c8 <htons>
}
 80018e6:	bd08      	pop	{r3, pc}
  return (sum == 0) ? 0xffff : htons(sum);
 80018e8:	f64f 70ff 	movw	r0, #65535	; 0xffff
 80018ec:	e7fb      	b.n	80018e6 <uip_ipchksum+0x12>
 80018ee:	bf00      	nop
 80018f0:	2000067e 	.word	0x2000067e

080018f4 <upper_layer_chksum>:
{
 80018f4:	b538      	push	{r3, r4, r5, lr}
  upper_layer_len = (((u16_t)(BUF->len[0]) << 8) + BUF->len[1]) - UIP_IPH_LEN;
 80018f6:	4d0d      	ldr	r5, [pc, #52]	; (800192c <upper_layer_chksum+0x38>)
 80018f8:	7c2b      	ldrb	r3, [r5, #16]
 80018fa:	7c6c      	ldrb	r4, [r5, #17]
 80018fc:	eb04 2403 	add.w	r4, r4, r3, lsl #8
 8001900:	b2a4      	uxth	r4, r4
 8001902:	3c14      	subs	r4, #20
 8001904:	b2a4      	uxth	r4, r4
  sum = upper_layer_len + proto;
 8001906:	4420      	add	r0, r4
  sum = chksum(sum, (u8_t *)&BUF->srcipaddr[0], 2 * sizeof(uip_ipaddr_t));
 8001908:	2208      	movs	r2, #8
 800190a:	f105 011a 	add.w	r1, r5, #26
 800190e:	b280      	uxth	r0, r0
 8001910:	f7ff ff1c 	bl	800174c <chksum>
  sum = chksum(sum, &uip_buf[UIP_IPH_LEN + UIP_LLH_LEN],
 8001914:	4622      	mov	r2, r4
 8001916:	f105 0122 	add.w	r1, r5, #34	; 0x22
 800191a:	f7ff ff17 	bl	800174c <chksum>
  return (sum == 0) ? 0xffff : htons(sum);
 800191e:	b110      	cbz	r0, 8001926 <upper_layer_chksum+0x32>
 8001920:	f7ff ffd2 	bl	80018c8 <htons>
}
 8001924:	bd38      	pop	{r3, r4, r5, pc}
  return (sum == 0) ? 0xffff : htons(sum);
 8001926:	f64f 70ff 	movw	r0, #65535	; 0xffff
 800192a:	e7fb      	b.n	8001924 <upper_layer_chksum+0x30>
 800192c:	20000670 	.word	0x20000670

08001930 <uip_tcpchksum>:
{
 8001930:	b508      	push	{r3, lr}
  return upper_layer_chksum(UIP_PROTO_TCP);
 8001932:	2006      	movs	r0, #6
 8001934:	f7ff ffde 	bl	80018f4 <upper_layer_chksum>
}
 8001938:	bd08      	pop	{r3, pc}
	...

0800193c <uip_process>:
{
 800193c:	b570      	push	{r4, r5, r6, lr}
  register struct uip_conn *uip_connr = uip_conn;
 800193e:	4bb2      	ldr	r3, [pc, #712]	; (8001c08 <uip_process+0x2cc>)
 8001940:	681c      	ldr	r4, [r3, #0]
  if (flag == UIP_UDP_SEND_CONN)
 8001942:	2804      	cmp	r0, #4
 8001944:	f000 8196 	beq.w	8001c74 <uip_process+0x338>
  uip_sappdata = uip_appdata = &uip_buf[UIP_IPTCPH_LEN + UIP_LLH_LEN];
 8001948:	4bb0      	ldr	r3, [pc, #704]	; (8001c0c <uip_process+0x2d0>)
 800194a:	4ab1      	ldr	r2, [pc, #708]	; (8001c10 <uip_process+0x2d4>)
 800194c:	6013      	str	r3, [r2, #0]
 800194e:	4ab1      	ldr	r2, [pc, #708]	; (8001c14 <uip_process+0x2d8>)
 8001950:	6013      	str	r3, [r2, #0]
  if (flag == UIP_POLL_REQUEST)
 8001952:	2803      	cmp	r0, #3
 8001954:	d059      	beq.n	8001a0a <uip_process+0xce>
  else if (flag == UIP_TIMER)
 8001956:	2802      	cmp	r0, #2
 8001958:	f000 80c8 	beq.w	8001aec <uip_process+0x1b0>
  if (flag == UIP_UDP_TIMER)
 800195c:	2805      	cmp	r0, #5
 800195e:	f000 8172 	beq.w	8001c46 <uip_process+0x30a>
  if (BUF->vhl != 0x45)   /* IP version and header length. */
 8001962:	4bad      	ldr	r3, [pc, #692]	; (8001c18 <uip_process+0x2dc>)
 8001964:	7b9b      	ldrb	r3, [r3, #14]
 8001966:	2b45      	cmp	r3, #69	; 0x45
 8001968:	d154      	bne.n	8001a14 <uip_process+0xd8>
  if ((BUF->len[0] << 8) + BUF->len[1] <= uip_len)
 800196a:	4aab      	ldr	r2, [pc, #684]	; (8001c18 <uip_process+0x2dc>)
 800196c:	7c15      	ldrb	r5, [r2, #16]
 800196e:	7c53      	ldrb	r3, [r2, #17]
 8001970:	eb03 2105 	add.w	r1, r3, r5, lsl #8
 8001974:	4aa9      	ldr	r2, [pc, #676]	; (8001c1c <uip_process+0x2e0>)
 8001976:	8812      	ldrh	r2, [r2, #0]
 8001978:	4291      	cmp	r1, r2
 800197a:	dc4b      	bgt.n	8001a14 <uip_process+0xd8>
    uip_len = (BUF->len[0] << 8) + BUF->len[1];
 800197c:	b28d      	uxth	r5, r1
 800197e:	4ba7      	ldr	r3, [pc, #668]	; (8001c1c <uip_process+0x2e0>)
 8001980:	801d      	strh	r5, [r3, #0]
  if ((BUF->ipoffset[0] & 0x3f) != 0 ||
 8001982:	4ba5      	ldr	r3, [pc, #660]	; (8001c18 <uip_process+0x2dc>)
 8001984:	7d1b      	ldrb	r3, [r3, #20]
 8001986:	f013 0f3f 	tst.w	r3, #63	; 0x3f
 800198a:	d143      	bne.n	8001a14 <uip_process+0xd8>
      BUF->ipoffset[1] != 0)
 800198c:	4ba2      	ldr	r3, [pc, #648]	; (8001c18 <uip_process+0x2dc>)
 800198e:	7d5b      	ldrb	r3, [r3, #21]
  if ((BUF->ipoffset[0] & 0x3f) != 0 ||
 8001990:	2b00      	cmp	r3, #0
 8001992:	d13f      	bne.n	8001a14 <uip_process+0xd8>
  if (uip_ipaddr_cmp(uip_hostaddr, all_zeroes_addr))
 8001994:	4ba2      	ldr	r3, [pc, #648]	; (8001c20 <uip_process+0x2e4>)
 8001996:	881c      	ldrh	r4, [r3, #0]
 8001998:	b90c      	cbnz	r4, 800199e <uip_process+0x62>
 800199a:	885b      	ldrh	r3, [r3, #2]
 800199c:	b14b      	cbz	r3, 80019b2 <uip_process+0x76>
    if (!uip_ipaddr_cmp(BUF->destipaddr, uip_hostaddr))
 800199e:	4b9e      	ldr	r3, [pc, #632]	; (8001c18 <uip_process+0x2dc>)
 80019a0:	8bdb      	ldrh	r3, [r3, #30]
 80019a2:	429c      	cmp	r4, r3
 80019a4:	d136      	bne.n	8001a14 <uip_process+0xd8>
 80019a6:	4b9c      	ldr	r3, [pc, #624]	; (8001c18 <uip_process+0x2dc>)
 80019a8:	8c1a      	ldrh	r2, [r3, #32]
 80019aa:	4b9d      	ldr	r3, [pc, #628]	; (8001c20 <uip_process+0x2e4>)
 80019ac:	885b      	ldrh	r3, [r3, #2]
 80019ae:	429a      	cmp	r2, r3
 80019b0:	d130      	bne.n	8001a14 <uip_process+0xd8>
  if (uip_ipchksum() != 0xffff)
 80019b2:	f7ff ff8f 	bl	80018d4 <uip_ipchksum>
 80019b6:	f64f 73ff 	movw	r3, #65535	; 0xffff
 80019ba:	4298      	cmp	r0, r3
 80019bc:	d12a      	bne.n	8001a14 <uip_process+0xd8>
  if (BUF->proto == UIP_PROTO_TCP)
 80019be:	4b96      	ldr	r3, [pc, #600]	; (8001c18 <uip_process+0x2dc>)
 80019c0:	7ddb      	ldrb	r3, [r3, #23]
 80019c2:	2b06      	cmp	r3, #6
 80019c4:	f000 81e9 	beq.w	8001d9a <uip_process+0x45e>
  if (BUF->proto == UIP_PROTO_UDP)
 80019c8:	2b11      	cmp	r3, #17
 80019ca:	f000 819f 	beq.w	8001d0c <uip_process+0x3d0>
  if (BUF->proto != UIP_PROTO_ICMP)
 80019ce:	2b01      	cmp	r3, #1
 80019d0:	d120      	bne.n	8001a14 <uip_process+0xd8>
  if (ICMPBUF->type != ICMP_ECHO)
 80019d2:	4b91      	ldr	r3, [pc, #580]	; (8001c18 <uip_process+0x2dc>)
 80019d4:	f893 3022 	ldrb.w	r3, [r3, #34]	; 0x22
 80019d8:	2b08      	cmp	r3, #8
 80019da:	d11b      	bne.n	8001a14 <uip_process+0xd8>
  ICMPBUF->type = ICMP_ECHO_REPLY;
 80019dc:	4b8e      	ldr	r3, [pc, #568]	; (8001c18 <uip_process+0x2dc>)
 80019de:	2200      	movs	r2, #0
 80019e0:	f883 2022 	strb.w	r2, [r3, #34]	; 0x22
  if (ICMPBUF->icmpchksum >= HTONS(0xffff - (ICMP_ECHO << 8)))
 80019e4:	8c9b      	ldrh	r3, [r3, #36]	; 0x24
 80019e6:	f64f 72f6 	movw	r2, #65526	; 0xfff6
 80019ea:	4293      	cmp	r3, r2
 80019ec:	f240 818a 	bls.w	8001d04 <uip_process+0x3c8>
    ICMPBUF->icmpchksum += HTONS(ICMP_ECHO << 8) + 1;
 80019f0:	3309      	adds	r3, #9
 80019f2:	4a89      	ldr	r2, [pc, #548]	; (8001c18 <uip_process+0x2dc>)
 80019f4:	8493      	strh	r3, [r2, #36]	; 0x24
  uip_ipaddr_copy(BUF->destipaddr, BUF->srcipaddr);
 80019f6:	4b88      	ldr	r3, [pc, #544]	; (8001c18 <uip_process+0x2dc>)
 80019f8:	8b5a      	ldrh	r2, [r3, #26]
 80019fa:	83da      	strh	r2, [r3, #30]
 80019fc:	8b9a      	ldrh	r2, [r3, #28]
 80019fe:	841a      	strh	r2, [r3, #32]
  uip_ipaddr_copy(BUF->srcipaddr, uip_hostaddr);
 8001a00:	835c      	strh	r4, [r3, #26]
 8001a02:	4a87      	ldr	r2, [pc, #540]	; (8001c20 <uip_process+0x2e4>)
 8001a04:	8852      	ldrh	r2, [r2, #2]
 8001a06:	839a      	strh	r2, [r3, #28]
  goto send;
 8001a08:	e178      	b.n	8001cfc <uip_process+0x3c0>
    if ((uip_connr->tcpstateflags & UIP_TS_MASK) == UIP_ESTABLISHED &&
 8001a0a:	7e63      	ldrb	r3, [r4, #25]
 8001a0c:	f003 030f 	and.w	r3, r3, #15
 8001a10:	2b03      	cmp	r3, #3
 8001a12:	d005      	beq.n	8001a20 <uip_process+0xe4>
  uip_len = 0;
 8001a14:	2300      	movs	r3, #0
 8001a16:	4a81      	ldr	r2, [pc, #516]	; (8001c1c <uip_process+0x2e0>)
 8001a18:	8013      	strh	r3, [r2, #0]
  uip_flags = 0;
 8001a1a:	4a82      	ldr	r2, [pc, #520]	; (8001c24 <uip_process+0x2e8>)
 8001a1c:	7013      	strb	r3, [r2, #0]
}
 8001a1e:	bd70      	pop	{r4, r5, r6, pc}
        !uip_outstanding(uip_connr))
 8001a20:	8a23      	ldrh	r3, [r4, #16]
    if ((uip_connr->tcpstateflags & UIP_TS_MASK) == UIP_ESTABLISHED &&
 8001a22:	2b00      	cmp	r3, #0
 8001a24:	d1f6      	bne.n	8001a14 <uip_process+0xd8>
      uip_flags = UIP_POLL;
 8001a26:	4b7f      	ldr	r3, [pc, #508]	; (8001c24 <uip_process+0x2e8>)
 8001a28:	2208      	movs	r2, #8
 8001a2a:	701a      	strb	r2, [r3, #0]
      UIP_APPCALL();
 8001a2c:	f7ff f9d2 	bl	8000dd4 <NetApp>
        if (uip_flags & UIP_ABORT)
 8001a30:	4b7c      	ldr	r3, [pc, #496]	; (8001c24 <uip_process+0x2e8>)
 8001a32:	781b      	ldrb	r3, [r3, #0]
 8001a34:	f013 0f20 	tst.w	r3, #32
 8001a38:	f000 84a4 	beq.w	8002384 <uip_process+0xa48>
          uip_slen = 0;
 8001a3c:	2300      	movs	r3, #0
 8001a3e:	4a7a      	ldr	r2, [pc, #488]	; (8001c28 <uip_process+0x2ec>)
 8001a40:	8013      	strh	r3, [r2, #0]
          uip_connr->tcpstateflags = UIP_CLOSED;
 8001a42:	7663      	strb	r3, [r4, #25]
          BUF->flags = TCP_RST | TCP_ACK;
 8001a44:	4b74      	ldr	r3, [pc, #464]	; (8001c18 <uip_process+0x2dc>)
 8001a46:	2214      	movs	r2, #20
 8001a48:	f883 202f 	strb.w	r2, [r3, #47]	; 0x2f
  uip_len = UIP_IPTCPH_LEN;
 8001a4c:	4b73      	ldr	r3, [pc, #460]	; (8001c1c <uip_process+0x2e0>)
 8001a4e:	2228      	movs	r2, #40	; 0x28
 8001a50:	801a      	strh	r2, [r3, #0]
  BUF->tcpoffset = (UIP_TCPH_LEN / 4) << 4;
 8001a52:	4b71      	ldr	r3, [pc, #452]	; (8001c18 <uip_process+0x2dc>)
 8001a54:	2250      	movs	r2, #80	; 0x50
 8001a56:	f883 202e 	strb.w	r2, [r3, #46]	; 0x2e
  BUF->ackno[0] = uip_connr->rcv_nxt[0];
 8001a5a:	7a22      	ldrb	r2, [r4, #8]
 8001a5c:	4b6e      	ldr	r3, [pc, #440]	; (8001c18 <uip_process+0x2dc>)
 8001a5e:	f883 202a 	strb.w	r2, [r3, #42]	; 0x2a
  BUF->ackno[1] = uip_connr->rcv_nxt[1];
 8001a62:	7a62      	ldrb	r2, [r4, #9]
 8001a64:	f883 202b 	strb.w	r2, [r3, #43]	; 0x2b
  BUF->ackno[2] = uip_connr->rcv_nxt[2];
 8001a68:	7aa2      	ldrb	r2, [r4, #10]
 8001a6a:	f883 202c 	strb.w	r2, [r3, #44]	; 0x2c
  BUF->ackno[3] = uip_connr->rcv_nxt[3];
 8001a6e:	7ae2      	ldrb	r2, [r4, #11]
 8001a70:	f883 202d 	strb.w	r2, [r3, #45]	; 0x2d
  BUF->seqno[0] = uip_connr->snd_nxt[0];
 8001a74:	7b22      	ldrb	r2, [r4, #12]
 8001a76:	f883 2026 	strb.w	r2, [r3, #38]	; 0x26
  BUF->seqno[1] = uip_connr->snd_nxt[1];
 8001a7a:	7b62      	ldrb	r2, [r4, #13]
 8001a7c:	f883 2027 	strb.w	r2, [r3, #39]	; 0x27
  BUF->seqno[2] = uip_connr->snd_nxt[2];
 8001a80:	7ba2      	ldrb	r2, [r4, #14]
 8001a82:	f883 2028 	strb.w	r2, [r3, #40]	; 0x28
  BUF->seqno[3] = uip_connr->snd_nxt[3];
 8001a86:	7be2      	ldrb	r2, [r4, #15]
 8001a88:	f883 2029 	strb.w	r2, [r3, #41]	; 0x29
  BUF->proto = UIP_PROTO_TCP;
 8001a8c:	2206      	movs	r2, #6
 8001a8e:	75da      	strb	r2, [r3, #23]
  BUF->srcport  = uip_connr->lport;
 8001a90:	88a2      	ldrh	r2, [r4, #4]
 8001a92:	845a      	strh	r2, [r3, #34]	; 0x22
  BUF->destport = uip_connr->rport;
 8001a94:	88e2      	ldrh	r2, [r4, #6]
 8001a96:	849a      	strh	r2, [r3, #36]	; 0x24
  uip_ipaddr_copy(BUF->srcipaddr, uip_hostaddr);
 8001a98:	4a61      	ldr	r2, [pc, #388]	; (8001c20 <uip_process+0x2e4>)
 8001a9a:	8811      	ldrh	r1, [r2, #0]
 8001a9c:	8359      	strh	r1, [r3, #26]
 8001a9e:	8852      	ldrh	r2, [r2, #2]
 8001aa0:	839a      	strh	r2, [r3, #28]
  uip_ipaddr_copy(BUF->destipaddr, uip_connr->ripaddr);
 8001aa2:	8822      	ldrh	r2, [r4, #0]
 8001aa4:	83da      	strh	r2, [r3, #30]
 8001aa6:	8862      	ldrh	r2, [r4, #2]
 8001aa8:	841a      	strh	r2, [r3, #32]
  if (uip_connr->tcpstateflags & UIP_STOPPED)
 8001aaa:	7e63      	ldrb	r3, [r4, #25]
 8001aac:	f013 0f10 	tst.w	r3, #16
 8001ab0:	f000 8534 	beq.w	800251c <uip_process+0xbe0>
    BUF->wnd[0] = BUF->wnd[1] = 0;
 8001ab4:	4b58      	ldr	r3, [pc, #352]	; (8001c18 <uip_process+0x2dc>)
 8001ab6:	2200      	movs	r2, #0
 8001ab8:	f883 2031 	strb.w	r2, [r3, #49]	; 0x31
 8001abc:	f883 2030 	strb.w	r2, [r3, #48]	; 0x30
  BUF->ttl = UIP_TTL;
 8001ac0:	4c55      	ldr	r4, [pc, #340]	; (8001c18 <uip_process+0x2dc>)
 8001ac2:	2340      	movs	r3, #64	; 0x40
 8001ac4:	75a3      	strb	r3, [r4, #22]
  BUF->len[0] = (uip_len >> 8);
 8001ac6:	4b55      	ldr	r3, [pc, #340]	; (8001c1c <uip_process+0x2e0>)
 8001ac8:	881b      	ldrh	r3, [r3, #0]
 8001aca:	0a1a      	lsrs	r2, r3, #8
 8001acc:	7422      	strb	r2, [r4, #16]
  BUF->len[1] = (uip_len & 0xff);
 8001ace:	7463      	strb	r3, [r4, #17]
  BUF->urgp[0] = BUF->urgp[1] = 0;
 8001ad0:	2300      	movs	r3, #0
 8001ad2:	f884 3035 	strb.w	r3, [r4, #53]	; 0x35
 8001ad6:	f884 3034 	strb.w	r3, [r4, #52]	; 0x34
  BUF->tcpchksum = 0;
 8001ada:	f884 3032 	strb.w	r3, [r4, #50]	; 0x32
 8001ade:	f884 3033 	strb.w	r3, [r4, #51]	; 0x33
  BUF->tcpchksum = ~(uip_tcpchksum());
 8001ae2:	f7ff ff25 	bl	8001930 <uip_tcpchksum>
 8001ae6:	43c0      	mvns	r0, r0
 8001ae8:	8660      	strh	r0, [r4, #50]	; 0x32
 8001aea:	e0f2      	b.n	8001cd2 <uip_process+0x396>
    if (++iss[3] == 0)
 8001aec:	4a4f      	ldr	r2, [pc, #316]	; (8001c2c <uip_process+0x2f0>)
 8001aee:	78d3      	ldrb	r3, [r2, #3]
 8001af0:	3301      	adds	r3, #1
 8001af2:	b2db      	uxtb	r3, r3
 8001af4:	70d3      	strb	r3, [r2, #3]
 8001af6:	b963      	cbnz	r3, 8001b12 <uip_process+0x1d6>
      if (++iss[2] == 0)
 8001af8:	7893      	ldrb	r3, [r2, #2]
 8001afa:	3301      	adds	r3, #1
 8001afc:	b2db      	uxtb	r3, r3
 8001afe:	7093      	strb	r3, [r2, #2]
 8001b00:	b93b      	cbnz	r3, 8001b12 <uip_process+0x1d6>
        if (++iss[1] == 0)
 8001b02:	7853      	ldrb	r3, [r2, #1]
 8001b04:	3301      	adds	r3, #1
 8001b06:	b2db      	uxtb	r3, r3
 8001b08:	7053      	strb	r3, [r2, #1]
 8001b0a:	b913      	cbnz	r3, 8001b12 <uip_process+0x1d6>
          ++iss[0];
 8001b0c:	7813      	ldrb	r3, [r2, #0]
 8001b0e:	3301      	adds	r3, #1
 8001b10:	7013      	strb	r3, [r2, #0]
    uip_len = 0;
 8001b12:	2300      	movs	r3, #0
 8001b14:	4a41      	ldr	r2, [pc, #260]	; (8001c1c <uip_process+0x2e0>)
 8001b16:	8013      	strh	r3, [r2, #0]
    uip_slen = 0;
 8001b18:	4a43      	ldr	r2, [pc, #268]	; (8001c28 <uip_process+0x2ec>)
 8001b1a:	8013      	strh	r3, [r2, #0]
    if (uip_connr->tcpstateflags == UIP_TIME_WAIT ||
 8001b1c:	7e63      	ldrb	r3, [r4, #25]
 8001b1e:	2b05      	cmp	r3, #5
 8001b20:	bf18      	it	ne
 8001b22:	2b07      	cmpne	r3, #7
 8001b24:	d109      	bne.n	8001b3a <uip_process+0x1fe>
      ++(uip_connr->timer);
 8001b26:	7ea3      	ldrb	r3, [r4, #26]
 8001b28:	3301      	adds	r3, #1
 8001b2a:	b2db      	uxtb	r3, r3
 8001b2c:	76a3      	strb	r3, [r4, #26]
      if (uip_connr->timer == UIP_TIME_WAIT_TIMEOUT)
 8001b2e:	2b78      	cmp	r3, #120	; 0x78
 8001b30:	f47f af70 	bne.w	8001a14 <uip_process+0xd8>
        uip_connr->tcpstateflags = UIP_CLOSED;
 8001b34:	2300      	movs	r3, #0
 8001b36:	7663      	strb	r3, [r4, #25]
 8001b38:	e76c      	b.n	8001a14 <uip_process+0xd8>
    else if (uip_connr->tcpstateflags != UIP_CLOSED)
 8001b3a:	2b00      	cmp	r3, #0
 8001b3c:	f43f af6a 	beq.w	8001a14 <uip_process+0xd8>
      if (uip_outstanding(uip_connr))
 8001b40:	8a22      	ldrh	r2, [r4, #16]
 8001b42:	2a00      	cmp	r2, #0
 8001b44:	d074      	beq.n	8001c30 <uip_process+0x2f4>
        if (uip_connr->timer-- == 0)
 8001b46:	7ea2      	ldrb	r2, [r4, #26]
 8001b48:	1e51      	subs	r1, r2, #1
 8001b4a:	76a1      	strb	r1, [r4, #26]
 8001b4c:	2a00      	cmp	r2, #0
 8001b4e:	f47f af61 	bne.w	8001a14 <uip_process+0xd8>
          if (uip_connr->nrtx == UIP_MAXRTX ||
 8001b52:	7ee2      	ldrb	r2, [r4, #27]
 8001b54:	2a08      	cmp	r2, #8
 8001b56:	d027      	beq.n	8001ba8 <uip_process+0x26c>
              ((uip_connr->tcpstateflags == UIP_SYN_SENT ||
 8001b58:	1e59      	subs	r1, r3, #1
 8001b5a:	b2c9      	uxtb	r1, r1
          if (uip_connr->nrtx == UIP_MAXRTX ||
 8001b5c:	2901      	cmp	r1, #1
 8001b5e:	d921      	bls.n	8001ba4 <uip_process+0x268>
                                         4:
 8001b60:	4610      	mov	r0, r2
 8001b62:	2a04      	cmp	r2, #4
 8001b64:	bf28      	it	cs
 8001b66:	2004      	movcs	r0, #4
          uip_connr->timer = UIP_RTO << (uip_connr->nrtx > 4?
 8001b68:	2103      	movs	r1, #3
 8001b6a:	4081      	lsls	r1, r0
 8001b6c:	76a1      	strb	r1, [r4, #26]
          ++(uip_connr->nrtx);
 8001b6e:	3201      	adds	r2, #1
 8001b70:	76e2      	strb	r2, [r4, #27]
          switch (uip_connr->tcpstateflags & UIP_TS_MASK)
 8001b72:	f003 030f 	and.w	r3, r3, #15
 8001b76:	3b01      	subs	r3, #1
 8001b78:	2b07      	cmp	r3, #7
 8001b7a:	f63f af4b 	bhi.w	8001a14 <uip_process+0xd8>
 8001b7e:	a201      	add	r2, pc, #4	; (adr r2, 8001b84 <uip_process+0x248>)
 8001b80:	f852 f023 	ldr.w	pc, [r2, r3, lsl #2]
 8001b84:	08002045 	.word	0x08002045
 8001b88:	08001bc1 	.word	0x08001bc1
 8001b8c:	08001bfd 	.word	0x08001bfd
 8001b90:	080022f9 	.word	0x080022f9
 8001b94:	08001a15 	.word	0x08001a15
 8001b98:	080022f9 	.word	0x080022f9
 8001b9c:	08001a15 	.word	0x08001a15
 8001ba0:	080022f9 	.word	0x080022f9
                uip_connr->tcpstateflags == UIP_SYN_RCVD) &&
 8001ba4:	2a05      	cmp	r2, #5
 8001ba6:	d1db      	bne.n	8001b60 <uip_process+0x224>
            uip_connr->tcpstateflags = UIP_CLOSED;
 8001ba8:	2300      	movs	r3, #0
 8001baa:	7663      	strb	r3, [r4, #25]
            uip_flags = UIP_TIMEDOUT;
 8001bac:	4b1d      	ldr	r3, [pc, #116]	; (8001c24 <uip_process+0x2e8>)
 8001bae:	2280      	movs	r2, #128	; 0x80
 8001bb0:	701a      	strb	r2, [r3, #0]
            UIP_APPCALL();
 8001bb2:	f7ff f90f 	bl	8000dd4 <NetApp>
            BUF->flags = TCP_RST | TCP_ACK;
 8001bb6:	4b18      	ldr	r3, [pc, #96]	; (8001c18 <uip_process+0x2dc>)
 8001bb8:	2214      	movs	r2, #20
 8001bba:	f883 202f 	strb.w	r2, [r3, #47]	; 0x2f
            goto tcp_send_nodata;
 8001bbe:	e745      	b.n	8001a4c <uip_process+0x110>
              BUF->flags = 0;
 8001bc0:	4b15      	ldr	r3, [pc, #84]	; (8001c18 <uip_process+0x2dc>)
 8001bc2:	2200      	movs	r2, #0
 8001bc4:	f883 202f 	strb.w	r2, [r3, #47]	; 0x2f
  BUF->flags |= TCP_SYN;
 8001bc8:	4b13      	ldr	r3, [pc, #76]	; (8001c18 <uip_process+0x2dc>)
 8001bca:	f893 202f 	ldrb.w	r2, [r3, #47]	; 0x2f
 8001bce:	f042 0202 	orr.w	r2, r2, #2
 8001bd2:	f883 202f 	strb.w	r2, [r3, #47]	; 0x2f
  BUF->optdata[0] = TCP_OPT_MSS;
 8001bd6:	2202      	movs	r2, #2
 8001bd8:	f883 2036 	strb.w	r2, [r3, #54]	; 0x36
  BUF->optdata[1] = TCP_OPT_MSS_LEN;
 8001bdc:	2204      	movs	r2, #4
 8001bde:	f883 2037 	strb.w	r2, [r3, #55]	; 0x37
  BUF->optdata[2] = (UIP_TCP_MSS) / 256;
 8001be2:	2206      	movs	r2, #6
 8001be4:	f883 2038 	strb.w	r2, [r3, #56]	; 0x38
  BUF->optdata[3] = (UIP_TCP_MSS) & 255;
 8001be8:	220a      	movs	r2, #10
 8001bea:	f883 2039 	strb.w	r2, [r3, #57]	; 0x39
  uip_len = UIP_IPTCPH_LEN + TCP_OPT_MSS_LEN;
 8001bee:	4a0b      	ldr	r2, [pc, #44]	; (8001c1c <uip_process+0x2e0>)
 8001bf0:	212c      	movs	r1, #44	; 0x2c
 8001bf2:	8011      	strh	r1, [r2, #0]
  BUF->tcpoffset = ((UIP_TCPH_LEN + TCP_OPT_MSS_LEN) / 4) << 4;
 8001bf4:	2260      	movs	r2, #96	; 0x60
 8001bf6:	f883 202e 	strb.w	r2, [r3, #46]	; 0x2e
  goto tcp_send;
 8001bfa:	e72e      	b.n	8001a5a <uip_process+0x11e>
              uip_flags = UIP_REXMIT;
 8001bfc:	4b09      	ldr	r3, [pc, #36]	; (8001c24 <uip_process+0x2e8>)
 8001bfe:	2204      	movs	r2, #4
 8001c00:	701a      	strb	r2, [r3, #0]
              UIP_APPCALL();
 8001c02:	f7ff f8e7 	bl	8000dd4 <NetApp>
              goto apprexmit;
 8001c06:	e3e2      	b.n	80023ce <uip_process+0xa92>
 8001c08:	200005f4 	.word	0x200005f4
 8001c0c:	200006a6 	.word	0x200006a6
 8001c10:	200005f0 	.word	0x200005f0
 8001c14:	200005e0 	.word	0x200005e0
 8001c18:	20000670 	.word	0x20000670
 8001c1c:	200005dc 	.word	0x200005dc
 8001c20:	2000066c 	.word	0x2000066c
 8001c24:	200005e8 	.word	0x200005e8
 8001c28:	20000cb2 	.word	0x20000cb2
 8001c2c:	20000550 	.word	0x20000550
      else if ((uip_connr->tcpstateflags & UIP_TS_MASK) == UIP_ESTABLISHED)
 8001c30:	f003 030f 	and.w	r3, r3, #15
 8001c34:	2b03      	cmp	r3, #3
 8001c36:	f47f aeed 	bne.w	8001a14 <uip_process+0xd8>
        uip_flags = UIP_POLL;
 8001c3a:	4bac      	ldr	r3, [pc, #688]	; (8001eec <uip_process+0x5b0>)
 8001c3c:	2208      	movs	r2, #8
 8001c3e:	701a      	strb	r2, [r3, #0]
        UIP_APPCALL();
 8001c40:	f7ff f8c8 	bl	8000dd4 <NetApp>
        goto appsend;
 8001c44:	e6f4      	b.n	8001a30 <uip_process+0xf4>
    if (uip_udp_conn->lport != 0)
 8001c46:	4baa      	ldr	r3, [pc, #680]	; (8001ef0 <uip_process+0x5b4>)
 8001c48:	681b      	ldr	r3, [r3, #0]
 8001c4a:	889b      	ldrh	r3, [r3, #4]
 8001c4c:	2b00      	cmp	r3, #0
 8001c4e:	f43f aee1 	beq.w	8001a14 <uip_process+0xd8>
      uip_conn = NULL;
 8001c52:	2300      	movs	r3, #0
 8001c54:	4aa7      	ldr	r2, [pc, #668]	; (8001ef4 <uip_process+0x5b8>)
 8001c56:	6013      	str	r3, [r2, #0]
      uip_sappdata = uip_appdata = &uip_buf[UIP_LLH_LEN + UIP_IPUDPH_LEN];
 8001c58:	4aa7      	ldr	r2, [pc, #668]	; (8001ef8 <uip_process+0x5bc>)
 8001c5a:	49a8      	ldr	r1, [pc, #672]	; (8001efc <uip_process+0x5c0>)
 8001c5c:	600a      	str	r2, [r1, #0]
 8001c5e:	49a8      	ldr	r1, [pc, #672]	; (8001f00 <uip_process+0x5c4>)
 8001c60:	600a      	str	r2, [r1, #0]
      uip_len = uip_slen = 0;
 8001c62:	4aa8      	ldr	r2, [pc, #672]	; (8001f04 <uip_process+0x5c8>)
 8001c64:	8013      	strh	r3, [r2, #0]
 8001c66:	4aa8      	ldr	r2, [pc, #672]	; (8001f08 <uip_process+0x5cc>)
 8001c68:	8013      	strh	r3, [r2, #0]
      uip_flags = UIP_POLL;
 8001c6a:	4ba0      	ldr	r3, [pc, #640]	; (8001eec <uip_process+0x5b0>)
 8001c6c:	2208      	movs	r2, #8
 8001c6e:	701a      	strb	r2, [r3, #0]
      UIP_UDP_APPCALL();
 8001c70:	f7ff fd68 	bl	8001744 <dhcpc_appcall>
  if (uip_slen == 0)
 8001c74:	4ba3      	ldr	r3, [pc, #652]	; (8001f04 <uip_process+0x5c8>)
 8001c76:	881a      	ldrh	r2, [r3, #0]
 8001c78:	2a00      	cmp	r2, #0
 8001c7a:	f43f aecb 	beq.w	8001a14 <uip_process+0xd8>
  uip_len = uip_slen + UIP_IPUDPH_LEN;
 8001c7e:	f102 011c 	add.w	r1, r2, #28
 8001c82:	b289      	uxth	r1, r1
 8001c84:	4ba0      	ldr	r3, [pc, #640]	; (8001f08 <uip_process+0x5cc>)
 8001c86:	8019      	strh	r1, [r3, #0]
  BUF->len[0] = (uip_len >> 8);
 8001c88:	4ba0      	ldr	r3, [pc, #640]	; (8001f0c <uip_process+0x5d0>)
 8001c8a:	0a08      	lsrs	r0, r1, #8
 8001c8c:	7418      	strb	r0, [r3, #16]
  BUF->len[1] = (uip_len & 0xff);
 8001c8e:	7459      	strb	r1, [r3, #17]
  BUF->ttl = uip_udp_conn->ttl;
 8001c90:	4997      	ldr	r1, [pc, #604]	; (8001ef0 <uip_process+0x5b4>)
 8001c92:	6809      	ldr	r1, [r1, #0]
 8001c94:	7a08      	ldrb	r0, [r1, #8]
 8001c96:	7598      	strb	r0, [r3, #22]
  BUF->proto = UIP_PROTO_UDP;
 8001c98:	2011      	movs	r0, #17
 8001c9a:	75d8      	strb	r0, [r3, #23]
  UDPBUF->udplen = HTONS(uip_slen + UIP_UDPH_LEN);
 8001c9c:	3208      	adds	r2, #8
 8001c9e:	b292      	uxth	r2, r2
 8001ca0:	0a10      	lsrs	r0, r2, #8
 8001ca2:	ea40 2202 	orr.w	r2, r0, r2, lsl #8
 8001ca6:	84da      	strh	r2, [r3, #38]	; 0x26
  UDPBUF->udpchksum = 0;
 8001ca8:	2200      	movs	r2, #0
 8001caa:	f883 2028 	strb.w	r2, [r3, #40]	; 0x28
 8001cae:	f883 2029 	strb.w	r2, [r3, #41]	; 0x29
  BUF->srcport  = uip_udp_conn->lport;
 8001cb2:	888a      	ldrh	r2, [r1, #4]
 8001cb4:	845a      	strh	r2, [r3, #34]	; 0x22
  BUF->destport = uip_udp_conn->rport;
 8001cb6:	88ca      	ldrh	r2, [r1, #6]
 8001cb8:	849a      	strh	r2, [r3, #36]	; 0x24
  uip_ipaddr_copy(BUF->srcipaddr, uip_hostaddr);
 8001cba:	4a95      	ldr	r2, [pc, #596]	; (8001f10 <uip_process+0x5d4>)
 8001cbc:	8810      	ldrh	r0, [r2, #0]
 8001cbe:	8358      	strh	r0, [r3, #26]
 8001cc0:	8852      	ldrh	r2, [r2, #2]
 8001cc2:	839a      	strh	r2, [r3, #28]
  uip_ipaddr_copy(BUF->destipaddr, uip_udp_conn->ripaddr);
 8001cc4:	880a      	ldrh	r2, [r1, #0]
 8001cc6:	83da      	strh	r2, [r3, #30]
 8001cc8:	884a      	ldrh	r2, [r1, #2]
 8001cca:	841a      	strh	r2, [r3, #32]
  uip_appdata = &uip_buf[UIP_LLH_LEN + UIP_IPTCPH_LEN];
 8001ccc:	3336      	adds	r3, #54	; 0x36
 8001cce:	4a8b      	ldr	r2, [pc, #556]	; (8001efc <uip_process+0x5c0>)
 8001cd0:	6013      	str	r3, [r2, #0]
  BUF->vhl = 0x45;
 8001cd2:	4c8e      	ldr	r4, [pc, #568]	; (8001f0c <uip_process+0x5d0>)
 8001cd4:	2345      	movs	r3, #69	; 0x45
 8001cd6:	73a3      	strb	r3, [r4, #14]
  BUF->tos = 0;
 8001cd8:	2200      	movs	r2, #0
 8001cda:	73e2      	strb	r2, [r4, #15]
  BUF->ipoffset[0] = BUF->ipoffset[1] = 0;
 8001cdc:	7562      	strb	r2, [r4, #21]
 8001cde:	7522      	strb	r2, [r4, #20]
  ++ipid;
 8001ce0:	498c      	ldr	r1, [pc, #560]	; (8001f14 <uip_process+0x5d8>)
 8001ce2:	880b      	ldrh	r3, [r1, #0]
 8001ce4:	3301      	adds	r3, #1
 8001ce6:	b29b      	uxth	r3, r3
 8001ce8:	800b      	strh	r3, [r1, #0]
  BUF->ipid[0] = ipid >> 8;
 8001cea:	0a19      	lsrs	r1, r3, #8
 8001cec:	74a1      	strb	r1, [r4, #18]
  BUF->ipid[1] = ipid & 0xff;
 8001cee:	74e3      	strb	r3, [r4, #19]
  BUF->ipchksum = 0;
 8001cf0:	7622      	strb	r2, [r4, #24]
 8001cf2:	7662      	strb	r2, [r4, #25]
  BUF->ipchksum = ~(uip_ipchksum());
 8001cf4:	f7ff fdee 	bl	80018d4 <uip_ipchksum>
 8001cf8:	43c0      	mvns	r0, r0
 8001cfa:	8320      	strh	r0, [r4, #24]
  uip_flags = 0;
 8001cfc:	4b7b      	ldr	r3, [pc, #492]	; (8001eec <uip_process+0x5b0>)
 8001cfe:	2200      	movs	r2, #0
 8001d00:	701a      	strb	r2, [r3, #0]
  return;
 8001d02:	e68c      	b.n	8001a1e <uip_process+0xe2>
    ICMPBUF->icmpchksum += HTONS(ICMP_ECHO << 8);
 8001d04:	3308      	adds	r3, #8
 8001d06:	4a81      	ldr	r2, [pc, #516]	; (8001f0c <uip_process+0x5d0>)
 8001d08:	8493      	strh	r3, [r2, #36]	; 0x24
 8001d0a:	e674      	b.n	80019f6 <uip_process+0xba>
  uip_len = uip_len - UIP_IPUDPH_LEN;
 8001d0c:	3d1c      	subs	r5, #28
 8001d0e:	4b7e      	ldr	r3, [pc, #504]	; (8001f08 <uip_process+0x5cc>)
 8001d10:	801d      	strh	r5, [r3, #0]
  for (uip_udp_conn = &uip_udp_conns[0];
 8001d12:	4b77      	ldr	r3, [pc, #476]	; (8001ef0 <uip_process+0x5b4>)
 8001d14:	4a80      	ldr	r2, [pc, #512]	; (8001f18 <uip_process+0x5dc>)
 8001d16:	601a      	str	r2, [r3, #0]
 8001d18:	e00e      	b.n	8001d38 <uip_process+0x3fc>
        (uip_ipaddr_cmp(uip_udp_conn->ripaddr, all_zeroes_addr) ||
 8001d1a:	881a      	ldrh	r2, [r3, #0]
         uip_udp_conn->rport == HTONS(69)) &&
 8001d1c:	b90a      	cbnz	r2, 8001d22 <uip_process+0x3e6>
        (uip_ipaddr_cmp(uip_udp_conn->ripaddr, all_zeroes_addr) ||
 8001d1e:	8859      	ldrh	r1, [r3, #2]
 8001d20:	b329      	cbz	r1, 8001d6e <uip_process+0x432>
 8001d22:	f64f 71ff 	movw	r1, #65535	; 0xffff
 8001d26:	428a      	cmp	r2, r1
 8001d28:	d01e      	beq.n	8001d68 <uip_process+0x42c>
         uip_ipaddr_cmp(BUF->srcipaddr, uip_udp_conn->ripaddr)))
 8001d2a:	4978      	ldr	r1, [pc, #480]	; (8001f0c <uip_process+0x5d0>)
 8001d2c:	8b49      	ldrh	r1, [r1, #26]
         uip_ipaddr_cmp(uip_udp_conn->ripaddr, all_ones_addr) ||
 8001d2e:	428a      	cmp	r2, r1
 8001d30:	d02d      	beq.n	8001d8e <uip_process+0x452>
       ++uip_udp_conn)
 8001d32:	3340      	adds	r3, #64	; 0x40
 8001d34:	4a6e      	ldr	r2, [pc, #440]	; (8001ef0 <uip_process+0x5b4>)
 8001d36:	6013      	str	r3, [r2, #0]
       uip_udp_conn < &uip_udp_conns[UIP_UDP_CONNS];
 8001d38:	4b6d      	ldr	r3, [pc, #436]	; (8001ef0 <uip_process+0x5b4>)
 8001d3a:	681b      	ldr	r3, [r3, #0]
  for (uip_udp_conn = &uip_udp_conns[0];
 8001d3c:	4a77      	ldr	r2, [pc, #476]	; (8001f1c <uip_process+0x5e0>)
 8001d3e:	4293      	cmp	r3, r2
 8001d40:	f4bf ae68 	bcs.w	8001a14 <uip_process+0xd8>
    if (uip_udp_conn->lport != 0 &&
 8001d44:	889a      	ldrh	r2, [r3, #4]
 8001d46:	2a00      	cmp	r2, #0
 8001d48:	d0f3      	beq.n	8001d32 <uip_process+0x3f6>
        UDPBUF->destport == uip_udp_conn->lport &&
 8001d4a:	4970      	ldr	r1, [pc, #448]	; (8001f0c <uip_process+0x5d0>)
 8001d4c:	8c89      	ldrh	r1, [r1, #36]	; 0x24
    if (uip_udp_conn->lport != 0 &&
 8001d4e:	428a      	cmp	r2, r1
 8001d50:	d1ef      	bne.n	8001d32 <uip_process+0x3f6>
        (uip_udp_conn->rport == 0 ||
 8001d52:	88da      	ldrh	r2, [r3, #6]
        UDPBUF->destport == uip_udp_conn->lport &&
 8001d54:	2a00      	cmp	r2, #0
 8001d56:	d0e0      	beq.n	8001d1a <uip_process+0x3de>
         UDPBUF->srcport == uip_udp_conn->rport ||
 8001d58:	496c      	ldr	r1, [pc, #432]	; (8001f0c <uip_process+0x5d0>)
 8001d5a:	8c49      	ldrh	r1, [r1, #34]	; 0x22
        (uip_udp_conn->rport == 0 ||
 8001d5c:	428a      	cmp	r2, r1
 8001d5e:	d0dc      	beq.n	8001d1a <uip_process+0x3de>
         UDPBUF->srcport == uip_udp_conn->rport ||
 8001d60:	f5b2 4f8a 	cmp.w	r2, #17664	; 0x4500
 8001d64:	d1e5      	bne.n	8001d32 <uip_process+0x3f6>
 8001d66:	e7d8      	b.n	8001d1a <uip_process+0x3de>
         uip_ipaddr_cmp(uip_udp_conn->ripaddr, all_ones_addr) ||
 8001d68:	8858      	ldrh	r0, [r3, #2]
 8001d6a:	4288      	cmp	r0, r1
 8001d6c:	d1dd      	bne.n	8001d2a <uip_process+0x3ee>
  uip_conn = NULL;
 8001d6e:	2300      	movs	r3, #0
 8001d70:	4a60      	ldr	r2, [pc, #384]	; (8001ef4 <uip_process+0x5b8>)
 8001d72:	6013      	str	r3, [r2, #0]
  uip_flags = UIP_NEWDATA;
 8001d74:	4a5d      	ldr	r2, [pc, #372]	; (8001eec <uip_process+0x5b0>)
 8001d76:	2102      	movs	r1, #2
 8001d78:	7011      	strb	r1, [r2, #0]
  uip_sappdata = uip_appdata = &uip_buf[UIP_LLH_LEN + UIP_IPUDPH_LEN];
 8001d7a:	4a5f      	ldr	r2, [pc, #380]	; (8001ef8 <uip_process+0x5bc>)
 8001d7c:	495f      	ldr	r1, [pc, #380]	; (8001efc <uip_process+0x5c0>)
 8001d7e:	600a      	str	r2, [r1, #0]
 8001d80:	495f      	ldr	r1, [pc, #380]	; (8001f00 <uip_process+0x5c4>)
 8001d82:	600a      	str	r2, [r1, #0]
  uip_slen = 0;
 8001d84:	4a5f      	ldr	r2, [pc, #380]	; (8001f04 <uip_process+0x5c8>)
 8001d86:	8013      	strh	r3, [r2, #0]
  UIP_UDP_APPCALL();
 8001d88:	f7ff fcdc 	bl	8001744 <dhcpc_appcall>
 8001d8c:	e772      	b.n	8001c74 <uip_process+0x338>
         uip_ipaddr_cmp(BUF->srcipaddr, uip_udp_conn->ripaddr)))
 8001d8e:	4a5f      	ldr	r2, [pc, #380]	; (8001f0c <uip_process+0x5d0>)
 8001d90:	8b91      	ldrh	r1, [r2, #28]
 8001d92:	885a      	ldrh	r2, [r3, #2]
 8001d94:	4291      	cmp	r1, r2
 8001d96:	d1cc      	bne.n	8001d32 <uip_process+0x3f6>
udp_found:
 8001d98:	e7e9      	b.n	8001d6e <uip_process+0x432>
  if (uip_tcpchksum() != 0xffff)
 8001d9a:	f7ff fdc9 	bl	8001930 <uip_tcpchksum>
 8001d9e:	f64f 73ff 	movw	r3, #65535	; 0xffff
 8001da2:	4298      	cmp	r0, r3
 8001da4:	f47f ae36 	bne.w	8001a14 <uip_process+0xd8>
  for (uip_connr = &uip_conns[0]; uip_connr <= &uip_conns[UIP_CONNS - 1];
 8001da8:	4c5d      	ldr	r4, [pc, #372]	; (8001f20 <uip_process+0x5e4>)
 8001daa:	4b5d      	ldr	r3, [pc, #372]	; (8001f20 <uip_process+0x5e4>)
 8001dac:	429c      	cmp	r4, r3
 8001dae:	d95a      	bls.n	8001e66 <uip_process+0x52a>
  if ((BUF->flags & TCP_CTL) != TCP_SYN)
 8001db0:	4b56      	ldr	r3, [pc, #344]	; (8001f0c <uip_process+0x5d0>)
 8001db2:	f893 302f 	ldrb.w	r3, [r3, #47]	; 0x2f
 8001db6:	f003 033f 	and.w	r3, r3, #63	; 0x3f
 8001dba:	2b02      	cmp	r3, #2
 8001dbc:	d07f      	beq.n	8001ebe <uip_process+0x582>
  if (BUF->flags & TCP_RST)
 8001dbe:	4b53      	ldr	r3, [pc, #332]	; (8001f0c <uip_process+0x5d0>)
 8001dc0:	f893 302f 	ldrb.w	r3, [r3, #47]	; 0x2f
 8001dc4:	f013 0f04 	tst.w	r3, #4
 8001dc8:	f47f ae24 	bne.w	8001a14 <uip_process+0xd8>
  BUF->flags = TCP_RST | TCP_ACK;
 8001dcc:	494f      	ldr	r1, [pc, #316]	; (8001f0c <uip_process+0x5d0>)
 8001dce:	2314      	movs	r3, #20
 8001dd0:	f881 302f 	strb.w	r3, [r1, #47]	; 0x2f
  uip_len = UIP_IPTCPH_LEN;
 8001dd4:	4b4c      	ldr	r3, [pc, #304]	; (8001f08 <uip_process+0x5cc>)
 8001dd6:	2228      	movs	r2, #40	; 0x28
 8001dd8:	801a      	strh	r2, [r3, #0]
  BUF->tcpoffset = 5 << 4;
 8001dda:	2350      	movs	r3, #80	; 0x50
 8001ddc:	f881 302e 	strb.w	r3, [r1, #46]	; 0x2e
  c = BUF->seqno[3];
 8001de0:	f891 0029 	ldrb.w	r0, [r1, #41]	; 0x29
  BUF->seqno[3] = BUF->ackno[3];
 8001de4:	f891 302d 	ldrb.w	r3, [r1, #45]	; 0x2d
 8001de8:	f881 3029 	strb.w	r3, [r1, #41]	; 0x29
  c = BUF->seqno[2];
 8001dec:	f891 2028 	ldrb.w	r2, [r1, #40]	; 0x28
  BUF->seqno[2] = BUF->ackno[2];
 8001df0:	f891 302c 	ldrb.w	r3, [r1, #44]	; 0x2c
 8001df4:	f881 3028 	strb.w	r3, [r1, #40]	; 0x28
  BUF->ackno[2] = c;
 8001df8:	f881 202c 	strb.w	r2, [r1, #44]	; 0x2c
  c = BUF->seqno[1];
 8001dfc:	f891 3027 	ldrb.w	r3, [r1, #39]	; 0x27
  BUF->seqno[1] = BUF->ackno[1];
 8001e00:	f891 402b 	ldrb.w	r4, [r1, #43]	; 0x2b
 8001e04:	f881 4027 	strb.w	r4, [r1, #39]	; 0x27
  BUF->ackno[1] = c;
 8001e08:	f881 302b 	strb.w	r3, [r1, #43]	; 0x2b
  c = BUF->seqno[0];
 8001e0c:	f891 4026 	ldrb.w	r4, [r1, #38]	; 0x26
 8001e10:	4d44      	ldr	r5, [pc, #272]	; (8001f24 <uip_process+0x5e8>)
 8001e12:	702c      	strb	r4, [r5, #0]
  BUF->seqno[0] = BUF->ackno[0];
 8001e14:	f891 502a 	ldrb.w	r5, [r1, #42]	; 0x2a
 8001e18:	f881 5026 	strb.w	r5, [r1, #38]	; 0x26
  BUF->ackno[0] = c;
 8001e1c:	f881 402a 	strb.w	r4, [r1, #42]	; 0x2a
  if (++BUF->ackno[3] == 0)
 8001e20:	3001      	adds	r0, #1
 8001e22:	b2c0      	uxtb	r0, r0
 8001e24:	f881 002d 	strb.w	r0, [r1, #45]	; 0x2d
 8001e28:	b960      	cbnz	r0, 8001e44 <uip_process+0x508>
    if (++BUF->ackno[2] == 0)
 8001e2a:	3201      	adds	r2, #1
 8001e2c:	b2d2      	uxtb	r2, r2
 8001e2e:	f881 202c 	strb.w	r2, [r1, #44]	; 0x2c
 8001e32:	b93a      	cbnz	r2, 8001e44 <uip_process+0x508>
      if (++BUF->ackno[1] == 0)
 8001e34:	3301      	adds	r3, #1
 8001e36:	b2db      	uxtb	r3, r3
 8001e38:	f881 302b 	strb.w	r3, [r1, #43]	; 0x2b
 8001e3c:	b913      	cbnz	r3, 8001e44 <uip_process+0x508>
        ++BUF->ackno[0];
 8001e3e:	3401      	adds	r4, #1
 8001e40:	f881 402a 	strb.w	r4, [r1, #42]	; 0x2a
  tmp16 = BUF->srcport;
 8001e44:	4b31      	ldr	r3, [pc, #196]	; (8001f0c <uip_process+0x5d0>)
 8001e46:	8c5a      	ldrh	r2, [r3, #34]	; 0x22
 8001e48:	4937      	ldr	r1, [pc, #220]	; (8001f28 <uip_process+0x5ec>)
 8001e4a:	800a      	strh	r2, [r1, #0]
  BUF->srcport = BUF->destport;
 8001e4c:	8c99      	ldrh	r1, [r3, #36]	; 0x24
 8001e4e:	8459      	strh	r1, [r3, #34]	; 0x22
  BUF->destport = tmp16;
 8001e50:	849a      	strh	r2, [r3, #36]	; 0x24
  uip_ipaddr_copy(BUF->destipaddr, BUF->srcipaddr);
 8001e52:	8b5a      	ldrh	r2, [r3, #26]
 8001e54:	83da      	strh	r2, [r3, #30]
 8001e56:	8b9a      	ldrh	r2, [r3, #28]
 8001e58:	841a      	strh	r2, [r3, #32]
  uip_ipaddr_copy(BUF->srcipaddr, uip_hostaddr);
 8001e5a:	4a2d      	ldr	r2, [pc, #180]	; (8001f10 <uip_process+0x5d4>)
 8001e5c:	8811      	ldrh	r1, [r2, #0]
 8001e5e:	8359      	strh	r1, [r3, #26]
 8001e60:	8852      	ldrh	r2, [r2, #2]
 8001e62:	839a      	strh	r2, [r3, #28]
  goto tcp_send_noconn;
 8001e64:	e62c      	b.n	8001ac0 <uip_process+0x184>
    if (uip_connr->tcpstateflags != UIP_CLOSED &&
 8001e66:	7e61      	ldrb	r1, [r4, #25]
 8001e68:	b121      	cbz	r1, 8001e74 <uip_process+0x538>
        BUF->destport == uip_connr->lport &&
 8001e6a:	4b28      	ldr	r3, [pc, #160]	; (8001f0c <uip_process+0x5d0>)
 8001e6c:	8c9a      	ldrh	r2, [r3, #36]	; 0x24
 8001e6e:	88a3      	ldrh	r3, [r4, #4]
    if (uip_connr->tcpstateflags != UIP_CLOSED &&
 8001e70:	429a      	cmp	r2, r3
 8001e72:	d001      	beq.n	8001e78 <uip_process+0x53c>
       ++uip_connr)
 8001e74:	3468      	adds	r4, #104	; 0x68
 8001e76:	e798      	b.n	8001daa <uip_process+0x46e>
        BUF->srcport == uip_connr->rport &&
 8001e78:	4b24      	ldr	r3, [pc, #144]	; (8001f0c <uip_process+0x5d0>)
 8001e7a:	8c5a      	ldrh	r2, [r3, #34]	; 0x22
 8001e7c:	88e3      	ldrh	r3, [r4, #6]
        BUF->destport == uip_connr->lport &&
 8001e7e:	429a      	cmp	r2, r3
 8001e80:	d1f8      	bne.n	8001e74 <uip_process+0x538>
        uip_ipaddr_cmp(BUF->srcipaddr, uip_connr->ripaddr))
 8001e82:	4b22      	ldr	r3, [pc, #136]	; (8001f0c <uip_process+0x5d0>)
 8001e84:	8b5a      	ldrh	r2, [r3, #26]
 8001e86:	8823      	ldrh	r3, [r4, #0]
        BUF->srcport == uip_connr->rport &&
 8001e88:	429a      	cmp	r2, r3
 8001e8a:	d1f3      	bne.n	8001e74 <uip_process+0x538>
        uip_ipaddr_cmp(BUF->srcipaddr, uip_connr->ripaddr))
 8001e8c:	4b1f      	ldr	r3, [pc, #124]	; (8001f0c <uip_process+0x5d0>)
 8001e8e:	8b9a      	ldrh	r2, [r3, #28]
 8001e90:	8863      	ldrh	r3, [r4, #2]
 8001e92:	429a      	cmp	r2, r3
 8001e94:	d1ee      	bne.n	8001e74 <uip_process+0x538>
  uip_conn = uip_connr;
 8001e96:	4b17      	ldr	r3, [pc, #92]	; (8001ef4 <uip_process+0x5b8>)
 8001e98:	601c      	str	r4, [r3, #0]
  uip_flags = 0;
 8001e9a:	4b14      	ldr	r3, [pc, #80]	; (8001eec <uip_process+0x5b0>)
 8001e9c:	2200      	movs	r2, #0
 8001e9e:	701a      	strb	r2, [r3, #0]
  if (BUF->flags & TCP_RST)
 8001ea0:	4b1a      	ldr	r3, [pc, #104]	; (8001f0c <uip_process+0x5d0>)
 8001ea2:	f893 202f 	ldrb.w	r2, [r3, #47]	; 0x2f
 8001ea6:	f012 0f04 	tst.w	r2, #4
 8001eaa:	f000 80da 	beq.w	8002062 <uip_process+0x726>
    uip_connr->tcpstateflags = UIP_CLOSED;
 8001eae:	2300      	movs	r3, #0
 8001eb0:	7663      	strb	r3, [r4, #25]
    uip_flags = UIP_ABORT;
 8001eb2:	4b0e      	ldr	r3, [pc, #56]	; (8001eec <uip_process+0x5b0>)
 8001eb4:	2220      	movs	r2, #32
 8001eb6:	701a      	strb	r2, [r3, #0]
    UIP_APPCALL();
 8001eb8:	f7fe ff8c 	bl	8000dd4 <NetApp>
    goto drop;
 8001ebc:	e5aa      	b.n	8001a14 <uip_process+0xd8>
  tmp16 = BUF->destport;
 8001ebe:	4b13      	ldr	r3, [pc, #76]	; (8001f0c <uip_process+0x5d0>)
 8001ec0:	8c9b      	ldrh	r3, [r3, #36]	; 0x24
 8001ec2:	b299      	uxth	r1, r3
 8001ec4:	4a18      	ldr	r2, [pc, #96]	; (8001f28 <uip_process+0x5ec>)
 8001ec6:	8013      	strh	r3, [r2, #0]
  for (c = 0; c < UIP_LISTENPORTS; ++c)
 8001ec8:	4b16      	ldr	r3, [pc, #88]	; (8001f24 <uip_process+0x5e8>)
 8001eca:	2200      	movs	r2, #0
 8001ecc:	701a      	strb	r2, [r3, #0]
 8001ece:	4b15      	ldr	r3, [pc, #84]	; (8001f24 <uip_process+0x5e8>)
 8001ed0:	781b      	ldrb	r3, [r3, #0]
 8001ed2:	2b00      	cmp	r3, #0
 8001ed4:	f47f af73 	bne.w	8001dbe <uip_process+0x482>
    if (tmp16 == uip_listenports[c])
 8001ed8:	4a14      	ldr	r2, [pc, #80]	; (8001f2c <uip_process+0x5f0>)
 8001eda:	f832 2013 	ldrh.w	r2, [r2, r3, lsl #1]
 8001ede:	4291      	cmp	r1, r2
 8001ee0:	d026      	beq.n	8001f30 <uip_process+0x5f4>
  for (c = 0; c < UIP_LISTENPORTS; ++c)
 8001ee2:	3301      	adds	r3, #1
 8001ee4:	4a0f      	ldr	r2, [pc, #60]	; (8001f24 <uip_process+0x5e8>)
 8001ee6:	7013      	strb	r3, [r2, #0]
 8001ee8:	e7f1      	b.n	8001ece <uip_process+0x592>
 8001eea:	bf00      	nop
 8001eec:	200005e8 	.word	0x200005e8
 8001ef0:	200005ec 	.word	0x200005ec
 8001ef4:	200005f4 	.word	0x200005f4
 8001ef8:	2000069a 	.word	0x2000069a
 8001efc:	200005f0 	.word	0x200005f0
 8001f00:	200005e0 	.word	0x200005e0
 8001f04:	20000cb2 	.word	0x20000cb2
 8001f08:	200005dc 	.word	0x200005dc
 8001f0c:	20000670 	.word	0x20000670
 8001f10:	2000066c 	.word	0x2000066c
 8001f14:	2000054e 	.word	0x2000054e
 8001f18:	20000cb4 	.word	0x20000cb4
 8001f1c:	20000cf4 	.word	0x20000cf4
 8001f20:	200005f8 	.word	0x200005f8
 8001f24:	2000054c 	.word	0x2000054c
 8001f28:	20000556 	.word	0x20000556
 8001f2c:	20000660 	.word	0x20000660
  for (c = 0; c < UIP_CONNS; ++c)
 8001f30:	2400      	movs	r4, #0
 8001f32:	4b9a      	ldr	r3, [pc, #616]	; (800219c <uip_process+0x860>)
 8001f34:	701c      	strb	r4, [r3, #0]
 8001f36:	e00b      	b.n	8001f50 <uip_process+0x614>
    if (uip_conns[c].tcpstateflags == UIP_CLOSED)
 8001f38:	4619      	mov	r1, r3
 8001f3a:	4899      	ldr	r0, [pc, #612]	; (80021a0 <uip_process+0x864>)
 8001f3c:	2268      	movs	r2, #104	; 0x68
 8001f3e:	fb02 0203 	mla	r2, r2, r3, r0
 8001f42:	7e52      	ldrb	r2, [r2, #25]
 8001f44:	b14a      	cbz	r2, 8001f5a <uip_process+0x61e>
    if (uip_conns[c].tcpstateflags == UIP_TIME_WAIT)
 8001f46:	2a07      	cmp	r2, #7
 8001f48:	d056      	beq.n	8001ff8 <uip_process+0x6bc>
  for (c = 0; c < UIP_CONNS; ++c)
 8001f4a:	3301      	adds	r3, #1
 8001f4c:	4a93      	ldr	r2, [pc, #588]	; (800219c <uip_process+0x860>)
 8001f4e:	7013      	strb	r3, [r2, #0]
 8001f50:	4b92      	ldr	r3, [pc, #584]	; (800219c <uip_process+0x860>)
 8001f52:	781b      	ldrb	r3, [r3, #0]
 8001f54:	2b00      	cmp	r3, #0
 8001f56:	d0ef      	beq.n	8001f38 <uip_process+0x5fc>
 8001f58:	e002      	b.n	8001f60 <uip_process+0x624>
      uip_connr = &uip_conns[c];
 8001f5a:	2468      	movs	r4, #104	; 0x68
 8001f5c:	fb04 0401 	mla	r4, r4, r1, r0
  if (uip_connr == 0)
 8001f60:	2c00      	cmp	r4, #0
 8001f62:	f43f ad57 	beq.w	8001a14 <uip_process+0xd8>
  uip_conn = uip_connr;
 8001f66:	4b8f      	ldr	r3, [pc, #572]	; (80021a4 <uip_process+0x868>)
 8001f68:	601c      	str	r4, [r3, #0]
  uip_connr->rto = uip_connr->timer = UIP_RTO;
 8001f6a:	2303      	movs	r3, #3
 8001f6c:	76a3      	strb	r3, [r4, #26]
 8001f6e:	7623      	strb	r3, [r4, #24]
  uip_connr->sa = 0;
 8001f70:	2300      	movs	r3, #0
 8001f72:	75a3      	strb	r3, [r4, #22]
  uip_connr->sv = 4;
 8001f74:	2204      	movs	r2, #4
 8001f76:	75e2      	strb	r2, [r4, #23]
  uip_connr->nrtx = 0;
 8001f78:	76e3      	strb	r3, [r4, #27]
  uip_connr->lport = BUF->destport;
 8001f7a:	4d8b      	ldr	r5, [pc, #556]	; (80021a8 <uip_process+0x86c>)
 8001f7c:	8cab      	ldrh	r3, [r5, #36]	; 0x24
 8001f7e:	80a3      	strh	r3, [r4, #4]
  uip_connr->rport = BUF->srcport;
 8001f80:	8c6b      	ldrh	r3, [r5, #34]	; 0x22
 8001f82:	80e3      	strh	r3, [r4, #6]
  uip_ipaddr_copy(uip_connr->ripaddr, BUF->srcipaddr);
 8001f84:	8b6b      	ldrh	r3, [r5, #26]
 8001f86:	8023      	strh	r3, [r4, #0]
 8001f88:	8bab      	ldrh	r3, [r5, #28]
 8001f8a:	8063      	strh	r3, [r4, #2]
  uip_connr->tcpstateflags = UIP_SYN_RCVD;
 8001f8c:	2001      	movs	r0, #1
 8001f8e:	7660      	strb	r0, [r4, #25]
  uip_connr->snd_nxt[0] = iss[0];
 8001f90:	4b86      	ldr	r3, [pc, #536]	; (80021ac <uip_process+0x870>)
 8001f92:	781a      	ldrb	r2, [r3, #0]
 8001f94:	7322      	strb	r2, [r4, #12]
  uip_connr->snd_nxt[1] = iss[1];
 8001f96:	785a      	ldrb	r2, [r3, #1]
 8001f98:	7362      	strb	r2, [r4, #13]
  uip_connr->snd_nxt[2] = iss[2];
 8001f9a:	789a      	ldrb	r2, [r3, #2]
 8001f9c:	73a2      	strb	r2, [r4, #14]
  uip_connr->snd_nxt[3] = iss[3];
 8001f9e:	78db      	ldrb	r3, [r3, #3]
 8001fa0:	73e3      	strb	r3, [r4, #15]
  uip_connr->len = 1;
 8001fa2:	8220      	strh	r0, [r4, #16]
  uip_connr->rcv_nxt[3] = BUF->seqno[3];
 8001fa4:	f895 3029 	ldrb.w	r3, [r5, #41]	; 0x29
 8001fa8:	72e3      	strb	r3, [r4, #11]
  uip_connr->rcv_nxt[2] = BUF->seqno[2];
 8001faa:	f895 3028 	ldrb.w	r3, [r5, #40]	; 0x28
 8001fae:	72a3      	strb	r3, [r4, #10]
  uip_connr->rcv_nxt[1] = BUF->seqno[1];
 8001fb0:	f895 3027 	ldrb.w	r3, [r5, #39]	; 0x27
 8001fb4:	7263      	strb	r3, [r4, #9]
  uip_connr->rcv_nxt[0] = BUF->seqno[0];
 8001fb6:	f895 3026 	ldrb.w	r3, [r5, #38]	; 0x26
 8001fba:	7223      	strb	r3, [r4, #8]
  uip_add_rcv_nxt(1);
 8001fbc:	f7ff fc14 	bl	80017e8 <uip_add_rcv_nxt>
  if ((BUF->tcpoffset & 0xf0) > 0x50)
 8001fc0:	f895 002e 	ldrb.w	r0, [r5, #46]	; 0x2e
 8001fc4:	f000 03f0 	and.w	r3, r0, #240	; 0xf0
 8001fc8:	2b50      	cmp	r3, #80	; 0x50
 8001fca:	d93b      	bls.n	8002044 <uip_process+0x708>
    for (c = 0; c < ((BUF->tcpoffset >> 4) - 5) << 2 ;)
 8001fcc:	4b73      	ldr	r3, [pc, #460]	; (800219c <uip_process+0x860>)
 8001fce:	2200      	movs	r2, #0
 8001fd0:	701a      	strb	r2, [r3, #0]
 8001fd2:	4b72      	ldr	r3, [pc, #456]	; (800219c <uip_process+0x860>)
 8001fd4:	781b      	ldrb	r3, [r3, #0]
 8001fd6:	461a      	mov	r2, r3
 8001fd8:	0901      	lsrs	r1, r0, #4
 8001fda:	3905      	subs	r1, #5
 8001fdc:	ebb3 0f81 	cmp.w	r3, r1, lsl #2
 8001fe0:	da30      	bge.n	8002044 <uip_process+0x708>
      opt = uip_buf[UIP_TCPIP_HLEN + UIP_LLH_LEN + c];
 8001fe2:	f103 0136 	add.w	r1, r3, #54	; 0x36
 8001fe6:	4d70      	ldr	r5, [pc, #448]	; (80021a8 <uip_process+0x86c>)
 8001fe8:	5c69      	ldrb	r1, [r5, r1]
      if (opt == TCP_OPT_END)
 8001fea:	b359      	cbz	r1, 8002044 <uip_process+0x708>
      else if (opt == TCP_OPT_NOOP)
 8001fec:	2901      	cmp	r1, #1
 8001fee:	d111      	bne.n	8002014 <uip_process+0x6d8>
        ++c;
 8001ff0:	3301      	adds	r3, #1
 8001ff2:	4a6a      	ldr	r2, [pc, #424]	; (800219c <uip_process+0x860>)
 8001ff4:	7013      	strb	r3, [r2, #0]
 8001ff6:	e7ec      	b.n	8001fd2 <uip_process+0x696>
      if (uip_connr == 0 ||
 8001ff8:	b13c      	cbz	r4, 800200a <uip_process+0x6ce>
          uip_conns[c].timer > uip_connr->timer)
 8001ffa:	4969      	ldr	r1, [pc, #420]	; (80021a0 <uip_process+0x864>)
 8001ffc:	2268      	movs	r2, #104	; 0x68
 8001ffe:	fb02 1203 	mla	r2, r2, r3, r1
 8002002:	7e91      	ldrb	r1, [r2, #26]
 8002004:	7ea2      	ldrb	r2, [r4, #26]
      if (uip_connr == 0 ||
 8002006:	4291      	cmp	r1, r2
 8002008:	d99f      	bls.n	8001f4a <uip_process+0x60e>
        uip_connr = &uip_conns[c];
 800200a:	2468      	movs	r4, #104	; 0x68
 800200c:	4a64      	ldr	r2, [pc, #400]	; (80021a0 <uip_process+0x864>)
 800200e:	fb04 2403 	mla	r4, r4, r3, r2
 8002012:	e79a      	b.n	8001f4a <uip_process+0x60e>
      else if (opt == TCP_OPT_MSS &&
 8002014:	2902      	cmp	r1, #2
 8002016:	d11a      	bne.n	800204e <uip_process+0x712>
               uip_buf[UIP_TCPIP_HLEN + UIP_LLH_LEN + 1 + c] == TCP_OPT_MSS_LEN)
 8002018:	f103 0137 	add.w	r1, r3, #55	; 0x37
 800201c:	4d62      	ldr	r5, [pc, #392]	; (80021a8 <uip_process+0x86c>)
 800201e:	5c69      	ldrb	r1, [r5, r1]
      else if (opt == TCP_OPT_MSS &&
 8002020:	2904      	cmp	r1, #4
 8002022:	d114      	bne.n	800204e <uip_process+0x712>
        tmp16 = ((u16_t)uip_buf[UIP_TCPIP_HLEN + UIP_LLH_LEN + 2 + c] << 8) |
 8002024:	f102 0138 	add.w	r1, r2, #56	; 0x38
 8002028:	5c69      	ldrb	r1, [r5, r1]
                (u16_t)uip_buf[UIP_IPTCPH_LEN + UIP_LLH_LEN + 3 + c];
 800202a:	3239      	adds	r2, #57	; 0x39
 800202c:	5cab      	ldrb	r3, [r5, r2]
        tmp16 = ((u16_t)uip_buf[UIP_TCPIP_HLEN + UIP_LLH_LEN + 2 + c] << 8) |
 800202e:	ea43 2301 	orr.w	r3, r3, r1, lsl #8
 8002032:	4a5f      	ldr	r2, [pc, #380]	; (80021b0 <uip_process+0x874>)
 8002034:	8013      	strh	r3, [r2, #0]
                                  tmp16 > UIP_TCP_MSS? UIP_TCP_MSS: tmp16;
 8002036:	f240 620a 	movw	r2, #1546	; 0x60a
 800203a:	4293      	cmp	r3, r2
 800203c:	bf28      	it	cs
 800203e:	4613      	movcs	r3, r2
        uip_connr->initialmss = uip_connr->mss =
 8002040:	8263      	strh	r3, [r4, #18]
 8002042:	82a3      	strh	r3, [r4, #20]
  BUF->flags = TCP_ACK;
 8002044:	4b58      	ldr	r3, [pc, #352]	; (80021a8 <uip_process+0x86c>)
 8002046:	2210      	movs	r2, #16
 8002048:	f883 202f 	strb.w	r2, [r3, #47]	; 0x2f
 800204c:	e5bc      	b.n	8001bc8 <uip_process+0x28c>
        if (uip_buf[UIP_TCPIP_HLEN + UIP_LLH_LEN + 1 + c] == 0)
 800204e:	f103 0237 	add.w	r2, r3, #55	; 0x37
 8002052:	4955      	ldr	r1, [pc, #340]	; (80021a8 <uip_process+0x86c>)
 8002054:	5c8a      	ldrb	r2, [r1, r2]
 8002056:	2a00      	cmp	r2, #0
 8002058:	d0f4      	beq.n	8002044 <uip_process+0x708>
        c += uip_buf[UIP_TCPIP_HLEN + UIP_LLH_LEN + 1 + c];
 800205a:	4413      	add	r3, r2
 800205c:	4a4f      	ldr	r2, [pc, #316]	; (800219c <uip_process+0x860>)
 800205e:	7013      	strb	r3, [r2, #0]
 8002060:	e7b7      	b.n	8001fd2 <uip_process+0x696>
  c = (BUF->tcpoffset >> 4) << 2;
 8002062:	4b51      	ldr	r3, [pc, #324]	; (80021a8 <uip_process+0x86c>)
 8002064:	f893 302e 	ldrb.w	r3, [r3, #46]	; 0x2e
 8002068:	091b      	lsrs	r3, r3, #4
 800206a:	009b      	lsls	r3, r3, #2
 800206c:	484b      	ldr	r0, [pc, #300]	; (800219c <uip_process+0x860>)
 800206e:	7003      	strb	r3, [r0, #0]
  uip_len = uip_len - c - UIP_IPH_LEN;
 8002070:	1aeb      	subs	r3, r5, r3
 8002072:	b29b      	uxth	r3, r3
 8002074:	3b14      	subs	r3, #20
 8002076:	b29b      	uxth	r3, r3
 8002078:	484e      	ldr	r0, [pc, #312]	; (80021b4 <uip_process+0x878>)
 800207a:	8003      	strh	r3, [r0, #0]
  if (!(((uip_connr->tcpstateflags & UIP_TS_MASK) == UIP_SYN_SENT) &&
 800207c:	f001 010f 	and.w	r1, r1, #15
 8002080:	2902      	cmp	r1, #2
 8002082:	d103      	bne.n	800208c <uip_process+0x750>
 8002084:	f002 013f 	and.w	r1, r2, #63	; 0x3f
 8002088:	2912      	cmp	r1, #18
 800208a:	d00f      	beq.n	80020ac <uip_process+0x770>
    if ((uip_len > 0 || ((BUF->flags & (TCP_SYN | TCP_FIN)) != 0)) &&
 800208c:	b913      	cbnz	r3, 8002094 <uip_process+0x758>
 800208e:	f012 0f03 	tst.w	r2, #3
 8002092:	d00b      	beq.n	80020ac <uip_process+0x770>
        (BUF->seqno[0] != uip_connr->rcv_nxt[0] ||
 8002094:	4b44      	ldr	r3, [pc, #272]	; (80021a8 <uip_process+0x86c>)
 8002096:	8cd9      	ldrh	r1, [r3, #38]	; 0x26
 8002098:	8923      	ldrh	r3, [r4, #8]
    if ((uip_len > 0 || ((BUF->flags & (TCP_SYN | TCP_FIN)) != 0)) &&
 800209a:	4299      	cmp	r1, r3
 800209c:	f040 81e7 	bne.w	800246e <uip_process+0xb32>
         BUF->seqno[2] != uip_connr->rcv_nxt[2] ||
 80020a0:	4b41      	ldr	r3, [pc, #260]	; (80021a8 <uip_process+0x86c>)
 80020a2:	8d19      	ldrh	r1, [r3, #40]	; 0x28
 80020a4:	8963      	ldrh	r3, [r4, #10]
 80020a6:	4299      	cmp	r1, r3
 80020a8:	f040 81e1 	bne.w	800246e <uip_process+0xb32>
  if ((BUF->flags & TCP_ACK) && uip_outstanding(uip_connr))
 80020ac:	f012 0f10 	tst.w	r2, #16
 80020b0:	d047      	beq.n	8002142 <uip_process+0x806>
 80020b2:	8a21      	ldrh	r1, [r4, #16]
 80020b4:	2900      	cmp	r1, #0
 80020b6:	d044      	beq.n	8002142 <uip_process+0x806>
    uip_add32(uip_connr->snd_nxt, uip_connr->len);
 80020b8:	f104 000c 	add.w	r0, r4, #12
 80020bc:	f7ff fb66 	bl	800178c <uip_add32>
    if (BUF->ackno[0] == uip_acc32[0] &&
 80020c0:	4b39      	ldr	r3, [pc, #228]	; (80021a8 <uip_process+0x86c>)
 80020c2:	f893 302a 	ldrb.w	r3, [r3, #42]	; 0x2a
 80020c6:	4a3c      	ldr	r2, [pc, #240]	; (80021b8 <uip_process+0x87c>)
 80020c8:	7810      	ldrb	r0, [r2, #0]
 80020ca:	4283      	cmp	r3, r0
 80020cc:	d139      	bne.n	8002142 <uip_process+0x806>
        BUF->ackno[1] == uip_acc32[1] &&
 80020ce:	4b36      	ldr	r3, [pc, #216]	; (80021a8 <uip_process+0x86c>)
 80020d0:	f893 302b 	ldrb.w	r3, [r3, #43]	; 0x2b
 80020d4:	7851      	ldrb	r1, [r2, #1]
    if (BUF->ackno[0] == uip_acc32[0] &&
 80020d6:	428b      	cmp	r3, r1
 80020d8:	d133      	bne.n	8002142 <uip_process+0x806>
        BUF->ackno[2] == uip_acc32[2] &&
 80020da:	4b33      	ldr	r3, [pc, #204]	; (80021a8 <uip_process+0x86c>)
 80020dc:	f893 302c 	ldrb.w	r3, [r3, #44]	; 0x2c
 80020e0:	7892      	ldrb	r2, [r2, #2]
        BUF->ackno[1] == uip_acc32[1] &&
 80020e2:	4293      	cmp	r3, r2
 80020e4:	d12d      	bne.n	8002142 <uip_process+0x806>
        BUF->ackno[3] == uip_acc32[3])
 80020e6:	4b30      	ldr	r3, [pc, #192]	; (80021a8 <uip_process+0x86c>)
 80020e8:	f893 502d 	ldrb.w	r5, [r3, #45]	; 0x2d
 80020ec:	4b32      	ldr	r3, [pc, #200]	; (80021b8 <uip_process+0x87c>)
 80020ee:	78db      	ldrb	r3, [r3, #3]
        BUF->ackno[2] == uip_acc32[2] &&
 80020f0:	429d      	cmp	r5, r3
 80020f2:	d126      	bne.n	8002142 <uip_process+0x806>
      uip_connr->snd_nxt[0] = uip_acc32[0];
 80020f4:	7320      	strb	r0, [r4, #12]
      uip_connr->snd_nxt[1] = uip_acc32[1];
 80020f6:	7361      	strb	r1, [r4, #13]
      uip_connr->snd_nxt[2] = uip_acc32[2];
 80020f8:	73a2      	strb	r2, [r4, #14]
      uip_connr->snd_nxt[3] = uip_acc32[3];
 80020fa:	73e3      	strb	r3, [r4, #15]
      if (uip_connr->nrtx == 0)
 80020fc:	7ee3      	ldrb	r3, [r4, #27]
 80020fe:	b9cb      	cbnz	r3, 8002134 <uip_process+0x7f8>
        m = uip_connr->rto - uip_connr->timer;
 8002100:	7e23      	ldrb	r3, [r4, #24]
 8002102:	7ea2      	ldrb	r2, [r4, #26]
 8002104:	1a9b      	subs	r3, r3, r2
 8002106:	b2db      	uxtb	r3, r3
        m = m - (uip_connr->sa >> 3);
 8002108:	7da1      	ldrb	r1, [r4, #22]
 800210a:	eba3 03d1 	sub.w	r3, r3, r1, lsr #3
 800210e:	b2db      	uxtb	r3, r3
 8002110:	b25a      	sxtb	r2, r3
        uip_connr->sa += m;
 8002112:	4419      	add	r1, r3
 8002114:	b2c9      	uxtb	r1, r1
 8002116:	75a1      	strb	r1, [r4, #22]
        if (m < 0)
 8002118:	2a00      	cmp	r2, #0
 800211a:	da01      	bge.n	8002120 <uip_process+0x7e4>
          m = -m;
 800211c:	425b      	negs	r3, r3
 800211e:	b25a      	sxtb	r2, r3
        m = m - (uip_connr->sv >> 2);
 8002120:	7de0      	ldrb	r0, [r4, #23]
 8002122:	eba2 0390 	sub.w	r3, r2, r0, lsr #2
        uip_connr->sv += m;
 8002126:	fa50 f383 	uxtab	r3, r0, r3
 800212a:	b2db      	uxtb	r3, r3
 800212c:	75e3      	strb	r3, [r4, #23]
        uip_connr->rto = (uip_connr->sa >> 3) + uip_connr->sv;
 800212e:	eb03 03d1 	add.w	r3, r3, r1, lsr #3
 8002132:	7623      	strb	r3, [r4, #24]
      uip_flags = UIP_ACKDATA;
 8002134:	4b21      	ldr	r3, [pc, #132]	; (80021bc <uip_process+0x880>)
 8002136:	2201      	movs	r2, #1
 8002138:	701a      	strb	r2, [r3, #0]
      uip_connr->timer = uip_connr->rto;
 800213a:	7e23      	ldrb	r3, [r4, #24]
 800213c:	76a3      	strb	r3, [r4, #26]
      uip_connr->len = 0;
 800213e:	2300      	movs	r3, #0
 8002140:	8223      	strh	r3, [r4, #16]
  switch (uip_connr->tcpstateflags & UIP_TS_MASK)
 8002142:	7e61      	ldrb	r1, [r4, #25]
 8002144:	f001 030f 	and.w	r3, r1, #15
 8002148:	3b01      	subs	r3, #1
 800214a:	2b07      	cmp	r3, #7
 800214c:	f63f ac62 	bhi.w	8001a14 <uip_process+0xd8>
 8002150:	e8df f013 	tbh	[pc, r3, lsl #1]
 8002154:	00380008 	.word	0x00380008
 8002158:	017000ac 	.word	0x017000ac
 800215c:	01d801ba 	.word	0x01d801ba
 8002160:	0161018d 	.word	0x0161018d
      if (uip_flags & UIP_ACKDATA)
 8002164:	4b15      	ldr	r3, [pc, #84]	; (80021bc <uip_process+0x880>)
 8002166:	781b      	ldrb	r3, [r3, #0]
 8002168:	f013 0f01 	tst.w	r3, #1
 800216c:	f43f ac52 	beq.w	8001a14 <uip_process+0xd8>
        uip_connr->tcpstateflags = UIP_ESTABLISHED;
 8002170:	2303      	movs	r3, #3
 8002172:	7663      	strb	r3, [r4, #25]
        uip_flags = UIP_CONNECTED;
 8002174:	4b11      	ldr	r3, [pc, #68]	; (80021bc <uip_process+0x880>)
 8002176:	2240      	movs	r2, #64	; 0x40
 8002178:	701a      	strb	r2, [r3, #0]
        uip_connr->len = 0;
 800217a:	2300      	movs	r3, #0
 800217c:	8223      	strh	r3, [r4, #16]
        if (uip_len > 0)
 800217e:	4b0d      	ldr	r3, [pc, #52]	; (80021b4 <uip_process+0x878>)
 8002180:	8818      	ldrh	r0, [r3, #0]
 8002182:	b120      	cbz	r0, 800218e <uip_process+0x852>
          uip_flags |= UIP_NEWDATA;
 8002184:	4b0d      	ldr	r3, [pc, #52]	; (80021bc <uip_process+0x880>)
 8002186:	2242      	movs	r2, #66	; 0x42
 8002188:	701a      	strb	r2, [r3, #0]
          uip_add_rcv_nxt(uip_len);
 800218a:	f7ff fb2d 	bl	80017e8 <uip_add_rcv_nxt>
        uip_slen = 0;
 800218e:	4b0c      	ldr	r3, [pc, #48]	; (80021c0 <uip_process+0x884>)
 8002190:	2200      	movs	r2, #0
 8002192:	801a      	strh	r2, [r3, #0]
        UIP_APPCALL();
 8002194:	f7fe fe1e 	bl	8000dd4 <NetApp>
        goto appsend;
 8002198:	e44a      	b.n	8001a30 <uip_process+0xf4>
 800219a:	bf00      	nop
 800219c:	2000054c 	.word	0x2000054c
 80021a0:	200005f8 	.word	0x200005f8
 80021a4:	200005f4 	.word	0x200005f4
 80021a8:	20000670 	.word	0x20000670
 80021ac:	20000550 	.word	0x20000550
 80021b0:	20000556 	.word	0x20000556
 80021b4:	200005dc 	.word	0x200005dc
 80021b8:	200005e4 	.word	0x200005e4
 80021bc:	200005e8 	.word	0x200005e8
 80021c0:	20000cb2 	.word	0x20000cb2
      if ((uip_flags & UIP_ACKDATA) &&
 80021c4:	4bad      	ldr	r3, [pc, #692]	; (800247c <uip_process+0xb40>)
 80021c6:	781b      	ldrb	r3, [r3, #0]
 80021c8:	f013 0f01 	tst.w	r3, #1
 80021cc:	d064      	beq.n	8002298 <uip_process+0x95c>
          (BUF->flags & TCP_CTL) == (TCP_SYN | TCP_ACK))
 80021ce:	4bac      	ldr	r3, [pc, #688]	; (8002480 <uip_process+0xb44>)
 80021d0:	f893 302f 	ldrb.w	r3, [r3, #47]	; 0x2f
      if ((uip_flags & UIP_ACKDATA) &&
 80021d4:	f003 033f 	and.w	r3, r3, #63	; 0x3f
 80021d8:	2b12      	cmp	r3, #18
 80021da:	d15d      	bne.n	8002298 <uip_process+0x95c>
        if ((BUF->tcpoffset & 0xf0) > 0x50)
 80021dc:	4ba8      	ldr	r3, [pc, #672]	; (8002480 <uip_process+0xb44>)
 80021de:	f893 002e 	ldrb.w	r0, [r3, #46]	; 0x2e
 80021e2:	f000 03f0 	and.w	r3, r0, #240	; 0xf0
 80021e6:	2b50      	cmp	r3, #80	; 0x50
 80021e8:	d92d      	bls.n	8002246 <uip_process+0x90a>
          for (c = 0; c < ((BUF->tcpoffset >> 4) - 5) << 2 ;)
 80021ea:	4ba6      	ldr	r3, [pc, #664]	; (8002484 <uip_process+0xb48>)
 80021ec:	2200      	movs	r2, #0
 80021ee:	701a      	strb	r2, [r3, #0]
 80021f0:	4ba4      	ldr	r3, [pc, #656]	; (8002484 <uip_process+0xb48>)
 80021f2:	781b      	ldrb	r3, [r3, #0]
 80021f4:	461a      	mov	r2, r3
 80021f6:	0901      	lsrs	r1, r0, #4
 80021f8:	3905      	subs	r1, #5
 80021fa:	ebb3 0f81 	cmp.w	r3, r1, lsl #2
 80021fe:	da22      	bge.n	8002246 <uip_process+0x90a>
            opt = uip_buf[UIP_IPTCPH_LEN + UIP_LLH_LEN + c];
 8002200:	f103 0136 	add.w	r1, r3, #54	; 0x36
 8002204:	4d9e      	ldr	r5, [pc, #632]	; (8002480 <uip_process+0xb44>)
 8002206:	5c69      	ldrb	r1, [r5, r1]
            if (opt == TCP_OPT_END)
 8002208:	b1e9      	cbz	r1, 8002246 <uip_process+0x90a>
            else if (opt == TCP_OPT_NOOP)
 800220a:	2901      	cmp	r1, #1
 800220c:	d103      	bne.n	8002216 <uip_process+0x8da>
              ++c;
 800220e:	3301      	adds	r3, #1
 8002210:	4a9c      	ldr	r2, [pc, #624]	; (8002484 <uip_process+0xb48>)
 8002212:	7013      	strb	r3, [r2, #0]
 8002214:	e7ec      	b.n	80021f0 <uip_process+0x8b4>
            else if (opt == TCP_OPT_MSS &&
 8002216:	2902      	cmp	r1, #2
 8002218:	d134      	bne.n	8002284 <uip_process+0x948>
                     uip_buf[UIP_TCPIP_HLEN + UIP_LLH_LEN + 1 + c] == TCP_OPT_MSS_LEN)
 800221a:	f103 0137 	add.w	r1, r3, #55	; 0x37
 800221e:	4d98      	ldr	r5, [pc, #608]	; (8002480 <uip_process+0xb44>)
 8002220:	5c69      	ldrb	r1, [r5, r1]
            else if (opt == TCP_OPT_MSS &&
 8002222:	2904      	cmp	r1, #4
 8002224:	d12e      	bne.n	8002284 <uip_process+0x948>
              tmp16 = (uip_buf[UIP_TCPIP_HLEN + UIP_LLH_LEN + 2 + c] << 8) |
 8002226:	f102 0138 	add.w	r1, r2, #56	; 0x38
 800222a:	5c69      	ldrb	r1, [r5, r1]
                      uip_buf[UIP_TCPIP_HLEN + UIP_LLH_LEN + 3 + c];
 800222c:	3239      	adds	r2, #57	; 0x39
 800222e:	5cab      	ldrb	r3, [r5, r2]
              tmp16 = (uip_buf[UIP_TCPIP_HLEN + UIP_LLH_LEN + 2 + c] << 8) |
 8002230:	ea43 2301 	orr.w	r3, r3, r1, lsl #8
 8002234:	4a94      	ldr	r2, [pc, #592]	; (8002488 <uip_process+0xb4c>)
 8002236:	8013      	strh	r3, [r2, #0]
                uip_connr->mss = tmp16 > UIP_TCP_MSS? UIP_TCP_MSS: tmp16;
 8002238:	f240 620a 	movw	r2, #1546	; 0x60a
 800223c:	4293      	cmp	r3, r2
 800223e:	bf28      	it	cs
 8002240:	4613      	movcs	r3, r2
 8002242:	8263      	strh	r3, [r4, #18]
              uip_connr->initialmss =
 8002244:	82a3      	strh	r3, [r4, #20]
        uip_connr->tcpstateflags = UIP_ESTABLISHED;
 8002246:	2303      	movs	r3, #3
 8002248:	7663      	strb	r3, [r4, #25]
        uip_connr->rcv_nxt[0] = BUF->seqno[0];
 800224a:	4b8d      	ldr	r3, [pc, #564]	; (8002480 <uip_process+0xb44>)
 800224c:	f893 2026 	ldrb.w	r2, [r3, #38]	; 0x26
 8002250:	7222      	strb	r2, [r4, #8]
        uip_connr->rcv_nxt[1] = BUF->seqno[1];
 8002252:	f893 2027 	ldrb.w	r2, [r3, #39]	; 0x27
 8002256:	7262      	strb	r2, [r4, #9]
        uip_connr->rcv_nxt[2] = BUF->seqno[2];
 8002258:	f893 2028 	ldrb.w	r2, [r3, #40]	; 0x28
 800225c:	72a2      	strb	r2, [r4, #10]
        uip_connr->rcv_nxt[3] = BUF->seqno[3];
 800225e:	f893 3029 	ldrb.w	r3, [r3, #41]	; 0x29
 8002262:	72e3      	strb	r3, [r4, #11]
        uip_add_rcv_nxt(1);
 8002264:	2001      	movs	r0, #1
 8002266:	f7ff fabf 	bl	80017e8 <uip_add_rcv_nxt>
        uip_flags = UIP_CONNECTED | UIP_NEWDATA;
 800226a:	4b84      	ldr	r3, [pc, #528]	; (800247c <uip_process+0xb40>)
 800226c:	2242      	movs	r2, #66	; 0x42
 800226e:	701a      	strb	r2, [r3, #0]
        uip_connr->len = 0;
 8002270:	2300      	movs	r3, #0
 8002272:	8223      	strh	r3, [r4, #16]
        uip_len = 0;
 8002274:	4a85      	ldr	r2, [pc, #532]	; (800248c <uip_process+0xb50>)
 8002276:	8013      	strh	r3, [r2, #0]
        uip_slen = 0;
 8002278:	4a85      	ldr	r2, [pc, #532]	; (8002490 <uip_process+0xb54>)
 800227a:	8013      	strh	r3, [r2, #0]
        UIP_APPCALL();
 800227c:	f7fe fdaa 	bl	8000dd4 <NetApp>
        goto appsend;
 8002280:	f7ff bbd6 	b.w	8001a30 <uip_process+0xf4>
              if (uip_buf[UIP_TCPIP_HLEN + UIP_LLH_LEN + 1 + c] == 0)
 8002284:	f103 0237 	add.w	r2, r3, #55	; 0x37
 8002288:	497d      	ldr	r1, [pc, #500]	; (8002480 <uip_process+0xb44>)
 800228a:	5c8a      	ldrb	r2, [r1, r2]
 800228c:	2a00      	cmp	r2, #0
 800228e:	d0da      	beq.n	8002246 <uip_process+0x90a>
              c += uip_buf[UIP_TCPIP_HLEN + UIP_LLH_LEN + 1 + c];
 8002290:	4413      	add	r3, r2
 8002292:	4a7c      	ldr	r2, [pc, #496]	; (8002484 <uip_process+0xb48>)
 8002294:	7013      	strb	r3, [r2, #0]
 8002296:	e7ab      	b.n	80021f0 <uip_process+0x8b4>
      uip_flags = UIP_ABORT;
 8002298:	4b78      	ldr	r3, [pc, #480]	; (800247c <uip_process+0xb40>)
 800229a:	2220      	movs	r2, #32
 800229c:	701a      	strb	r2, [r3, #0]
      UIP_APPCALL();
 800229e:	f7fe fd99 	bl	8000dd4 <NetApp>
      uip_conn->tcpstateflags = UIP_CLOSED;
 80022a2:	4b7c      	ldr	r3, [pc, #496]	; (8002494 <uip_process+0xb58>)
 80022a4:	681b      	ldr	r3, [r3, #0]
 80022a6:	2200      	movs	r2, #0
 80022a8:	765a      	strb	r2, [r3, #25]
      goto reset;
 80022aa:	e588      	b.n	8001dbe <uip_process+0x482>
      if (BUF->flags & TCP_FIN && !(uip_connr->tcpstateflags & UIP_STOPPED))
 80022ac:	4b74      	ldr	r3, [pc, #464]	; (8002480 <uip_process+0xb44>)
 80022ae:	f893 302f 	ldrb.w	r3, [r3, #47]	; 0x2f
 80022b2:	f013 0f01 	tst.w	r3, #1
 80022b6:	d025      	beq.n	8002304 <uip_process+0x9c8>
 80022b8:	f011 0f10 	tst.w	r1, #16
 80022bc:	d122      	bne.n	8002304 <uip_process+0x9c8>
        if (uip_outstanding(uip_connr))
 80022be:	8a23      	ldrh	r3, [r4, #16]
 80022c0:	2b00      	cmp	r3, #0
 80022c2:	f47f aba7 	bne.w	8001a14 <uip_process+0xd8>
        uip_add_rcv_nxt(1 + uip_len);
 80022c6:	4d71      	ldr	r5, [pc, #452]	; (800248c <uip_process+0xb50>)
 80022c8:	8828      	ldrh	r0, [r5, #0]
 80022ca:	3001      	adds	r0, #1
 80022cc:	b280      	uxth	r0, r0
 80022ce:	f7ff fa8b 	bl	80017e8 <uip_add_rcv_nxt>
        uip_flags |= UIP_CLOSE;
 80022d2:	4a6a      	ldr	r2, [pc, #424]	; (800247c <uip_process+0xb40>)
 80022d4:	7813      	ldrb	r3, [r2, #0]
 80022d6:	f043 0310 	orr.w	r3, r3, #16
 80022da:	7013      	strb	r3, [r2, #0]
        if (uip_len > 0)
 80022dc:	882a      	ldrh	r2, [r5, #0]
 80022de:	b11a      	cbz	r2, 80022e8 <uip_process+0x9ac>
          uip_flags |= UIP_NEWDATA;
 80022e0:	f043 0302 	orr.w	r3, r3, #2
 80022e4:	4a65      	ldr	r2, [pc, #404]	; (800247c <uip_process+0xb40>)
 80022e6:	7013      	strb	r3, [r2, #0]
        UIP_APPCALL();
 80022e8:	f7fe fd74 	bl	8000dd4 <NetApp>
        uip_connr->len = 1;
 80022ec:	2301      	movs	r3, #1
 80022ee:	8223      	strh	r3, [r4, #16]
        uip_connr->tcpstateflags = UIP_LAST_ACK;
 80022f0:	2308      	movs	r3, #8
 80022f2:	7663      	strb	r3, [r4, #25]
        uip_connr->nrtx = 0;
 80022f4:	2300      	movs	r3, #0
 80022f6:	76e3      	strb	r3, [r4, #27]
        BUF->flags = TCP_FIN | TCP_ACK;
 80022f8:	4b61      	ldr	r3, [pc, #388]	; (8002480 <uip_process+0xb44>)
 80022fa:	2211      	movs	r2, #17
 80022fc:	f883 202f 	strb.w	r2, [r3, #47]	; 0x2f
        goto tcp_send_nodata;
 8002300:	f7ff bba4 	b.w	8001a4c <uip_process+0x110>
      if ((BUF->flags & TCP_URG) != 0)
 8002304:	f013 0f20 	tst.w	r3, #32
 8002308:	d00f      	beq.n	800232a <uip_process+0x9ee>
        uip_appdata = ((char *)uip_appdata) + ((BUF->urgp[0] << 8) | BUF->urgp[1]);
 800230a:	485d      	ldr	r0, [pc, #372]	; (8002480 <uip_process+0xb44>)
 800230c:	f890 3034 	ldrb.w	r3, [r0, #52]	; 0x34
 8002310:	021a      	lsls	r2, r3, #8
 8002312:	f890 3035 	ldrb.w	r3, [r0, #53]	; 0x35
 8002316:	ea42 0603 	orr.w	r6, r2, r3
 800231a:	4d5f      	ldr	r5, [pc, #380]	; (8002498 <uip_process+0xb5c>)
 800231c:	6828      	ldr	r0, [r5, #0]
 800231e:	4430      	add	r0, r6
 8002320:	6028      	str	r0, [r5, #0]
        uip_len -= (BUF->urgp[0] << 8) | BUF->urgp[1];
 8002322:	485a      	ldr	r0, [pc, #360]	; (800248c <uip_process+0xb50>)
 8002324:	8802      	ldrh	r2, [r0, #0]
 8002326:	1b93      	subs	r3, r2, r6
 8002328:	8003      	strh	r3, [r0, #0]
      if (uip_len > 0 && !(uip_connr->tcpstateflags & UIP_STOPPED))
 800232a:	4b58      	ldr	r3, [pc, #352]	; (800248c <uip_process+0xb50>)
 800232c:	8818      	ldrh	r0, [r3, #0]
 800232e:	b148      	cbz	r0, 8002344 <uip_process+0xa08>
 8002330:	f011 0f10 	tst.w	r1, #16
 8002334:	d106      	bne.n	8002344 <uip_process+0xa08>
        uip_flags |= UIP_NEWDATA;
 8002336:	4a51      	ldr	r2, [pc, #324]	; (800247c <uip_process+0xb40>)
 8002338:	7813      	ldrb	r3, [r2, #0]
 800233a:	f043 0302 	orr.w	r3, r3, #2
 800233e:	7013      	strb	r3, [r2, #0]
        uip_add_rcv_nxt(uip_len);
 8002340:	f7ff fa52 	bl	80017e8 <uip_add_rcv_nxt>
      tmp16 = ((u16_t)BUF->wnd[0] << 8) + (u16_t)BUF->wnd[1];
 8002344:	4b4e      	ldr	r3, [pc, #312]	; (8002480 <uip_process+0xb44>)
 8002346:	f893 2030 	ldrb.w	r2, [r3, #48]	; 0x30
 800234a:	f893 3031 	ldrb.w	r3, [r3, #49]	; 0x31
 800234e:	eb03 2302 	add.w	r3, r3, r2, lsl #8
 8002352:	b29b      	uxth	r3, r3
 8002354:	4a4c      	ldr	r2, [pc, #304]	; (8002488 <uip_process+0xb4c>)
 8002356:	8013      	strh	r3, [r2, #0]
      if (tmp16 > uip_connr->initialmss ||
 8002358:	8aa2      	ldrh	r2, [r4, #20]
 800235a:	4293      	cmp	r3, r2
 800235c:	d800      	bhi.n	8002360 <uip_process+0xa24>
 800235e:	b90b      	cbnz	r3, 8002364 <uip_process+0xa28>
        tmp16 = uip_connr->initialmss;
 8002360:	4b49      	ldr	r3, [pc, #292]	; (8002488 <uip_process+0xb4c>)
 8002362:	801a      	strh	r2, [r3, #0]
      uip_connr->mss = tmp16;
 8002364:	4b48      	ldr	r3, [pc, #288]	; (8002488 <uip_process+0xb4c>)
 8002366:	881b      	ldrh	r3, [r3, #0]
 8002368:	8263      	strh	r3, [r4, #18]
      if (uip_flags & (UIP_NEWDATA | UIP_ACKDATA))
 800236a:	4b44      	ldr	r3, [pc, #272]	; (800247c <uip_process+0xb40>)
 800236c:	781b      	ldrb	r3, [r3, #0]
 800236e:	f013 0f03 	tst.w	r3, #3
 8002372:	f43f ab4f 	beq.w	8001a14 <uip_process+0xd8>
        uip_slen = 0;
 8002376:	4b46      	ldr	r3, [pc, #280]	; (8002490 <uip_process+0xb54>)
 8002378:	2200      	movs	r2, #0
 800237a:	801a      	strh	r2, [r3, #0]
        UIP_APPCALL();
 800237c:	f7fe fd2a 	bl	8000dd4 <NetApp>
 8002380:	f7ff bb56 	b.w	8001a30 <uip_process+0xf4>
        if (uip_flags & UIP_CLOSE)
 8002384:	f013 0f10 	tst.w	r3, #16
 8002388:	d00d      	beq.n	80023a6 <uip_process+0xa6a>
          uip_slen = 0;
 800238a:	2300      	movs	r3, #0
 800238c:	4a40      	ldr	r2, [pc, #256]	; (8002490 <uip_process+0xb54>)
 800238e:	8013      	strh	r3, [r2, #0]
          uip_connr->len = 1;
 8002390:	2201      	movs	r2, #1
 8002392:	8222      	strh	r2, [r4, #16]
          uip_connr->tcpstateflags = UIP_FIN_WAIT_1;
 8002394:	2204      	movs	r2, #4
 8002396:	7662      	strb	r2, [r4, #25]
          uip_connr->nrtx = 0;
 8002398:	76e3      	strb	r3, [r4, #27]
          BUF->flags = TCP_FIN | TCP_ACK;
 800239a:	4b39      	ldr	r3, [pc, #228]	; (8002480 <uip_process+0xb44>)
 800239c:	2211      	movs	r2, #17
 800239e:	f883 202f 	strb.w	r2, [r3, #47]	; 0x2f
          goto tcp_send_nodata;
 80023a2:	f7ff bb53 	b.w	8001a4c <uip_process+0x110>
        if (uip_slen > 0)
 80023a6:	4a3a      	ldr	r2, [pc, #232]	; (8002490 <uip_process+0xb54>)
 80023a8:	8812      	ldrh	r2, [r2, #0]
 80023aa:	b172      	cbz	r2, 80023ca <uip_process+0xa8e>
          if ((uip_flags & UIP_ACKDATA) != 0)
 80023ac:	f013 0f01 	tst.w	r3, #1
 80023b0:	d001      	beq.n	80023b6 <uip_process+0xa7a>
            uip_connr->len = 0;
 80023b2:	2300      	movs	r3, #0
 80023b4:	8223      	strh	r3, [r4, #16]
          if (uip_connr->len == 0)
 80023b6:	8a23      	ldrh	r3, [r4, #16]
 80023b8:	b9db      	cbnz	r3, 80023f2 <uip_process+0xab6>
            if (uip_slen > uip_connr->mss)
 80023ba:	8a63      	ldrh	r3, [r4, #18]
 80023bc:	429a      	cmp	r2, r3
 80023be:	d901      	bls.n	80023c4 <uip_process+0xa88>
              uip_slen = uip_connr->mss;
 80023c0:	4a33      	ldr	r2, [pc, #204]	; (8002490 <uip_process+0xb54>)
 80023c2:	8013      	strh	r3, [r2, #0]
            uip_connr->len = uip_slen;
 80023c4:	4b32      	ldr	r3, [pc, #200]	; (8002490 <uip_process+0xb54>)
 80023c6:	881b      	ldrh	r3, [r3, #0]
 80023c8:	8223      	strh	r3, [r4, #16]
        uip_connr->nrtx = 0;
 80023ca:	2300      	movs	r3, #0
 80023cc:	76e3      	strb	r3, [r4, #27]
        uip_appdata = uip_sappdata;
 80023ce:	4b33      	ldr	r3, [pc, #204]	; (800249c <uip_process+0xb60>)
 80023d0:	681a      	ldr	r2, [r3, #0]
 80023d2:	4b31      	ldr	r3, [pc, #196]	; (8002498 <uip_process+0xb5c>)
 80023d4:	601a      	str	r2, [r3, #0]
        if (uip_slen > 0 && uip_connr->len > 0)
 80023d6:	4b2e      	ldr	r3, [pc, #184]	; (8002490 <uip_process+0xb54>)
 80023d8:	881b      	ldrh	r3, [r3, #0]
 80023da:	b16b      	cbz	r3, 80023f8 <uip_process+0xabc>
 80023dc:	8a23      	ldrh	r3, [r4, #16]
 80023de:	b15b      	cbz	r3, 80023f8 <uip_process+0xabc>
          uip_len = uip_connr->len + UIP_TCPIP_HLEN;
 80023e0:	3328      	adds	r3, #40	; 0x28
 80023e2:	4a2a      	ldr	r2, [pc, #168]	; (800248c <uip_process+0xb50>)
 80023e4:	8013      	strh	r3, [r2, #0]
          BUF->flags = TCP_ACK | TCP_PSH;
 80023e6:	4b26      	ldr	r3, [pc, #152]	; (8002480 <uip_process+0xb44>)
 80023e8:	2218      	movs	r2, #24
 80023ea:	f883 202f 	strb.w	r2, [r3, #47]	; 0x2f
          goto tcp_send_noopts;
 80023ee:	f7ff bb30 	b.w	8001a52 <uip_process+0x116>
            uip_slen = uip_connr->len;
 80023f2:	4a27      	ldr	r2, [pc, #156]	; (8002490 <uip_process+0xb54>)
 80023f4:	8013      	strh	r3, [r2, #0]
 80023f6:	e7e8      	b.n	80023ca <uip_process+0xa8e>
        if (uip_flags & UIP_NEWDATA)
 80023f8:	4b20      	ldr	r3, [pc, #128]	; (800247c <uip_process+0xb40>)
 80023fa:	781b      	ldrb	r3, [r3, #0]
 80023fc:	f013 0f02 	tst.w	r3, #2
 8002400:	f43f ab08 	beq.w	8001a14 <uip_process+0xd8>
          uip_len = UIP_TCPIP_HLEN;
 8002404:	4b21      	ldr	r3, [pc, #132]	; (800248c <uip_process+0xb50>)
 8002406:	2228      	movs	r2, #40	; 0x28
 8002408:	801a      	strh	r2, [r3, #0]
          BUF->flags = TCP_ACK;
 800240a:	4b1d      	ldr	r3, [pc, #116]	; (8002480 <uip_process+0xb44>)
 800240c:	2210      	movs	r2, #16
 800240e:	f883 202f 	strb.w	r2, [r3, #47]	; 0x2f
          goto tcp_send_noopts;
 8002412:	f7ff bb1e 	b.w	8001a52 <uip_process+0x116>
      if (uip_flags & UIP_ACKDATA)
 8002416:	4b19      	ldr	r3, [pc, #100]	; (800247c <uip_process+0xb40>)
 8002418:	781b      	ldrb	r3, [r3, #0]
 800241a:	f013 0f01 	tst.w	r3, #1
 800241e:	f43f aaf9 	beq.w	8001a14 <uip_process+0xd8>
        uip_connr->tcpstateflags = UIP_CLOSED;
 8002422:	2300      	movs	r3, #0
 8002424:	7663      	strb	r3, [r4, #25]
        uip_flags = UIP_CLOSE;
 8002426:	4b15      	ldr	r3, [pc, #84]	; (800247c <uip_process+0xb40>)
 8002428:	2210      	movs	r2, #16
 800242a:	701a      	strb	r2, [r3, #0]
        UIP_APPCALL();
 800242c:	f7fe fcd2 	bl	8000dd4 <NetApp>
 8002430:	f7ff baf0 	b.w	8001a14 <uip_process+0xd8>
      if (uip_len > 0)
 8002434:	4b15      	ldr	r3, [pc, #84]	; (800248c <uip_process+0xb50>)
 8002436:	8818      	ldrh	r0, [r3, #0]
 8002438:	b108      	cbz	r0, 800243e <uip_process+0xb02>
        uip_add_rcv_nxt(uip_len);
 800243a:	f7ff f9d5 	bl	80017e8 <uip_add_rcv_nxt>
      if (BUF->flags & TCP_FIN)
 800243e:	4b10      	ldr	r3, [pc, #64]	; (8002480 <uip_process+0xb44>)
 8002440:	f893 302f 	ldrb.w	r3, [r3, #47]	; 0x2f
 8002444:	f013 0f01 	tst.w	r3, #1
 8002448:	d02d      	beq.n	80024a6 <uip_process+0xb6a>
        if (uip_flags & UIP_ACKDATA)
 800244a:	4b0c      	ldr	r3, [pc, #48]	; (800247c <uip_process+0xb40>)
 800244c:	781b      	ldrb	r3, [r3, #0]
 800244e:	f013 0f01 	tst.w	r3, #1
 8002452:	d025      	beq.n	80024a0 <uip_process+0xb64>
          uip_connr->tcpstateflags = UIP_TIME_WAIT;
 8002454:	2307      	movs	r3, #7
 8002456:	7663      	strb	r3, [r4, #25]
          uip_connr->timer = 0;
 8002458:	2300      	movs	r3, #0
 800245a:	76a3      	strb	r3, [r4, #26]
          uip_connr->len = 0;
 800245c:	8223      	strh	r3, [r4, #16]
        uip_add_rcv_nxt(1);
 800245e:	2001      	movs	r0, #1
 8002460:	f7ff f9c2 	bl	80017e8 <uip_add_rcv_nxt>
        uip_flags = UIP_CLOSE;
 8002464:	4b05      	ldr	r3, [pc, #20]	; (800247c <uip_process+0xb40>)
 8002466:	2210      	movs	r2, #16
 8002468:	701a      	strb	r2, [r3, #0]
        UIP_APPCALL();
 800246a:	f7fe fcb3 	bl	8000dd4 <NetApp>
  BUF->flags = TCP_ACK;
 800246e:	4b04      	ldr	r3, [pc, #16]	; (8002480 <uip_process+0xb44>)
 8002470:	2210      	movs	r2, #16
 8002472:	f883 202f 	strb.w	r2, [r3, #47]	; 0x2f
 8002476:	f7ff bae9 	b.w	8001a4c <uip_process+0x110>
 800247a:	bf00      	nop
 800247c:	200005e8 	.word	0x200005e8
 8002480:	20000670 	.word	0x20000670
 8002484:	2000054c 	.word	0x2000054c
 8002488:	20000556 	.word	0x20000556
 800248c:	200005dc 	.word	0x200005dc
 8002490:	20000cb2 	.word	0x20000cb2
 8002494:	200005f4 	.word	0x200005f4
 8002498:	200005f0 	.word	0x200005f0
 800249c:	200005e0 	.word	0x200005e0
          uip_connr->tcpstateflags = UIP_CLOSING;
 80024a0:	2306      	movs	r3, #6
 80024a2:	7663      	strb	r3, [r4, #25]
 80024a4:	e7db      	b.n	800245e <uip_process+0xb22>
      else if (uip_flags & UIP_ACKDATA)
 80024a6:	4b22      	ldr	r3, [pc, #136]	; (8002530 <uip_process+0xbf4>)
 80024a8:	781b      	ldrb	r3, [r3, #0]
 80024aa:	f013 0f01 	tst.w	r3, #1
 80024ae:	d005      	beq.n	80024bc <uip_process+0xb80>
        uip_connr->tcpstateflags = UIP_FIN_WAIT_2;
 80024b0:	2305      	movs	r3, #5
 80024b2:	7663      	strb	r3, [r4, #25]
        uip_connr->len = 0;
 80024b4:	2300      	movs	r3, #0
 80024b6:	8223      	strh	r3, [r4, #16]
        goto drop;
 80024b8:	f7ff baac 	b.w	8001a14 <uip_process+0xd8>
      if (uip_len > 0)
 80024bc:	4b1d      	ldr	r3, [pc, #116]	; (8002534 <uip_process+0xbf8>)
 80024be:	881b      	ldrh	r3, [r3, #0]
 80024c0:	2b00      	cmp	r3, #0
 80024c2:	d1d4      	bne.n	800246e <uip_process+0xb32>
 80024c4:	f7ff baa6 	b.w	8001a14 <uip_process+0xd8>
      if (uip_len > 0)
 80024c8:	4b1a      	ldr	r3, [pc, #104]	; (8002534 <uip_process+0xbf8>)
 80024ca:	8818      	ldrh	r0, [r3, #0]
 80024cc:	b108      	cbz	r0, 80024d2 <uip_process+0xb96>
        uip_add_rcv_nxt(uip_len);
 80024ce:	f7ff f98b 	bl	80017e8 <uip_add_rcv_nxt>
      if (BUF->flags & TCP_FIN)
 80024d2:	4b19      	ldr	r3, [pc, #100]	; (8002538 <uip_process+0xbfc>)
 80024d4:	f893 302f 	ldrb.w	r3, [r3, #47]	; 0x2f
 80024d8:	f013 0f01 	tst.w	r3, #1
 80024dc:	d00c      	beq.n	80024f8 <uip_process+0xbbc>
        uip_connr->tcpstateflags = UIP_TIME_WAIT;
 80024de:	2307      	movs	r3, #7
 80024e0:	7663      	strb	r3, [r4, #25]
        uip_connr->timer = 0;
 80024e2:	2300      	movs	r3, #0
 80024e4:	76a3      	strb	r3, [r4, #26]
        uip_add_rcv_nxt(1);
 80024e6:	2001      	movs	r0, #1
 80024e8:	f7ff f97e 	bl	80017e8 <uip_add_rcv_nxt>
        uip_flags = UIP_CLOSE;
 80024ec:	4b10      	ldr	r3, [pc, #64]	; (8002530 <uip_process+0xbf4>)
 80024ee:	2210      	movs	r2, #16
 80024f0:	701a      	strb	r2, [r3, #0]
        UIP_APPCALL();
 80024f2:	f7fe fc6f 	bl	8000dd4 <NetApp>
        goto tcp_send_ack;
 80024f6:	e7ba      	b.n	800246e <uip_process+0xb32>
      if (uip_len > 0)
 80024f8:	4b0e      	ldr	r3, [pc, #56]	; (8002534 <uip_process+0xbf8>)
 80024fa:	881b      	ldrh	r3, [r3, #0]
 80024fc:	2b00      	cmp	r3, #0
 80024fe:	d1b6      	bne.n	800246e <uip_process+0xb32>
 8002500:	f7ff ba88 	b.w	8001a14 <uip_process+0xd8>
      if (uip_flags & UIP_ACKDATA)
 8002504:	4b0a      	ldr	r3, [pc, #40]	; (8002530 <uip_process+0xbf4>)
 8002506:	781b      	ldrb	r3, [r3, #0]
 8002508:	f013 0f01 	tst.w	r3, #1
 800250c:	f43f aa82 	beq.w	8001a14 <uip_process+0xd8>
        uip_connr->tcpstateflags = UIP_TIME_WAIT;
 8002510:	2307      	movs	r3, #7
 8002512:	7663      	strb	r3, [r4, #25]
        uip_connr->timer = 0;
 8002514:	2300      	movs	r3, #0
 8002516:	76a3      	strb	r3, [r4, #26]
 8002518:	f7ff ba7c 	b.w	8001a14 <uip_process+0xd8>
    BUF->wnd[0] = ((UIP_RECEIVE_WINDOW) >> 8);
 800251c:	4b06      	ldr	r3, [pc, #24]	; (8002538 <uip_process+0xbfc>)
 800251e:	2206      	movs	r2, #6
 8002520:	f883 2030 	strb.w	r2, [r3, #48]	; 0x30
    BUF->wnd[1] = ((UIP_RECEIVE_WINDOW) & 0xff);
 8002524:	220a      	movs	r2, #10
 8002526:	f883 2031 	strb.w	r2, [r3, #49]	; 0x31
 800252a:	f7ff bac9 	b.w	8001ac0 <uip_process+0x184>
 800252e:	bf00      	nop
 8002530:	200005e8 	.word	0x200005e8
 8002534:	200005dc 	.word	0x200005dc
 8002538:	20000670 	.word	0x20000670

0800253c <uip_send>:
/*---------------------------------------------------------------------------*/
void
uip_send(const void *data, int len)
{
  if (len > 0)
 800253c:	2900      	cmp	r1, #0
 800253e:	dd0c      	ble.n	800255a <uip_send+0x1e>
{
 8002540:	b508      	push	{r3, lr}
  {
    uip_slen = len;
 8002542:	b28a      	uxth	r2, r1
 8002544:	4b05      	ldr	r3, [pc, #20]	; (800255c <uip_send+0x20>)
 8002546:	801a      	strh	r2, [r3, #0]
    if (data != uip_sappdata)
 8002548:	4b05      	ldr	r3, [pc, #20]	; (8002560 <uip_send+0x24>)
 800254a:	681b      	ldr	r3, [r3, #0]
 800254c:	4283      	cmp	r3, r0
 800254e:	d003      	beq.n	8002558 <uip_send+0x1c>
 8002550:	4601      	mov	r1, r0
    {
      memcpy(uip_sappdata, (data), uip_slen);
 8002552:	4618      	mov	r0, r3
 8002554:	f002 f93d 	bl	80047d2 <memcpy>
    }
  }
}
 8002558:	bd08      	pop	{r3, pc}
 800255a:	4770      	bx	lr
 800255c:	20000cb2 	.word	0x20000cb2
 8002560:	200005e0 	.word	0x200005e0

08002564 <uip_arp_update>:

}
/*-----------------------------------------------------------------------------------*/
static void
uip_arp_update(u16_t *ipaddr, struct uip_eth_addr *ethaddr)
{
 8002564:	b4f0      	push	{r4, r5, r6, r7}
  register struct arp_entry *tabptr = arp_table;
  /* Walk through the ARP mapping table and try to find an entry to
     update. If none is found, the IP -> MAC address mapping is
     inserted in the ARP table. */
  for (i = 0; i < UIP_ARPTAB_SIZE; ++i)
 8002566:	4b3a      	ldr	r3, [pc, #232]	; (8002650 <uip_arp_update+0xec>)
 8002568:	2200      	movs	r2, #0
 800256a:	701a      	strb	r2, [r3, #0]
  register struct arp_entry *tabptr = arp_table;
 800256c:	4e39      	ldr	r6, [pc, #228]	; (8002654 <uip_arp_update+0xf0>)
  for (i = 0; i < UIP_ARPTAB_SIZE; ++i)
 800256e:	e002      	b.n	8002576 <uip_arp_update+0x12>
 8002570:	3301      	adds	r3, #1
 8002572:	4a37      	ldr	r2, [pc, #220]	; (8002650 <uip_arp_update+0xec>)
 8002574:	7013      	strb	r3, [r2, #0]
 8002576:	4b36      	ldr	r3, [pc, #216]	; (8002650 <uip_arp_update+0xec>)
 8002578:	781b      	ldrb	r3, [r3, #0]
 800257a:	2b07      	cmp	r3, #7
 800257c:	d818      	bhi.n	80025b0 <uip_arp_update+0x4c>
  {

    tabptr = &arp_table[i];
 800257e:	4d35      	ldr	r5, [pc, #212]	; (8002654 <uip_arp_update+0xf0>)
 8002580:	005a      	lsls	r2, r3, #1
 8002582:	441a      	add	r2, r3
 8002584:	0094      	lsls	r4, r2, #2
 8002586:	192e      	adds	r6, r5, r4
    /* Only check those entries that are actually in use. */
    if (tabptr->ipaddr[0] != 0 &&
 8002588:	5b2a      	ldrh	r2, [r5, r4]
 800258a:	2a00      	cmp	r2, #0
 800258c:	d0f0      	beq.n	8002570 <uip_arp_update+0xc>
        tabptr->ipaddr[1] != 0)
 800258e:	8874      	ldrh	r4, [r6, #2]
    if (tabptr->ipaddr[0] != 0 &&
 8002590:	2c00      	cmp	r4, #0
 8002592:	d0ed      	beq.n	8002570 <uip_arp_update+0xc>
    {

      /* Check if the source IP address of the incoming packet matches
         the IP address in this ARP table entry. */
      if (ipaddr[0] == tabptr->ipaddr[0] &&
 8002594:	8805      	ldrh	r5, [r0, #0]
 8002596:	42aa      	cmp	r2, r5
 8002598:	d1ea      	bne.n	8002570 <uip_arp_update+0xc>
          ipaddr[1] == tabptr->ipaddr[1])
 800259a:	8842      	ldrh	r2, [r0, #2]
      if (ipaddr[0] == tabptr->ipaddr[0] &&
 800259c:	4294      	cmp	r4, r2
 800259e:	d1e7      	bne.n	8002570 <uip_arp_update+0xc>
      {

        /* An old entry found, update this and return. */
        memcpy(tabptr->ethaddr.addr, ethaddr->addr, 6);
 80025a0:	680c      	ldr	r4, [r1, #0]
 80025a2:	6074      	str	r4, [r6, #4]
 80025a4:	8889      	ldrh	r1, [r1, #4]
 80025a6:	8131      	strh	r1, [r6, #8]
        tabptr->time = arptime;
 80025a8:	4b2b      	ldr	r3, [pc, #172]	; (8002658 <uip_arp_update+0xf4>)
 80025aa:	781b      	ldrb	r3, [r3, #0]
 80025ac:	72b3      	strb	r3, [r6, #10]

        return;
 80025ae:	e022      	b.n	80025f6 <uip_arp_update+0x92>

  /* If we get here, no existing ARP table entry was found, so we
     create one. */

  /* First, we try to find an unused entry in the ARP table. */
  for (i = 0; i < UIP_ARPTAB_SIZE; ++i)
 80025b0:	4b27      	ldr	r3, [pc, #156]	; (8002650 <uip_arp_update+0xec>)
 80025b2:	2200      	movs	r2, #0
 80025b4:	701a      	strb	r2, [r3, #0]
 80025b6:	e002      	b.n	80025be <uip_arp_update+0x5a>
 80025b8:	3301      	adds	r3, #1
 80025ba:	4a25      	ldr	r2, [pc, #148]	; (8002650 <uip_arp_update+0xec>)
 80025bc:	7013      	strb	r3, [r2, #0]
 80025be:	4b24      	ldr	r3, [pc, #144]	; (8002650 <uip_arp_update+0xec>)
 80025c0:	781b      	ldrb	r3, [r3, #0]
 80025c2:	2b07      	cmp	r3, #7
 80025c4:	d80a      	bhi.n	80025dc <uip_arp_update+0x78>
  {
    tabptr = &arp_table[i];
 80025c6:	4d23      	ldr	r5, [pc, #140]	; (8002654 <uip_arp_update+0xf0>)
 80025c8:	005a      	lsls	r2, r3, #1
 80025ca:	441a      	add	r2, r3
 80025cc:	0094      	lsls	r4, r2, #2
 80025ce:	192e      	adds	r6, r5, r4
    if (tabptr->ipaddr[0] == 0 &&
 80025d0:	5b2a      	ldrh	r2, [r5, r4]
 80025d2:	2a00      	cmp	r2, #0
 80025d4:	d1f0      	bne.n	80025b8 <uip_arp_update+0x54>
        tabptr->ipaddr[1] == 0)
 80025d6:	8872      	ldrh	r2, [r6, #2]
    if (tabptr->ipaddr[0] == 0 &&
 80025d8:	2a00      	cmp	r2, #0
 80025da:	d1ed      	bne.n	80025b8 <uip_arp_update+0x54>
    }
  }

  /* If no unused entry is found, we try to find the oldest entry and
     throw it away. */
  if (i == UIP_ARPTAB_SIZE)
 80025dc:	2b08      	cmp	r3, #8
 80025de:	d00c      	beq.n	80025fa <uip_arp_update+0x96>
    tabptr = &arp_table[i];
  }

  /* Now, i is the ARP table entry which we will fill with the new
     information. */
  memcpy(tabptr->ipaddr, ipaddr, 4);
 80025e0:	6802      	ldr	r2, [r0, #0]
 80025e2:	4633      	mov	r3, r6
 80025e4:	f843 2b04 	str.w	r2, [r3], #4
  memcpy(tabptr->ethaddr.addr, ethaddr->addr, 6);
 80025e8:	680a      	ldr	r2, [r1, #0]
 80025ea:	6072      	str	r2, [r6, #4]
 80025ec:	888a      	ldrh	r2, [r1, #4]
 80025ee:	809a      	strh	r2, [r3, #4]
  tabptr->time = arptime;
 80025f0:	4b19      	ldr	r3, [pc, #100]	; (8002658 <uip_arp_update+0xf4>)
 80025f2:	781b      	ldrb	r3, [r3, #0]
 80025f4:	72b3      	strb	r3, [r6, #10]
}
 80025f6:	bcf0      	pop	{r4, r5, r6, r7}
 80025f8:	4770      	bx	lr
    tmpage = 0;
 80025fa:	2300      	movs	r3, #0
 80025fc:	4a17      	ldr	r2, [pc, #92]	; (800265c <uip_arp_update+0xf8>)
 80025fe:	7013      	strb	r3, [r2, #0]
    c = 0;
 8002600:	4a17      	ldr	r2, [pc, #92]	; (8002660 <uip_arp_update+0xfc>)
 8002602:	7013      	strb	r3, [r2, #0]
    for (i = 0; i < UIP_ARPTAB_SIZE; ++i)
 8002604:	4a12      	ldr	r2, [pc, #72]	; (8002650 <uip_arp_update+0xec>)
 8002606:	7013      	strb	r3, [r2, #0]
 8002608:	e002      	b.n	8002610 <uip_arp_update+0xac>
 800260a:	3301      	adds	r3, #1
 800260c:	4a10      	ldr	r2, [pc, #64]	; (8002650 <uip_arp_update+0xec>)
 800260e:	7013      	strb	r3, [r2, #0]
 8002610:	4b0f      	ldr	r3, [pc, #60]	; (8002650 <uip_arp_update+0xec>)
 8002612:	781b      	ldrb	r3, [r3, #0]
 8002614:	2b07      	cmp	r3, #7
 8002616:	d811      	bhi.n	800263c <uip_arp_update+0xd8>
      if (arptime - tabptr->time > tmpage)
 8002618:	4a0f      	ldr	r2, [pc, #60]	; (8002658 <uip_arp_update+0xf4>)
 800261a:	7814      	ldrb	r4, [r2, #0]
 800261c:	eb03 0243 	add.w	r2, r3, r3, lsl #1
 8002620:	0095      	lsls	r5, r2, #2
 8002622:	4a0c      	ldr	r2, [pc, #48]	; (8002654 <uip_arp_update+0xf0>)
 8002624:	442a      	add	r2, r5
 8002626:	7a92      	ldrb	r2, [r2, #10]
 8002628:	1aa6      	subs	r6, r4, r2
 800262a:	4d0c      	ldr	r5, [pc, #48]	; (800265c <uip_arp_update+0xf8>)
 800262c:	782d      	ldrb	r5, [r5, #0]
 800262e:	42ae      	cmp	r6, r5
 8002630:	ddeb      	ble.n	800260a <uip_arp_update+0xa6>
        tmpage = arptime - tabptr->time;
 8002632:	4a0a      	ldr	r2, [pc, #40]	; (800265c <uip_arp_update+0xf8>)
 8002634:	7016      	strb	r6, [r2, #0]
        c = i;
 8002636:	4a0a      	ldr	r2, [pc, #40]	; (8002660 <uip_arp_update+0xfc>)
 8002638:	7013      	strb	r3, [r2, #0]
 800263a:	e7e6      	b.n	800260a <uip_arp_update+0xa6>
    i = c;
 800263c:	4b08      	ldr	r3, [pc, #32]	; (8002660 <uip_arp_update+0xfc>)
 800263e:	781b      	ldrb	r3, [r3, #0]
 8002640:	4a03      	ldr	r2, [pc, #12]	; (8002650 <uip_arp_update+0xec>)
 8002642:	7013      	strb	r3, [r2, #0]
    tabptr = &arp_table[i];
 8002644:	eb03 0343 	add.w	r3, r3, r3, lsl #1
 8002648:	009a      	lsls	r2, r3, #2
 800264a:	4e02      	ldr	r6, [pc, #8]	; (8002654 <uip_arp_update+0xf0>)
 800264c:	4416      	add	r6, r2
 800264e:	e7c7      	b.n	80025e0 <uip_arp_update+0x7c>
 8002650:	200005c2 	.word	0x200005c2
 8002654:	20000560 	.word	0x20000560
 8002658:	200005c0 	.word	0x200005c0
 800265c:	200005c8 	.word	0x200005c8
 8002660:	200005c1 	.word	0x200005c1

08002664 <uip_arp_timer>:
{
 8002664:	b410      	push	{r4}
  ++arptime;
 8002666:	4b16      	ldr	r3, [pc, #88]	; (80026c0 <uip_arp_timer+0x5c>)
 8002668:	781c      	ldrb	r4, [r3, #0]
 800266a:	3401      	adds	r4, #1
 800266c:	b2e4      	uxtb	r4, r4
 800266e:	701c      	strb	r4, [r3, #0]
  for (i = 0; i < UIP_ARPTAB_SIZE; ++i)
 8002670:	4b14      	ldr	r3, [pc, #80]	; (80026c4 <uip_arp_timer+0x60>)
 8002672:	2200      	movs	r2, #0
 8002674:	701a      	strb	r2, [r3, #0]
 8002676:	e002      	b.n	800267e <uip_arp_timer+0x1a>
 8002678:	3301      	adds	r3, #1
 800267a:	4a12      	ldr	r2, [pc, #72]	; (80026c4 <uip_arp_timer+0x60>)
 800267c:	7013      	strb	r3, [r2, #0]
 800267e:	4b11      	ldr	r3, [pc, #68]	; (80026c4 <uip_arp_timer+0x60>)
 8002680:	781b      	ldrb	r3, [r3, #0]
 8002682:	2b07      	cmp	r3, #7
 8002684:	d818      	bhi.n	80026b8 <uip_arp_timer+0x54>
    if ((tabptr->ipaddr[0] | tabptr->ipaddr[1]) != 0 &&
 8002686:	4810      	ldr	r0, [pc, #64]	; (80026c8 <uip_arp_timer+0x64>)
 8002688:	005a      	lsls	r2, r3, #1
 800268a:	441a      	add	r2, r3
 800268c:	0091      	lsls	r1, r2, #2
 800268e:	1842      	adds	r2, r0, r1
 8002690:	5a41      	ldrh	r1, [r0, r1]
 8002692:	8852      	ldrh	r2, [r2, #2]
 8002694:	430a      	orrs	r2, r1
 8002696:	d0ef      	beq.n	8002678 <uip_arp_timer+0x14>
        arptime - tabptr->time >= UIP_ARP_MAXAGE)
 8002698:	eb03 0243 	add.w	r2, r3, r3, lsl #1
 800269c:	0091      	lsls	r1, r2, #2
 800269e:	4602      	mov	r2, r0
 80026a0:	440a      	add	r2, r1
 80026a2:	7a92      	ldrb	r2, [r2, #10]
 80026a4:	1aa2      	subs	r2, r4, r2
    if ((tabptr->ipaddr[0] | tabptr->ipaddr[1]) != 0 &&
 80026a6:	2a77      	cmp	r2, #119	; 0x77
 80026a8:	dde6      	ble.n	8002678 <uip_arp_timer+0x14>
      memset(tabptr->ipaddr, 0, 4);
 80026aa:	eb03 0143 	add.w	r1, r3, r3, lsl #1
 80026ae:	008a      	lsls	r2, r1, #2
 80026b0:	4601      	mov	r1, r0
 80026b2:	2000      	movs	r0, #0
 80026b4:	5088      	str	r0, [r1, r2]
 80026b6:	e7df      	b.n	8002678 <uip_arp_timer+0x14>
}
 80026b8:	f85d 4b04 	ldr.w	r4, [sp], #4
 80026bc:	4770      	bx	lr
 80026be:	bf00      	nop
 80026c0:	200005c0 	.word	0x200005c0
 80026c4:	200005c2 	.word	0x200005c2
 80026c8:	20000560 	.word	0x20000560

080026cc <uip_arp_arpin>:
/*-----------------------------------------------------------------------------------*/
void
uip_arp_arpin(void)
{

  if (uip_len < sizeof(struct arp_hdr))
 80026cc:	4b32      	ldr	r3, [pc, #200]	; (8002798 <uip_arp_arpin+0xcc>)
 80026ce:	881b      	ldrh	r3, [r3, #0]
 80026d0:	2b29      	cmp	r3, #41	; 0x29
 80026d2:	d90c      	bls.n	80026ee <uip_arp_arpin+0x22>
{
 80026d4:	b510      	push	{r4, lr}
  {
    uip_len = 0;
    return;
  }
  uip_len = 0;
 80026d6:	4b30      	ldr	r3, [pc, #192]	; (8002798 <uip_arp_arpin+0xcc>)
 80026d8:	2200      	movs	r2, #0
 80026da:	801a      	strh	r2, [r3, #0]

  switch (BUF->opcode)
 80026dc:	4b2f      	ldr	r3, [pc, #188]	; (800279c <uip_arp_arpin+0xd0>)
 80026de:	8a9b      	ldrh	r3, [r3, #20]
 80026e0:	f5b3 7f80 	cmp.w	r3, #256	; 0x100
 80026e4:	d007      	beq.n	80026f6 <uip_arp_arpin+0x2a>
 80026e6:	f5b3 7f00 	cmp.w	r3, #512	; 0x200
 80026ea:	d043      	beq.n	8002774 <uip_arp_arpin+0xa8>
      }
      break;
  }

  return;
}
 80026ec:	bd10      	pop	{r4, pc}
    uip_len = 0;
 80026ee:	4b2a      	ldr	r3, [pc, #168]	; (8002798 <uip_arp_arpin+0xcc>)
 80026f0:	2200      	movs	r2, #0
 80026f2:	801a      	strh	r2, [r3, #0]
 80026f4:	4770      	bx	lr
      if (uip_ipaddr_cmp(BUF->dipaddr, uip_hostaddr))
 80026f6:	4b29      	ldr	r3, [pc, #164]	; (800279c <uip_arp_arpin+0xd0>)
 80026f8:	8cda      	ldrh	r2, [r3, #38]	; 0x26
 80026fa:	4b29      	ldr	r3, [pc, #164]	; (80027a0 <uip_arp_arpin+0xd4>)
 80026fc:	881b      	ldrh	r3, [r3, #0]
 80026fe:	429a      	cmp	r2, r3
 8002700:	d1f4      	bne.n	80026ec <uip_arp_arpin+0x20>
 8002702:	4b26      	ldr	r3, [pc, #152]	; (800279c <uip_arp_arpin+0xd0>)
 8002704:	8d1a      	ldrh	r2, [r3, #40]	; 0x28
 8002706:	4b26      	ldr	r3, [pc, #152]	; (80027a0 <uip_arp_arpin+0xd4>)
 8002708:	885b      	ldrh	r3, [r3, #2]
 800270a:	429a      	cmp	r2, r3
 800270c:	d1ee      	bne.n	80026ec <uip_arp_arpin+0x20>
        uip_arp_update(BUF->sipaddr, &BUF->shwaddr);
 800270e:	4c25      	ldr	r4, [pc, #148]	; (80027a4 <uip_arp_arpin+0xd8>)
 8002710:	4621      	mov	r1, r4
 8002712:	1da0      	adds	r0, r4, #6
 8002714:	f7ff ff26 	bl	8002564 <uip_arp_update>
        BUF->opcode = HTONS(2);
 8002718:	2200      	movs	r2, #0
 800271a:	f804 2c02 	strb.w	r2, [r4, #-2]
 800271e:	2202      	movs	r2, #2
 8002720:	f804 2c01 	strb.w	r2, [r4, #-1]
        memcpy(BUF->dhwaddr.addr, BUF->shwaddr.addr, 6);
 8002724:	6821      	ldr	r1, [r4, #0]
 8002726:	f8c4 100a 	str.w	r1, [r4, #10]
 800272a:	88a1      	ldrh	r1, [r4, #4]
 800272c:	81e1      	strh	r1, [r4, #14]
        memcpy(BUF->shwaddr.addr, uip_ethaddr.addr, 6);
 800272e:	491e      	ldr	r1, [pc, #120]	; (80027a8 <uip_arp_arpin+0xdc>)
 8002730:	6808      	ldr	r0, [r1, #0]
 8002732:	6020      	str	r0, [r4, #0]
 8002734:	8889      	ldrh	r1, [r1, #4]
 8002736:	80a1      	strh	r1, [r4, #4]
        memcpy(BUF->ethhdr.src.addr, uip_ethaddr.addr, 6);
 8002738:	f844 0c10 	str.w	r0, [r4, #-16]
 800273c:	f824 1c0c 	strh.w	r1, [r4, #-12]
        memcpy(BUF->ethhdr.dest.addr, BUF->dhwaddr.addr, 6);
 8002740:	f8d4 100a 	ldr.w	r1, [r4, #10]
 8002744:	f844 1c16 	str.w	r1, [r4, #-22]
 8002748:	89e2      	ldrh	r2, [r4, #14]
 800274a:	f824 2c12 	strh.w	r2, [r4, #-18]
        BUF->dipaddr[0] = BUF->sipaddr[0];
 800274e:	88e2      	ldrh	r2, [r4, #6]
 8002750:	8222      	strh	r2, [r4, #16]
        BUF->dipaddr[1] = BUF->sipaddr[1];
 8002752:	8922      	ldrh	r2, [r4, #8]
 8002754:	8262      	strh	r2, [r4, #18]
        BUF->sipaddr[0] = uip_hostaddr[0];
 8002756:	4a12      	ldr	r2, [pc, #72]	; (80027a0 <uip_arp_arpin+0xd4>)
 8002758:	8811      	ldrh	r1, [r2, #0]
 800275a:	80e1      	strh	r1, [r4, #6]
        BUF->sipaddr[1] = uip_hostaddr[1];
 800275c:	8852      	ldrh	r2, [r2, #2]
 800275e:	8122      	strh	r2, [r4, #8]
        BUF->ethhdr.type = HTONS(UIP_ETHTYPE_ARP);
 8002760:	2208      	movs	r2, #8
 8002762:	f804 2c0a 	strb.w	r2, [r4, #-10]
 8002766:	2206      	movs	r2, #6
 8002768:	f804 2c09 	strb.w	r2, [r4, #-9]
        uip_len = sizeof(struct arp_hdr);
 800276c:	4b0a      	ldr	r3, [pc, #40]	; (8002798 <uip_arp_arpin+0xcc>)
 800276e:	222a      	movs	r2, #42	; 0x2a
 8002770:	801a      	strh	r2, [r3, #0]
 8002772:	e7bb      	b.n	80026ec <uip_arp_arpin+0x20>
      if (uip_ipaddr_cmp(BUF->dipaddr, uip_hostaddr))
 8002774:	4b09      	ldr	r3, [pc, #36]	; (800279c <uip_arp_arpin+0xd0>)
 8002776:	8cda      	ldrh	r2, [r3, #38]	; 0x26
 8002778:	4b09      	ldr	r3, [pc, #36]	; (80027a0 <uip_arp_arpin+0xd4>)
 800277a:	881b      	ldrh	r3, [r3, #0]
 800277c:	429a      	cmp	r2, r3
 800277e:	d1b5      	bne.n	80026ec <uip_arp_arpin+0x20>
 8002780:	4b06      	ldr	r3, [pc, #24]	; (800279c <uip_arp_arpin+0xd0>)
 8002782:	8d1a      	ldrh	r2, [r3, #40]	; 0x28
 8002784:	4b06      	ldr	r3, [pc, #24]	; (80027a0 <uip_arp_arpin+0xd4>)
 8002786:	885b      	ldrh	r3, [r3, #2]
 8002788:	429a      	cmp	r2, r3
 800278a:	d1af      	bne.n	80026ec <uip_arp_arpin+0x20>
        uip_arp_update(BUF->sipaddr, &BUF->shwaddr);
 800278c:	4805      	ldr	r0, [pc, #20]	; (80027a4 <uip_arp_arpin+0xd8>)
 800278e:	4601      	mov	r1, r0
 8002790:	3006      	adds	r0, #6
 8002792:	f7ff fee7 	bl	8002564 <uip_arp_update>
 8002796:	e7a9      	b.n	80026ec <uip_arp_arpin+0x20>
 8002798:	200005dc 	.word	0x200005dc
 800279c:	20000670 	.word	0x20000670
 80027a0:	2000066c 	.word	0x2000066c
 80027a4:	20000686 	.word	0x20000686
 80027a8:	20000558 	.word	0x20000558

080027ac <uip_arp_out>:
 * uip_len.
 */
/*-----------------------------------------------------------------------------------*/
void
uip_arp_out(void)
{
 80027ac:	b430      	push	{r4, r5}

     If not ARP table entry is found, we overwrite the original IP
     packet with an ARP request for the IP address. */

  /* First check if destination is a local broadcast. */
  if (uip_ipaddr_cmp(IPBUF->destipaddr, broadcast_ipaddr))
 80027ae:	4b49      	ldr	r3, [pc, #292]	; (80028d4 <uip_arp_out+0x128>)
 80027b0:	8bda      	ldrh	r2, [r3, #30]
 80027b2:	f64f 73ff 	movw	r3, #65535	; 0xffff
 80027b6:	429a      	cmp	r2, r3
 80027b8:	d01a      	beq.n	80027f0 <uip_arp_out+0x44>
    memcpy(IPBUF->ethhdr.dest.addr, broadcast_ethaddr.addr, 6);
  }
  else
  {
    /* Check if the destination address is on the local network. */
    if (!uip_ipaddr_maskcmp(IPBUF->destipaddr, uip_hostaddr, uip_netmask))
 80027ba:	4b47      	ldr	r3, [pc, #284]	; (80028d8 <uip_arp_out+0x12c>)
 80027bc:	881b      	ldrh	r3, [r3, #0]
 80027be:	4947      	ldr	r1, [pc, #284]	; (80028dc <uip_arp_out+0x130>)
 80027c0:	8809      	ldrh	r1, [r1, #0]
 80027c2:	4053      	eors	r3, r2
 80027c4:	4219      	tst	r1, r3
 80027c6:	d108      	bne.n	80027da <uip_arp_out+0x2e>
 80027c8:	4b42      	ldr	r3, [pc, #264]	; (80028d4 <uip_arp_out+0x128>)
 80027ca:	8c19      	ldrh	r1, [r3, #32]
 80027cc:	4b42      	ldr	r3, [pc, #264]	; (80028d8 <uip_arp_out+0x12c>)
 80027ce:	885b      	ldrh	r3, [r3, #2]
 80027d0:	4842      	ldr	r0, [pc, #264]	; (80028dc <uip_arp_out+0x130>)
 80027d2:	8840      	ldrh	r0, [r0, #2]
 80027d4:	404b      	eors	r3, r1
 80027d6:	4218      	tst	r0, r3
 80027d8:	d017      	beq.n	800280a <uip_arp_out+0x5e>
    {
      /* Destination address was not on the local network, so we need to
      use the default router's IP address instead of the destination
      address when determining the MAC address. */
      uip_ipaddr_copy(ipaddr, uip_draddr);
 80027da:	4b41      	ldr	r3, [pc, #260]	; (80028e0 <uip_arp_out+0x134>)
 80027dc:	4a41      	ldr	r2, [pc, #260]	; (80028e4 <uip_arp_out+0x138>)
 80027de:	8811      	ldrh	r1, [r2, #0]
 80027e0:	8019      	strh	r1, [r3, #0]
 80027e2:	8852      	ldrh	r2, [r2, #2]
 80027e4:	805a      	strh	r2, [r3, #2]
    {
      /* Else, we use the destination IP address. */
      uip_ipaddr_copy(ipaddr, IPBUF->destipaddr);
    }

    for (i = 0; i < UIP_ARPTAB_SIZE; ++i)
 80027e6:	4b40      	ldr	r3, [pc, #256]	; (80028e8 <uip_arp_out+0x13c>)
 80027e8:	2200      	movs	r2, #0
 80027ea:	701a      	strb	r2, [r3, #0]
  struct arp_entry *tabptr = arp_table;
 80027ec:	4d3f      	ldr	r5, [pc, #252]	; (80028ec <uip_arp_out+0x140>)
    for (i = 0; i < UIP_ARPTAB_SIZE; ++i)
 80027ee:	e013      	b.n	8002818 <uip_arp_out+0x6c>
  if (uip_ipaddr_cmp(IPBUF->destipaddr, broadcast_ipaddr))
 80027f0:	4b38      	ldr	r3, [pc, #224]	; (80028d4 <uip_arp_out+0x128>)
 80027f2:	8c19      	ldrh	r1, [r3, #32]
 80027f4:	f64f 73ff 	movw	r3, #65535	; 0xffff
 80027f8:	4299      	cmp	r1, r3
 80027fa:	d1de      	bne.n	80027ba <uip_arp_out+0xe>
    memcpy(IPBUF->ethhdr.dest.addr, broadcast_ethaddr.addr, 6);
 80027fc:	4b35      	ldr	r3, [pc, #212]	; (80028d4 <uip_arp_out+0x128>)
 80027fe:	4a3c      	ldr	r2, [pc, #240]	; (80028f0 <uip_arp_out+0x144>)
 8002800:	6810      	ldr	r0, [r2, #0]
 8002802:	6018      	str	r0, [r3, #0]
 8002804:	8892      	ldrh	r2, [r2, #4]
 8002806:	809a      	strh	r2, [r3, #4]
 8002808:	e021      	b.n	800284e <uip_arp_out+0xa2>
      uip_ipaddr_copy(ipaddr, IPBUF->destipaddr);
 800280a:	4b35      	ldr	r3, [pc, #212]	; (80028e0 <uip_arp_out+0x134>)
 800280c:	801a      	strh	r2, [r3, #0]
 800280e:	8059      	strh	r1, [r3, #2]
 8002810:	e7e9      	b.n	80027e6 <uip_arp_out+0x3a>
    for (i = 0; i < UIP_ARPTAB_SIZE; ++i)
 8002812:	3301      	adds	r3, #1
 8002814:	4a34      	ldr	r2, [pc, #208]	; (80028e8 <uip_arp_out+0x13c>)
 8002816:	7013      	strb	r3, [r2, #0]
 8002818:	4b33      	ldr	r3, [pc, #204]	; (80028e8 <uip_arp_out+0x13c>)
 800281a:	781b      	ldrb	r3, [r3, #0]
 800281c:	2b07      	cmp	r3, #7
 800281e:	d80e      	bhi.n	800283e <uip_arp_out+0x92>
    {
      tabptr = &arp_table[i];
 8002820:	4832      	ldr	r0, [pc, #200]	; (80028ec <uip_arp_out+0x140>)
 8002822:	005a      	lsls	r2, r3, #1
 8002824:	441a      	add	r2, r3
 8002826:	0091      	lsls	r1, r2, #2
 8002828:	1845      	adds	r5, r0, r1
      if (uip_ipaddr_cmp(ipaddr, tabptr->ipaddr))
 800282a:	4a2d      	ldr	r2, [pc, #180]	; (80028e0 <uip_arp_out+0x134>)
 800282c:	8814      	ldrh	r4, [r2, #0]
 800282e:	5a42      	ldrh	r2, [r0, r1]
 8002830:	4294      	cmp	r4, r2
 8002832:	d1ee      	bne.n	8002812 <uip_arp_out+0x66>
 8002834:	4a2a      	ldr	r2, [pc, #168]	; (80028e0 <uip_arp_out+0x134>)
 8002836:	8850      	ldrh	r0, [r2, #2]
 8002838:	886a      	ldrh	r2, [r5, #2]
 800283a:	4290      	cmp	r0, r2
 800283c:	d1e9      	bne.n	8002812 <uip_arp_out+0x66>
      {
        break;
      }
    }

    if (i == UIP_ARPTAB_SIZE)
 800283e:	2b08      	cmp	r3, #8
 8002840:	d016      	beq.n	8002870 <uip_arp_out+0xc4>
      uip_len = sizeof(struct arp_hdr);
      return;
    }

    /* Build an ethernet header. */
    memcpy(IPBUF->ethhdr.dest.addr, tabptr->ethaddr.addr, 6);
 8002842:	4b24      	ldr	r3, [pc, #144]	; (80028d4 <uip_arp_out+0x128>)
 8002844:	f855 2f04 	ldr.w	r2, [r5, #4]!
 8002848:	601a      	str	r2, [r3, #0]
 800284a:	88aa      	ldrh	r2, [r5, #4]
 800284c:	809a      	strh	r2, [r3, #4]
  }
  memcpy(IPBUF->ethhdr.src.addr, uip_ethaddr.addr, 6);
 800284e:	4b21      	ldr	r3, [pc, #132]	; (80028d4 <uip_arp_out+0x128>)
 8002850:	4a28      	ldr	r2, [pc, #160]	; (80028f4 <uip_arp_out+0x148>)
 8002852:	6811      	ldr	r1, [r2, #0]
 8002854:	f8c3 1006 	str.w	r1, [r3, #6]
 8002858:	8892      	ldrh	r2, [r2, #4]
 800285a:	815a      	strh	r2, [r3, #10]

  IPBUF->ethhdr.type = HTONS(UIP_ETHTYPE_IP);
 800285c:	2208      	movs	r2, #8
 800285e:	731a      	strb	r2, [r3, #12]
 8002860:	2200      	movs	r2, #0
 8002862:	735a      	strb	r2, [r3, #13]

  uip_len += sizeof(struct uip_eth_hdr);
 8002864:	4a24      	ldr	r2, [pc, #144]	; (80028f8 <uip_arp_out+0x14c>)
 8002866:	8813      	ldrh	r3, [r2, #0]
 8002868:	330e      	adds	r3, #14
 800286a:	8013      	strh	r3, [r2, #0]
}
 800286c:	bc30      	pop	{r4, r5}
 800286e:	4770      	bx	lr
      memset(BUF->ethhdr.dest.addr, 0xff, 6);
 8002870:	4b18      	ldr	r3, [pc, #96]	; (80028d4 <uip_arp_out+0x128>)
 8002872:	f04f 32ff 	mov.w	r2, #4294967295	; 0xffffffff
 8002876:	601a      	str	r2, [r3, #0]
 8002878:	809a      	strh	r2, [r3, #4]
      memset(BUF->dhwaddr.addr, 0x00, 6);
 800287a:	2200      	movs	r2, #0
 800287c:	621a      	str	r2, [r3, #32]
 800287e:	849a      	strh	r2, [r3, #36]	; 0x24
      memcpy(BUF->ethhdr.src.addr, uip_ethaddr.addr, 6);
 8002880:	491c      	ldr	r1, [pc, #112]	; (80028f4 <uip_arp_out+0x148>)
 8002882:	6808      	ldr	r0, [r1, #0]
 8002884:	f8c3 0006 	str.w	r0, [r3, #6]
 8002888:	8889      	ldrh	r1, [r1, #4]
 800288a:	8159      	strh	r1, [r3, #10]
      memcpy(BUF->shwaddr.addr, uip_ethaddr.addr, 6);
 800288c:	f8c3 0016 	str.w	r0, [r3, #22]
 8002890:	8359      	strh	r1, [r3, #26]
      uip_ipaddr_copy(BUF->dipaddr, ipaddr);
 8002892:	4913      	ldr	r1, [pc, #76]	; (80028e0 <uip_arp_out+0x134>)
 8002894:	8808      	ldrh	r0, [r1, #0]
 8002896:	84d8      	strh	r0, [r3, #38]	; 0x26
 8002898:	8849      	ldrh	r1, [r1, #2]
 800289a:	8519      	strh	r1, [r3, #40]	; 0x28
      uip_ipaddr_copy(BUF->sipaddr, uip_hostaddr);
 800289c:	490e      	ldr	r1, [pc, #56]	; (80028d8 <uip_arp_out+0x12c>)
 800289e:	8808      	ldrh	r0, [r1, #0]
 80028a0:	8398      	strh	r0, [r3, #28]
 80028a2:	8849      	ldrh	r1, [r1, #2]
 80028a4:	83d9      	strh	r1, [r3, #30]
      BUF->opcode = HTONS(ARP_REQUEST); /* ARP request. */
 80028a6:	751a      	strb	r2, [r3, #20]
 80028a8:	2101      	movs	r1, #1
 80028aa:	7559      	strb	r1, [r3, #21]
      BUF->hwtype = HTONS(ARP_HWTYPE_ETH);
 80028ac:	739a      	strb	r2, [r3, #14]
 80028ae:	73d9      	strb	r1, [r3, #15]
      BUF->protocol = HTONS(UIP_ETHTYPE_IP);
 80028b0:	2108      	movs	r1, #8
 80028b2:	7419      	strb	r1, [r3, #16]
 80028b4:	745a      	strb	r2, [r3, #17]
      BUF->hwlen = 6;
 80028b6:	2206      	movs	r2, #6
 80028b8:	749a      	strb	r2, [r3, #18]
      BUF->protolen = 4;
 80028ba:	2204      	movs	r2, #4
 80028bc:	74da      	strb	r2, [r3, #19]
      BUF->ethhdr.type = HTONS(UIP_ETHTYPE_ARP);
 80028be:	7319      	strb	r1, [r3, #12]
 80028c0:	2206      	movs	r2, #6
 80028c2:	735a      	strb	r2, [r3, #13]
      uip_appdata = &uip_buf[UIP_TCPIP_HLEN + UIP_LLH_LEN];
 80028c4:	3336      	adds	r3, #54	; 0x36
 80028c6:	4a0d      	ldr	r2, [pc, #52]	; (80028fc <uip_arp_out+0x150>)
 80028c8:	6013      	str	r3, [r2, #0]
      uip_len = sizeof(struct arp_hdr);
 80028ca:	4b0b      	ldr	r3, [pc, #44]	; (80028f8 <uip_arp_out+0x14c>)
 80028cc:	222a      	movs	r2, #42	; 0x2a
 80028ce:	801a      	strh	r2, [r3, #0]
      return;
 80028d0:	e7cc      	b.n	800286c <uip_arp_out+0xc0>
 80028d2:	bf00      	nop
 80028d4:	20000670 	.word	0x20000670
 80028d8:	2000066c 	.word	0x2000066c
 80028dc:	20000668 	.word	0x20000668
 80028e0:	200005c4 	.word	0x200005c4
 80028e4:	20000664 	.word	0x20000664
 80028e8:	200005c2 	.word	0x200005c2
 80028ec:	20000560 	.word	0x20000560
 80028f0:	080048a4 	.word	0x080048a4
 80028f4:	20000558 	.word	0x20000558
 80028f8:	200005dc 	.word	0x200005dc
 80028fc:	200005f0 	.word	0x200005f0

08002900 <timer_set>:
 * \param interval The interval before the timer expires.
 *
 */
void
timer_set(struct timer *t, clock_time_t interval)
{
 8002900:	b510      	push	{r4, lr}
 8002902:	4604      	mov	r4, r0
  t->interval = interval;
 8002904:	6041      	str	r1, [r0, #4]
  t->start = clock_time();
 8002906:	f001 fe1f 	bl	8004548 <clock_time>
 800290a:	6020      	str	r0, [r4, #0]
}
 800290c:	bd10      	pop	{r4, pc}

0800290e <timer_expired>:
 * \return Non-zero if the timer has expired, zero otherwise.
 *
 */
int
timer_expired(struct timer *t)
{
 800290e:	b510      	push	{r4, lr}
 8002910:	4604      	mov	r4, r0
  return (clock_time_t)(clock_time() - t->start) >= (clock_time_t)t->interval;
 8002912:	f001 fe19 	bl	8004548 <clock_time>
 8002916:	6823      	ldr	r3, [r4, #0]
 8002918:	1ac0      	subs	r0, r0, r3
 800291a:	6863      	ldr	r3, [r4, #4]
}
 800291c:	4298      	cmp	r0, r3
 800291e:	bfb4      	ite	lt
 8002920:	2000      	movlt	r0, #0
 8002922:	2001      	movge	r0, #1
 8002924:	bd10      	pop	{r4, pc}

08002926 <CopInitHook>:
**            watchdog.
** \return    none.
**
****************************************************************************************/
void CopInitHook(void)
{
 8002926:	b508      	push	{r3, lr}
  /* this function is called upon initialization. might as well use it to initialize
   * the LED driver. It is kind of a visual watchdog anyways.
   */
  LedBlinkInit(100);
 8002928:	2064      	movs	r0, #100	; 0x64
 800292a:	f000 f805 	bl	8002938 <LedBlinkInit>
} /*** end of CopInitHook ***/
 800292e:	bd08      	pop	{r3, pc}

08002930 <CopServiceHook>:
**            the watchdog to prevent a watchdog reset.
** \return    none.
**
****************************************************************************************/
void CopServiceHook(void)
{
 8002930:	b508      	push	{r3, lr}
  /* run the LED blink task. this is a better place to do it than in the main() program
   * loop. certain operations such as flash erase can take a long time, which would cause
   * a blink interval to be skipped. this function is also called during such operations,
   * so no blink intervals will be skipped when calling the LED blink task here.
   */
  LedBlinkTask();
 8002932:	f000 f807 	bl	8002944 <LedBlinkTask>
} /*** end of CopServiceHook ***/
 8002936:	bd08      	pop	{r3, pc}

08002938 <LedBlinkInit>:
**
****************************************************************************************/
void LedBlinkInit(blt_int16u interval_ms)
{
  /* store the interval time between LED toggles */
  ledBlinkIntervalMs = interval_ms;
 8002938:	4b01      	ldr	r3, [pc, #4]	; (8002940 <LedBlinkInit+0x8>)
 800293a:	8018      	strh	r0, [r3, #0]
} /*** end of LedBlinkInit ***/
 800293c:	4770      	bx	lr
 800293e:	bf00      	nop
 8002940:	200005ca 	.word	0x200005ca

08002944 <LedBlinkTask>:
** \brief     Task function for blinking the LED as a fixed timer interval.
** \return    none.
**
****************************************************************************************/
void LedBlinkTask(void)
{
 8002944:	b508      	push	{r3, lr}
  static blt_bool ledOn = BLT_FALSE;
  static blt_int32u nextBlinkEvent = 0;

  /* check for blink event */
  if (TimerGet() >= nextBlinkEvent)
 8002946:	f7fe f83f 	bl	80009c8 <TimerGet>
 800294a:	4b0f      	ldr	r3, [pc, #60]	; (8002988 <LedBlinkTask+0x44>)
 800294c:	681b      	ldr	r3, [r3, #0]
 800294e:	4298      	cmp	r0, r3
 8002950:	d310      	bcc.n	8002974 <LedBlinkTask+0x30>
  {
    /* toggle the LED state */
    if (ledOn == BLT_FALSE)
 8002952:	4b0e      	ldr	r3, [pc, #56]	; (800298c <LedBlinkTask+0x48>)
 8002954:	781b      	ldrb	r3, [r3, #0]
 8002956:	b973      	cbnz	r3, 8002976 <LedBlinkTask+0x32>
    {
      ledOn = BLT_TRUE;
 8002958:	2201      	movs	r2, #1
 800295a:	4b0c      	ldr	r3, [pc, #48]	; (800298c <LedBlinkTask+0x48>)
 800295c:	701a      	strb	r2, [r3, #0]
      HAL_GPIO_WritePin(GPIOB, GPIO_PIN_7, GPIO_PIN_SET);
 800295e:	2180      	movs	r1, #128	; 0x80
 8002960:	480b      	ldr	r0, [pc, #44]	; (8002990 <LedBlinkTask+0x4c>)
 8002962:	f001 f9cd 	bl	8003d00 <HAL_GPIO_WritePin>
    {
      ledOn = BLT_FALSE;
      HAL_GPIO_WritePin(GPIOB, GPIO_PIN_7, GPIO_PIN_RESET);
    }
    /* schedule the next blink event */
    nextBlinkEvent = TimerGet() + ledBlinkIntervalMs;
 8002966:	f7fe f82f 	bl	80009c8 <TimerGet>
 800296a:	4b0a      	ldr	r3, [pc, #40]	; (8002994 <LedBlinkTask+0x50>)
 800296c:	881b      	ldrh	r3, [r3, #0]
 800296e:	4418      	add	r0, r3
 8002970:	4b05      	ldr	r3, [pc, #20]	; (8002988 <LedBlinkTask+0x44>)
 8002972:	6018      	str	r0, [r3, #0]
  }
} /*** end of LedBlinkTask ***/
 8002974:	bd08      	pop	{r3, pc}
      ledOn = BLT_FALSE;
 8002976:	2200      	movs	r2, #0
 8002978:	4b04      	ldr	r3, [pc, #16]	; (800298c <LedBlinkTask+0x48>)
 800297a:	701a      	strb	r2, [r3, #0]
      HAL_GPIO_WritePin(GPIOB, GPIO_PIN_7, GPIO_PIN_RESET);
 800297c:	2180      	movs	r1, #128	; 0x80
 800297e:	4804      	ldr	r0, [pc, #16]	; (8002990 <LedBlinkTask+0x4c>)
 8002980:	f001 f9be 	bl	8003d00 <HAL_GPIO_WritePin>
 8002984:	e7ef      	b.n	8002966 <LedBlinkTask+0x22>
 8002986:	bf00      	nop
 8002988:	200005d0 	.word	0x200005d0
 800298c:	200005cc 	.word	0x200005cc
 8002990:	40020400 	.word	0x40020400
 8002994:	200005ca 	.word	0x200005ca

08002998 <SystemClock_Config>:
**            subsystem.
** \return    none.
**
****************************************************************************************/
static void SystemClock_Config(void)
{
 8002998:	b500      	push	{lr}
 800299a:	b095      	sub	sp, #84	; 0x54
  RCC_OscInitTypeDef RCC_OscInitStruct;
  RCC_ClkInitTypeDef RCC_ClkInitStruct;

  /* Configure the main internal regulator output voltage. */
  __HAL_RCC_PWR_CLK_ENABLE();
 800299c:	4b27      	ldr	r3, [pc, #156]	; (8002a3c <SystemClock_Config+0xa4>)
 800299e:	6c1a      	ldr	r2, [r3, #64]	; 0x40
 80029a0:	f042 5280 	orr.w	r2, r2, #268435456	; 0x10000000
 80029a4:	641a      	str	r2, [r3, #64]	; 0x40
 80029a6:	6c1b      	ldr	r3, [r3, #64]	; 0x40
 80029a8:	f003 5380 	and.w	r3, r3, #268435456	; 0x10000000
 80029ac:	9300      	str	r3, [sp, #0]
 80029ae:	9b00      	ldr	r3, [sp, #0]
  __HAL_PWR_VOLTAGESCALING_CONFIG(PWR_REGULATOR_VOLTAGE_SCALE1);
 80029b0:	4b23      	ldr	r3, [pc, #140]	; (8002a40 <SystemClock_Config+0xa8>)
 80029b2:	681a      	ldr	r2, [r3, #0]
 80029b4:	f442 4240 	orr.w	r2, r2, #49152	; 0xc000
 80029b8:	601a      	str	r2, [r3, #0]
 80029ba:	681b      	ldr	r3, [r3, #0]
 80029bc:	f403 4340 	and.w	r3, r3, #49152	; 0xc000
 80029c0:	9301      	str	r3, [sp, #4]
 80029c2:	9b01      	ldr	r3, [sp, #4]

  /* Initializes the CPU, AHB and APB busses clocks. */
  RCC_OscInitStruct.OscillatorType = RCC_OSCILLATORTYPE_HSE;
 80029c4:	2301      	movs	r3, #1
 80029c6:	9307      	str	r3, [sp, #28]
  RCC_OscInitStruct.HSEState = RCC_HSE_ON;
 80029c8:	f44f 3380 	mov.w	r3, #65536	; 0x10000
 80029cc:	9308      	str	r3, [sp, #32]
  RCC_OscInitStruct.PLL.PLLState = RCC_PLL_ON;
 80029ce:	2302      	movs	r3, #2
 80029d0:	930d      	str	r3, [sp, #52]	; 0x34
  RCC_OscInitStruct.PLL.PLLSource = RCC_PLLSOURCE_HSE;
 80029d2:	f44f 0280 	mov.w	r2, #4194304	; 0x400000
 80029d6:	920e      	str	r2, [sp, #56]	; 0x38
  RCC_OscInitStruct.PLL.PLLM = 8;
 80029d8:	2208      	movs	r2, #8
 80029da:	920f      	str	r2, [sp, #60]	; 0x3c
  RCC_OscInitStruct.PLL.PLLN = 432;
 80029dc:	f44f 72d8 	mov.w	r2, #432	; 0x1b0
 80029e0:	9210      	str	r2, [sp, #64]	; 0x40
  RCC_OscInitStruct.PLL.PLLP = RCC_PLLP_DIV2;
 80029e2:	9311      	str	r3, [sp, #68]	; 0x44
  RCC_OscInitStruct.PLL.PLLQ = 2;
 80029e4:	9312      	str	r3, [sp, #72]	; 0x48
  if (HAL_RCC_OscConfig(&RCC_OscInitStruct) != HAL_OK)
 80029e6:	a807      	add	r0, sp, #28
 80029e8:	f001 fa78 	bl	8003edc <HAL_RCC_OscConfig>
 80029ec:	b9b0      	cbnz	r0, 8002a1c <SystemClock_Config+0x84>
     */
    ASSERT_RT(BLT_FALSE);
  }

  /* Activate the Over-Drive mode. */
  if (HAL_PWREx_EnableOverDrive() != HAL_OK)
 80029ee:	f001 f98d 	bl	8003d0c <HAL_PWREx_EnableOverDrive>
 80029f2:	b9c0      	cbnz	r0, 8002a26 <SystemClock_Config+0x8e>
     */
    ASSERT_RT(BLT_FALSE);
  }

  /* Initializes the CPU, AHB and APB busses clocks. */
  RCC_ClkInitStruct.ClockType = RCC_CLOCKTYPE_HCLK | RCC_CLOCKTYPE_SYSCLK |
 80029f4:	230f      	movs	r3, #15
 80029f6:	9302      	str	r3, [sp, #8]
                                RCC_CLOCKTYPE_PCLK1 | RCC_CLOCKTYPE_PCLK2;
  RCC_ClkInitStruct.SYSCLKSource = RCC_SYSCLKSOURCE_PLLCLK;
 80029f8:	2302      	movs	r3, #2
 80029fa:	9303      	str	r3, [sp, #12]
  RCC_ClkInitStruct.AHBCLKDivider = RCC_SYSCLK_DIV1;
 80029fc:	2300      	movs	r3, #0
 80029fe:	9304      	str	r3, [sp, #16]
  RCC_ClkInitStruct.APB1CLKDivider = RCC_HCLK_DIV4;
 8002a00:	f44f 53a0 	mov.w	r3, #5120	; 0x1400
 8002a04:	9305      	str	r3, [sp, #20]
  RCC_ClkInitStruct.APB2CLKDivider = RCC_HCLK_DIV2;
 8002a06:	f44f 5380 	mov.w	r3, #4096	; 0x1000
 8002a0a:	9306      	str	r3, [sp, #24]
  if (HAL_RCC_ClockConfig(&RCC_ClkInitStruct, FLASH_LATENCY_7) != HAL_OK)
 8002a0c:	2107      	movs	r1, #7
 8002a0e:	a802      	add	r0, sp, #8
 8002a10:	f001 fcba 	bl	8004388 <HAL_RCC_ClockConfig>
 8002a14:	b960      	cbnz	r0, 8002a30 <SystemClock_Config+0x98>
    /* Clock configuration incorrect or hardware failure. Hang the system to prevent
     * damage.
     */
    ASSERT_RT(BLT_FALSE);
  }
} /*** end of SystemClock_Config ***/
 8002a16:	b015      	add	sp, #84	; 0x54
 8002a18:	f85d fb04 	ldr.w	pc, [sp], #4
    ASSERT_RT(BLT_FALSE);
 8002a1c:	2196      	movs	r1, #150	; 0x96
 8002a1e:	4809      	ldr	r0, [pc, #36]	; (8002a44 <SystemClock_Config+0xac>)
 8002a20:	f7fd ffdf 	bl	80009e2 <AssertFailure>
 8002a24:	e7e3      	b.n	80029ee <SystemClock_Config+0x56>
    ASSERT_RT(BLT_FALSE);
 8002a26:	219e      	movs	r1, #158	; 0x9e
 8002a28:	4806      	ldr	r0, [pc, #24]	; (8002a44 <SystemClock_Config+0xac>)
 8002a2a:	f7fd ffda 	bl	80009e2 <AssertFailure>
 8002a2e:	e7e1      	b.n	80029f4 <SystemClock_Config+0x5c>
    ASSERT_RT(BLT_FALSE);
 8002a30:	21ad      	movs	r1, #173	; 0xad
 8002a32:	4804      	ldr	r0, [pc, #16]	; (8002a44 <SystemClock_Config+0xac>)
 8002a34:	f7fd ffd5 	bl	80009e2 <AssertFailure>
} /*** end of SystemClock_Config ***/
 8002a38:	e7ed      	b.n	8002a16 <SystemClock_Config+0x7e>
 8002a3a:	bf00      	nop
 8002a3c:	40023800 	.word	0x40023800
 8002a40:	40007000 	.word	0x40007000
 8002a44:	080048ac 	.word	0x080048ac

08002a48 <Init>:
{
 8002a48:	b508      	push	{r3, lr}
  HAL_Init();
 8002a4a:	f000 f98d 	bl	8002d68 <HAL_Init>
  SystemClock_Config();
 8002a4e:	f7ff ffa3 	bl	8002998 <SystemClock_Config>
} /*** end of Init ***/
 8002a52:	bd08      	pop	{r3, pc}

08002a54 <main>:
{
 8002a54:	b500      	push	{lr}
 8002a56:	b083      	sub	sp, #12
blt_int8u deferredInitRequestFlag = 0;
 8002a58:	2500      	movs	r5, #0
 8002a5a:	ac02      	add	r4, sp, #8
 8002a5c:	f804 5d01 	strb.w	r5, [r4, #-1]!
  Init();
 8002a60:	f7ff fff2 	bl	8002a48 <Init>
  SharedParamsInit();
 8002a64:	f000 f8ea 	bl	8002c3c <SharedParamsInit>
  BootInit();
 8002a68:	f7fe f80a 	bl	8000a80 <BootInit>
  SharedParamsReadByIndex(0, &deferredInitRequestFlag);
 8002a6c:	4621      	mov	r1, r4
 8002a6e:	4628      	mov	r0, r5
 8002a70:	f000 f8fc 	bl	8002c6c <SharedParamsReadByIndex>
  if (deferredInitRequestFlag == 1)
 8002a74:	f89d 3007 	ldrb.w	r3, [sp, #7]
 8002a78:	2b01      	cmp	r3, #1
 8002a7a:	d002      	beq.n	8002a82 <main+0x2e>
    BootTask();
 8002a7c:	f7fe f80e 	bl	8000a9c <BootTask>
 8002a80:	e7fc      	b.n	8002a7c <main+0x28>
    ComDeferredInit();
 8002a82:	f7fe f863 	bl	8000b4c <ComDeferredInit>
 8002a86:	e7f9      	b.n	8002a7c <main+0x28>

08002a88 <HAL_MspInit>:
**            interrupt).
** \return    none.
**
****************************************************************************************/
void HAL_MspInit(void)
{
 8002a88:	b570      	push	{r4, r5, r6, lr}
 8002a8a:	b08c      	sub	sp, #48	; 0x30
  GPIO_InitTypeDef GPIO_InitStruct;

  /* Power and SYSCFG clock enable. */
  __HAL_RCC_PWR_CLK_ENABLE();
 8002a8c:	4b2d      	ldr	r3, [pc, #180]	; (8002b44 <HAL_MspInit+0xbc>)
 8002a8e:	6c1a      	ldr	r2, [r3, #64]	; 0x40
 8002a90:	f042 5280 	orr.w	r2, r2, #268435456	; 0x10000000
 8002a94:	641a      	str	r2, [r3, #64]	; 0x40
 8002a96:	6c1a      	ldr	r2, [r3, #64]	; 0x40
 8002a98:	f002 5280 	and.w	r2, r2, #268435456	; 0x10000000
 8002a9c:	9200      	str	r2, [sp, #0]
 8002a9e:	9a00      	ldr	r2, [sp, #0]
  __HAL_RCC_SYSCFG_CLK_ENABLE();
 8002aa0:	6c5a      	ldr	r2, [r3, #68]	; 0x44
 8002aa2:	f442 4280 	orr.w	r2, r2, #16384	; 0x4000
 8002aa6:	645a      	str	r2, [r3, #68]	; 0x44
 8002aa8:	6c5a      	ldr	r2, [r3, #68]	; 0x44
 8002aaa:	f402 4280 	and.w	r2, r2, #16384	; 0x4000
 8002aae:	9201      	str	r2, [sp, #4]
 8002ab0:	9a01      	ldr	r2, [sp, #4]
  /* GPIO ports clock enable. */
  __HAL_RCC_GPIOA_CLK_ENABLE();
 8002ab2:	6b1a      	ldr	r2, [r3, #48]	; 0x30
 8002ab4:	f042 0201 	orr.w	r2, r2, #1
 8002ab8:	631a      	str	r2, [r3, #48]	; 0x30
 8002aba:	6b1a      	ldr	r2, [r3, #48]	; 0x30
 8002abc:	f002 0201 	and.w	r2, r2, #1
 8002ac0:	9202      	str	r2, [sp, #8]
 8002ac2:	9a02      	ldr	r2, [sp, #8]
  __HAL_RCC_GPIOB_CLK_ENABLE();
 8002ac4:	6b1a      	ldr	r2, [r3, #48]	; 0x30
 8002ac6:	f042 0202 	orr.w	r2, r2, #2
 8002aca:	631a      	str	r2, [r3, #48]	; 0x30
 8002acc:	6b1a      	ldr	r2, [r3, #48]	; 0x30
 8002ace:	f002 0202 	and.w	r2, r2, #2
 8002ad2:	9203      	str	r2, [sp, #12]
 8002ad4:	9a03      	ldr	r2, [sp, #12]
  __HAL_RCC_GPIOC_CLK_ENABLE();
 8002ad6:	6b1a      	ldr	r2, [r3, #48]	; 0x30
 8002ad8:	f042 0204 	orr.w	r2, r2, #4
 8002adc:	631a      	str	r2, [r3, #48]	; 0x30
 8002ade:	6b1a      	ldr	r2, [r3, #48]	; 0x30
 8002ae0:	f002 0204 	and.w	r2, r2, #4
 8002ae4:	9204      	str	r2, [sp, #16]
 8002ae6:	9a04      	ldr	r2, [sp, #16]
  __HAL_RCC_GPIOD_CLK_ENABLE();
 8002ae8:	6b1a      	ldr	r2, [r3, #48]	; 0x30
 8002aea:	f042 0208 	orr.w	r2, r2, #8
 8002aee:	631a      	str	r2, [r3, #48]	; 0x30
 8002af0:	6b1a      	ldr	r2, [r3, #48]	; 0x30
 8002af2:	f002 0208 	and.w	r2, r2, #8
 8002af6:	9205      	str	r2, [sp, #20]
 8002af8:	9a05      	ldr	r2, [sp, #20]
  __HAL_RCC_GPIOG_CLK_ENABLE();
 8002afa:	6b1a      	ldr	r2, [r3, #48]	; 0x30
 8002afc:	f042 0240 	orr.w	r2, r2, #64	; 0x40
 8002b00:	631a      	str	r2, [r3, #48]	; 0x30
 8002b02:	6b1b      	ldr	r3, [r3, #48]	; 0x30
 8002b04:	f003 0340 	and.w	r3, r3, #64	; 0x40
 8002b08:	9306      	str	r3, [sp, #24]
 8002b0a:	9b06      	ldr	r3, [sp, #24]
  /* UART clock enable. */
  __HAL_RCC_USART3_CLK_ENABLE();
#endif

  /* Configure GPIO pin for the LED. */
  GPIO_InitStruct.Pin = GPIO_PIN_7;
 8002b0c:	2680      	movs	r6, #128	; 0x80
 8002b0e:	9607      	str	r6, [sp, #28]
  GPIO_InitStruct.Mode = GPIO_MODE_OUTPUT_PP;
 8002b10:	2301      	movs	r3, #1
 8002b12:	9308      	str	r3, [sp, #32]
  GPIO_InitStruct.Pull = GPIO_NOPULL;
 8002b14:	2400      	movs	r4, #0
 8002b16:	9409      	str	r4, [sp, #36]	; 0x24
  GPIO_InitStruct.Speed = GPIO_SPEED_FREQ_LOW;
 8002b18:	940a      	str	r4, [sp, #40]	; 0x28
  HAL_GPIO_Init(GPIOB, &GPIO_InitStruct);
 8002b1a:	4d0b      	ldr	r5, [pc, #44]	; (8002b48 <HAL_MspInit+0xc0>)
 8002b1c:	a907      	add	r1, sp, #28
 8002b1e:	4628      	mov	r0, r5
 8002b20:	f000 ff60 	bl	80039e4 <HAL_GPIO_Init>
  HAL_GPIO_WritePin(GPIOB, GPIO_PIN_7, GPIO_PIN_RESET);
 8002b24:	4622      	mov	r2, r4
 8002b26:	4631      	mov	r1, r6
 8002b28:	4628      	mov	r0, r5
 8002b2a:	f001 f8e9 	bl	8003d00 <HAL_GPIO_WritePin>

  /* Configure GPIO pin for (optional) backdoor entry input. */
  GPIO_InitStruct.Pin = GPIO_PIN_13;
 8002b2e:	f44f 5300 	mov.w	r3, #8192	; 0x2000
 8002b32:	9307      	str	r3, [sp, #28]
  GPIO_InitStruct.Mode = GPIO_MODE_INPUT;
 8002b34:	9408      	str	r4, [sp, #32]
  GPIO_InitStruct.Pull = GPIO_NOPULL;
 8002b36:	9409      	str	r4, [sp, #36]	; 0x24
  HAL_GPIO_Init(GPIOC, &GPIO_InitStruct);
 8002b38:	a907      	add	r1, sp, #28
 8002b3a:	4804      	ldr	r0, [pc, #16]	; (8002b4c <HAL_MspInit+0xc4>)
 8002b3c:	f000 ff52 	bl	80039e4 <HAL_GPIO_Init>
  GPIO_InitStruct.Pull = GPIO_NOPULL;
  GPIO_InitStruct.Speed = GPIO_SPEED_FREQ_VERY_HIGH;
  GPIO_InitStruct.Alternate = GPIO_AF7_USART3;
  HAL_GPIO_Init(GPIOD, &GPIO_InitStruct);
#endif
} /*** end of HAL_MspInit ***/
 8002b40:	b00c      	add	sp, #48	; 0x30
 8002b42:	bd70      	pop	{r4, r5, r6, pc}
 8002b44:	40023800 	.word	0x40023800
 8002b48:	40020400 	.word	0x40020400
 8002b4c:	40020800 	.word	0x40020800

08002b50 <HAL_MspDeInit>:
**            interrupt).
** \return    none.
**
****************************************************************************************/
void HAL_MspDeInit(void)
{
 8002b50:	b510      	push	{r4, lr}
  /* Reset the RCC clock configuration to the default reset state. */
  HAL_RCC_DeInit();
 8002b52:	f001 f919 	bl	8003d88 <HAL_RCC_DeInit>

  /* Reset GPIO pin for the LED to turn it off. */
  HAL_GPIO_WritePin(GPIOB, GPIO_PIN_7, GPIO_PIN_RESET);
 8002b56:	4c16      	ldr	r4, [pc, #88]	; (8002bb0 <HAL_MspDeInit+0x60>)
 8002b58:	2200      	movs	r2, #0
 8002b5a:	2180      	movs	r1, #128	; 0x80
 8002b5c:	4620      	mov	r0, r4
 8002b5e:	f001 f8cf 	bl	8003d00 <HAL_GPIO_WritePin>

  /* Deinit used GPIOs. */
  HAL_GPIO_DeInit(GPIOB, GPIO_PIN_7);
 8002b62:	2180      	movs	r1, #128	; 0x80
 8002b64:	4620      	mov	r0, r4
 8002b66:	f001 f82d 	bl	8003bc4 <HAL_GPIO_DeInit>
  HAL_GPIO_DeInit(GPIOC, GPIO_PIN_13);
 8002b6a:	f44f 5100 	mov.w	r1, #8192	; 0x2000
 8002b6e:	4811      	ldr	r0, [pc, #68]	; (8002bb4 <HAL_MspDeInit+0x64>)
 8002b70:	f001 f828 	bl	8003bc4 <HAL_GPIO_DeInit>
  /* UART clock disable. */
  __HAL_RCC_USART3_CLK_DISABLE();
#endif

  /* GPIO ports clock disable. */
  __HAL_RCC_GPIOG_CLK_DISABLE();
 8002b74:	4b10      	ldr	r3, [pc, #64]	; (8002bb8 <HAL_MspDeInit+0x68>)
 8002b76:	6b1a      	ldr	r2, [r3, #48]	; 0x30
 8002b78:	f022 0240 	bic.w	r2, r2, #64	; 0x40
 8002b7c:	631a      	str	r2, [r3, #48]	; 0x30
  __HAL_RCC_GPIOD_CLK_DISABLE();
 8002b7e:	6b1a      	ldr	r2, [r3, #48]	; 0x30
 8002b80:	f022 0208 	bic.w	r2, r2, #8
 8002b84:	631a      	str	r2, [r3, #48]	; 0x30
  __HAL_RCC_GPIOC_CLK_DISABLE();
 8002b86:	6b1a      	ldr	r2, [r3, #48]	; 0x30
 8002b88:	f022 0204 	bic.w	r2, r2, #4
 8002b8c:	631a      	str	r2, [r3, #48]	; 0x30
  __HAL_RCC_GPIOB_CLK_DISABLE();
 8002b8e:	6b1a      	ldr	r2, [r3, #48]	; 0x30
 8002b90:	f022 0202 	bic.w	r2, r2, #2
 8002b94:	631a      	str	r2, [r3, #48]	; 0x30
  __HAL_RCC_GPIOA_CLK_DISABLE();
 8002b96:	6b1a      	ldr	r2, [r3, #48]	; 0x30
 8002b98:	f022 0201 	bic.w	r2, r2, #1
 8002b9c:	631a      	str	r2, [r3, #48]	; 0x30

  /* SYSCFG and PWR clock disable. */
  __HAL_RCC_PWR_CLK_DISABLE();
 8002b9e:	6c1a      	ldr	r2, [r3, #64]	; 0x40
 8002ba0:	f022 5280 	bic.w	r2, r2, #268435456	; 0x10000000
 8002ba4:	641a      	str	r2, [r3, #64]	; 0x40
  __HAL_RCC_SYSCFG_CLK_DISABLE();
 8002ba6:	6c5a      	ldr	r2, [r3, #68]	; 0x44
 8002ba8:	f422 4280 	bic.w	r2, r2, #16384	; 0x4000
 8002bac:	645a      	str	r2, [r3, #68]	; 0x44
} /*** end of HAL_MspDeInit ***/
 8002bae:	bd10      	pop	{r4, pc}
 8002bb0:	40020400 	.word	0x40020400
 8002bb4:	40020800 	.word	0x40020800
 8002bb8:	40023800 	.word	0x40023800

08002bbc <SharedParamsCalculateChecksum>:
{
  uint16_t result = 0;
  uint32_t byteIdx;

  /* Add the identifier bytes to the checksum. */
  result += (uint8_t)sharedParamsBuffer.identifier;
 8002bbc:	4b0b      	ldr	r3, [pc, #44]	; (8002bec <SharedParamsCalculateChecksum+0x30>)
 8002bbe:	681b      	ldr	r3, [r3, #0]
  result += (uint8_t)(sharedParamsBuffer.identifier >> 8u);
 8002bc0:	f3c3 2007 	ubfx	r0, r3, #8, #8
 8002bc4:	fa50 f283 	uxtab	r2, r0, r3
  result += (uint8_t)(sharedParamsBuffer.identifier >> 16u);
 8002bc8:	f3c3 4007 	ubfx	r0, r3, #16, #8
 8002bcc:	4410      	add	r0, r2
  result += (uint8_t)(sharedParamsBuffer.identifier >> 24u);
 8002bce:	eb00 6013 	add.w	r0, r0, r3, lsr #24
  /* Loop through the parameter data array. */
  for (byteIdx=0; byteIdx<SHARED_PARAMS_CFG_BUFFER_DATA_LEN; byteIdx++)
 8002bd2:	2300      	movs	r3, #0
 8002bd4:	e005      	b.n	8002be2 <SharedParamsCalculateChecksum+0x26>
  {
    /* Add parameter data byte to the checksum. */
    result += (uint8_t)sharedParamsBuffer.data[byteIdx];
 8002bd6:	4a05      	ldr	r2, [pc, #20]	; (8002bec <SharedParamsCalculateChecksum+0x30>)
 8002bd8:	441a      	add	r2, r3
 8002bda:	7912      	ldrb	r2, [r2, #4]
 8002bdc:	4410      	add	r0, r2
 8002bde:	b280      	uxth	r0, r0
  for (byteIdx=0; byteIdx<SHARED_PARAMS_CFG_BUFFER_DATA_LEN; byteIdx++)
 8002be0:	3301      	adds	r3, #1
 8002be2:	2b37      	cmp	r3, #55	; 0x37
 8002be4:	d9f7      	bls.n	8002bd6 <SharedParamsCalculateChecksum+0x1a>
  }
  /* Determine one's complement. */
  result = ~result;
  /* Determine two's complement. */
  result += 1;
 8002be6:	4240      	negs	r0, r0
  /* Give the result back to the caller. */
  return result;
} /*** end of SharedParamsCalculateChecksum ***/
 8002be8:	b280      	uxth	r0, r0
 8002bea:	4770      	bx	lr
 8002bec:	20000000 	.word	0x20000000

08002bf0 <SharedParamsVerifyChecksum>:
{
 8002bf0:	b508      	push	{r3, lr}
  if (SharedParamsCalculateChecksum() == sharedParamsBuffer.checksum)
 8002bf2:	f7ff ffe3 	bl	8002bbc <SharedParamsCalculateChecksum>
 8002bf6:	4b04      	ldr	r3, [pc, #16]	; (8002c08 <SharedParamsVerifyChecksum+0x18>)
 8002bf8:	8f9b      	ldrh	r3, [r3, #60]	; 0x3c
 8002bfa:	4298      	cmp	r0, r3
 8002bfc:	d001      	beq.n	8002c02 <SharedParamsVerifyChecksum+0x12>
  bool result = false;
 8002bfe:	2000      	movs	r0, #0
} /*** end of SharedParamsVerifyChecksum ***/
 8002c00:	bd08      	pop	{r3, pc}
    result = true;
 8002c02:	2001      	movs	r0, #1
 8002c04:	e7fc      	b.n	8002c00 <SharedParamsVerifyChecksum+0x10>
 8002c06:	bf00      	nop
 8002c08:	20000000 	.word	0x20000000

08002c0c <SharedParamsValidateBuffer>:
{
 8002c0c:	b508      	push	{r3, lr}
  if ( (sharedParamsBuffer.identifier == SHARED_PARAMS_BUFFER_ID) &&
 8002c0e:	4b05      	ldr	r3, [pc, #20]	; (8002c24 <SharedParamsValidateBuffer+0x18>)
 8002c10:	681a      	ldr	r2, [r3, #0]
 8002c12:	4b05      	ldr	r3, [pc, #20]	; (8002c28 <SharedParamsValidateBuffer+0x1c>)
 8002c14:	429a      	cmp	r2, r3
 8002c16:	d001      	beq.n	8002c1c <SharedParamsValidateBuffer+0x10>
  bool result = false;
 8002c18:	2000      	movs	r0, #0
} /*** end of SharedParamsValitabeTable ***/
 8002c1a:	bd08      	pop	{r3, pc}
       (SharedParamsVerifyChecksum()) )
 8002c1c:	f7ff ffe8 	bl	8002bf0 <SharedParamsVerifyChecksum>
 8002c20:	e7fb      	b.n	8002c1a <SharedParamsValidateBuffer+0xe>
 8002c22:	bf00      	nop
 8002c24:	20000000 	.word	0x20000000
 8002c28:	ce42e7a2 	.word	0xce42e7a2

08002c2c <SharedParamsWriteChecksum>:
{
 8002c2c:	b508      	push	{r3, lr}
  sharedParamsBuffer.checksum = SharedParamsCalculateChecksum();
 8002c2e:	f7ff ffc5 	bl	8002bbc <SharedParamsCalculateChecksum>
 8002c32:	4b01      	ldr	r3, [pc, #4]	; (8002c38 <SharedParamsWriteChecksum+0xc>)
 8002c34:	8798      	strh	r0, [r3, #60]	; 0x3c
} /*** end of SharedParamsWriteChecksum ***/
 8002c36:	bd08      	pop	{r3, pc}
 8002c38:	20000000 	.word	0x20000000

08002c3c <SharedParamsInit>:
{
 8002c3c:	b508      	push	{r3, lr}
  if (!SharedParamsValidateBuffer())
 8002c3e:	f7ff ffe5 	bl	8002c0c <SharedParamsValidateBuffer>
 8002c42:	b968      	cbnz	r0, 8002c60 <SharedParamsInit+0x24>
    sharedParamsBuffer.identifier = SHARED_PARAMS_BUFFER_ID;
 8002c44:	4b07      	ldr	r3, [pc, #28]	; (8002c64 <SharedParamsInit+0x28>)
 8002c46:	4a08      	ldr	r2, [pc, #32]	; (8002c68 <SharedParamsInit+0x2c>)
 8002c48:	601a      	str	r2, [r3, #0]
    for (byteIdx=0; byteIdx < SHARED_PARAMS_CFG_BUFFER_DATA_LEN; byteIdx++)
 8002c4a:	2300      	movs	r3, #0
 8002c4c:	e004      	b.n	8002c58 <SharedParamsInit+0x1c>
      sharedParamsBuffer.data[byteIdx] = 0;
 8002c4e:	4a05      	ldr	r2, [pc, #20]	; (8002c64 <SharedParamsInit+0x28>)
 8002c50:	441a      	add	r2, r3
 8002c52:	2100      	movs	r1, #0
 8002c54:	7111      	strb	r1, [r2, #4]
    for (byteIdx=0; byteIdx < SHARED_PARAMS_CFG_BUFFER_DATA_LEN; byteIdx++)
 8002c56:	3301      	adds	r3, #1
 8002c58:	2b37      	cmp	r3, #55	; 0x37
 8002c5a:	d9f8      	bls.n	8002c4e <SharedParamsInit+0x12>
    SharedParamsWriteChecksum();
 8002c5c:	f7ff ffe6 	bl	8002c2c <SharedParamsWriteChecksum>
} /*** end of SharedParamsInit ***/
 8002c60:	bd08      	pop	{r3, pc}
 8002c62:	bf00      	nop
 8002c64:	20000000 	.word	0x20000000
 8002c68:	ce42e7a2 	.word	0xce42e7a2

08002c6c <SharedParamsReadByIndex>:
{
 8002c6c:	b538      	push	{r3, r4, r5, lr}
 8002c6e:	4605      	mov	r5, r0
 8002c70:	460c      	mov	r4, r1
  if ( (SharedParamsValidateBuffer()) &&
 8002c72:	f7ff ffcb 	bl	8002c0c <SharedParamsValidateBuffer>
 8002c76:	4603      	mov	r3, r0
 8002c78:	b158      	cbz	r0, 8002c92 <SharedParamsReadByIndex+0x26>
       (idx < SHARED_PARAMS_CFG_BUFFER_DATA_LEN)  &&
 8002c7a:	2d37      	cmp	r5, #55	; 0x37
 8002c7c:	bf8c      	ite	hi
 8002c7e:	2300      	movhi	r3, #0
 8002c80:	2301      	movls	r3, #1
 8002c82:	2c00      	cmp	r4, #0
 8002c84:	bf08      	it	eq
 8002c86:	2300      	moveq	r3, #0
 8002c88:	b11b      	cbz	r3, 8002c92 <SharedParamsReadByIndex+0x26>
    *value = sharedParamsBuffer.data[idx];
 8002c8a:	4a03      	ldr	r2, [pc, #12]	; (8002c98 <SharedParamsReadByIndex+0x2c>)
 8002c8c:	4415      	add	r5, r2
 8002c8e:	792a      	ldrb	r2, [r5, #4]
 8002c90:	7022      	strb	r2, [r4, #0]
} /*** end of SharedParamsReadByIndex ***/
 8002c92:	4618      	mov	r0, r3
 8002c94:	bd38      	pop	{r3, r4, r5, pc}
 8002c96:	bf00      	nop
 8002c98:	20000000 	.word	0x20000000

08002c9c <Reset_Handler>:

    .section  .text.Reset_Handler
  .weak  Reset_Handler
  .type  Reset_Handler, %function
Reset_Handler:  
  ldr   sp, =_estack      /* set stack pointer */
 8002c9c:	f8df d034 	ldr.w	sp, [pc, #52]	; 8002cd4 <LoopFillZerobss+0x14>

/* Copy the data segment initializers from flash to SRAM */  
  movs  r1, #0
 8002ca0:	2100      	movs	r1, #0
  b  LoopCopyDataInit
 8002ca2:	e003      	b.n	8002cac <LoopCopyDataInit>

08002ca4 <CopyDataInit>:

CopyDataInit:
  ldr  r3, =_sidata
 8002ca4:	4b0c      	ldr	r3, [pc, #48]	; (8002cd8 <LoopFillZerobss+0x18>)
  ldr  r3, [r3, r1]
 8002ca6:	585b      	ldr	r3, [r3, r1]
  str  r3, [r0, r1]
 8002ca8:	5043      	str	r3, [r0, r1]
  adds  r1, r1, #4
 8002caa:	3104      	adds	r1, #4

08002cac <LoopCopyDataInit>:
    
LoopCopyDataInit:
  ldr  r0, =_sdata
 8002cac:	480b      	ldr	r0, [pc, #44]	; (8002cdc <LoopFillZerobss+0x1c>)
  ldr  r3, =_edata
 8002cae:	4b0c      	ldr	r3, [pc, #48]	; (8002ce0 <LoopFillZerobss+0x20>)
  adds  r2, r0, r1
 8002cb0:	1842      	adds	r2, r0, r1
  cmp  r2, r3
 8002cb2:	429a      	cmp	r2, r3
  bcc  CopyDataInit
 8002cb4:	d3f6      	bcc.n	8002ca4 <CopyDataInit>
  ldr  r2, =_sbss
 8002cb6:	4a0b      	ldr	r2, [pc, #44]	; (8002ce4 <LoopFillZerobss+0x24>)
  b  LoopFillZerobss
 8002cb8:	e002      	b.n	8002cc0 <LoopFillZerobss>

08002cba <FillZerobss>:
/* Zero fill the bss segment. */  
FillZerobss:
  movs  r3, #0
 8002cba:	2300      	movs	r3, #0
  str  r3, [r2], #4
 8002cbc:	f842 3b04 	str.w	r3, [r2], #4

08002cc0 <LoopFillZerobss>:
    
LoopFillZerobss:
  ldr  r3, = _ebss
 8002cc0:	4b09      	ldr	r3, [pc, #36]	; (8002ce8 <LoopFillZerobss+0x28>)
  cmp  r2, r3
 8002cc2:	429a      	cmp	r2, r3
  bcc  FillZerobss
 8002cc4:	d3f9      	bcc.n	8002cba <FillZerobss>

/* Call the clock system initialization function.*/
  bl  SystemInit   
 8002cc6:	f001 fc17 	bl	80044f8 <SystemInit>
/* Call static constructors */
    bl __libc_init_array
 8002cca:	f001 fd4f 	bl	800476c <__libc_init_array>
/* Call the application's entry point.*/
  bl  main
 8002cce:	f7ff fec1 	bl	8002a54 <main>
  bx  lr    
 8002cd2:	4770      	bx	lr
  ldr   sp, =_estack      /* set stack pointer */
 8002cd4:	20080000 	.word	0x20080000
  ldr  r3, =_sidata
 8002cd8:	080048d8 	.word	0x080048d8
  ldr  r0, =_sdata
 8002cdc:	20000040 	.word	0x20000040
  ldr  r3, =_edata
 8002ce0:	2000004c 	.word	0x2000004c
  ldr  r2, =_sbss
 8002ce4:	2000004c 	.word	0x2000004c
  ldr  r3, = _ebss
 8002ce8:	20003df8 	.word	0x20003df8

08002cec <ADC_IRQHandler>:
 * @retval None       
*/
    .section  .text.Default_Handler,"ax",%progbits
Default_Handler:
Infinite_Loop:
  b  Infinite_Loop
 8002cec:	e7fe      	b.n	8002cec <ADC_IRQHandler>
	...

08002cf0 <HAL_DeInit>:
  * @brief  This function de-Initializes common part of the HAL and stops the systick.
  *         This function is optional.   
  * @retval HAL status
  */
HAL_StatusTypeDef HAL_DeInit(void)
{
 8002cf0:	b510      	push	{r4, lr}
  /* Reset of all peripherals */
  __HAL_RCC_APB1_FORCE_RESET();
 8002cf2:	4b09      	ldr	r3, [pc, #36]	; (8002d18 <HAL_DeInit+0x28>)
 8002cf4:	f04f 32ff 	mov.w	r2, #4294967295	; 0xffffffff
 8002cf8:	621a      	str	r2, [r3, #32]
  __HAL_RCC_APB1_RELEASE_RESET();
 8002cfa:	2400      	movs	r4, #0
 8002cfc:	621c      	str	r4, [r3, #32]

  __HAL_RCC_APB2_FORCE_RESET();
 8002cfe:	625a      	str	r2, [r3, #36]	; 0x24
  __HAL_RCC_APB2_RELEASE_RESET();
 8002d00:	625c      	str	r4, [r3, #36]	; 0x24

  __HAL_RCC_AHB1_FORCE_RESET();
 8002d02:	611a      	str	r2, [r3, #16]
  __HAL_RCC_AHB1_RELEASE_RESET();
 8002d04:	611c      	str	r4, [r3, #16]

  __HAL_RCC_AHB2_FORCE_RESET();
 8002d06:	615a      	str	r2, [r3, #20]
  __HAL_RCC_AHB2_RELEASE_RESET();
 8002d08:	615c      	str	r4, [r3, #20]

  __HAL_RCC_AHB3_FORCE_RESET();
 8002d0a:	619a      	str	r2, [r3, #24]
  __HAL_RCC_AHB3_RELEASE_RESET();
 8002d0c:	619c      	str	r4, [r3, #24]

  /* De-Init the low level hardware */
  HAL_MspDeInit();
 8002d0e:	f7ff ff1f 	bl	8002b50 <HAL_MspDeInit>
    
  /* Return function status */
  return HAL_OK;
}
 8002d12:	4620      	mov	r0, r4
 8002d14:	bd10      	pop	{r4, pc}
 8002d16:	bf00      	nop
 8002d18:	40023800 	.word	0x40023800

08002d1c <HAL_InitTick>:
  *       implementation  in user file.
  * @param TickPriority Tick interrupt priority.
  * @retval HAL status
  */
__weak HAL_StatusTypeDef HAL_InitTick(uint32_t TickPriority)
{
 8002d1c:	b510      	push	{r4, lr}
 8002d1e:	4604      	mov	r4, r0
  /* Configure the SysTick to have interrupt in 1ms time basis*/
  if (HAL_SYSTICK_Config(SystemCoreClock / (1000U / uwTickFreq)) > 0U)
 8002d20:	4b0e      	ldr	r3, [pc, #56]	; (8002d5c <HAL_InitTick+0x40>)
 8002d22:	7818      	ldrb	r0, [r3, #0]
 8002d24:	f44f 737a 	mov.w	r3, #1000	; 0x3e8
 8002d28:	fbb3 f3f0 	udiv	r3, r3, r0
 8002d2c:	4a0c      	ldr	r2, [pc, #48]	; (8002d60 <HAL_InitTick+0x44>)
 8002d2e:	6810      	ldr	r0, [r2, #0]
 8002d30:	fbb0 f0f3 	udiv	r0, r0, r3
 8002d34:	f000 f87c 	bl	8002e30 <HAL_SYSTICK_Config>
 8002d38:	b968      	cbnz	r0, 8002d56 <HAL_InitTick+0x3a>
  {
    return HAL_ERROR;
  }

  /* Configure the SysTick IRQ priority */
  if (TickPriority < (1UL << __NVIC_PRIO_BITS))
 8002d3a:	2c0f      	cmp	r4, #15
 8002d3c:	d901      	bls.n	8002d42 <HAL_InitTick+0x26>
    HAL_NVIC_SetPriority(SysTick_IRQn, TickPriority, 0U);
    uwTickPrio = TickPriority;
  }
  else
  {
    return HAL_ERROR;
 8002d3e:	2001      	movs	r0, #1
 8002d40:	e00a      	b.n	8002d58 <HAL_InitTick+0x3c>
    HAL_NVIC_SetPriority(SysTick_IRQn, TickPriority, 0U);
 8002d42:	2200      	movs	r2, #0
 8002d44:	4621      	mov	r1, r4
 8002d46:	f04f 30ff 	mov.w	r0, #4294967295	; 0xffffffff
 8002d4a:	f000 f83f 	bl	8002dcc <HAL_NVIC_SetPriority>
    uwTickPrio = TickPriority;
 8002d4e:	4b05      	ldr	r3, [pc, #20]	; (8002d64 <HAL_InitTick+0x48>)
 8002d50:	601c      	str	r4, [r3, #0]
  }

  /* Return function status */
  return HAL_OK;
 8002d52:	2000      	movs	r0, #0
 8002d54:	e000      	b.n	8002d58 <HAL_InitTick+0x3c>
    return HAL_ERROR;
 8002d56:	2001      	movs	r0, #1
}
 8002d58:	bd10      	pop	{r4, pc}
 8002d5a:	bf00      	nop
 8002d5c:	20000042 	.word	0x20000042
 8002d60:	20000048 	.word	0x20000048
 8002d64:	20000044 	.word	0x20000044

08002d68 <HAL_Init>:
{
 8002d68:	b508      	push	{r3, lr}
  HAL_NVIC_SetPriorityGrouping(NVIC_PRIORITYGROUP_4);
 8002d6a:	2003      	movs	r0, #3
 8002d6c:	f000 f81c 	bl	8002da8 <HAL_NVIC_SetPriorityGrouping>
  HAL_InitTick(TICK_INT_PRIORITY);
 8002d70:	2000      	movs	r0, #0
 8002d72:	f7ff ffd3 	bl	8002d1c <HAL_InitTick>
  HAL_MspInit();
 8002d76:	f7ff fe87 	bl	8002a88 <HAL_MspInit>
}
 8002d7a:	2000      	movs	r0, #0
 8002d7c:	bd08      	pop	{r3, pc}
	...

08002d80 <HAL_Delay>:
  *       implementations in user file.
  * @param Delay  specifies the delay time length, in milliseconds.
  * @retval None
  */
__weak void HAL_Delay(uint32_t Delay)
{
 8002d80:	b538      	push	{r3, r4, r5, lr}
 8002d82:	4604      	mov	r4, r0
  uint32_t tickstart = HAL_GetTick();
 8002d84:	f7fd fe28 	bl	80009d8 <HAL_GetTick>
 8002d88:	4605      	mov	r5, r0
  uint32_t wait = Delay;

  /* Add a freq to guarantee minimum wait */
  if (wait < HAL_MAX_DELAY)
 8002d8a:	f1b4 3fff 	cmp.w	r4, #4294967295	; 0xffffffff
 8002d8e:	d002      	beq.n	8002d96 <HAL_Delay+0x16>
  {
    wait += (uint32_t)(uwTickFreq);
 8002d90:	4b04      	ldr	r3, [pc, #16]	; (8002da4 <HAL_Delay+0x24>)
 8002d92:	781b      	ldrb	r3, [r3, #0]
 8002d94:	441c      	add	r4, r3
  }

  while ((HAL_GetTick() - tickstart) < wait)
 8002d96:	f7fd fe1f 	bl	80009d8 <HAL_GetTick>
 8002d9a:	1b40      	subs	r0, r0, r5
 8002d9c:	42a0      	cmp	r0, r4
 8002d9e:	d3fa      	bcc.n	8002d96 <HAL_Delay+0x16>
  {
  }
}
 8002da0:	bd38      	pop	{r3, r4, r5, pc}
 8002da2:	bf00      	nop
 8002da4:	20000042 	.word	0x20000042

08002da8 <HAL_NVIC_SetPriorityGrouping>:
__STATIC_INLINE void NVIC_SetPriorityGrouping(uint32_t PriorityGroup)
{
  uint32_t reg_value;
  uint32_t PriorityGroupTmp = (PriorityGroup & (uint32_t)0x07UL);             /* only values 0..7 are used          */

  reg_value  =  SCB->AIRCR;                                                   /* read old register configuration    */
 8002da8:	4906      	ldr	r1, [pc, #24]	; (8002dc4 <HAL_NVIC_SetPriorityGrouping+0x1c>)
 8002daa:	68cb      	ldr	r3, [r1, #12]
  reg_value &= ~((uint32_t)(SCB_AIRCR_VECTKEY_Msk | SCB_AIRCR_PRIGROUP_Msk)); /* clear bits to change               */
 8002dac:	f423 63e0 	bic.w	r3, r3, #1792	; 0x700
 8002db0:	041b      	lsls	r3, r3, #16
 8002db2:	0c1b      	lsrs	r3, r3, #16
  reg_value  =  (reg_value                                   |
                ((uint32_t)0x5FAUL << SCB_AIRCR_VECTKEY_Pos) |
                (PriorityGroupTmp << 8U)                      );              /* Insert write key and priorty group */
 8002db4:	0200      	lsls	r0, r0, #8
 8002db6:	f400 60e0 	and.w	r0, r0, #1792	; 0x700
                ((uint32_t)0x5FAUL << SCB_AIRCR_VECTKEY_Pos) |
 8002dba:	4303      	orrs	r3, r0
  reg_value  =  (reg_value                                   |
 8002dbc:	4a02      	ldr	r2, [pc, #8]	; (8002dc8 <HAL_NVIC_SetPriorityGrouping+0x20>)
 8002dbe:	431a      	orrs	r2, r3
  SCB->AIRCR =  reg_value;
 8002dc0:	60ca      	str	r2, [r1, #12]
  /* Check the parameters */
  assert_param(IS_NVIC_PRIORITY_GROUP(PriorityGroup));
  
  /* Set the PRIGROUP[10:8] bits according to the PriorityGroup parameter value */
  NVIC_SetPriorityGrouping(PriorityGroup);
}
 8002dc2:	4770      	bx	lr
 8002dc4:	e000ed00 	.word	0xe000ed00
 8002dc8:	05fa0000 	.word	0x05fa0000

08002dcc <HAL_NVIC_SetPriority>:
  *         This parameter can be a value between 0 and 15
  *         A lower priority value indicates a higher priority.          
  * @retval None
  */
void HAL_NVIC_SetPriority(IRQn_Type IRQn, uint32_t PreemptPriority, uint32_t SubPriority)
{ 
 8002dcc:	b430      	push	{r4, r5}
  \details Reads the priority grouping field from the NVIC Interrupt Controller.
  \return                Priority grouping field (SCB->AIRCR [10:8] PRIGROUP field).
 */
__STATIC_INLINE uint32_t NVIC_GetPriorityGrouping(void)
{
  return ((uint32_t)((SCB->AIRCR & SCB_AIRCR_PRIGROUP_Msk) >> SCB_AIRCR_PRIGROUP_Pos));
 8002dce:	4b15      	ldr	r3, [pc, #84]	; (8002e24 <HAL_NVIC_SetPriority+0x58>)
 8002dd0:	68db      	ldr	r3, [r3, #12]
 8002dd2:	f3c3 2302 	ubfx	r3, r3, #8, #3
{
  uint32_t PriorityGroupTmp = (PriorityGroup & (uint32_t)0x07UL);   /* only values 0..7 are used          */
  uint32_t PreemptPriorityBits;
  uint32_t SubPriorityBits;

  PreemptPriorityBits = ((7UL - PriorityGroupTmp) > (uint32_t)(__NVIC_PRIO_BITS)) ? (uint32_t)(__NVIC_PRIO_BITS) : (uint32_t)(7UL - PriorityGroupTmp);
 8002dd6:	f1c3 0407 	rsb	r4, r3, #7
 8002dda:	2c04      	cmp	r4, #4
 8002ddc:	bf28      	it	cs
 8002dde:	2404      	movcs	r4, #4
  SubPriorityBits     = ((PriorityGroupTmp + (uint32_t)(__NVIC_PRIO_BITS)) < (uint32_t)7UL) ? (uint32_t)0UL : (uint32_t)((PriorityGroupTmp - 7UL) + (uint32_t)(__NVIC_PRIO_BITS));
 8002de0:	1d1d      	adds	r5, r3, #4
 8002de2:	2d06      	cmp	r5, #6
 8002de4:	d914      	bls.n	8002e10 <HAL_NVIC_SetPriority+0x44>
 8002de6:	3b03      	subs	r3, #3

  return (
           ((PreemptPriority & (uint32_t)((1UL << (PreemptPriorityBits)) - 1UL)) << SubPriorityBits) |
 8002de8:	f04f 35ff 	mov.w	r5, #4294967295	; 0xffffffff
 8002dec:	fa05 f404 	lsl.w	r4, r5, r4
 8002df0:	ea21 0104 	bic.w	r1, r1, r4
 8002df4:	4099      	lsls	r1, r3
           ((SubPriority     & (uint32_t)((1UL << (SubPriorityBits    )) - 1UL)))
 8002df6:	fa05 f303 	lsl.w	r3, r5, r3
 8002dfa:	ea22 0303 	bic.w	r3, r2, r3
           ((PreemptPriority & (uint32_t)((1UL << (PreemptPriorityBits)) - 1UL)) << SubPriorityBits) |
 8002dfe:	4319      	orrs	r1, r3
  if ((int32_t)(IRQn) < 0)
 8002e00:	2800      	cmp	r0, #0
 8002e02:	db07      	blt.n	8002e14 <HAL_NVIC_SetPriority+0x48>
    NVIC->IP[((uint32_t)(int32_t)IRQn)]                = (uint8_t)((priority << (8U - __NVIC_PRIO_BITS)) & (uint32_t)0xFFUL);
 8002e04:	0109      	lsls	r1, r1, #4
 8002e06:	b2c9      	uxtb	r1, r1
 8002e08:	4b07      	ldr	r3, [pc, #28]	; (8002e28 <HAL_NVIC_SetPriority+0x5c>)
 8002e0a:	5419      	strb	r1, [r3, r0]
  assert_param(IS_NVIC_PREEMPTION_PRIORITY(PreemptPriority));
  
  prioritygroup = NVIC_GetPriorityGrouping();
  
  NVIC_SetPriority(IRQn, NVIC_EncodePriority(prioritygroup, PreemptPriority, SubPriority));
}
 8002e0c:	bc30      	pop	{r4, r5}
 8002e0e:	4770      	bx	lr
  SubPriorityBits     = ((PriorityGroupTmp + (uint32_t)(__NVIC_PRIO_BITS)) < (uint32_t)7UL) ? (uint32_t)0UL : (uint32_t)((PriorityGroupTmp - 7UL) + (uint32_t)(__NVIC_PRIO_BITS));
 8002e10:	2300      	movs	r3, #0
 8002e12:	e7e9      	b.n	8002de8 <HAL_NVIC_SetPriority+0x1c>
    SCB->SHPR[(((uint32_t)(int32_t)IRQn) & 0xFUL)-4UL] = (uint8_t)((priority << (8U - __NVIC_PRIO_BITS)) & (uint32_t)0xFFUL);
 8002e14:	f000 000f 	and.w	r0, r0, #15
 8002e18:	0109      	lsls	r1, r1, #4
 8002e1a:	b2c9      	uxtb	r1, r1
 8002e1c:	4b03      	ldr	r3, [pc, #12]	; (8002e2c <HAL_NVIC_SetPriority+0x60>)
 8002e1e:	5419      	strb	r1, [r3, r0]
 8002e20:	e7f4      	b.n	8002e0c <HAL_NVIC_SetPriority+0x40>
 8002e22:	bf00      	nop
 8002e24:	e000ed00 	.word	0xe000ed00
 8002e28:	e000e400 	.word	0xe000e400
 8002e2c:	e000ed14 	.word	0xe000ed14

08002e30 <HAL_SYSTICK_Config>:
           function <b>SysTick_Config</b> is not included. In this case, the file <b><i>device</i>.h</b>
           must contain a vendor-specific implementation of this function.
 */
__STATIC_INLINE uint32_t SysTick_Config(uint32_t ticks)
{
  if ((ticks - 1UL) > SysTick_LOAD_RELOAD_Msk)
 8002e30:	3801      	subs	r0, #1
 8002e32:	f1b0 7f80 	cmp.w	r0, #16777216	; 0x1000000
 8002e36:	d20a      	bcs.n	8002e4e <HAL_SYSTICK_Config+0x1e>
  {
    return (1UL);                                                   /* Reload value impossible */
  }

  SysTick->LOAD  = (uint32_t)(ticks - 1UL);                         /* set reload register */
 8002e38:	4b06      	ldr	r3, [pc, #24]	; (8002e54 <HAL_SYSTICK_Config+0x24>)
 8002e3a:	6058      	str	r0, [r3, #4]
    SCB->SHPR[(((uint32_t)(int32_t)IRQn) & 0xFUL)-4UL] = (uint8_t)((priority << (8U - __NVIC_PRIO_BITS)) & (uint32_t)0xFFUL);
 8002e3c:	4a06      	ldr	r2, [pc, #24]	; (8002e58 <HAL_SYSTICK_Config+0x28>)
 8002e3e:	21f0      	movs	r1, #240	; 0xf0
 8002e40:	f882 1023 	strb.w	r1, [r2, #35]	; 0x23
  NVIC_SetPriority (SysTick_IRQn, (1UL << __NVIC_PRIO_BITS) - 1UL); /* set Priority for Systick Interrupt */
  SysTick->VAL   = 0UL;                                             /* Load the SysTick Counter Value */
 8002e44:	2000      	movs	r0, #0
 8002e46:	6098      	str	r0, [r3, #8]
  SysTick->CTRL  = SysTick_CTRL_CLKSOURCE_Msk |
 8002e48:	2207      	movs	r2, #7
 8002e4a:	601a      	str	r2, [r3, #0]
 8002e4c:	4770      	bx	lr
    return (1UL);                                                   /* Reload value impossible */
 8002e4e:	2001      	movs	r0, #1
  *                  - 1  Function failed.
  */
uint32_t HAL_SYSTICK_Config(uint32_t TicksNumb)
{
   return SysTick_Config(TicksNumb);
}
 8002e50:	4770      	bx	lr
 8002e52:	bf00      	nop
 8002e54:	e000e010 	.word	0xe000e010
 8002e58:	e000ed00 	.word	0xe000ed00

08002e5c <ETH_MACAddressConfig>:
  
  /* Check the parameters */
  assert_param(IS_ETH_MAC_ADDRESS0123(MacAddr));
  
  /* Calculate the selected MAC address high register */
  tmpreg = ((uint32_t)Addr[5] << 8) | (uint32_t)Addr[4];
 8002e5c:	7950      	ldrb	r0, [r2, #5]
 8002e5e:	7913      	ldrb	r3, [r2, #4]
 8002e60:	ea43 2300 	orr.w	r3, r3, r0, lsl #8
  /* Load the selected MAC address high register */
  (*(__IO uint32_t *)((uint32_t)(ETH_MAC_ADDR_HBASE + MacAddr))) = tmpreg;
 8002e64:	4807      	ldr	r0, [pc, #28]	; (8002e84 <ETH_MACAddressConfig+0x28>)
 8002e66:	500b      	str	r3, [r1, r0]
  /* Calculate the selected MAC address low register */
  tmpreg = ((uint32_t)Addr[3] << 24) | ((uint32_t)Addr[2] << 16) | ((uint32_t)Addr[1] << 8) | Addr[0];
 8002e68:	78d0      	ldrb	r0, [r2, #3]
 8002e6a:	7893      	ldrb	r3, [r2, #2]
 8002e6c:	041b      	lsls	r3, r3, #16
 8002e6e:	ea43 6300 	orr.w	r3, r3, r0, lsl #24
 8002e72:	7850      	ldrb	r0, [r2, #1]
 8002e74:	ea43 2300 	orr.w	r3, r3, r0, lsl #8
 8002e78:	7812      	ldrb	r2, [r2, #0]
 8002e7a:	4313      	orrs	r3, r2
  
  /* Load the selected MAC address low register */
  (*(__IO uint32_t *)((uint32_t)(ETH_MAC_ADDR_LBASE + MacAddr))) = tmpreg;
 8002e7c:	4a02      	ldr	r2, [pc, #8]	; (8002e88 <ETH_MACAddressConfig+0x2c>)
 8002e7e:	508b      	str	r3, [r1, r2]
}
 8002e80:	4770      	bx	lr
 8002e82:	bf00      	nop
 8002e84:	40028040 	.word	0x40028040
 8002e88:	40028044 	.word	0x40028044

08002e8c <ETH_DMATransmissionEnable>:
  * @retval None
  */
static void ETH_DMATransmissionEnable(ETH_HandleTypeDef *heth)
{
  /* Enable the DMA transmission */
  (heth->Instance)->DMAOMR |= ETH_DMAOMR_ST;  
 8002e8c:	6801      	ldr	r1, [r0, #0]
 8002e8e:	f241 0218 	movw	r2, #4120	; 0x1018
 8002e92:	588b      	ldr	r3, [r1, r2]
 8002e94:	f443 5300 	orr.w	r3, r3, #8192	; 0x2000
 8002e98:	508b      	str	r3, [r1, r2]
}
 8002e9a:	4770      	bx	lr

08002e9c <ETH_DMAReceptionEnable>:
  * @retval None
  */
static void ETH_DMAReceptionEnable(ETH_HandleTypeDef *heth)
{  
  /* Enable the DMA reception */
  (heth->Instance)->DMAOMR |= ETH_DMAOMR_SR;  
 8002e9c:	6801      	ldr	r1, [r0, #0]
 8002e9e:	f241 0218 	movw	r2, #4120	; 0x1018
 8002ea2:	588b      	ldr	r3, [r1, r2]
 8002ea4:	f043 0302 	orr.w	r3, r3, #2
 8002ea8:	508b      	str	r3, [r1, r2]
}
 8002eaa:	4770      	bx	lr

08002eac <ETH_MACDMAConfig>:
{
 8002eac:	b570      	push	{r4, r5, r6, lr}
 8002eae:	b09e      	sub	sp, #120	; 0x78
 8002eb0:	4604      	mov	r4, r0
  if (err != ETH_SUCCESS) /* Auto-negotiation failed */
 8002eb2:	b129      	cbz	r1, 8002ec0 <ETH_MACDMAConfig+0x14>
    (heth->Init).DuplexMode = ETH_MODE_FULLDUPLEX;
 8002eb4:	f44f 6300 	mov.w	r3, #2048	; 0x800
 8002eb8:	60c3      	str	r3, [r0, #12]
    (heth->Init).Speed = ETH_SPEED_100M;
 8002eba:	f44f 4380 	mov.w	r3, #16384	; 0x4000
 8002ebe:	6083      	str	r3, [r0, #8]
  if(heth->Init.ChecksumMode == ETH_CHECKSUM_BY_HARDWARE)
 8002ec0:	69e3      	ldr	r3, [r4, #28]
 8002ec2:	2b00      	cmp	r3, #0
 8002ec4:	d168      	bne.n	8002f98 <ETH_MACDMAConfig+0xec>
    macinit.ChecksumOffload = ETH_CHECKSUMOFFLAOD_ENABLE;
 8002ec6:	f44f 6380 	mov.w	r3, #1024	; 0x400
 8002eca:	9307      	str	r3, [sp, #28]
  tmpreg = (heth->Instance)->MACCR;
 8002ecc:	6821      	ldr	r1, [r4, #0]
 8002ece:	680b      	ldr	r3, [r1, #0]
  tmpreg &= ETH_MACCR_CLEAR_MASK;
 8002ed0:	4a37      	ldr	r2, [pc, #220]	; (8002fb0 <ETH_MACDMAConfig+0x104>)
 8002ed2:	401a      	ands	r2, r3
                       (heth->Init).Speed | 
 8002ed4:	68a3      	ldr	r3, [r4, #8]
                       (heth->Init).DuplexMode | 
 8002ed6:	68e0      	ldr	r0, [r4, #12]
                       macinit.LoopbackMode |
 8002ed8:	4303      	orrs	r3, r0
                       macinit.ChecksumOffload |    
 8002eda:	9807      	ldr	r0, [sp, #28]
                       (heth->Init).DuplexMode | 
 8002edc:	4303      	orrs	r3, r0
                       macinit.ChecksumOffload |    
 8002ede:	f443 7300 	orr.w	r3, r3, #512	; 0x200
  tmpreg |= (uint32_t)(macinit.Watchdog | 
 8002ee2:	4313      	orrs	r3, r2
  (heth->Instance)->MACCR = (uint32_t)tmpreg;
 8002ee4:	600b      	str	r3, [r1, #0]
  tmpreg = (heth->Instance)->MACCR;
 8002ee6:	6823      	ldr	r3, [r4, #0]
 8002ee8:	681d      	ldr	r5, [r3, #0]
  HAL_Delay(ETH_REG_WRITE_DELAY);
 8002eea:	2001      	movs	r0, #1
 8002eec:	f7ff ff48 	bl	8002d80 <HAL_Delay>
  (heth->Instance)->MACCR = tmpreg; 
 8002ef0:	6823      	ldr	r3, [r4, #0]
 8002ef2:	601d      	str	r5, [r3, #0]
  (heth->Instance)->MACFFR = (uint32_t)(macinit.ReceiveAll | 
 8002ef4:	6823      	ldr	r3, [r4, #0]
 8002ef6:	2240      	movs	r2, #64	; 0x40
 8002ef8:	605a      	str	r2, [r3, #4]
   tmpreg = (heth->Instance)->MACFFR;
 8002efa:	6823      	ldr	r3, [r4, #0]
 8002efc:	685d      	ldr	r5, [r3, #4]
   HAL_Delay(ETH_REG_WRITE_DELAY);
 8002efe:	2001      	movs	r0, #1
 8002f00:	f7ff ff3e 	bl	8002d80 <HAL_Delay>
   (heth->Instance)->MACFFR = tmpreg;
 8002f04:	6823      	ldr	r3, [r4, #0]
 8002f06:	605d      	str	r5, [r3, #4]
   (heth->Instance)->MACHTHR = (uint32_t)macinit.HashTableHigh;
 8002f08:	6823      	ldr	r3, [r4, #0]
 8002f0a:	2500      	movs	r5, #0
 8002f0c:	609d      	str	r5, [r3, #8]
   (heth->Instance)->MACHTLR = (uint32_t)macinit.HashTableLow;
 8002f0e:	6823      	ldr	r3, [r4, #0]
 8002f10:	60dd      	str	r5, [r3, #12]
   tmpreg = (heth->Instance)->MACFCR;
 8002f12:	6822      	ldr	r2, [r4, #0]
 8002f14:	6993      	ldr	r3, [r2, #24]
   tmpreg &= ETH_MACFCR_CLEAR_MASK;
 8002f16:	f023 03be 	bic.w	r3, r3, #190	; 0xbe
 8002f1a:	041b      	lsls	r3, r3, #16
 8002f1c:	0c1b      	lsrs	r3, r3, #16
   tmpreg |= (uint32_t)((macinit.PauseTime << 16) | 
 8002f1e:	f043 0380 	orr.w	r3, r3, #128	; 0x80
   (heth->Instance)->MACFCR = (uint32_t)tmpreg;
 8002f22:	6193      	str	r3, [r2, #24]
   tmpreg = (heth->Instance)->MACFCR;
 8002f24:	6823      	ldr	r3, [r4, #0]
 8002f26:	699e      	ldr	r6, [r3, #24]
   HAL_Delay(ETH_REG_WRITE_DELAY);
 8002f28:	2001      	movs	r0, #1
 8002f2a:	f7ff ff29 	bl	8002d80 <HAL_Delay>
   (heth->Instance)->MACFCR = tmpreg;
 8002f2e:	6823      	ldr	r3, [r4, #0]
 8002f30:	619e      	str	r6, [r3, #24]
   (heth->Instance)->MACVLANTR = (uint32_t)(macinit.VLANTagComparison | 
 8002f32:	6823      	ldr	r3, [r4, #0]
 8002f34:	61dd      	str	r5, [r3, #28]
    tmpreg = (heth->Instance)->MACVLANTR;
 8002f36:	6823      	ldr	r3, [r4, #0]
 8002f38:	69dd      	ldr	r5, [r3, #28]
    HAL_Delay(ETH_REG_WRITE_DELAY);
 8002f3a:	2001      	movs	r0, #1
 8002f3c:	f7ff ff20 	bl	8002d80 <HAL_Delay>
    (heth->Instance)->MACVLANTR = tmpreg;
 8002f40:	6823      	ldr	r3, [r4, #0]
 8002f42:	61dd      	str	r5, [r3, #28]
    tmpreg = (heth->Instance)->DMAOMR;
 8002f44:	6821      	ldr	r1, [r4, #0]
 8002f46:	f241 0518 	movw	r5, #4120	; 0x1018
 8002f4a:	594b      	ldr	r3, [r1, r5]
    tmpreg &= ETH_DMAOMR_CLEAR_MASK;
 8002f4c:	4a19      	ldr	r2, [pc, #100]	; (8002fb4 <ETH_MACDMAConfig+0x108>)
 8002f4e:	401a      	ands	r2, r3
    tmpreg |= (uint32_t)(dmainit.DropTCPIPChecksumErrorFrame | 
 8002f50:	4b19      	ldr	r3, [pc, #100]	; (8002fb8 <ETH_MACDMAConfig+0x10c>)
 8002f52:	4313      	orrs	r3, r2
    (heth->Instance)->DMAOMR = (uint32_t)tmpreg;
 8002f54:	514b      	str	r3, [r1, r5]
    tmpreg = (heth->Instance)->DMAOMR;
 8002f56:	6823      	ldr	r3, [r4, #0]
 8002f58:	595e      	ldr	r6, [r3, r5]
    HAL_Delay(ETH_REG_WRITE_DELAY);
 8002f5a:	2001      	movs	r0, #1
 8002f5c:	f7ff ff10 	bl	8002d80 <HAL_Delay>
    (heth->Instance)->DMAOMR = tmpreg;
 8002f60:	6823      	ldr	r3, [r4, #0]
 8002f62:	515e      	str	r6, [r3, r5]
    (heth->Instance)->DMABMR = (uint32_t)(dmainit.AddressAlignedBeats | 
 8002f64:	6823      	ldr	r3, [r4, #0]
 8002f66:	f503 5380 	add.w	r3, r3, #4096	; 0x1000
 8002f6a:	4a14      	ldr	r2, [pc, #80]	; (8002fbc <ETH_MACDMAConfig+0x110>)
 8002f6c:	601a      	str	r2, [r3, #0]
     tmpreg = (heth->Instance)->DMABMR;
 8002f6e:	6823      	ldr	r3, [r4, #0]
 8002f70:	f503 5380 	add.w	r3, r3, #4096	; 0x1000
 8002f74:	681d      	ldr	r5, [r3, #0]
     HAL_Delay(ETH_REG_WRITE_DELAY);
 8002f76:	2001      	movs	r0, #1
 8002f78:	f7ff ff02 	bl	8002d80 <HAL_Delay>
     (heth->Instance)->DMABMR = tmpreg;
 8002f7c:	6823      	ldr	r3, [r4, #0]
 8002f7e:	f503 5380 	add.w	r3, r3, #4096	; 0x1000
 8002f82:	601d      	str	r5, [r3, #0]
     if((heth->Init).RxMode == ETH_RXINTERRUPT_MODE)
 8002f84:	69a3      	ldr	r3, [r4, #24]
 8002f86:	2b01      	cmp	r3, #1
 8002f88:	d009      	beq.n	8002f9e <ETH_MACDMAConfig+0xf2>
     ETH_MACAddressConfig(heth, ETH_MAC_ADDRESS0, heth->Init.MACAddr);
 8002f8a:	6962      	ldr	r2, [r4, #20]
 8002f8c:	2100      	movs	r1, #0
 8002f8e:	4620      	mov	r0, r4
 8002f90:	f7ff ff64 	bl	8002e5c <ETH_MACAddressConfig>
}
 8002f94:	b01e      	add	sp, #120	; 0x78
 8002f96:	bd70      	pop	{r4, r5, r6, pc}
    macinit.ChecksumOffload = ETH_CHECKSUMOFFLAOD_DISABLE;
 8002f98:	2300      	movs	r3, #0
 8002f9a:	9307      	str	r3, [sp, #28]
 8002f9c:	e796      	b.n	8002ecc <ETH_MACDMAConfig+0x20>
       __HAL_ETH_DMA_ENABLE_IT((heth), ETH_DMA_IT_NIS | ETH_DMA_IT_R);
 8002f9e:	6821      	ldr	r1, [r4, #0]
 8002fa0:	f241 021c 	movw	r2, #4124	; 0x101c
 8002fa4:	5888      	ldr	r0, [r1, r2]
 8002fa6:	4b06      	ldr	r3, [pc, #24]	; (8002fc0 <ETH_MACDMAConfig+0x114>)
 8002fa8:	4303      	orrs	r3, r0
 8002faa:	508b      	str	r3, [r1, r2]
 8002fac:	e7ed      	b.n	8002f8a <ETH_MACDMAConfig+0xde>
 8002fae:	bf00      	nop
 8002fb0:	ff20810f 	.word	0xff20810f
 8002fb4:	f8de3f23 	.word	0xf8de3f23
 8002fb8:	02200004 	.word	0x02200004
 8002fbc:	02c12080 	.word	0x02c12080
 8002fc0:	00010040 	.word	0x00010040

08002fc4 <ETH_MACTransmissionEnable>:
{ 
 8002fc4:	b510      	push	{r4, lr}
 8002fc6:	b082      	sub	sp, #8
 8002fc8:	4604      	mov	r4, r0
  __IO uint32_t tmpreg = 0;
 8002fca:	2300      	movs	r3, #0
 8002fcc:	9301      	str	r3, [sp, #4]
  (heth->Instance)->MACCR |= ETH_MACCR_TE;
 8002fce:	6802      	ldr	r2, [r0, #0]
 8002fd0:	6813      	ldr	r3, [r2, #0]
 8002fd2:	f043 0308 	orr.w	r3, r3, #8
 8002fd6:	6013      	str	r3, [r2, #0]
  tmpreg = (heth->Instance)->MACCR;
 8002fd8:	6803      	ldr	r3, [r0, #0]
 8002fda:	681b      	ldr	r3, [r3, #0]
 8002fdc:	9301      	str	r3, [sp, #4]
  HAL_Delay(ETH_REG_WRITE_DELAY);
 8002fde:	2001      	movs	r0, #1
 8002fe0:	f7ff fece 	bl	8002d80 <HAL_Delay>
  (heth->Instance)->MACCR = tmpreg;
 8002fe4:	6823      	ldr	r3, [r4, #0]
 8002fe6:	9a01      	ldr	r2, [sp, #4]
 8002fe8:	601a      	str	r2, [r3, #0]
}
 8002fea:	b002      	add	sp, #8
 8002fec:	bd10      	pop	{r4, pc}

08002fee <ETH_MACReceptionEnable>:
{ 
 8002fee:	b510      	push	{r4, lr}
 8002ff0:	b082      	sub	sp, #8
 8002ff2:	4604      	mov	r4, r0
  __IO uint32_t tmpreg = 0;
 8002ff4:	2300      	movs	r3, #0
 8002ff6:	9301      	str	r3, [sp, #4]
  (heth->Instance)->MACCR |= ETH_MACCR_RE;
 8002ff8:	6802      	ldr	r2, [r0, #0]
 8002ffa:	6813      	ldr	r3, [r2, #0]
 8002ffc:	f043 0304 	orr.w	r3, r3, #4
 8003000:	6013      	str	r3, [r2, #0]
  tmpreg = (heth->Instance)->MACCR;
 8003002:	6803      	ldr	r3, [r0, #0]
 8003004:	681b      	ldr	r3, [r3, #0]
 8003006:	9301      	str	r3, [sp, #4]
  HAL_Delay(ETH_REG_WRITE_DELAY);
 8003008:	2001      	movs	r0, #1
 800300a:	f7ff feb9 	bl	8002d80 <HAL_Delay>
  (heth->Instance)->MACCR = tmpreg;
 800300e:	6823      	ldr	r3, [r4, #0]
 8003010:	9a01      	ldr	r2, [sp, #4]
 8003012:	601a      	str	r2, [r3, #0]
}
 8003014:	b002      	add	sp, #8
 8003016:	bd10      	pop	{r4, pc}

08003018 <ETH_FlushTransmitFIFO>:
  * @param  heth pointer to a ETH_HandleTypeDef structure that contains
  *         the configuration information for ETHERNET module
  * @retval None
  */
static void ETH_FlushTransmitFIFO(ETH_HandleTypeDef *heth)
{
 8003018:	b530      	push	{r4, r5, lr}
 800301a:	b083      	sub	sp, #12
 800301c:	4605      	mov	r5, r0
  __IO uint32_t tmpreg = 0;
 800301e:	2300      	movs	r3, #0
 8003020:	9301      	str	r3, [sp, #4]
  
  /* Set the Flush Transmit FIFO bit */
  (heth->Instance)->DMAOMR |= ETH_DMAOMR_FTF;
 8003022:	6802      	ldr	r2, [r0, #0]
 8003024:	f241 0418 	movw	r4, #4120	; 0x1018
 8003028:	5913      	ldr	r3, [r2, r4]
 800302a:	f443 1380 	orr.w	r3, r3, #1048576	; 0x100000
 800302e:	5113      	str	r3, [r2, r4]
  
  /* Wait until the write operation will be taken into account:
     at least four TX_CLK/RX_CLK clock cycles */
  tmpreg = (heth->Instance)->DMAOMR;
 8003030:	6803      	ldr	r3, [r0, #0]
 8003032:	591b      	ldr	r3, [r3, r4]
 8003034:	9301      	str	r3, [sp, #4]
  HAL_Delay(ETH_REG_WRITE_DELAY);
 8003036:	2001      	movs	r0, #1
 8003038:	f7ff fea2 	bl	8002d80 <HAL_Delay>
  (heth->Instance)->DMAOMR = tmpreg;
 800303c:	682b      	ldr	r3, [r5, #0]
 800303e:	9a01      	ldr	r2, [sp, #4]
 8003040:	511a      	str	r2, [r3, r4]
}
 8003042:	b003      	add	sp, #12
 8003044:	bd30      	pop	{r4, r5, pc}

08003046 <HAL_ETH_DMATxDescListInit>:
{
 8003046:	b4f0      	push	{r4, r5, r6, r7}
  __HAL_LOCK(heth);
 8003048:	f890 4045 	ldrb.w	r4, [r0, #69]	; 0x45
 800304c:	2c01      	cmp	r4, #1
 800304e:	d031      	beq.n	80030b4 <HAL_ETH_DMATxDescListInit+0x6e>
 8003050:	2401      	movs	r4, #1
 8003052:	f880 4045 	strb.w	r4, [r0, #69]	; 0x45
  heth->State = HAL_ETH_STATE_BUSY;
 8003056:	2402      	movs	r4, #2
 8003058:	f880 4044 	strb.w	r4, [r0, #68]	; 0x44
  heth->TxDesc = DMATxDescTab;
 800305c:	62c1      	str	r1, [r0, #44]	; 0x2c
  for(i=0; i < TxBuffCount; i++)
 800305e:	2400      	movs	r4, #0
 8003060:	e001      	b.n	8003066 <HAL_ETH_DMATxDescListInit+0x20>
      dmatxdesc->Buffer2NextDescAddr = (uint32_t) DMATxDescTab;  
 8003062:	60f9      	str	r1, [r7, #12]
  for(i=0; i < TxBuffCount; i++)
 8003064:	3401      	adds	r4, #1
 8003066:	429c      	cmp	r4, r3
 8003068:	d217      	bcs.n	800309a <HAL_ETH_DMATxDescListInit+0x54>
    dmatxdesc = DMATxDescTab + i;
 800306a:	0165      	lsls	r5, r4, #5
 800306c:	194f      	adds	r7, r1, r5
    dmatxdesc->Status = ETH_DMATXDESC_TCH;  
 800306e:	f44f 1680 	mov.w	r6, #1048576	; 0x100000
 8003072:	514e      	str	r6, [r1, r5]
    dmatxdesc->Buffer1Addr = (uint32_t)(&TxBuff[i*ETH_TX_BUF_SIZE]);
 8003074:	f240 56f4 	movw	r6, #1524	; 0x5f4
 8003078:	fb06 2604 	mla	r6, r6, r4, r2
 800307c:	60be      	str	r6, [r7, #8]
    if ((heth->Init).ChecksumMode == ETH_CHECKSUM_BY_HARDWARE)
 800307e:	69c6      	ldr	r6, [r0, #28]
 8003080:	b91e      	cbnz	r6, 800308a <HAL_ETH_DMATxDescListInit+0x44>
      dmatxdesc->Status |= ETH_DMATXDESC_CHECKSUMTCPUDPICMPFULL;
 8003082:	594e      	ldr	r6, [r1, r5]
 8003084:	f446 0640 	orr.w	r6, r6, #12582912	; 0xc00000
 8003088:	514e      	str	r6, [r1, r5]
    if(i < (TxBuffCount-1))
 800308a:	1e5d      	subs	r5, r3, #1
 800308c:	42a5      	cmp	r5, r4
 800308e:	d9e8      	bls.n	8003062 <HAL_ETH_DMATxDescListInit+0x1c>
      dmatxdesc->Buffer2NextDescAddr = (uint32_t)(DMATxDescTab+i+1);
 8003090:	1c65      	adds	r5, r4, #1
 8003092:	eb01 1545 	add.w	r5, r1, r5, lsl #5
 8003096:	60fd      	str	r5, [r7, #12]
 8003098:	e7e4      	b.n	8003064 <HAL_ETH_DMATxDescListInit+0x1e>
  (heth->Instance)->DMATDLAR = (uint32_t) DMATxDescTab;
 800309a:	6802      	ldr	r2, [r0, #0]
 800309c:	f241 0310 	movw	r3, #4112	; 0x1010
 80030a0:	50d1      	str	r1, [r2, r3]
  heth->State= HAL_ETH_STATE_READY;
 80030a2:	2301      	movs	r3, #1
 80030a4:	f880 3044 	strb.w	r3, [r0, #68]	; 0x44
  __HAL_UNLOCK(heth);
 80030a8:	2300      	movs	r3, #0
 80030aa:	f880 3045 	strb.w	r3, [r0, #69]	; 0x45
  return HAL_OK;
 80030ae:	4618      	mov	r0, r3
}
 80030b0:	bcf0      	pop	{r4, r5, r6, r7}
 80030b2:	4770      	bx	lr
  __HAL_LOCK(heth);
 80030b4:	2002      	movs	r0, #2
 80030b6:	e7fb      	b.n	80030b0 <HAL_ETH_DMATxDescListInit+0x6a>

080030b8 <HAL_ETH_DMARxDescListInit>:
{
 80030b8:	b4f0      	push	{r4, r5, r6, r7}
  __HAL_LOCK(heth);
 80030ba:	f890 4045 	ldrb.w	r4, [r0, #69]	; 0x45
 80030be:	2c01      	cmp	r4, #1
 80030c0:	d02e      	beq.n	8003120 <HAL_ETH_DMARxDescListInit+0x68>
 80030c2:	2401      	movs	r4, #1
 80030c4:	f880 4045 	strb.w	r4, [r0, #69]	; 0x45
  heth->State = HAL_ETH_STATE_BUSY;
 80030c8:	2402      	movs	r4, #2
 80030ca:	f880 4044 	strb.w	r4, [r0, #68]	; 0x44
  heth->RxDesc = DMARxDescTab; 
 80030ce:	6281      	str	r1, [r0, #40]	; 0x28
  for(i=0; i < RxBuffCount; i++)
 80030d0:	2400      	movs	r4, #0
 80030d2:	e001      	b.n	80030d8 <HAL_ETH_DMARxDescListInit+0x20>
      DMARxDesc->Buffer2NextDescAddr = (uint32_t)(DMARxDescTab); 
 80030d4:	60e9      	str	r1, [r5, #12]
  for(i=0; i < RxBuffCount; i++)
 80030d6:	3401      	adds	r4, #1
 80030d8:	429c      	cmp	r4, r3
 80030da:	d214      	bcs.n	8003106 <HAL_ETH_DMARxDescListInit+0x4e>
    DMARxDesc = DMARxDescTab+i;
 80030dc:	0166      	lsls	r6, r4, #5
 80030de:	198d      	adds	r5, r1, r6
    DMARxDesc->Status = ETH_DMARXDESC_OWN;
 80030e0:	f04f 4700 	mov.w	r7, #2147483648	; 0x80000000
 80030e4:	518f      	str	r7, [r1, r6]
    DMARxDesc->ControlBufferSize = ETH_DMARXDESC_RCH | ETH_RX_BUF_SIZE;  
 80030e6:	f244 56f4 	movw	r6, #17908	; 0x45f4
 80030ea:	606e      	str	r6, [r5, #4]
    DMARxDesc->Buffer1Addr = (uint32_t)(&RxBuff[i*ETH_RX_BUF_SIZE]);
 80030ec:	f240 56f4 	movw	r6, #1524	; 0x5f4
 80030f0:	fb06 2604 	mla	r6, r6, r4, r2
 80030f4:	60ae      	str	r6, [r5, #8]
    if(i < (RxBuffCount-1))
 80030f6:	1e5e      	subs	r6, r3, #1
 80030f8:	42a6      	cmp	r6, r4
 80030fa:	d9eb      	bls.n	80030d4 <HAL_ETH_DMARxDescListInit+0x1c>
      DMARxDesc->Buffer2NextDescAddr = (uint32_t)(DMARxDescTab+i+1); 
 80030fc:	1c66      	adds	r6, r4, #1
 80030fe:	eb01 1646 	add.w	r6, r1, r6, lsl #5
 8003102:	60ee      	str	r6, [r5, #12]
 8003104:	e7e7      	b.n	80030d6 <HAL_ETH_DMARxDescListInit+0x1e>
  (heth->Instance)->DMARDLAR = (uint32_t) DMARxDescTab;
 8003106:	6802      	ldr	r2, [r0, #0]
 8003108:	f241 030c 	movw	r3, #4108	; 0x100c
 800310c:	50d1      	str	r1, [r2, r3]
  heth->State= HAL_ETH_STATE_READY;
 800310e:	2301      	movs	r3, #1
 8003110:	f880 3044 	strb.w	r3, [r0, #68]	; 0x44
  __HAL_UNLOCK(heth);
 8003114:	2300      	movs	r3, #0
 8003116:	f880 3045 	strb.w	r3, [r0, #69]	; 0x45
  return HAL_OK;
 800311a:	4618      	mov	r0, r3
}
 800311c:	bcf0      	pop	{r4, r5, r6, r7}
 800311e:	4770      	bx	lr
  __HAL_LOCK(heth);
 8003120:	2002      	movs	r0, #2
 8003122:	e7fb      	b.n	800311c <HAL_ETH_DMARxDescListInit+0x64>

08003124 <HAL_ETH_TransmitFrame>:
  __HAL_LOCK(heth);
 8003124:	f890 3045 	ldrb.w	r3, [r0, #69]	; 0x45
 8003128:	2b01      	cmp	r3, #1
 800312a:	f000 8085 	beq.w	8003238 <HAL_ETH_TransmitFrame+0x114>
 800312e:	2301      	movs	r3, #1
 8003130:	f880 3045 	strb.w	r3, [r0, #69]	; 0x45
  heth->State = HAL_ETH_STATE_BUSY;
 8003134:	2302      	movs	r3, #2
 8003136:	f880 3044 	strb.w	r3, [r0, #68]	; 0x44
  if (FrameLength == 0) 
 800313a:	b1b1      	cbz	r1, 800316a <HAL_ETH_TransmitFrame+0x46>
  if(((heth->TxDesc)->Status & ETH_DMATXDESC_OWN) != (uint32_t)RESET)
 800313c:	6ac3      	ldr	r3, [r0, #44]	; 0x2c
 800313e:	681a      	ldr	r2, [r3, #0]
 8003140:	2a00      	cmp	r2, #0
 8003142:	db1a      	blt.n	800317a <HAL_ETH_TransmitFrame+0x56>
{
 8003144:	b430      	push	{r4, r5}
  if (FrameLength > ETH_TX_BUF_SIZE)
 8003146:	f240 52f4 	movw	r2, #1524	; 0x5f4
 800314a:	4291      	cmp	r1, r2
 800314c:	d91d      	bls.n	800318a <HAL_ETH_TransmitFrame+0x66>
    bufcount = FrameLength/ETH_TX_BUF_SIZE;
 800314e:	4a3b      	ldr	r2, [pc, #236]	; (800323c <HAL_ETH_TransmitFrame+0x118>)
 8003150:	fba2 4201 	umull	r4, r2, r2, r1
 8003154:	0a92      	lsrs	r2, r2, #10
    if (FrameLength % ETH_TX_BUF_SIZE) 
 8003156:	f240 54f4 	movw	r4, #1524	; 0x5f4
 800315a:	fb04 1412 	mls	r4, r4, r2, r1
 800315e:	b104      	cbz	r4, 8003162 <HAL_ETH_TransmitFrame+0x3e>
      bufcount++;
 8003160:	3201      	adds	r2, #1
  if (bufcount == 1)
 8003162:	2a01      	cmp	r2, #1
 8003164:	d011      	beq.n	800318a <HAL_ETH_TransmitFrame+0x66>
    for (i=0; i< bufcount; i++)
 8003166:	2300      	movs	r3, #0
 8003168:	e047      	b.n	80031fa <HAL_ETH_TransmitFrame+0xd6>
    heth->State = HAL_ETH_STATE_READY;
 800316a:	2301      	movs	r3, #1
 800316c:	f880 3044 	strb.w	r3, [r0, #68]	; 0x44
    __HAL_UNLOCK(heth);
 8003170:	2200      	movs	r2, #0
 8003172:	f880 2045 	strb.w	r2, [r0, #69]	; 0x45
    return  HAL_ERROR;                                    
 8003176:	4618      	mov	r0, r3
 8003178:	4770      	bx	lr
    heth->State = HAL_ETH_STATE_BUSY_TX;
 800317a:	2312      	movs	r3, #18
 800317c:	f880 3044 	strb.w	r3, [r0, #68]	; 0x44
    __HAL_UNLOCK(heth);
 8003180:	2300      	movs	r3, #0
 8003182:	f880 3045 	strb.w	r3, [r0, #69]	; 0x45
    return HAL_ERROR;
 8003186:	2001      	movs	r0, #1
 8003188:	4770      	bx	lr
    heth->TxDesc->Status |=ETH_DMATXDESC_FS|ETH_DMATXDESC_LS;
 800318a:	681a      	ldr	r2, [r3, #0]
 800318c:	f042 5240 	orr.w	r2, r2, #805306368	; 0x30000000
 8003190:	601a      	str	r2, [r3, #0]
    heth->TxDesc->ControlBufferSize = (FrameLength & ETH_DMATXDESC_TBS1);
 8003192:	6ac3      	ldr	r3, [r0, #44]	; 0x2c
 8003194:	f3c1 010c 	ubfx	r1, r1, #0, #13
 8003198:	6059      	str	r1, [r3, #4]
    heth->TxDesc->Status |= ETH_DMATXDESC_OWN;
 800319a:	6ac2      	ldr	r2, [r0, #44]	; 0x2c
 800319c:	6813      	ldr	r3, [r2, #0]
 800319e:	f043 4300 	orr.w	r3, r3, #2147483648	; 0x80000000
 80031a2:	6013      	str	r3, [r2, #0]
    heth->TxDesc= (ETH_DMADescTypeDef *)(heth->TxDesc->Buffer2NextDescAddr);
 80031a4:	6ac3      	ldr	r3, [r0, #44]	; 0x2c
 80031a6:	68db      	ldr	r3, [r3, #12]
 80031a8:	62c3      	str	r3, [r0, #44]	; 0x2c
  if (((heth->Instance)->DMASR & ETH_DMASR_TBUS) != (uint32_t)RESET)
 80031aa:	6803      	ldr	r3, [r0, #0]
 80031ac:	f241 0214 	movw	r2, #4116	; 0x1014
 80031b0:	589a      	ldr	r2, [r3, r2]
 80031b2:	f012 0f04 	tst.w	r2, #4
 80031b6:	d008      	beq.n	80031ca <HAL_ETH_TransmitFrame+0xa6>
    (heth->Instance)->DMASR = ETH_DMASR_TBUS;
 80031b8:	f241 0214 	movw	r2, #4116	; 0x1014
 80031bc:	2104      	movs	r1, #4
 80031be:	5099      	str	r1, [r3, r2]
    (heth->Instance)->DMATPDR = 0;
 80031c0:	6802      	ldr	r2, [r0, #0]
 80031c2:	f241 0304 	movw	r3, #4100	; 0x1004
 80031c6:	2100      	movs	r1, #0
 80031c8:	50d1      	str	r1, [r2, r3]
  heth->State = HAL_ETH_STATE_READY;
 80031ca:	2301      	movs	r3, #1
 80031cc:	f880 3044 	strb.w	r3, [r0, #68]	; 0x44
  __HAL_UNLOCK(heth);
 80031d0:	2300      	movs	r3, #0
 80031d2:	f880 3045 	strb.w	r3, [r0, #69]	; 0x45
  return HAL_OK;
 80031d6:	4618      	mov	r0, r3
}
 80031d8:	bc30      	pop	{r4, r5}
 80031da:	4770      	bx	lr
        heth->TxDesc->Status |= ETH_DMATXDESC_FS;  
 80031dc:	6ac5      	ldr	r5, [r0, #44]	; 0x2c
 80031de:	682c      	ldr	r4, [r5, #0]
 80031e0:	f044 5480 	orr.w	r4, r4, #268435456	; 0x10000000
 80031e4:	602c      	str	r4, [r5, #0]
 80031e6:	e011      	b.n	800320c <HAL_ETH_TransmitFrame+0xe8>
      heth->TxDesc->Status |= ETH_DMATXDESC_OWN;
 80031e8:	6ac5      	ldr	r5, [r0, #44]	; 0x2c
 80031ea:	682c      	ldr	r4, [r5, #0]
 80031ec:	f044 4400 	orr.w	r4, r4, #2147483648	; 0x80000000
 80031f0:	602c      	str	r4, [r5, #0]
      heth->TxDesc = (ETH_DMADescTypeDef *)(heth->TxDesc->Buffer2NextDescAddr);
 80031f2:	6ac4      	ldr	r4, [r0, #44]	; 0x2c
 80031f4:	68e4      	ldr	r4, [r4, #12]
 80031f6:	62c4      	str	r4, [r0, #44]	; 0x2c
    for (i=0; i< bufcount; i++)
 80031f8:	3301      	adds	r3, #1
 80031fa:	429a      	cmp	r2, r3
 80031fc:	d9d5      	bls.n	80031aa <HAL_ETH_TransmitFrame+0x86>
      heth->TxDesc->Status &= ~(ETH_DMATXDESC_FS | ETH_DMATXDESC_LS);
 80031fe:	6ac5      	ldr	r5, [r0, #44]	; 0x2c
 8003200:	682c      	ldr	r4, [r5, #0]
 8003202:	f024 5440 	bic.w	r4, r4, #805306368	; 0x30000000
 8003206:	602c      	str	r4, [r5, #0]
      if (i == 0) 
 8003208:	2b00      	cmp	r3, #0
 800320a:	d0e7      	beq.n	80031dc <HAL_ETH_TransmitFrame+0xb8>
      heth->TxDesc->ControlBufferSize = (ETH_TX_BUF_SIZE & ETH_DMATXDESC_TBS1);
 800320c:	6ac4      	ldr	r4, [r0, #44]	; 0x2c
 800320e:	f240 55f4 	movw	r5, #1524	; 0x5f4
 8003212:	6065      	str	r5, [r4, #4]
      if (i == (bufcount-1))
 8003214:	1e54      	subs	r4, r2, #1
 8003216:	429c      	cmp	r4, r3
 8003218:	d1e6      	bne.n	80031e8 <HAL_ETH_TransmitFrame+0xc4>
        heth->TxDesc->Status |= ETH_DMATXDESC_LS;
 800321a:	6ac5      	ldr	r5, [r0, #44]	; 0x2c
 800321c:	682c      	ldr	r4, [r5, #0]
 800321e:	f044 5400 	orr.w	r4, r4, #536870912	; 0x20000000
 8003222:	602c      	str	r4, [r5, #0]
        size = FrameLength - (bufcount-1)*ETH_TX_BUF_SIZE;
 8003224:	4c06      	ldr	r4, [pc, #24]	; (8003240 <HAL_ETH_TransmitFrame+0x11c>)
 8003226:	fb04 1402 	mla	r4, r4, r2, r1
 800322a:	f204 54f4 	addw	r4, r4, #1524	; 0x5f4
        heth->TxDesc->ControlBufferSize = (size & ETH_DMATXDESC_TBS1);
 800322e:	6ac5      	ldr	r5, [r0, #44]	; 0x2c
 8003230:	f3c4 040c 	ubfx	r4, r4, #0, #13
 8003234:	606c      	str	r4, [r5, #4]
 8003236:	e7d7      	b.n	80031e8 <HAL_ETH_TransmitFrame+0xc4>
  __HAL_LOCK(heth);
 8003238:	2002      	movs	r0, #2
}
 800323a:	4770      	bx	lr
 800323c:	ac02b00b 	.word	0xac02b00b
 8003240:	fffffa0c 	.word	0xfffffa0c

08003244 <HAL_ETH_GetReceivedFrame>:
  __HAL_LOCK(heth);
 8003244:	f890 3045 	ldrb.w	r3, [r0, #69]	; 0x45
 8003248:	2b01      	cmp	r3, #1
 800324a:	d040      	beq.n	80032ce <HAL_ETH_GetReceivedFrame+0x8a>
 800324c:	2301      	movs	r3, #1
 800324e:	f880 3045 	strb.w	r3, [r0, #69]	; 0x45
  heth->State = HAL_ETH_STATE_BUSY;
 8003252:	2302      	movs	r3, #2
 8003254:	f880 3044 	strb.w	r3, [r0, #68]	; 0x44
  if(((heth->RxDesc->Status & ETH_DMARXDESC_OWN) == (uint32_t)RESET))
 8003258:	6a83      	ldr	r3, [r0, #40]	; 0x28
 800325a:	681a      	ldr	r2, [r3, #0]
 800325c:	2a00      	cmp	r2, #0
 800325e:	db28      	blt.n	80032b2 <HAL_ETH_GetReceivedFrame+0x6e>
    if(((heth->RxDesc->Status & ETH_DMARXDESC_LS) != (uint32_t)RESET)) 
 8003260:	681a      	ldr	r2, [r3, #0]
 8003262:	f412 7f80 	tst.w	r2, #256	; 0x100
 8003266:	d019      	beq.n	800329c <HAL_ETH_GetReceivedFrame+0x58>
      (heth->RxFrameInfos).SegCount++;
 8003268:	6b82      	ldr	r2, [r0, #56]	; 0x38
 800326a:	3201      	adds	r2, #1
 800326c:	6382      	str	r2, [r0, #56]	; 0x38
      if ((heth->RxFrameInfos).SegCount == 1)
 800326e:	2a01      	cmp	r2, #1
 8003270:	d012      	beq.n	8003298 <HAL_ETH_GetReceivedFrame+0x54>
      heth->RxFrameInfos.LSRxDesc = heth->RxDesc;
 8003272:	6343      	str	r3, [r0, #52]	; 0x34
      framelength = (((heth->RxDesc)->Status & ETH_DMARXDESC_FL) >> ETH_DMARXDESC_FRAMELENGTHSHIFT) - 4;
 8003274:	681a      	ldr	r2, [r3, #0]
 8003276:	f3c2 420d 	ubfx	r2, r2, #16, #14
 800327a:	3a04      	subs	r2, #4
      heth->RxFrameInfos.length = framelength;
 800327c:	63c2      	str	r2, [r0, #60]	; 0x3c
      heth->RxFrameInfos.buffer = ((heth->RxFrameInfos).FSRxDesc)->Buffer1Addr;
 800327e:	6b02      	ldr	r2, [r0, #48]	; 0x30
 8003280:	6892      	ldr	r2, [r2, #8]
 8003282:	6402      	str	r2, [r0, #64]	; 0x40
      heth->RxDesc = (ETH_DMADescTypeDef*) ((heth->RxDesc)->Buffer2NextDescAddr);
 8003284:	68db      	ldr	r3, [r3, #12]
 8003286:	6283      	str	r3, [r0, #40]	; 0x28
      heth->State = HAL_ETH_STATE_READY;
 8003288:	2301      	movs	r3, #1
 800328a:	f880 3044 	strb.w	r3, [r0, #68]	; 0x44
      __HAL_UNLOCK(heth);
 800328e:	2300      	movs	r3, #0
 8003290:	f880 3045 	strb.w	r3, [r0, #69]	; 0x45
      return HAL_OK;
 8003294:	4618      	mov	r0, r3
 8003296:	4770      	bx	lr
        (heth->RxFrameInfos).FSRxDesc =heth->RxDesc;
 8003298:	6303      	str	r3, [r0, #48]	; 0x30
 800329a:	e7ea      	b.n	8003272 <HAL_ETH_GetReceivedFrame+0x2e>
    else if((heth->RxDesc->Status & ETH_DMARXDESC_FS) != (uint32_t)RESET)
 800329c:	681a      	ldr	r2, [r3, #0]
 800329e:	f412 7f00 	tst.w	r2, #512	; 0x200
 80032a2:	d00e      	beq.n	80032c2 <HAL_ETH_GetReceivedFrame+0x7e>
      (heth->RxFrameInfos).FSRxDesc = heth->RxDesc;
 80032a4:	6303      	str	r3, [r0, #48]	; 0x30
      (heth->RxFrameInfos).LSRxDesc = NULL;
 80032a6:	2200      	movs	r2, #0
 80032a8:	6342      	str	r2, [r0, #52]	; 0x34
      (heth->RxFrameInfos).SegCount = 1;
 80032aa:	2201      	movs	r2, #1
 80032ac:	6382      	str	r2, [r0, #56]	; 0x38
      heth->RxDesc = (ETH_DMADescTypeDef*) (heth->RxDesc->Buffer2NextDescAddr);
 80032ae:	68db      	ldr	r3, [r3, #12]
 80032b0:	6283      	str	r3, [r0, #40]	; 0x28
  heth->State = HAL_ETH_STATE_READY;
 80032b2:	2301      	movs	r3, #1
 80032b4:	f880 3044 	strb.w	r3, [r0, #68]	; 0x44
  __HAL_UNLOCK(heth);
 80032b8:	2200      	movs	r2, #0
 80032ba:	f880 2045 	strb.w	r2, [r0, #69]	; 0x45
  return HAL_ERROR;
 80032be:	4618      	mov	r0, r3
 80032c0:	4770      	bx	lr
      (heth->RxFrameInfos).SegCount++;
 80032c2:	6b82      	ldr	r2, [r0, #56]	; 0x38
 80032c4:	3201      	adds	r2, #1
 80032c6:	6382      	str	r2, [r0, #56]	; 0x38
      heth->RxDesc = (ETH_DMADescTypeDef*) (heth->RxDesc->Buffer2NextDescAddr);
 80032c8:	68db      	ldr	r3, [r3, #12]
 80032ca:	6283      	str	r3, [r0, #40]	; 0x28
 80032cc:	e7f1      	b.n	80032b2 <HAL_ETH_GetReceivedFrame+0x6e>
  __HAL_LOCK(heth);
 80032ce:	2002      	movs	r0, #2
}
 80032d0:	4770      	bx	lr

080032d2 <HAL_ETH_ReadPHYRegister>:
{
 80032d2:	b5f8      	push	{r3, r4, r5, r6, r7, lr}
  if(heth->State == HAL_ETH_STATE_BUSY_RD)
 80032d4:	f890 3044 	ldrb.w	r3, [r0, #68]	; 0x44
 80032d8:	b2db      	uxtb	r3, r3
 80032da:	2b82      	cmp	r3, #130	; 0x82
 80032dc:	d033      	beq.n	8003346 <HAL_ETH_ReadPHYRegister+0x74>
 80032de:	4616      	mov	r6, r2
 80032e0:	4605      	mov	r5, r0
  heth->State = HAL_ETH_STATE_BUSY_RD;
 80032e2:	2382      	movs	r3, #130	; 0x82
 80032e4:	f880 3044 	strb.w	r3, [r0, #68]	; 0x44
  tmpreg = heth->Instance->MACMIIAR;
 80032e8:	6802      	ldr	r2, [r0, #0]
 80032ea:	6913      	ldr	r3, [r2, #16]
  tmpreg &= ~ETH_MACMIIAR_CR_MASK;
 80032ec:	f003 031c 	and.w	r3, r3, #28
  tmpreg |=(((uint32_t)heth->Init.PhyAddress << 11) & ETH_MACMIIAR_PA); /* Set the PHY device address   */
 80032f0:	8a04      	ldrh	r4, [r0, #16]
 80032f2:	02e4      	lsls	r4, r4, #11
 80032f4:	b2a4      	uxth	r4, r4
 80032f6:	4323      	orrs	r3, r4
  tmpreg |=(((uint32_t)PHYReg<<6) & ETH_MACMIIAR_MR);                   /* Set the PHY register address */
 80032f8:	018c      	lsls	r4, r1, #6
 80032fa:	f404 64f8 	and.w	r4, r4, #1984	; 0x7c0
  tmpreg &= ~ETH_MACMIIAR_MW;                                           /* Set the read mode            */
 80032fe:	431c      	orrs	r4, r3
  tmpreg |= ETH_MACMIIAR_MB;                                            /* Set the MII Busy bit         */
 8003300:	f044 0401 	orr.w	r4, r4, #1
  heth->Instance->MACMIIAR = tmpreg;
 8003304:	6114      	str	r4, [r2, #16]
  tickstart = HAL_GetTick();
 8003306:	f7fd fb67 	bl	80009d8 <HAL_GetTick>
 800330a:	4607      	mov	r7, r0
  while((tmpreg & ETH_MACMIIAR_MB) == ETH_MACMIIAR_MB)
 800330c:	f014 0f01 	tst.w	r4, #1
 8003310:	d010      	beq.n	8003334 <HAL_ETH_ReadPHYRegister+0x62>
    if((HAL_GetTick() - tickstart ) > PHY_READ_TO)
 8003312:	f7fd fb61 	bl	80009d8 <HAL_GetTick>
 8003316:	1bc0      	subs	r0, r0, r7
 8003318:	f5b0 3f80 	cmp.w	r0, #65536	; 0x10000
 800331c:	d202      	bcs.n	8003324 <HAL_ETH_ReadPHYRegister+0x52>
    tmpreg = heth->Instance->MACMIIAR;
 800331e:	682b      	ldr	r3, [r5, #0]
 8003320:	691c      	ldr	r4, [r3, #16]
 8003322:	e7f3      	b.n	800330c <HAL_ETH_ReadPHYRegister+0x3a>
      heth->State= HAL_ETH_STATE_READY;
 8003324:	2301      	movs	r3, #1
 8003326:	f885 3044 	strb.w	r3, [r5, #68]	; 0x44
      __HAL_UNLOCK(heth);
 800332a:	2300      	movs	r3, #0
 800332c:	f885 3045 	strb.w	r3, [r5, #69]	; 0x45
      return HAL_TIMEOUT;
 8003330:	2003      	movs	r0, #3
 8003332:	e007      	b.n	8003344 <HAL_ETH_ReadPHYRegister+0x72>
  *RegValue = (uint16_t)(heth->Instance->MACMIIDR);
 8003334:	682b      	ldr	r3, [r5, #0]
 8003336:	695b      	ldr	r3, [r3, #20]
 8003338:	b29b      	uxth	r3, r3
 800333a:	6033      	str	r3, [r6, #0]
  heth->State = HAL_ETH_STATE_READY;
 800333c:	2301      	movs	r3, #1
 800333e:	f885 3044 	strb.w	r3, [r5, #68]	; 0x44
  return HAL_OK;
 8003342:	2000      	movs	r0, #0
}
 8003344:	bdf8      	pop	{r3, r4, r5, r6, r7, pc}
    return HAL_BUSY;
 8003346:	2002      	movs	r0, #2
 8003348:	e7fc      	b.n	8003344 <HAL_ETH_ReadPHYRegister+0x72>

0800334a <HAL_ETH_WritePHYRegister>:
  if(heth->State == HAL_ETH_STATE_BUSY_WR)
 800334a:	f890 3044 	ldrb.w	r3, [r0, #68]	; 0x44
 800334e:	b2db      	uxtb	r3, r3
 8003350:	2b42      	cmp	r3, #66	; 0x42
 8003352:	d032      	beq.n	80033ba <HAL_ETH_WritePHYRegister+0x70>
{
 8003354:	b570      	push	{r4, r5, r6, lr}
 8003356:	4605      	mov	r5, r0
  heth->State = HAL_ETH_STATE_BUSY_WR;
 8003358:	2342      	movs	r3, #66	; 0x42
 800335a:	f880 3044 	strb.w	r3, [r0, #68]	; 0x44
  tmpreg = heth->Instance->MACMIIAR;
 800335e:	6800      	ldr	r0, [r0, #0]
 8003360:	6903      	ldr	r3, [r0, #16]
  tmpreg &= ~ETH_MACMIIAR_CR_MASK;
 8003362:	f003 031c 	and.w	r3, r3, #28
  tmpreg |=(((uint32_t)heth->Init.PhyAddress<<11) & ETH_MACMIIAR_PA); /* Set the PHY device address */
 8003366:	8a2c      	ldrh	r4, [r5, #16]
 8003368:	02e4      	lsls	r4, r4, #11
 800336a:	b2a4      	uxth	r4, r4
 800336c:	4323      	orrs	r3, r4
  tmpreg |=(((uint32_t)PHYReg<<6) & ETH_MACMIIAR_MR);                 /* Set the PHY register address */
 800336e:	018c      	lsls	r4, r1, #6
 8003370:	f404 64f8 	and.w	r4, r4, #1984	; 0x7c0
 8003374:	431c      	orrs	r4, r3
  tmpreg |= ETH_MACMIIAR_MB;                                          /* Set the MII Busy bit */
 8003376:	f044 0403 	orr.w	r4, r4, #3
 800337a:	b292      	uxth	r2, r2
  heth->Instance->MACMIIDR = (uint16_t)RegValue;
 800337c:	6142      	str	r2, [r0, #20]
  heth->Instance->MACMIIAR = tmpreg;
 800337e:	682b      	ldr	r3, [r5, #0]
 8003380:	611c      	str	r4, [r3, #16]
  tickstart = HAL_GetTick();
 8003382:	f7fd fb29 	bl	80009d8 <HAL_GetTick>
 8003386:	4606      	mov	r6, r0
  while((tmpreg & ETH_MACMIIAR_MB) == ETH_MACMIIAR_MB)
 8003388:	f014 0f01 	tst.w	r4, #1
 800338c:	d010      	beq.n	80033b0 <HAL_ETH_WritePHYRegister+0x66>
    if((HAL_GetTick() - tickstart ) > PHY_WRITE_TO)
 800338e:	f7fd fb23 	bl	80009d8 <HAL_GetTick>
 8003392:	1b80      	subs	r0, r0, r6
 8003394:	f5b0 3f80 	cmp.w	r0, #65536	; 0x10000
 8003398:	d202      	bcs.n	80033a0 <HAL_ETH_WritePHYRegister+0x56>
    tmpreg = heth->Instance->MACMIIAR;
 800339a:	682b      	ldr	r3, [r5, #0]
 800339c:	691c      	ldr	r4, [r3, #16]
 800339e:	e7f3      	b.n	8003388 <HAL_ETH_WritePHYRegister+0x3e>
      heth->State= HAL_ETH_STATE_READY;
 80033a0:	2301      	movs	r3, #1
 80033a2:	f885 3044 	strb.w	r3, [r5, #68]	; 0x44
      __HAL_UNLOCK(heth);
 80033a6:	2300      	movs	r3, #0
 80033a8:	f885 3045 	strb.w	r3, [r5, #69]	; 0x45
      return HAL_TIMEOUT;
 80033ac:	2003      	movs	r0, #3
 80033ae:	e003      	b.n	80033b8 <HAL_ETH_WritePHYRegister+0x6e>
  heth->State = HAL_ETH_STATE_READY;
 80033b0:	2301      	movs	r3, #1
 80033b2:	f885 3044 	strb.w	r3, [r5, #68]	; 0x44
  return HAL_OK; 
 80033b6:	2000      	movs	r0, #0
}
 80033b8:	bd70      	pop	{r4, r5, r6, pc}
    return HAL_BUSY;
 80033ba:	2002      	movs	r0, #2
}
 80033bc:	4770      	bx	lr
	...

080033c0 <HAL_ETH_Init>:
{
 80033c0:	b570      	push	{r4, r5, r6, lr}
 80033c2:	b082      	sub	sp, #8
  uint32_t tempreg = 0, phyreg = 0;
 80033c4:	2300      	movs	r3, #0
 80033c6:	9301      	str	r3, [sp, #4]
  if(heth == NULL)
 80033c8:	2800      	cmp	r0, #0
 80033ca:	f000 810c 	beq.w	80035e6 <HAL_ETH_Init+0x226>
 80033ce:	4604      	mov	r4, r0
  if(heth->State == HAL_ETH_STATE_RESET)
 80033d0:	f890 3044 	ldrb.w	r3, [r0, #68]	; 0x44
 80033d4:	2b00      	cmp	r3, #0
 80033d6:	d032      	beq.n	800343e <HAL_ETH_Init+0x7e>
  __HAL_RCC_SYSCFG_CLK_ENABLE();
 80033d8:	4b84      	ldr	r3, [pc, #528]	; (80035ec <HAL_ETH_Init+0x22c>)
 80033da:	6c5a      	ldr	r2, [r3, #68]	; 0x44
 80033dc:	f442 4280 	orr.w	r2, r2, #16384	; 0x4000
 80033e0:	645a      	str	r2, [r3, #68]	; 0x44
 80033e2:	6c5b      	ldr	r3, [r3, #68]	; 0x44
 80033e4:	f403 4380 	and.w	r3, r3, #16384	; 0x4000
 80033e8:	9300      	str	r3, [sp, #0]
 80033ea:	9b00      	ldr	r3, [sp, #0]
  SYSCFG->PMC &= ~(SYSCFG_PMC_MII_RMII_SEL);
 80033ec:	4b80      	ldr	r3, [pc, #512]	; (80035f0 <HAL_ETH_Init+0x230>)
 80033ee:	685a      	ldr	r2, [r3, #4]
 80033f0:	f422 0200 	bic.w	r2, r2, #8388608	; 0x800000
 80033f4:	605a      	str	r2, [r3, #4]
  SYSCFG->PMC |= (uint32_t)heth->Init.MediaInterface;
 80033f6:	685a      	ldr	r2, [r3, #4]
 80033f8:	6a21      	ldr	r1, [r4, #32]
 80033fa:	430a      	orrs	r2, r1
 80033fc:	605a      	str	r2, [r3, #4]
  (heth->Instance)->DMABMR |= ETH_DMABMR_SR;
 80033fe:	6823      	ldr	r3, [r4, #0]
 8003400:	f503 5380 	add.w	r3, r3, #4096	; 0x1000
 8003404:	681a      	ldr	r2, [r3, #0]
 8003406:	f042 0201 	orr.w	r2, r2, #1
 800340a:	601a      	str	r2, [r3, #0]
  tickstart = HAL_GetTick();
 800340c:	f7fd fae4 	bl	80009d8 <HAL_GetTick>
 8003410:	4605      	mov	r5, r0
  while (((heth->Instance)->DMABMR & ETH_DMABMR_SR) != (uint32_t)RESET)
 8003412:	6823      	ldr	r3, [r4, #0]
 8003414:	f503 5280 	add.w	r2, r3, #4096	; 0x1000
 8003418:	6812      	ldr	r2, [r2, #0]
 800341a:	f012 0f01 	tst.w	r2, #1
 800341e:	d013      	beq.n	8003448 <HAL_ETH_Init+0x88>
    if((HAL_GetTick() - tickstart ) > ETH_TIMEOUT_SWRESET)
 8003420:	f7fd fada 	bl	80009d8 <HAL_GetTick>
 8003424:	1b40      	subs	r0, r0, r5
 8003426:	f5b0 7ffa 	cmp.w	r0, #500	; 0x1f4
 800342a:	d9f2      	bls.n	8003412 <HAL_ETH_Init+0x52>
      heth->State= HAL_ETH_STATE_TIMEOUT;
 800342c:	2503      	movs	r5, #3
 800342e:	f884 5044 	strb.w	r5, [r4, #68]	; 0x44
      __HAL_UNLOCK(heth);
 8003432:	2300      	movs	r3, #0
 8003434:	f884 3045 	strb.w	r3, [r4, #69]	; 0x45
}
 8003438:	4628      	mov	r0, r5
 800343a:	b002      	add	sp, #8
 800343c:	bd70      	pop	{r4, r5, r6, pc}
    heth->Lock = HAL_UNLOCKED;
 800343e:	f880 3045 	strb.w	r3, [r0, #69]	; 0x45
    HAL_ETH_MspInit(heth);
 8003442:	f001 f885 	bl	8004550 <HAL_ETH_MspInit>
 8003446:	e7c7      	b.n	80033d8 <HAL_ETH_Init+0x18>
  tempreg = (heth->Instance)->MACMIIAR;
 8003448:	691d      	ldr	r5, [r3, #16]
  tempreg &= ETH_MACMIIAR_CR_MASK;
 800344a:	f025 051c 	bic.w	r5, r5, #28
  hclk = HAL_RCC_GetHCLKFreq();
 800344e:	f001 f84d 	bl	80044ec <HAL_RCC_GetHCLKFreq>
  if((hclk >= 20000000)&&(hclk < 35000000))
 8003452:	4b68      	ldr	r3, [pc, #416]	; (80035f4 <HAL_ETH_Init+0x234>)
 8003454:	4403      	add	r3, r0
 8003456:	4a68      	ldr	r2, [pc, #416]	; (80035f8 <HAL_ETH_Init+0x238>)
 8003458:	4293      	cmp	r3, r2
 800345a:	d855      	bhi.n	8003508 <HAL_ETH_Init+0x148>
    tempreg |= (uint32_t)ETH_MACMIIAR_CR_Div16;
 800345c:	f045 0508 	orr.w	r5, r5, #8
  (heth->Instance)->MACMIIAR = (uint32_t)tempreg;
 8003460:	6823      	ldr	r3, [r4, #0]
 8003462:	611d      	str	r5, [r3, #16]
  if((HAL_ETH_WritePHYRegister(heth, PHY_BCR, PHY_RESET)) != HAL_OK)
 8003464:	f44f 4200 	mov.w	r2, #32768	; 0x8000
 8003468:	2100      	movs	r1, #0
 800346a:	4620      	mov	r0, r4
 800346c:	f7ff ff6d 	bl	800334a <HAL_ETH_WritePHYRegister>
 8003470:	4605      	mov	r5, r0
 8003472:	2800      	cmp	r0, #0
 8003474:	d160      	bne.n	8003538 <HAL_ETH_Init+0x178>
  HAL_Delay(PHY_RESET_DELAY);
 8003476:	20ff      	movs	r0, #255	; 0xff
 8003478:	f7ff fc82 	bl	8002d80 <HAL_Delay>
  if((heth->Init).AutoNegotiation != ETH_AUTONEGOTIATION_DISABLE)
 800347c:	6863      	ldr	r3, [r4, #4]
 800347e:	2b00      	cmp	r3, #0
 8003480:	f000 8091 	beq.w	80035a6 <HAL_ETH_Init+0x1e6>
    tickstart = HAL_GetTick();
 8003484:	f7fd faa8 	bl	80009d8 <HAL_GetTick>
 8003488:	4606      	mov	r6, r0
      HAL_ETH_ReadPHYRegister(heth, PHY_BSR, &phyreg);
 800348a:	aa01      	add	r2, sp, #4
 800348c:	2101      	movs	r1, #1
 800348e:	4620      	mov	r0, r4
 8003490:	f7ff ff1f 	bl	80032d2 <HAL_ETH_ReadPHYRegister>
      if((HAL_GetTick() - tickstart ) > ETH_TIMEOUT_LINKED_STATE)
 8003494:	f7fd faa0 	bl	80009d8 <HAL_GetTick>
 8003498:	1b80      	subs	r0, r0, r6
 800349a:	f241 3388 	movw	r3, #5000	; 0x1388
 800349e:	4298      	cmp	r0, r3
 80034a0:	d852      	bhi.n	8003548 <HAL_ETH_Init+0x188>
    } while (((phyreg & PHY_LINKED_STATUS) != PHY_LINKED_STATUS));
 80034a2:	9b01      	ldr	r3, [sp, #4]
 80034a4:	f013 0f04 	tst.w	r3, #4
 80034a8:	d0ef      	beq.n	800348a <HAL_ETH_Init+0xca>
    if((HAL_ETH_WritePHYRegister(heth, PHY_BCR, PHY_AUTONEGOTIATION)) != HAL_OK)
 80034aa:	f44f 5280 	mov.w	r2, #4096	; 0x1000
 80034ae:	2100      	movs	r1, #0
 80034b0:	4620      	mov	r0, r4
 80034b2:	f7ff ff4a 	bl	800334a <HAL_ETH_WritePHYRegister>
 80034b6:	2800      	cmp	r0, #0
 80034b8:	d152      	bne.n	8003560 <HAL_ETH_Init+0x1a0>
    tickstart = HAL_GetTick();
 80034ba:	f7fd fa8d 	bl	80009d8 <HAL_GetTick>
 80034be:	4606      	mov	r6, r0
      HAL_ETH_ReadPHYRegister(heth, PHY_BSR, &phyreg);
 80034c0:	aa01      	add	r2, sp, #4
 80034c2:	2101      	movs	r1, #1
 80034c4:	4620      	mov	r0, r4
 80034c6:	f7ff ff04 	bl	80032d2 <HAL_ETH_ReadPHYRegister>
      if((HAL_GetTick() - tickstart ) > ETH_TIMEOUT_AUTONEGO_COMPLETED)
 80034ca:	f7fd fa85 	bl	80009d8 <HAL_GetTick>
 80034ce:	1b80      	subs	r0, r0, r6
 80034d0:	f241 3388 	movw	r3, #5000	; 0x1388
 80034d4:	4298      	cmp	r0, r3
 80034d6:	d84b      	bhi.n	8003570 <HAL_ETH_Init+0x1b0>
    } while (((phyreg & PHY_AUTONEGO_COMPLETE) != PHY_AUTONEGO_COMPLETE));
 80034d8:	9b01      	ldr	r3, [sp, #4]
 80034da:	f013 0f20 	tst.w	r3, #32
 80034de:	d0ef      	beq.n	80034c0 <HAL_ETH_Init+0x100>
    if((HAL_ETH_ReadPHYRegister(heth, PHY_SR, &phyreg)) != HAL_OK)
 80034e0:	aa01      	add	r2, sp, #4
 80034e2:	2110      	movs	r1, #16
 80034e4:	4620      	mov	r0, r4
 80034e6:	f7ff fef4 	bl	80032d2 <HAL_ETH_ReadPHYRegister>
 80034ea:	2800      	cmp	r0, #0
 80034ec:	d14c      	bne.n	8003588 <HAL_ETH_Init+0x1c8>
    if((phyreg & PHY_DUPLEX_STATUS) != (uint32_t)RESET)
 80034ee:	9b01      	ldr	r3, [sp, #4]
 80034f0:	f013 0f04 	tst.w	r3, #4
 80034f4:	d050      	beq.n	8003598 <HAL_ETH_Init+0x1d8>
      (heth->Init).DuplexMode = ETH_MODE_FULLDUPLEX;  
 80034f6:	f44f 6200 	mov.w	r2, #2048	; 0x800
 80034fa:	60e2      	str	r2, [r4, #12]
    if((phyreg & PHY_SPEED_STATUS) == PHY_SPEED_STATUS)
 80034fc:	f013 0f02 	tst.w	r3, #2
 8003500:	d04d      	beq.n	800359e <HAL_ETH_Init+0x1de>
      (heth->Init).Speed = ETH_SPEED_10M; 
 8003502:	2300      	movs	r3, #0
 8003504:	60a3      	str	r3, [r4, #8]
 8003506:	e05e      	b.n	80035c6 <HAL_ETH_Init+0x206>
  else if((hclk >= 35000000)&&(hclk < 60000000))
 8003508:	4b3c      	ldr	r3, [pc, #240]	; (80035fc <HAL_ETH_Init+0x23c>)
 800350a:	4403      	add	r3, r0
 800350c:	4a3c      	ldr	r2, [pc, #240]	; (8003600 <HAL_ETH_Init+0x240>)
 800350e:	4293      	cmp	r3, r2
 8003510:	d802      	bhi.n	8003518 <HAL_ETH_Init+0x158>
    tempreg |= (uint32_t)ETH_MACMIIAR_CR_Div26;
 8003512:	f045 050c 	orr.w	r5, r5, #12
 8003516:	e7a3      	b.n	8003460 <HAL_ETH_Init+0xa0>
  else if((hclk >= 60000000)&&(hclk < 100000000))
 8003518:	4b3a      	ldr	r3, [pc, #232]	; (8003604 <HAL_ETH_Init+0x244>)
 800351a:	4403      	add	r3, r0
 800351c:	4a3a      	ldr	r2, [pc, #232]	; (8003608 <HAL_ETH_Init+0x248>)
 800351e:	4293      	cmp	r3, r2
 8003520:	d99e      	bls.n	8003460 <HAL_ETH_Init+0xa0>
  else if((hclk >= 100000000)&&(hclk < 150000000))
 8003522:	4b3a      	ldr	r3, [pc, #232]	; (800360c <HAL_ETH_Init+0x24c>)
 8003524:	4403      	add	r3, r0
 8003526:	4a3a      	ldr	r2, [pc, #232]	; (8003610 <HAL_ETH_Init+0x250>)
 8003528:	4293      	cmp	r3, r2
 800352a:	d802      	bhi.n	8003532 <HAL_ETH_Init+0x172>
    tempreg |= (uint32_t)ETH_MACMIIAR_CR_Div62;
 800352c:	f045 0504 	orr.w	r5, r5, #4
 8003530:	e796      	b.n	8003460 <HAL_ETH_Init+0xa0>
    tempreg |= (uint32_t)ETH_MACMIIAR_CR_Div102;    
 8003532:	f045 0510 	orr.w	r5, r5, #16
 8003536:	e793      	b.n	8003460 <HAL_ETH_Init+0xa0>
    ETH_MACDMAConfig(heth, err);
 8003538:	2101      	movs	r1, #1
 800353a:	4620      	mov	r0, r4
 800353c:	f7ff fcb6 	bl	8002eac <ETH_MACDMAConfig>
    heth->State = HAL_ETH_STATE_READY;
 8003540:	2501      	movs	r5, #1
 8003542:	f884 5044 	strb.w	r5, [r4, #68]	; 0x44
    return HAL_ERROR;
 8003546:	e777      	b.n	8003438 <HAL_ETH_Init+0x78>
        ETH_MACDMAConfig(heth, err);
 8003548:	2101      	movs	r1, #1
 800354a:	4620      	mov	r0, r4
 800354c:	f7ff fcae 	bl	8002eac <ETH_MACDMAConfig>
        heth->State= HAL_ETH_STATE_READY;
 8003550:	2301      	movs	r3, #1
 8003552:	f884 3044 	strb.w	r3, [r4, #68]	; 0x44
        __HAL_UNLOCK(heth);
 8003556:	2300      	movs	r3, #0
 8003558:	f884 3045 	strb.w	r3, [r4, #69]	; 0x45
        return HAL_TIMEOUT;
 800355c:	2503      	movs	r5, #3
 800355e:	e76b      	b.n	8003438 <HAL_ETH_Init+0x78>
      ETH_MACDMAConfig(heth, err);
 8003560:	2101      	movs	r1, #1
 8003562:	4620      	mov	r0, r4
 8003564:	f7ff fca2 	bl	8002eac <ETH_MACDMAConfig>
      heth->State = HAL_ETH_STATE_READY;
 8003568:	2501      	movs	r5, #1
 800356a:	f884 5044 	strb.w	r5, [r4, #68]	; 0x44
      return HAL_ERROR;   
 800356e:	e763      	b.n	8003438 <HAL_ETH_Init+0x78>
        ETH_MACDMAConfig(heth, err);
 8003570:	2101      	movs	r1, #1
 8003572:	4620      	mov	r0, r4
 8003574:	f7ff fc9a 	bl	8002eac <ETH_MACDMAConfig>
        heth->State= HAL_ETH_STATE_READY;
 8003578:	2301      	movs	r3, #1
 800357a:	f884 3044 	strb.w	r3, [r4, #68]	; 0x44
        __HAL_UNLOCK(heth);
 800357e:	2300      	movs	r3, #0
 8003580:	f884 3045 	strb.w	r3, [r4, #69]	; 0x45
        return HAL_TIMEOUT;
 8003584:	2503      	movs	r5, #3
 8003586:	e757      	b.n	8003438 <HAL_ETH_Init+0x78>
      ETH_MACDMAConfig(heth, err);
 8003588:	2101      	movs	r1, #1
 800358a:	4620      	mov	r0, r4
 800358c:	f7ff fc8e 	bl	8002eac <ETH_MACDMAConfig>
      heth->State = HAL_ETH_STATE_READY;
 8003590:	2501      	movs	r5, #1
 8003592:	f884 5044 	strb.w	r5, [r4, #68]	; 0x44
      return HAL_ERROR;   
 8003596:	e74f      	b.n	8003438 <HAL_ETH_Init+0x78>
      (heth->Init).DuplexMode = ETH_MODE_HALFDUPLEX;           
 8003598:	2200      	movs	r2, #0
 800359a:	60e2      	str	r2, [r4, #12]
 800359c:	e7ae      	b.n	80034fc <HAL_ETH_Init+0x13c>
      (heth->Init).Speed = ETH_SPEED_100M;
 800359e:	f44f 4380 	mov.w	r3, #16384	; 0x4000
 80035a2:	60a3      	str	r3, [r4, #8]
 80035a4:	e00f      	b.n	80035c6 <HAL_ETH_Init+0x206>
    if(HAL_ETH_WritePHYRegister(heth, PHY_BCR, ((uint16_t)((heth->Init).DuplexMode >> 3) |
 80035a6:	68e2      	ldr	r2, [r4, #12]
 80035a8:	f3c2 02cf 	ubfx	r2, r2, #3, #16
                                                (uint16_t)((heth->Init).Speed >> 1))) != HAL_OK)
 80035ac:	68a3      	ldr	r3, [r4, #8]
 80035ae:	f3c3 034f 	ubfx	r3, r3, #1, #16
    if(HAL_ETH_WritePHYRegister(heth, PHY_BCR, ((uint16_t)((heth->Init).DuplexMode >> 3) |
 80035b2:	431a      	orrs	r2, r3
 80035b4:	2100      	movs	r1, #0
 80035b6:	4620      	mov	r0, r4
 80035b8:	f7ff fec7 	bl	800334a <HAL_ETH_WritePHYRegister>
 80035bc:	b958      	cbnz	r0, 80035d6 <HAL_ETH_Init+0x216>
    HAL_Delay(PHY_CONFIG_DELAY);
 80035be:	f640 70ff 	movw	r0, #4095	; 0xfff
 80035c2:	f7ff fbdd 	bl	8002d80 <HAL_Delay>
  ETH_MACDMAConfig(heth, err);
 80035c6:	2100      	movs	r1, #0
 80035c8:	4620      	mov	r0, r4
 80035ca:	f7ff fc6f 	bl	8002eac <ETH_MACDMAConfig>
  heth->State= HAL_ETH_STATE_READY;
 80035ce:	2301      	movs	r3, #1
 80035d0:	f884 3044 	strb.w	r3, [r4, #68]	; 0x44
  return HAL_OK;
 80035d4:	e730      	b.n	8003438 <HAL_ETH_Init+0x78>
      ETH_MACDMAConfig(heth, err);
 80035d6:	2101      	movs	r1, #1
 80035d8:	4620      	mov	r0, r4
 80035da:	f7ff fc67 	bl	8002eac <ETH_MACDMAConfig>
      heth->State = HAL_ETH_STATE_READY;
 80035de:	2501      	movs	r5, #1
 80035e0:	f884 5044 	strb.w	r5, [r4, #68]	; 0x44
      return HAL_ERROR;
 80035e4:	e728      	b.n	8003438 <HAL_ETH_Init+0x78>
    return HAL_ERROR;
 80035e6:	2501      	movs	r5, #1
 80035e8:	e726      	b.n	8003438 <HAL_ETH_Init+0x78>
 80035ea:	bf00      	nop
 80035ec:	40023800 	.word	0x40023800
 80035f0:	40013800 	.word	0x40013800
 80035f4:	feced300 	.word	0xfeced300
 80035f8:	00e4e1bf 	.word	0x00e4e1bf
 80035fc:	fde9f140 	.word	0xfde9f140
 8003600:	017d783f 	.word	0x017d783f
 8003604:	fc6c7900 	.word	0xfc6c7900
 8003608:	026259ff 	.word	0x026259ff
 800360c:	fa0a1f00 	.word	0xfa0a1f00
 8003610:	02faf07f 	.word	0x02faf07f

08003614 <HAL_ETH_Start>:
{  
 8003614:	b538      	push	{r3, r4, r5, lr}
  __HAL_LOCK(heth);
 8003616:	f890 3045 	ldrb.w	r3, [r0, #69]	; 0x45
 800361a:	2b01      	cmp	r3, #1
 800361c:	d01a      	beq.n	8003654 <HAL_ETH_Start+0x40>
 800361e:	4604      	mov	r4, r0
 8003620:	2501      	movs	r5, #1
 8003622:	f880 5045 	strb.w	r5, [r0, #69]	; 0x45
  heth->State = HAL_ETH_STATE_BUSY;
 8003626:	2302      	movs	r3, #2
 8003628:	f880 3044 	strb.w	r3, [r0, #68]	; 0x44
  ETH_MACTransmissionEnable(heth);
 800362c:	f7ff fcca 	bl	8002fc4 <ETH_MACTransmissionEnable>
  ETH_MACReceptionEnable(heth);
 8003630:	4620      	mov	r0, r4
 8003632:	f7ff fcdc 	bl	8002fee <ETH_MACReceptionEnable>
  ETH_FlushTransmitFIFO(heth);
 8003636:	4620      	mov	r0, r4
 8003638:	f7ff fcee 	bl	8003018 <ETH_FlushTransmitFIFO>
  ETH_DMATransmissionEnable(heth);
 800363c:	4620      	mov	r0, r4
 800363e:	f7ff fc25 	bl	8002e8c <ETH_DMATransmissionEnable>
  ETH_DMAReceptionEnable(heth);
 8003642:	4620      	mov	r0, r4
 8003644:	f7ff fc2a 	bl	8002e9c <ETH_DMAReceptionEnable>
  heth->State= HAL_ETH_STATE_READY;
 8003648:	f884 5044 	strb.w	r5, [r4, #68]	; 0x44
  __HAL_UNLOCK(heth);
 800364c:	2000      	movs	r0, #0
 800364e:	f884 0045 	strb.w	r0, [r4, #69]	; 0x45
}
 8003652:	bd38      	pop	{r3, r4, r5, pc}
  __HAL_LOCK(heth);
 8003654:	2002      	movs	r0, #2
 8003656:	e7fc      	b.n	8003652 <HAL_ETH_Start+0x3e>

08003658 <FLASH_Program_DoubleWord>:
  * @param  Address specifies the address to be programmed.
  * @param  Data specifies the data to be programmed.
  * @retval None
  */
static void FLASH_Program_DoubleWord(uint32_t Address, uint64_t Data)
{
 8003658:	b410      	push	{r4}
  /* Check the parameters */
  assert_param(IS_FLASH_ADDRESS(Address));
  
  /* If the previous operation is completed, proceed to program the new data */
  FLASH->CR &= CR_PSIZE_MASK;
 800365a:	490a      	ldr	r1, [pc, #40]	; (8003684 <FLASH_Program_DoubleWord+0x2c>)
 800365c:	690c      	ldr	r4, [r1, #16]
 800365e:	f424 7440 	bic.w	r4, r4, #768	; 0x300
 8003662:	610c      	str	r4, [r1, #16]
  FLASH->CR |= FLASH_PSIZE_DOUBLE_WORD;
 8003664:	690c      	ldr	r4, [r1, #16]
 8003666:	f444 7440 	orr.w	r4, r4, #768	; 0x300
 800366a:	610c      	str	r4, [r1, #16]
  FLASH->CR |= FLASH_CR_PG;
 800366c:	690c      	ldr	r4, [r1, #16]
 800366e:	f044 0401 	orr.w	r4, r4, #1
 8003672:	610c      	str	r4, [r1, #16]

  /* Program the double-word */
  *(__IO uint32_t*)Address = (uint32_t)Data;
 8003674:	6002      	str	r2, [r0, #0]
  *(__IO uint32_t*)(Address+4) = (uint32_t)(Data >> 32);
 8003676:	6043      	str	r3, [r0, #4]
  \details Acts as a special kind of Data Memory Barrier.
           It completes when all explicit memory accesses before this instruction complete.
 */
__attribute__((always_inline)) __STATIC_INLINE void __DSB(void)
{
  __ASM volatile ("dsb 0xF":::"memory");
 8003678:	f3bf 8f4f 	dsb	sy

  /* Data synchronous Barrier (DSB) Just after the write operation
     This will force the CPU to respect the sequence of instruction (no optimization).*/
  __DSB();
}
 800367c:	f85d 4b04 	ldr.w	r4, [sp], #4
 8003680:	4770      	bx	lr
 8003682:	bf00      	nop
 8003684:	40023c00 	.word	0x40023c00

08003688 <FLASH_Program_Word>:
{
  /* Check the parameters */
  assert_param(IS_FLASH_ADDRESS(Address));
  
  /* If the previous operation is completed, proceed to program the new data */
  FLASH->CR &= CR_PSIZE_MASK;
 8003688:	4b08      	ldr	r3, [pc, #32]	; (80036ac <FLASH_Program_Word+0x24>)
 800368a:	691a      	ldr	r2, [r3, #16]
 800368c:	f422 7240 	bic.w	r2, r2, #768	; 0x300
 8003690:	611a      	str	r2, [r3, #16]
  FLASH->CR |= FLASH_PSIZE_WORD;
 8003692:	691a      	ldr	r2, [r3, #16]
 8003694:	f442 7200 	orr.w	r2, r2, #512	; 0x200
 8003698:	611a      	str	r2, [r3, #16]
  FLASH->CR |= FLASH_CR_PG;
 800369a:	691a      	ldr	r2, [r3, #16]
 800369c:	f042 0201 	orr.w	r2, r2, #1
 80036a0:	611a      	str	r2, [r3, #16]

  *(__IO uint32_t*)Address = Data;
 80036a2:	6001      	str	r1, [r0, #0]
 80036a4:	f3bf 8f4f 	dsb	sy
  
  /* Data synchronous Barrier (DSB) Just after the write operation
     This will force the CPU to respect the sequence of instruction (no optimization).*/
  __DSB();
}
 80036a8:	4770      	bx	lr
 80036aa:	bf00      	nop
 80036ac:	40023c00 	.word	0x40023c00

080036b0 <FLASH_Program_HalfWord>:
{
  /* Check the parameters */
  assert_param(IS_FLASH_ADDRESS(Address));
  
  /* If the previous operation is completed, proceed to program the new data */
  FLASH->CR &= CR_PSIZE_MASK;
 80036b0:	4b08      	ldr	r3, [pc, #32]	; (80036d4 <FLASH_Program_HalfWord+0x24>)
 80036b2:	691a      	ldr	r2, [r3, #16]
 80036b4:	f422 7240 	bic.w	r2, r2, #768	; 0x300
 80036b8:	611a      	str	r2, [r3, #16]
  FLASH->CR |= FLASH_PSIZE_HALF_WORD;
 80036ba:	691a      	ldr	r2, [r3, #16]
 80036bc:	f442 7280 	orr.w	r2, r2, #256	; 0x100
 80036c0:	611a      	str	r2, [r3, #16]
  FLASH->CR |= FLASH_CR_PG;
 80036c2:	691a      	ldr	r2, [r3, #16]
 80036c4:	f042 0201 	orr.w	r2, r2, #1
 80036c8:	611a      	str	r2, [r3, #16]

  *(__IO uint16_t*)Address = Data;
 80036ca:	8001      	strh	r1, [r0, #0]
 80036cc:	f3bf 8f4f 	dsb	sy

  /* Data synchronous Barrier (DSB) Just after the write operation
     This will force the CPU to respect the sequence of instruction (no optimization).*/
  __DSB();
  
}
 80036d0:	4770      	bx	lr
 80036d2:	bf00      	nop
 80036d4:	40023c00 	.word	0x40023c00

080036d8 <FLASH_Program_Byte>:
{
  /* Check the parameters */
  assert_param(IS_FLASH_ADDRESS(Address));
  
  /* If the previous operation is completed, proceed to program the new data */
  FLASH->CR &= CR_PSIZE_MASK;
 80036d8:	4b07      	ldr	r3, [pc, #28]	; (80036f8 <FLASH_Program_Byte+0x20>)
 80036da:	691a      	ldr	r2, [r3, #16]
 80036dc:	f422 7240 	bic.w	r2, r2, #768	; 0x300
 80036e0:	611a      	str	r2, [r3, #16]
  FLASH->CR |= FLASH_PSIZE_BYTE;
 80036e2:	691a      	ldr	r2, [r3, #16]
 80036e4:	611a      	str	r2, [r3, #16]
  FLASH->CR |= FLASH_CR_PG;
 80036e6:	691a      	ldr	r2, [r3, #16]
 80036e8:	f042 0201 	orr.w	r2, r2, #1
 80036ec:	611a      	str	r2, [r3, #16]

  *(__IO uint8_t*)Address = Data;
 80036ee:	7001      	strb	r1, [r0, #0]
 80036f0:	f3bf 8f4f 	dsb	sy

  /* Data synchronous Barrier (DSB) Just after the write operation
     This will force the CPU to respect the sequence of instruction (no optimization).*/
  __DSB();
}
 80036f4:	4770      	bx	lr
 80036f6:	bf00      	nop
 80036f8:	40023c00 	.word	0x40023c00

080036fc <FLASH_SetErrorCode>:
  * @brief  Set the specific FLASH error flag.
  * @retval None
  */
static void FLASH_SetErrorCode(void)
{
  if(__HAL_FLASH_GET_FLAG(FLASH_FLAG_OPERR) != RESET)
 80036fc:	4b1a      	ldr	r3, [pc, #104]	; (8003768 <FLASH_SetErrorCode+0x6c>)
 80036fe:	68db      	ldr	r3, [r3, #12]
 8003700:	f013 0f02 	tst.w	r3, #2
 8003704:	d004      	beq.n	8003710 <FLASH_SetErrorCode+0x14>
  {
    pFlash.ErrorCode |= HAL_FLASH_ERROR_OPERATION;
 8003706:	4a19      	ldr	r2, [pc, #100]	; (800376c <FLASH_SetErrorCode+0x70>)
 8003708:	6993      	ldr	r3, [r2, #24]
 800370a:	f043 0320 	orr.w	r3, r3, #32
 800370e:	6193      	str	r3, [r2, #24]
  }
  
  if(__HAL_FLASH_GET_FLAG(FLASH_FLAG_WRPERR) != RESET)
 8003710:	4b15      	ldr	r3, [pc, #84]	; (8003768 <FLASH_SetErrorCode+0x6c>)
 8003712:	68db      	ldr	r3, [r3, #12]
 8003714:	f013 0f10 	tst.w	r3, #16
 8003718:	d004      	beq.n	8003724 <FLASH_SetErrorCode+0x28>
  {
   pFlash.ErrorCode |= HAL_FLASH_ERROR_WRP;
 800371a:	4a14      	ldr	r2, [pc, #80]	; (800376c <FLASH_SetErrorCode+0x70>)
 800371c:	6993      	ldr	r3, [r2, #24]
 800371e:	f043 0310 	orr.w	r3, r3, #16
 8003722:	6193      	str	r3, [r2, #24]
  }
  
  if(__HAL_FLASH_GET_FLAG(FLASH_FLAG_PGAERR) != RESET)
 8003724:	4b10      	ldr	r3, [pc, #64]	; (8003768 <FLASH_SetErrorCode+0x6c>)
 8003726:	68db      	ldr	r3, [r3, #12]
 8003728:	f013 0f20 	tst.w	r3, #32
 800372c:	d004      	beq.n	8003738 <FLASH_SetErrorCode+0x3c>
  {
   pFlash.ErrorCode |= HAL_FLASH_ERROR_PGA;
 800372e:	4a0f      	ldr	r2, [pc, #60]	; (800376c <FLASH_SetErrorCode+0x70>)
 8003730:	6993      	ldr	r3, [r2, #24]
 8003732:	f043 0308 	orr.w	r3, r3, #8
 8003736:	6193      	str	r3, [r2, #24]
  }
  
  if(__HAL_FLASH_GET_FLAG(FLASH_FLAG_PGPERR) != RESET)
 8003738:	4b0b      	ldr	r3, [pc, #44]	; (8003768 <FLASH_SetErrorCode+0x6c>)
 800373a:	68db      	ldr	r3, [r3, #12]
 800373c:	f013 0f40 	tst.w	r3, #64	; 0x40
 8003740:	d004      	beq.n	800374c <FLASH_SetErrorCode+0x50>
  {
    pFlash.ErrorCode |= HAL_FLASH_ERROR_PGP;
 8003742:	4a0a      	ldr	r2, [pc, #40]	; (800376c <FLASH_SetErrorCode+0x70>)
 8003744:	6993      	ldr	r3, [r2, #24]
 8003746:	f043 0304 	orr.w	r3, r3, #4
 800374a:	6193      	str	r3, [r2, #24]
  }
  
  if(__HAL_FLASH_GET_FLAG(FLASH_FLAG_ERSERR) != RESET)
 800374c:	4b06      	ldr	r3, [pc, #24]	; (8003768 <FLASH_SetErrorCode+0x6c>)
 800374e:	68db      	ldr	r3, [r3, #12]
 8003750:	f013 0f80 	tst.w	r3, #128	; 0x80
 8003754:	d004      	beq.n	8003760 <FLASH_SetErrorCode+0x64>
  {
    pFlash.ErrorCode |= HAL_FLASH_ERROR_ERS;
 8003756:	4a05      	ldr	r2, [pc, #20]	; (800376c <FLASH_SetErrorCode+0x70>)
 8003758:	6993      	ldr	r3, [r2, #24]
 800375a:	f043 0302 	orr.w	r3, r3, #2
 800375e:	6193      	str	r3, [r2, #24]
   pFlash.ErrorCode |= HAL_FLASH_ERROR_RD;
  }  
#endif /* FLASH_OPTCR2_PCROP */
  
  /* Clear error programming flags */
  __HAL_FLASH_CLEAR_FLAG(FLASH_FLAG_ALL_ERRORS);
 8003760:	4b01      	ldr	r3, [pc, #4]	; (8003768 <FLASH_SetErrorCode+0x6c>)
 8003762:	22f2      	movs	r2, #242	; 0xf2
 8003764:	60da      	str	r2, [r3, #12]
}
 8003766:	4770      	bx	lr
 8003768:	40023c00 	.word	0x40023c00
 800376c:	20000cf4 	.word	0x20000cf4

08003770 <HAL_FLASH_Unlock>:
  if(READ_BIT(FLASH->CR, FLASH_CR_LOCK) != RESET)
 8003770:	4b09      	ldr	r3, [pc, #36]	; (8003798 <HAL_FLASH_Unlock+0x28>)
 8003772:	691b      	ldr	r3, [r3, #16]
 8003774:	2b00      	cmp	r3, #0
 8003776:	db01      	blt.n	800377c <HAL_FLASH_Unlock+0xc>
  HAL_StatusTypeDef status = HAL_OK;
 8003778:	2000      	movs	r0, #0
 800377a:	4770      	bx	lr
    WRITE_REG(FLASH->KEYR, FLASH_KEY1);
 800377c:	4b06      	ldr	r3, [pc, #24]	; (8003798 <HAL_FLASH_Unlock+0x28>)
 800377e:	4a07      	ldr	r2, [pc, #28]	; (800379c <HAL_FLASH_Unlock+0x2c>)
 8003780:	605a      	str	r2, [r3, #4]
    WRITE_REG(FLASH->KEYR, FLASH_KEY2);
 8003782:	f102 3288 	add.w	r2, r2, #2290649224	; 0x88888888
 8003786:	605a      	str	r2, [r3, #4]
    if(READ_BIT(FLASH->CR, FLASH_CR_LOCK) != RESET)
 8003788:	691b      	ldr	r3, [r3, #16]
 800378a:	2b00      	cmp	r3, #0
 800378c:	db01      	blt.n	8003792 <HAL_FLASH_Unlock+0x22>
  HAL_StatusTypeDef status = HAL_OK;
 800378e:	2000      	movs	r0, #0
 8003790:	4770      	bx	lr
      status = HAL_ERROR;
 8003792:	2001      	movs	r0, #1
}
 8003794:	4770      	bx	lr
 8003796:	bf00      	nop
 8003798:	40023c00 	.word	0x40023c00
 800379c:	45670123 	.word	0x45670123

080037a0 <HAL_FLASH_Lock>:
  FLASH->CR |= FLASH_CR_LOCK;
 80037a0:	4a03      	ldr	r2, [pc, #12]	; (80037b0 <HAL_FLASH_Lock+0x10>)
 80037a2:	6913      	ldr	r3, [r2, #16]
 80037a4:	f043 4300 	orr.w	r3, r3, #2147483648	; 0x80000000
 80037a8:	6113      	str	r3, [r2, #16]
}
 80037aa:	2000      	movs	r0, #0
 80037ac:	4770      	bx	lr
 80037ae:	bf00      	nop
 80037b0:	40023c00 	.word	0x40023c00

080037b4 <FLASH_WaitForLastOperation>:
{ 
 80037b4:	b538      	push	{r3, r4, r5, lr}
 80037b6:	4604      	mov	r4, r0
  pFlash.ErrorCode = HAL_FLASH_ERROR_NONE;
 80037b8:	4b16      	ldr	r3, [pc, #88]	; (8003814 <FLASH_WaitForLastOperation+0x60>)
 80037ba:	2200      	movs	r2, #0
 80037bc:	619a      	str	r2, [r3, #24]
  tickstart = HAL_GetTick();
 80037be:	f7fd f90b 	bl	80009d8 <HAL_GetTick>
 80037c2:	4605      	mov	r5, r0
  while(__HAL_FLASH_GET_FLAG(FLASH_FLAG_BSY) != RESET) 
 80037c4:	4b14      	ldr	r3, [pc, #80]	; (8003818 <FLASH_WaitForLastOperation+0x64>)
 80037c6:	68db      	ldr	r3, [r3, #12]
 80037c8:	f413 3f80 	tst.w	r3, #65536	; 0x10000
 80037cc:	d00a      	beq.n	80037e4 <FLASH_WaitForLastOperation+0x30>
    if(Timeout != HAL_MAX_DELAY)
 80037ce:	f1b4 3fff 	cmp.w	r4, #4294967295	; 0xffffffff
 80037d2:	d0f7      	beq.n	80037c4 <FLASH_WaitForLastOperation+0x10>
      if((Timeout == 0)||((HAL_GetTick() - tickstart ) > Timeout))
 80037d4:	b1cc      	cbz	r4, 800380a <FLASH_WaitForLastOperation+0x56>
 80037d6:	f7fd f8ff 	bl	80009d8 <HAL_GetTick>
 80037da:	1b40      	subs	r0, r0, r5
 80037dc:	42a0      	cmp	r0, r4
 80037de:	d9f1      	bls.n	80037c4 <FLASH_WaitForLastOperation+0x10>
        return HAL_TIMEOUT;
 80037e0:	2003      	movs	r0, #3
 80037e2:	e00d      	b.n	8003800 <FLASH_WaitForLastOperation+0x4c>
  if(__HAL_FLASH_GET_FLAG(FLASH_FLAG_ALL_ERRORS) != RESET)
 80037e4:	4b0c      	ldr	r3, [pc, #48]	; (8003818 <FLASH_WaitForLastOperation+0x64>)
 80037e6:	68db      	ldr	r3, [r3, #12]
 80037e8:	f013 0ff2 	tst.w	r3, #242	; 0xf2
 80037ec:	d109      	bne.n	8003802 <FLASH_WaitForLastOperation+0x4e>
  if (__HAL_FLASH_GET_FLAG(FLASH_FLAG_EOP) != RESET)
 80037ee:	4b0a      	ldr	r3, [pc, #40]	; (8003818 <FLASH_WaitForLastOperation+0x64>)
 80037f0:	68db      	ldr	r3, [r3, #12]
 80037f2:	f013 0f01 	tst.w	r3, #1
 80037f6:	d00a      	beq.n	800380e <FLASH_WaitForLastOperation+0x5a>
    __HAL_FLASH_CLEAR_FLAG(FLASH_FLAG_EOP);
 80037f8:	4b07      	ldr	r3, [pc, #28]	; (8003818 <FLASH_WaitForLastOperation+0x64>)
 80037fa:	2201      	movs	r2, #1
 80037fc:	60da      	str	r2, [r3, #12]
  return HAL_OK;
 80037fe:	2000      	movs	r0, #0
}  
 8003800:	bd38      	pop	{r3, r4, r5, pc}
    FLASH_SetErrorCode();
 8003802:	f7ff ff7b 	bl	80036fc <FLASH_SetErrorCode>
    return HAL_ERROR;
 8003806:	2001      	movs	r0, #1
 8003808:	e7fa      	b.n	8003800 <FLASH_WaitForLastOperation+0x4c>
        return HAL_TIMEOUT;
 800380a:	2003      	movs	r0, #3
 800380c:	e7f8      	b.n	8003800 <FLASH_WaitForLastOperation+0x4c>
  return HAL_OK;
 800380e:	2000      	movs	r0, #0
 8003810:	e7f6      	b.n	8003800 <FLASH_WaitForLastOperation+0x4c>
 8003812:	bf00      	nop
 8003814:	20000cf4 	.word	0x20000cf4
 8003818:	40023c00 	.word	0x40023c00

0800381c <HAL_FLASH_Program>:
{
 800381c:	b5f8      	push	{r3, r4, r5, r6, r7, lr}
  __HAL_LOCK(&pFlash);
 800381e:	4c1e      	ldr	r4, [pc, #120]	; (8003898 <HAL_FLASH_Program+0x7c>)
 8003820:	7d24      	ldrb	r4, [r4, #20]
 8003822:	2c01      	cmp	r4, #1
 8003824:	d035      	beq.n	8003892 <HAL_FLASH_Program+0x76>
 8003826:	461f      	mov	r7, r3
 8003828:	4616      	mov	r6, r2
 800382a:	460d      	mov	r5, r1
 800382c:	4604      	mov	r4, r0
 800382e:	4b1a      	ldr	r3, [pc, #104]	; (8003898 <HAL_FLASH_Program+0x7c>)
 8003830:	2201      	movs	r2, #1
 8003832:	751a      	strb	r2, [r3, #20]
  status = FLASH_WaitForLastOperation((uint32_t)FLASH_TIMEOUT_VALUE);
 8003834:	f24c 3050 	movw	r0, #50000	; 0xc350
 8003838:	f7ff ffbc 	bl	80037b4 <FLASH_WaitForLastOperation>
  if(status == HAL_OK)
 800383c:	4601      	mov	r1, r0
 800383e:	b998      	cbnz	r0, 8003868 <HAL_FLASH_Program+0x4c>
    switch(TypeProgram)
 8003840:	2c03      	cmp	r4, #3
 8003842:	d807      	bhi.n	8003854 <HAL_FLASH_Program+0x38>
 8003844:	e8df f004 	tbb	[pc, r4]
 8003848:	1f1a1502 	.word	0x1f1a1502
        FLASH_Program_Byte(Address, (uint8_t) Data);
 800384c:	b2f1      	uxtb	r1, r6
 800384e:	4628      	mov	r0, r5
 8003850:	f7ff ff42 	bl	80036d8 <FLASH_Program_Byte>
    status = FLASH_WaitForLastOperation((uint32_t)FLASH_TIMEOUT_VALUE);
 8003854:	f24c 3050 	movw	r0, #50000	; 0xc350
 8003858:	f7ff ffac 	bl	80037b4 <FLASH_WaitForLastOperation>
 800385c:	4601      	mov	r1, r0
    FLASH->CR &= (~FLASH_CR_PG);
 800385e:	4a0f      	ldr	r2, [pc, #60]	; (800389c <HAL_FLASH_Program+0x80>)
 8003860:	6913      	ldr	r3, [r2, #16]
 8003862:	f023 0301 	bic.w	r3, r3, #1
 8003866:	6113      	str	r3, [r2, #16]
  __HAL_UNLOCK(&pFlash);
 8003868:	4b0b      	ldr	r3, [pc, #44]	; (8003898 <HAL_FLASH_Program+0x7c>)
 800386a:	2200      	movs	r2, #0
 800386c:	751a      	strb	r2, [r3, #20]
}
 800386e:	4608      	mov	r0, r1
 8003870:	bdf8      	pop	{r3, r4, r5, r6, r7, pc}
        FLASH_Program_HalfWord(Address, (uint16_t) Data);
 8003872:	b2b1      	uxth	r1, r6
 8003874:	4628      	mov	r0, r5
 8003876:	f7ff ff1b 	bl	80036b0 <FLASH_Program_HalfWord>
        break;
 800387a:	e7eb      	b.n	8003854 <HAL_FLASH_Program+0x38>
        FLASH_Program_Word(Address, (uint32_t) Data);
 800387c:	4631      	mov	r1, r6
 800387e:	4628      	mov	r0, r5
 8003880:	f7ff ff02 	bl	8003688 <FLASH_Program_Word>
        break;
 8003884:	e7e6      	b.n	8003854 <HAL_FLASH_Program+0x38>
        FLASH_Program_DoubleWord(Address, Data);
 8003886:	4632      	mov	r2, r6
 8003888:	463b      	mov	r3, r7
 800388a:	4628      	mov	r0, r5
 800388c:	f7ff fee4 	bl	8003658 <FLASH_Program_DoubleWord>
        break;
 8003890:	e7e0      	b.n	8003854 <HAL_FLASH_Program+0x38>
  __HAL_LOCK(&pFlash);
 8003892:	2102      	movs	r1, #2
 8003894:	e7eb      	b.n	800386e <HAL_FLASH_Program+0x52>
 8003896:	bf00      	nop
 8003898:	20000cf4 	.word	0x20000cf4
 800389c:	40023c00 	.word	0x40023c00

080038a0 <FLASH_MassErase>:
  /* Check the parameters */
  assert_param(IS_VOLTAGERANGE(VoltageRange));
  assert_param(IS_FLASH_BANK(Banks));

  /* if the previous operation is completed, proceed to erase all sectors */
  FLASH->CR &= CR_PSIZE_MASK;
 80038a0:	4a11      	ldr	r2, [pc, #68]	; (80038e8 <FLASH_MassErase+0x48>)
 80038a2:	6913      	ldr	r3, [r2, #16]
 80038a4:	f423 7340 	bic.w	r3, r3, #768	; 0x300
 80038a8:	6113      	str	r3, [r2, #16]
  if(Banks == FLASH_BANK_BOTH)
 80038aa:	2903      	cmp	r1, #3
 80038ac:	d010      	beq.n	80038d0 <FLASH_MassErase+0x30>
  {
    /* bank1 & bank2 will be erased*/
    FLASH->CR |= FLASH_MER_BIT;
  }
  else if(Banks == FLASH_BANK_2)
 80038ae:	2902      	cmp	r1, #2
 80038b0:	d014      	beq.n	80038dc <FLASH_MassErase+0x3c>
    FLASH->CR |= FLASH_CR_MER2;
  }
  else
  {
    /*Only bank1 will be erased*/
    FLASH->CR |= FLASH_CR_MER1;    
 80038b2:	4a0d      	ldr	r2, [pc, #52]	; (80038e8 <FLASH_MassErase+0x48>)
 80038b4:	6913      	ldr	r3, [r2, #16]
 80038b6:	f043 0304 	orr.w	r3, r3, #4
 80038ba:	6113      	str	r3, [r2, #16]
  }
  FLASH->CR |= FLASH_CR_STRT | ((uint32_t)VoltageRange <<8);
 80038bc:	4a0a      	ldr	r2, [pc, #40]	; (80038e8 <FLASH_MassErase+0x48>)
 80038be:	6913      	ldr	r3, [r2, #16]
 80038c0:	ea43 2000 	orr.w	r0, r3, r0, lsl #8
 80038c4:	f440 3080 	orr.w	r0, r0, #65536	; 0x10000
 80038c8:	6110      	str	r0, [r2, #16]
 80038ca:	f3bf 8f4f 	dsb	sy
  /* Data synchronous Barrier (DSB) Just after the write operation
     This will force the CPU to respect the sequence of instruction (no optimization).*/
  __DSB();
}
 80038ce:	4770      	bx	lr
    FLASH->CR |= FLASH_MER_BIT;
 80038d0:	6911      	ldr	r1, [r2, #16]
 80038d2:	f248 0304 	movw	r3, #32772	; 0x8004
 80038d6:	430b      	orrs	r3, r1
 80038d8:	6113      	str	r3, [r2, #16]
 80038da:	e7ef      	b.n	80038bc <FLASH_MassErase+0x1c>
    FLASH->CR |= FLASH_CR_MER2;
 80038dc:	4a02      	ldr	r2, [pc, #8]	; (80038e8 <FLASH_MassErase+0x48>)
 80038de:	6913      	ldr	r3, [r2, #16]
 80038e0:	f443 4300 	orr.w	r3, r3, #32768	; 0x8000
 80038e4:	6113      	str	r3, [r2, #16]
 80038e6:	e7e9      	b.n	80038bc <FLASH_MassErase+0x1c>
 80038e8:	40023c00 	.word	0x40023c00

080038ec <FLASH_Erase_Sector>:
  *                                  the operation will be done by double word (64-bit)
  * 
  * @retval None
  */
void FLASH_Erase_Sector(uint32_t Sector, uint8_t VoltageRange)
{
 80038ec:	b410      	push	{r4}

  /* Check the parameters */
  assert_param(IS_FLASH_SECTOR(Sector));
  assert_param(IS_VOLTAGERANGE(VoltageRange));
  
  if(VoltageRange == FLASH_VOLTAGE_RANGE_1)
 80038ee:	b149      	cbz	r1, 8003904 <FLASH_Erase_Sector+0x18>
  {
     tmp_psize = FLASH_PSIZE_BYTE;
  }
  else if(VoltageRange == FLASH_VOLTAGE_RANGE_2)
 80038f0:	2901      	cmp	r1, #1
 80038f2:	d026      	beq.n	8003942 <FLASH_Erase_Sector+0x56>
  {
    tmp_psize = FLASH_PSIZE_HALF_WORD;
  }
  else if(VoltageRange == FLASH_VOLTAGE_RANGE_3)
 80038f4:	2902      	cmp	r1, #2
 80038f6:	d002      	beq.n	80038fe <FLASH_Erase_Sector+0x12>
  {
    tmp_psize = FLASH_PSIZE_WORD;
  }
  else
  {
    tmp_psize = FLASH_PSIZE_DOUBLE_WORD;
 80038f8:	f44f 7440 	mov.w	r4, #768	; 0x300
 80038fc:	e003      	b.n	8003906 <FLASH_Erase_Sector+0x1a>
    tmp_psize = FLASH_PSIZE_WORD;
 80038fe:	f44f 7400 	mov.w	r4, #512	; 0x200
 8003902:	e000      	b.n	8003906 <FLASH_Erase_Sector+0x1a>
     tmp_psize = FLASH_PSIZE_BYTE;
 8003904:	2400      	movs	r4, #0
  }
  
  /* Need to add offset of 4 when sector higher than FLASH_SECTOR_11 */
  if(Sector > FLASH_SECTOR_11) 
 8003906:	280b      	cmp	r0, #11
 8003908:	d900      	bls.n	800390c <FLASH_Erase_Sector+0x20>
  {
    Sector += 4;
 800390a:	3004      	adds	r0, #4
  }  

  /* If the previous operation is completed, proceed to erase the sector */
  FLASH->CR &= CR_PSIZE_MASK;
 800390c:	4b0e      	ldr	r3, [pc, #56]	; (8003948 <FLASH_Erase_Sector+0x5c>)
 800390e:	6919      	ldr	r1, [r3, #16]
 8003910:	f421 7140 	bic.w	r1, r1, #768	; 0x300
 8003914:	6119      	str	r1, [r3, #16]
  FLASH->CR |= tmp_psize;
 8003916:	691a      	ldr	r2, [r3, #16]
 8003918:	4322      	orrs	r2, r4
 800391a:	611a      	str	r2, [r3, #16]
  CLEAR_BIT(FLASH->CR, FLASH_CR_SNB);
 800391c:	691a      	ldr	r2, [r3, #16]
 800391e:	f022 02f8 	bic.w	r2, r2, #248	; 0xf8
 8003922:	611a      	str	r2, [r3, #16]
  FLASH->CR |= FLASH_CR_SER | (Sector << FLASH_CR_SNB_Pos);
 8003924:	691a      	ldr	r2, [r3, #16]
 8003926:	ea42 00c0 	orr.w	r0, r2, r0, lsl #3
 800392a:	f040 0002 	orr.w	r0, r0, #2
 800392e:	6118      	str	r0, [r3, #16]
  FLASH->CR |= FLASH_CR_STRT;
 8003930:	691a      	ldr	r2, [r3, #16]
 8003932:	f442 3280 	orr.w	r2, r2, #65536	; 0x10000
 8003936:	611a      	str	r2, [r3, #16]
 8003938:	f3bf 8f4f 	dsb	sy
  
  /* Data synchronous Barrier (DSB) Just after the write operation
     This will force the CPU to respect the sequence of instruction (no optimization).*/
  __DSB();
}
 800393c:	f85d 4b04 	ldr.w	r4, [sp], #4
 8003940:	4770      	bx	lr
    tmp_psize = FLASH_PSIZE_HALF_WORD;
 8003942:	f44f 7480 	mov.w	r4, #256	; 0x100
 8003946:	e7de      	b.n	8003906 <FLASH_Erase_Sector+0x1a>
 8003948:	40023c00 	.word	0x40023c00

0800394c <HAL_FLASHEx_Erase>:
  __HAL_LOCK(&pFlash);
 800394c:	4b22      	ldr	r3, [pc, #136]	; (80039d8 <HAL_FLASHEx_Erase+0x8c>)
 800394e:	7d1b      	ldrb	r3, [r3, #20]
 8003950:	2b01      	cmp	r3, #1
 8003952:	d03d      	beq.n	80039d0 <HAL_FLASHEx_Erase+0x84>
{
 8003954:	b570      	push	{r4, r5, r6, lr}
 8003956:	460e      	mov	r6, r1
 8003958:	4604      	mov	r4, r0
  __HAL_LOCK(&pFlash);
 800395a:	4b1f      	ldr	r3, [pc, #124]	; (80039d8 <HAL_FLASHEx_Erase+0x8c>)
 800395c:	2201      	movs	r2, #1
 800395e:	751a      	strb	r2, [r3, #20]
  status = FLASH_WaitForLastOperation((uint32_t)FLASH_TIMEOUT_VALUE);
 8003960:	f24c 3050 	movw	r0, #50000	; 0xc350
 8003964:	f7ff ff26 	bl	80037b4 <FLASH_WaitForLastOperation>
  if(status == HAL_OK)
 8003968:	4602      	mov	r2, r0
 800396a:	bb60      	cbnz	r0, 80039c6 <HAL_FLASHEx_Erase+0x7a>
    *SectorError = 0xFFFFFFFFU;
 800396c:	f04f 33ff 	mov.w	r3, #4294967295	; 0xffffffff
 8003970:	6033      	str	r3, [r6, #0]
    if(pEraseInit->TypeErase == FLASH_TYPEERASE_MASSERASE)
 8003972:	6823      	ldr	r3, [r4, #0]
 8003974:	2b01      	cmp	r3, #1
 8003976:	d016      	beq.n	80039a6 <HAL_FLASHEx_Erase+0x5a>
      for(index = pEraseInit->Sector; index < (pEraseInit->NbSectors + pEraseInit->Sector); index++)
 8003978:	68a5      	ldr	r5, [r4, #8]
 800397a:	68e3      	ldr	r3, [r4, #12]
 800397c:	68a1      	ldr	r1, [r4, #8]
 800397e:	440b      	add	r3, r1
 8003980:	42ab      	cmp	r3, r5
 8003982:	d920      	bls.n	80039c6 <HAL_FLASHEx_Erase+0x7a>
        FLASH_Erase_Sector(index, (uint8_t) pEraseInit->VoltageRange);
 8003984:	7c21      	ldrb	r1, [r4, #16]
 8003986:	4628      	mov	r0, r5
 8003988:	f7ff ffb0 	bl	80038ec <FLASH_Erase_Sector>
        status = FLASH_WaitForLastOperation((uint32_t)FLASH_TIMEOUT_VALUE);
 800398c:	f24c 3050 	movw	r0, #50000	; 0xc350
 8003990:	f7ff ff10 	bl	80037b4 <FLASH_WaitForLastOperation>
        CLEAR_BIT(FLASH->CR, (FLASH_CR_SER | FLASH_CR_SNB)); 
 8003994:	4a11      	ldr	r2, [pc, #68]	; (80039dc <HAL_FLASHEx_Erase+0x90>)
 8003996:	6913      	ldr	r3, [r2, #16]
 8003998:	f023 03fa 	bic.w	r3, r3, #250	; 0xfa
 800399c:	6113      	str	r3, [r2, #16]
        if(status != HAL_OK) 
 800399e:	4602      	mov	r2, r0
 80039a0:	b980      	cbnz	r0, 80039c4 <HAL_FLASHEx_Erase+0x78>
      for(index = pEraseInit->Sector; index < (pEraseInit->NbSectors + pEraseInit->Sector); index++)
 80039a2:	3501      	adds	r5, #1
 80039a4:	e7e9      	b.n	800397a <HAL_FLASHEx_Erase+0x2e>
      FLASH_MassErase((uint8_t) pEraseInit->VoltageRange, pEraseInit->Banks);
 80039a6:	6861      	ldr	r1, [r4, #4]
 80039a8:	7c20      	ldrb	r0, [r4, #16]
 80039aa:	f7ff ff79 	bl	80038a0 <FLASH_MassErase>
      status = FLASH_WaitForLastOperation((uint32_t)FLASH_TIMEOUT_VALUE);
 80039ae:	f24c 3050 	movw	r0, #50000	; 0xc350
 80039b2:	f7ff feff 	bl	80037b4 <FLASH_WaitForLastOperation>
 80039b6:	4602      	mov	r2, r0
      FLASH->CR &= (~FLASH_MER_BIT);
 80039b8:	4908      	ldr	r1, [pc, #32]	; (80039dc <HAL_FLASHEx_Erase+0x90>)
 80039ba:	6908      	ldr	r0, [r1, #16]
 80039bc:	4b08      	ldr	r3, [pc, #32]	; (80039e0 <HAL_FLASHEx_Erase+0x94>)
 80039be:	4003      	ands	r3, r0
 80039c0:	610b      	str	r3, [r1, #16]
 80039c2:	e000      	b.n	80039c6 <HAL_FLASHEx_Erase+0x7a>
          *SectorError = index;
 80039c4:	6035      	str	r5, [r6, #0]
  __HAL_UNLOCK(&pFlash);
 80039c6:	4b04      	ldr	r3, [pc, #16]	; (80039d8 <HAL_FLASHEx_Erase+0x8c>)
 80039c8:	2100      	movs	r1, #0
 80039ca:	7519      	strb	r1, [r3, #20]
}
 80039cc:	4610      	mov	r0, r2
 80039ce:	bd70      	pop	{r4, r5, r6, pc}
  __HAL_LOCK(&pFlash);
 80039d0:	2202      	movs	r2, #2
}
 80039d2:	4610      	mov	r0, r2
 80039d4:	4770      	bx	lr
 80039d6:	bf00      	nop
 80039d8:	20000cf4 	.word	0x20000cf4
 80039dc:	40023c00 	.word	0x40023c00
 80039e0:	ffff7ffb 	.word	0xffff7ffb

080039e4 <HAL_GPIO_Init>:
  assert_param(IS_GPIO_PIN(GPIO_Init->Pin));
  assert_param(IS_GPIO_MODE(GPIO_Init->Mode));
  assert_param(IS_GPIO_PULL(GPIO_Init->Pull));

  /* Configure the port pins */
  for(position = 0; position < GPIO_NUMBER; position++)
 80039e4:	2300      	movs	r3, #0
 80039e6:	2b0f      	cmp	r3, #15
 80039e8:	f200 80e2 	bhi.w	8003bb0 <HAL_GPIO_Init+0x1cc>
{
 80039ec:	b4f0      	push	{r4, r5, r6, r7}
 80039ee:	b082      	sub	sp, #8
 80039f0:	e039      	b.n	8003a66 <HAL_GPIO_Init+0x82>
        /* Enable SYSCFG Clock */
        __HAL_RCC_SYSCFG_CLK_ENABLE();

        temp = SYSCFG->EXTICR[position >> 2];
        temp &= ~(((uint32_t)0x0F) << (4 * (position & 0x03)));
        temp |= ((uint32_t)(GPIO_GET_INDEX(GPIOx)) << (4 * (position & 0x03)));
 80039f2:	2209      	movs	r2, #9
 80039f4:	e000      	b.n	80039f8 <HAL_GPIO_Init+0x14>
 80039f6:	2200      	movs	r2, #0
 80039f8:	40b2      	lsls	r2, r6
 80039fa:	433a      	orrs	r2, r7
        SYSCFG->EXTICR[position >> 2] = temp;
 80039fc:	3402      	adds	r4, #2
 80039fe:	4e6d      	ldr	r6, [pc, #436]	; (8003bb4 <HAL_GPIO_Init+0x1d0>)
 8003a00:	f846 2024 	str.w	r2, [r6, r4, lsl #2]

        /* Clear EXTI line configuration */
        temp = EXTI->IMR;
 8003a04:	4a6c      	ldr	r2, [pc, #432]	; (8003bb8 <HAL_GPIO_Init+0x1d4>)
 8003a06:	6814      	ldr	r4, [r2, #0]
        temp &= ~((uint32_t)iocurrent);
 8003a08:	43ea      	mvns	r2, r5
 8003a0a:	ea02 0604 	and.w	r6, r2, r4
        if((GPIO_Init->Mode & GPIO_MODE_IT) == GPIO_MODE_IT)
 8003a0e:	684f      	ldr	r7, [r1, #4]
 8003a10:	f417 3f80 	tst.w	r7, #65536	; 0x10000
 8003a14:	d001      	beq.n	8003a1a <HAL_GPIO_Init+0x36>
        {
          temp |= iocurrent;
 8003a16:	ea45 0604 	orr.w	r6, r5, r4
        }
        EXTI->IMR = temp;
 8003a1a:	4c67      	ldr	r4, [pc, #412]	; (8003bb8 <HAL_GPIO_Init+0x1d4>)
 8003a1c:	6026      	str	r6, [r4, #0]

        temp = EXTI->EMR;
 8003a1e:	6864      	ldr	r4, [r4, #4]
        temp &= ~((uint32_t)iocurrent);
 8003a20:	ea02 0604 	and.w	r6, r2, r4
        if((GPIO_Init->Mode & GPIO_MODE_EVT) == GPIO_MODE_EVT)
 8003a24:	684f      	ldr	r7, [r1, #4]
 8003a26:	f417 3f00 	tst.w	r7, #131072	; 0x20000
 8003a2a:	d001      	beq.n	8003a30 <HAL_GPIO_Init+0x4c>
        {
          temp |= iocurrent;
 8003a2c:	ea45 0604 	orr.w	r6, r5, r4
        }
        EXTI->EMR = temp;
 8003a30:	4c61      	ldr	r4, [pc, #388]	; (8003bb8 <HAL_GPIO_Init+0x1d4>)
 8003a32:	6066      	str	r6, [r4, #4]

        /* Clear Rising Falling edge configuration */
        temp = EXTI->RTSR;
 8003a34:	68a4      	ldr	r4, [r4, #8]
        temp &= ~((uint32_t)iocurrent);
 8003a36:	ea02 0604 	and.w	r6, r2, r4
        if((GPIO_Init->Mode & RISING_EDGE) == RISING_EDGE)
 8003a3a:	684f      	ldr	r7, [r1, #4]
 8003a3c:	f417 1f80 	tst.w	r7, #1048576	; 0x100000
 8003a40:	d001      	beq.n	8003a46 <HAL_GPIO_Init+0x62>
        {
          temp |= iocurrent;
 8003a42:	ea45 0604 	orr.w	r6, r5, r4
        }
        EXTI->RTSR = temp;
 8003a46:	4c5c      	ldr	r4, [pc, #368]	; (8003bb8 <HAL_GPIO_Init+0x1d4>)
 8003a48:	60a6      	str	r6, [r4, #8]

        temp = EXTI->FTSR;
 8003a4a:	68e4      	ldr	r4, [r4, #12]
        temp &= ~((uint32_t)iocurrent);
 8003a4c:	4022      	ands	r2, r4
        if((GPIO_Init->Mode & FALLING_EDGE) == FALLING_EDGE)
 8003a4e:	684e      	ldr	r6, [r1, #4]
 8003a50:	f416 1f00 	tst.w	r6, #2097152	; 0x200000
 8003a54:	d001      	beq.n	8003a5a <HAL_GPIO_Init+0x76>
        {
          temp |= iocurrent;
 8003a56:	ea45 0204 	orr.w	r2, r5, r4
        }
        EXTI->FTSR = temp;
 8003a5a:	4c57      	ldr	r4, [pc, #348]	; (8003bb8 <HAL_GPIO_Init+0x1d4>)
 8003a5c:	60e2      	str	r2, [r4, #12]
  for(position = 0; position < GPIO_NUMBER; position++)
 8003a5e:	3301      	adds	r3, #1
 8003a60:	2b0f      	cmp	r3, #15
 8003a62:	f200 80a2 	bhi.w	8003baa <HAL_GPIO_Init+0x1c6>
    ioposition = ((uint32_t)0x01) << position;
 8003a66:	2201      	movs	r2, #1
 8003a68:	409a      	lsls	r2, r3
    iocurrent = (uint32_t)(GPIO_Init->Pin) & ioposition;
 8003a6a:	680c      	ldr	r4, [r1, #0]
 8003a6c:	ea04 0502 	and.w	r5, r4, r2
    if(iocurrent == ioposition)
 8003a70:	42aa      	cmp	r2, r5
 8003a72:	d1f4      	bne.n	8003a5e <HAL_GPIO_Init+0x7a>
      if((GPIO_Init->Mode == GPIO_MODE_AF_PP) || (GPIO_Init->Mode == GPIO_MODE_AF_OD))
 8003a74:	684c      	ldr	r4, [r1, #4]
 8003a76:	2c12      	cmp	r4, #18
 8003a78:	bf18      	it	ne
 8003a7a:	2c02      	cmpne	r4, #2
 8003a7c:	d110      	bne.n	8003aa0 <HAL_GPIO_Init+0xbc>
        temp = GPIOx->AFR[position >> 3];
 8003a7e:	08de      	lsrs	r6, r3, #3
 8003a80:	3608      	adds	r6, #8
 8003a82:	f850 c026 	ldr.w	ip, [r0, r6, lsl #2]
        temp &= ~((uint32_t)0xF << ((uint32_t)(position & (uint32_t)0x07) * 4)) ;
 8003a86:	f003 0407 	and.w	r4, r3, #7
 8003a8a:	00a7      	lsls	r7, r4, #2
 8003a8c:	240f      	movs	r4, #15
 8003a8e:	40bc      	lsls	r4, r7
 8003a90:	ea2c 0c04 	bic.w	ip, ip, r4
        temp |= ((uint32_t)(GPIO_Init->Alternate) << (((uint32_t)position & (uint32_t)0x07) * 4));
 8003a94:	690c      	ldr	r4, [r1, #16]
 8003a96:	40bc      	lsls	r4, r7
 8003a98:	ea44 040c 	orr.w	r4, r4, ip
        GPIOx->AFR[position >> 3] = temp;
 8003a9c:	f840 4026 	str.w	r4, [r0, r6, lsl #2]
      temp = GPIOx->MODER;
 8003aa0:	6804      	ldr	r4, [r0, #0]
      temp &= ~(GPIO_MODER_MODER0 << (position * 2));
 8003aa2:	005f      	lsls	r7, r3, #1
 8003aa4:	2603      	movs	r6, #3
 8003aa6:	40be      	lsls	r6, r7
 8003aa8:	43f6      	mvns	r6, r6
 8003aaa:	ea06 0c04 	and.w	ip, r6, r4
      temp |= ((GPIO_Init->Mode & GPIO_MODE) << (position * 2));
 8003aae:	684c      	ldr	r4, [r1, #4]
 8003ab0:	f004 0403 	and.w	r4, r4, #3
 8003ab4:	40bc      	lsls	r4, r7
 8003ab6:	ea44 040c 	orr.w	r4, r4, ip
      GPIOx->MODER = temp;
 8003aba:	6004      	str	r4, [r0, #0]
      if((GPIO_Init->Mode == GPIO_MODE_OUTPUT_PP) || (GPIO_Init->Mode == GPIO_MODE_AF_PP) ||
 8003abc:	684c      	ldr	r4, [r1, #4]
 8003abe:	f104 3cff 	add.w	ip, r4, #4294967295	; 0xffffffff
 8003ac2:	2c11      	cmp	r4, #17
 8003ac4:	bf18      	it	ne
 8003ac6:	f1bc 0f01 	cmpne.w	ip, #1
 8003aca:	d901      	bls.n	8003ad0 <HAL_GPIO_Init+0xec>
         (GPIO_Init->Mode == GPIO_MODE_OUTPUT_OD) || (GPIO_Init->Mode == GPIO_MODE_AF_OD))
 8003acc:	2c12      	cmp	r4, #18
 8003ace:	d111      	bne.n	8003af4 <HAL_GPIO_Init+0x110>
        temp = GPIOx->OSPEEDR; 
 8003ad0:	6884      	ldr	r4, [r0, #8]
        temp &= ~(GPIO_OSPEEDER_OSPEEDR0 << (position * 2));
 8003ad2:	ea06 0c04 	and.w	ip, r6, r4
        temp |= (GPIO_Init->Speed << (position * 2));
 8003ad6:	68cc      	ldr	r4, [r1, #12]
 8003ad8:	40bc      	lsls	r4, r7
 8003ada:	ea44 040c 	orr.w	r4, r4, ip
        GPIOx->OSPEEDR = temp;
 8003ade:	6084      	str	r4, [r0, #8]
        temp = GPIOx->OTYPER;
 8003ae0:	6844      	ldr	r4, [r0, #4]
        temp &= ~(GPIO_OTYPER_OT_0 << position) ;
 8003ae2:	ea24 0c02 	bic.w	ip, r4, r2
        temp |= (((GPIO_Init->Mode & GPIO_OUTPUT_TYPE) >> 4) << position);
 8003ae6:	684c      	ldr	r4, [r1, #4]
 8003ae8:	f3c4 1200 	ubfx	r2, r4, #4, #1
 8003aec:	409a      	lsls	r2, r3
 8003aee:	ea42 020c 	orr.w	r2, r2, ip
        GPIOx->OTYPER = temp;
 8003af2:	6042      	str	r2, [r0, #4]
      temp = GPIOx->PUPDR;
 8003af4:	68c2      	ldr	r2, [r0, #12]
      temp &= ~(GPIO_PUPDR_PUPDR0 << (position * 2));
 8003af6:	4016      	ands	r6, r2
      temp |= ((GPIO_Init->Pull) << (position * 2));
 8003af8:	688a      	ldr	r2, [r1, #8]
 8003afa:	40ba      	lsls	r2, r7
 8003afc:	4332      	orrs	r2, r6
      GPIOx->PUPDR = temp;
 8003afe:	60c2      	str	r2, [r0, #12]
      if((GPIO_Init->Mode & EXTI_MODE) == EXTI_MODE)
 8003b00:	684a      	ldr	r2, [r1, #4]
 8003b02:	f012 5f80 	tst.w	r2, #268435456	; 0x10000000
 8003b06:	d0aa      	beq.n	8003a5e <HAL_GPIO_Init+0x7a>
        __HAL_RCC_SYSCFG_CLK_ENABLE();
 8003b08:	4a2c      	ldr	r2, [pc, #176]	; (8003bbc <HAL_GPIO_Init+0x1d8>)
 8003b0a:	6c54      	ldr	r4, [r2, #68]	; 0x44
 8003b0c:	f444 4480 	orr.w	r4, r4, #16384	; 0x4000
 8003b10:	6454      	str	r4, [r2, #68]	; 0x44
 8003b12:	6c52      	ldr	r2, [r2, #68]	; 0x44
 8003b14:	f402 4280 	and.w	r2, r2, #16384	; 0x4000
 8003b18:	9201      	str	r2, [sp, #4]
 8003b1a:	9a01      	ldr	r2, [sp, #4]
        temp = SYSCFG->EXTICR[position >> 2];
 8003b1c:	089c      	lsrs	r4, r3, #2
 8003b1e:	1ca6      	adds	r6, r4, #2
 8003b20:	4a24      	ldr	r2, [pc, #144]	; (8003bb4 <HAL_GPIO_Init+0x1d0>)
 8003b22:	f852 7026 	ldr.w	r7, [r2, r6, lsl #2]
        temp &= ~(((uint32_t)0x0F) << (4 * (position & 0x03)));
 8003b26:	f003 0203 	and.w	r2, r3, #3
 8003b2a:	0096      	lsls	r6, r2, #2
 8003b2c:	220f      	movs	r2, #15
 8003b2e:	40b2      	lsls	r2, r6
 8003b30:	ea27 0702 	bic.w	r7, r7, r2
        temp |= ((uint32_t)(GPIO_GET_INDEX(GPIOx)) << (4 * (position & 0x03)));
 8003b34:	4a22      	ldr	r2, [pc, #136]	; (8003bc0 <HAL_GPIO_Init+0x1dc>)
 8003b36:	4290      	cmp	r0, r2
 8003b38:	f43f af5d 	beq.w	80039f6 <HAL_GPIO_Init+0x12>
 8003b3c:	f502 6280 	add.w	r2, r2, #1024	; 0x400
 8003b40:	4290      	cmp	r0, r2
 8003b42:	d022      	beq.n	8003b8a <HAL_GPIO_Init+0x1a6>
 8003b44:	f502 6280 	add.w	r2, r2, #1024	; 0x400
 8003b48:	4290      	cmp	r0, r2
 8003b4a:	d020      	beq.n	8003b8e <HAL_GPIO_Init+0x1aa>
 8003b4c:	f502 6280 	add.w	r2, r2, #1024	; 0x400
 8003b50:	4290      	cmp	r0, r2
 8003b52:	d01e      	beq.n	8003b92 <HAL_GPIO_Init+0x1ae>
 8003b54:	f502 6280 	add.w	r2, r2, #1024	; 0x400
 8003b58:	4290      	cmp	r0, r2
 8003b5a:	d01c      	beq.n	8003b96 <HAL_GPIO_Init+0x1b2>
 8003b5c:	f502 6280 	add.w	r2, r2, #1024	; 0x400
 8003b60:	4290      	cmp	r0, r2
 8003b62:	d01a      	beq.n	8003b9a <HAL_GPIO_Init+0x1b6>
 8003b64:	f502 6280 	add.w	r2, r2, #1024	; 0x400
 8003b68:	4290      	cmp	r0, r2
 8003b6a:	d018      	beq.n	8003b9e <HAL_GPIO_Init+0x1ba>
 8003b6c:	f502 6280 	add.w	r2, r2, #1024	; 0x400
 8003b70:	4290      	cmp	r0, r2
 8003b72:	d016      	beq.n	8003ba2 <HAL_GPIO_Init+0x1be>
 8003b74:	f502 6280 	add.w	r2, r2, #1024	; 0x400
 8003b78:	4290      	cmp	r0, r2
 8003b7a:	d014      	beq.n	8003ba6 <HAL_GPIO_Init+0x1c2>
 8003b7c:	f502 6280 	add.w	r2, r2, #1024	; 0x400
 8003b80:	4290      	cmp	r0, r2
 8003b82:	f43f af36 	beq.w	80039f2 <HAL_GPIO_Init+0xe>
 8003b86:	220a      	movs	r2, #10
 8003b88:	e736      	b.n	80039f8 <HAL_GPIO_Init+0x14>
 8003b8a:	2201      	movs	r2, #1
 8003b8c:	e734      	b.n	80039f8 <HAL_GPIO_Init+0x14>
 8003b8e:	2202      	movs	r2, #2
 8003b90:	e732      	b.n	80039f8 <HAL_GPIO_Init+0x14>
 8003b92:	2203      	movs	r2, #3
 8003b94:	e730      	b.n	80039f8 <HAL_GPIO_Init+0x14>
 8003b96:	2204      	movs	r2, #4
 8003b98:	e72e      	b.n	80039f8 <HAL_GPIO_Init+0x14>
 8003b9a:	2205      	movs	r2, #5
 8003b9c:	e72c      	b.n	80039f8 <HAL_GPIO_Init+0x14>
 8003b9e:	2206      	movs	r2, #6
 8003ba0:	e72a      	b.n	80039f8 <HAL_GPIO_Init+0x14>
 8003ba2:	2207      	movs	r2, #7
 8003ba4:	e728      	b.n	80039f8 <HAL_GPIO_Init+0x14>
 8003ba6:	2208      	movs	r2, #8
 8003ba8:	e726      	b.n	80039f8 <HAL_GPIO_Init+0x14>
      }
    }
  }
}
 8003baa:	b002      	add	sp, #8
 8003bac:	bcf0      	pop	{r4, r5, r6, r7}
 8003bae:	4770      	bx	lr
 8003bb0:	4770      	bx	lr
 8003bb2:	bf00      	nop
 8003bb4:	40013800 	.word	0x40013800
 8003bb8:	40013c00 	.word	0x40013c00
 8003bbc:	40023800 	.word	0x40023800
 8003bc0:	40020000 	.word	0x40020000

08003bc4 <HAL_GPIO_DeInit>:

  /* Check the parameters */
  assert_param(IS_GPIO_ALL_INSTANCE(GPIOx));
  
  /* Configure the port pins */
  for(position = 0; position < GPIO_NUMBER; position++)
 8003bc4:	2300      	movs	r3, #0
 8003bc6:	2b0f      	cmp	r3, #15
 8003bc8:	f200 8092 	bhi.w	8003cf0 <HAL_GPIO_DeInit+0x12c>
{
 8003bcc:	b5f0      	push	{r4, r5, r6, r7, lr}
 8003bce:	e00a      	b.n	8003be6 <HAL_GPIO_DeInit+0x22>
      GPIOx->PUPDR &= ~(GPIO_PUPDR_PUPDR0 << (position * 2));

      /*------------------------- EXTI Mode Configuration --------------------*/
      tmp = SYSCFG->EXTICR[position >> 2];
      tmp &= (((uint32_t)0x0F) << (4 * (position & 0x03)));
      if(tmp == ((uint32_t)(GPIO_GET_INDEX(GPIOx)) << (4 * (position & 0x03))))
 8003bd0:	2509      	movs	r5, #9
 8003bd2:	e000      	b.n	8003bd6 <HAL_GPIO_DeInit+0x12>
 8003bd4:	2500      	movs	r5, #0
 8003bd6:	fa05 f202 	lsl.w	r2, r5, r2
 8003bda:	42a2      	cmp	r2, r4
 8003bdc:	d06f      	beq.n	8003cbe <HAL_GPIO_DeInit+0xfa>
  for(position = 0; position < GPIO_NUMBER; position++)
 8003bde:	3301      	adds	r3, #1
 8003be0:	2b0f      	cmp	r3, #15
 8003be2:	f200 8084 	bhi.w	8003cee <HAL_GPIO_DeInit+0x12a>
    ioposition = ((uint32_t)0x01) << position;
 8003be6:	2201      	movs	r2, #1
 8003be8:	409a      	lsls	r2, r3
    iocurrent = (GPIO_Pin) & ioposition;
 8003bea:	ea02 0601 	and.w	r6, r2, r1
    if(iocurrent == ioposition)
 8003bee:	42b2      	cmp	r2, r6
 8003bf0:	d1f5      	bne.n	8003bde <HAL_GPIO_DeInit+0x1a>
      GPIOx->MODER &= ~(GPIO_MODER_MODER0 << (position * 2));
 8003bf2:	6805      	ldr	r5, [r0, #0]
 8003bf4:	005f      	lsls	r7, r3, #1
 8003bf6:	2403      	movs	r4, #3
 8003bf8:	40bc      	lsls	r4, r7
 8003bfa:	43e4      	mvns	r4, r4
 8003bfc:	4025      	ands	r5, r4
 8003bfe:	6005      	str	r5, [r0, #0]
      GPIOx->AFR[position >> 3] &= ~((uint32_t)0xF << ((uint32_t)(position & (uint32_t)0x07) * 4)) ;
 8003c00:	ea4f 0cd3 	mov.w	ip, r3, lsr #3
 8003c04:	f10c 0c08 	add.w	ip, ip, #8
 8003c08:	f850 e02c 	ldr.w	lr, [r0, ip, lsl #2]
 8003c0c:	f003 0507 	and.w	r5, r3, #7
 8003c10:	00ad      	lsls	r5, r5, #2
 8003c12:	270f      	movs	r7, #15
 8003c14:	fa07 f505 	lsl.w	r5, r7, r5
 8003c18:	ea2e 0505 	bic.w	r5, lr, r5
 8003c1c:	f840 502c 	str.w	r5, [r0, ip, lsl #2]
      GPIOx->OSPEEDR &= ~(GPIO_OSPEEDER_OSPEEDR0 << (position * 2));
 8003c20:	6885      	ldr	r5, [r0, #8]
 8003c22:	4025      	ands	r5, r4
 8003c24:	6085      	str	r5, [r0, #8]
      GPIOx->OTYPER  &= ~(GPIO_OTYPER_OT_0 << position) ;
 8003c26:	6845      	ldr	r5, [r0, #4]
 8003c28:	ea25 0202 	bic.w	r2, r5, r2
 8003c2c:	6042      	str	r2, [r0, #4]
      GPIOx->PUPDR &= ~(GPIO_PUPDR_PUPDR0 << (position * 2));
 8003c2e:	68c2      	ldr	r2, [r0, #12]
 8003c30:	4014      	ands	r4, r2
 8003c32:	60c4      	str	r4, [r0, #12]
      tmp = SYSCFG->EXTICR[position >> 2];
 8003c34:	ea4f 0c93 	mov.w	ip, r3, lsr #2
 8003c38:	f10c 0402 	add.w	r4, ip, #2
 8003c3c:	4a2d      	ldr	r2, [pc, #180]	; (8003cf4 <HAL_GPIO_DeInit+0x130>)
 8003c3e:	f852 4024 	ldr.w	r4, [r2, r4, lsl #2]
      tmp &= (((uint32_t)0x0F) << (4 * (position & 0x03)));
 8003c42:	f003 0203 	and.w	r2, r3, #3
 8003c46:	0092      	lsls	r2, r2, #2
 8003c48:	4097      	lsls	r7, r2
 8003c4a:	403c      	ands	r4, r7
      if(tmp == ((uint32_t)(GPIO_GET_INDEX(GPIOx)) << (4 * (position & 0x03))))
 8003c4c:	4d2a      	ldr	r5, [pc, #168]	; (8003cf8 <HAL_GPIO_DeInit+0x134>)
 8003c4e:	42a8      	cmp	r0, r5
 8003c50:	d0c0      	beq.n	8003bd4 <HAL_GPIO_DeInit+0x10>
 8003c52:	f505 6580 	add.w	r5, r5, #1024	; 0x400
 8003c56:	42a8      	cmp	r0, r5
 8003c58:	d021      	beq.n	8003c9e <HAL_GPIO_DeInit+0xda>
 8003c5a:	f505 6580 	add.w	r5, r5, #1024	; 0x400
 8003c5e:	42a8      	cmp	r0, r5
 8003c60:	d01f      	beq.n	8003ca2 <HAL_GPIO_DeInit+0xde>
 8003c62:	f505 6580 	add.w	r5, r5, #1024	; 0x400
 8003c66:	42a8      	cmp	r0, r5
 8003c68:	d01d      	beq.n	8003ca6 <HAL_GPIO_DeInit+0xe2>
 8003c6a:	f505 6580 	add.w	r5, r5, #1024	; 0x400
 8003c6e:	42a8      	cmp	r0, r5
 8003c70:	d01b      	beq.n	8003caa <HAL_GPIO_DeInit+0xe6>
 8003c72:	f505 6580 	add.w	r5, r5, #1024	; 0x400
 8003c76:	42a8      	cmp	r0, r5
 8003c78:	d019      	beq.n	8003cae <HAL_GPIO_DeInit+0xea>
 8003c7a:	f505 6580 	add.w	r5, r5, #1024	; 0x400
 8003c7e:	42a8      	cmp	r0, r5
 8003c80:	d017      	beq.n	8003cb2 <HAL_GPIO_DeInit+0xee>
 8003c82:	f505 6580 	add.w	r5, r5, #1024	; 0x400
 8003c86:	42a8      	cmp	r0, r5
 8003c88:	d015      	beq.n	8003cb6 <HAL_GPIO_DeInit+0xf2>
 8003c8a:	f505 6580 	add.w	r5, r5, #1024	; 0x400
 8003c8e:	42a8      	cmp	r0, r5
 8003c90:	d013      	beq.n	8003cba <HAL_GPIO_DeInit+0xf6>
 8003c92:	f505 6580 	add.w	r5, r5, #1024	; 0x400
 8003c96:	42a8      	cmp	r0, r5
 8003c98:	d09a      	beq.n	8003bd0 <HAL_GPIO_DeInit+0xc>
 8003c9a:	250a      	movs	r5, #10
 8003c9c:	e79b      	b.n	8003bd6 <HAL_GPIO_DeInit+0x12>
 8003c9e:	2501      	movs	r5, #1
 8003ca0:	e799      	b.n	8003bd6 <HAL_GPIO_DeInit+0x12>
 8003ca2:	2502      	movs	r5, #2
 8003ca4:	e797      	b.n	8003bd6 <HAL_GPIO_DeInit+0x12>
 8003ca6:	2503      	movs	r5, #3
 8003ca8:	e795      	b.n	8003bd6 <HAL_GPIO_DeInit+0x12>
 8003caa:	2504      	movs	r5, #4
 8003cac:	e793      	b.n	8003bd6 <HAL_GPIO_DeInit+0x12>
 8003cae:	2505      	movs	r5, #5
 8003cb0:	e791      	b.n	8003bd6 <HAL_GPIO_DeInit+0x12>
 8003cb2:	2506      	movs	r5, #6
 8003cb4:	e78f      	b.n	8003bd6 <HAL_GPIO_DeInit+0x12>
 8003cb6:	2507      	movs	r5, #7
 8003cb8:	e78d      	b.n	8003bd6 <HAL_GPIO_DeInit+0x12>
 8003cba:	2508      	movs	r5, #8
 8003cbc:	e78b      	b.n	8003bd6 <HAL_GPIO_DeInit+0x12>
      {
        /* Configure the External Interrupt or event for the current IO */
        tmp = ((uint32_t)0x0F) << (4 * (position & 0x03));
        SYSCFG->EXTICR[position >> 2] &= ~tmp;
 8003cbe:	4d0d      	ldr	r5, [pc, #52]	; (8003cf4 <HAL_GPIO_DeInit+0x130>)
 8003cc0:	f10c 0202 	add.w	r2, ip, #2
 8003cc4:	f855 4022 	ldr.w	r4, [r5, r2, lsl #2]
 8003cc8:	ea24 0707 	bic.w	r7, r4, r7
 8003ccc:	f845 7022 	str.w	r7, [r5, r2, lsl #2]

        /* Clear EXTI line configuration */
        EXTI->IMR &= ~((uint32_t)iocurrent);
 8003cd0:	4c0a      	ldr	r4, [pc, #40]	; (8003cfc <HAL_GPIO_DeInit+0x138>)
 8003cd2:	6825      	ldr	r5, [r4, #0]
 8003cd4:	43f2      	mvns	r2, r6
 8003cd6:	4015      	ands	r5, r2
 8003cd8:	6025      	str	r5, [r4, #0]
        EXTI->EMR &= ~((uint32_t)iocurrent);
 8003cda:	6865      	ldr	r5, [r4, #4]
 8003cdc:	4015      	ands	r5, r2
 8003cde:	6065      	str	r5, [r4, #4]

        /* Clear Rising Falling edge configuration */
        EXTI->RTSR &= ~((uint32_t)iocurrent);
 8003ce0:	68a5      	ldr	r5, [r4, #8]
 8003ce2:	4015      	ands	r5, r2
 8003ce4:	60a5      	str	r5, [r4, #8]
        EXTI->FTSR &= ~((uint32_t)iocurrent);
 8003ce6:	68e5      	ldr	r5, [r4, #12]
 8003ce8:	402a      	ands	r2, r5
 8003cea:	60e2      	str	r2, [r4, #12]
 8003cec:	e777      	b.n	8003bde <HAL_GPIO_DeInit+0x1a>
	  }
    }
  }
}
 8003cee:	bdf0      	pop	{r4, r5, r6, r7, pc}
 8003cf0:	4770      	bx	lr
 8003cf2:	bf00      	nop
 8003cf4:	40013800 	.word	0x40013800
 8003cf8:	40020000 	.word	0x40020000
 8003cfc:	40013c00 	.word	0x40013c00

08003d00 <HAL_GPIO_WritePin>:
{
  /* Check the parameters */
  assert_param(IS_GPIO_PIN(GPIO_Pin));
  assert_param(IS_GPIO_PIN_ACTION(PinState));

  if(PinState != GPIO_PIN_RESET)
 8003d00:	b912      	cbnz	r2, 8003d08 <HAL_GPIO_WritePin+0x8>
  {
    GPIOx->BSRR = GPIO_Pin;
  }
  else
  {
    GPIOx->BSRR = (uint32_t)GPIO_Pin << 16;
 8003d02:	0409      	lsls	r1, r1, #16
 8003d04:	6181      	str	r1, [r0, #24]
  }
}
 8003d06:	4770      	bx	lr
    GPIOx->BSRR = GPIO_Pin;
 8003d08:	6181      	str	r1, [r0, #24]
 8003d0a:	4770      	bx	lr

08003d0c <HAL_PWREx_EnableOverDrive>:
  *         During the Over-drive switch activation, no peripheral clocks should be enabled.   
  *         The peripheral clocks must be enabled once the Over-drive mode is activated.   
  * @retval HAL status
  */
HAL_StatusTypeDef HAL_PWREx_EnableOverDrive(void)
{
 8003d0c:	b510      	push	{r4, lr}
 8003d0e:	b082      	sub	sp, #8
  uint32_t tickstart = 0;

  __HAL_RCC_PWR_CLK_ENABLE();
 8003d10:	4b1b      	ldr	r3, [pc, #108]	; (8003d80 <HAL_PWREx_EnableOverDrive+0x74>)
 8003d12:	6c1a      	ldr	r2, [r3, #64]	; 0x40
 8003d14:	f042 5280 	orr.w	r2, r2, #268435456	; 0x10000000
 8003d18:	641a      	str	r2, [r3, #64]	; 0x40
 8003d1a:	6c1b      	ldr	r3, [r3, #64]	; 0x40
 8003d1c:	f003 5380 	and.w	r3, r3, #268435456	; 0x10000000
 8003d20:	9301      	str	r3, [sp, #4]
 8003d22:	9b01      	ldr	r3, [sp, #4]
  
  /* Enable the Over-drive to extend the clock frequency to 216 MHz */
  __HAL_PWR_OVERDRIVE_ENABLE();
 8003d24:	4a17      	ldr	r2, [pc, #92]	; (8003d84 <HAL_PWREx_EnableOverDrive+0x78>)
 8003d26:	6813      	ldr	r3, [r2, #0]
 8003d28:	f443 3380 	orr.w	r3, r3, #65536	; 0x10000
 8003d2c:	6013      	str	r3, [r2, #0]

  /* Get tick */
  tickstart = HAL_GetTick();
 8003d2e:	f7fc fe53 	bl	80009d8 <HAL_GetTick>
 8003d32:	4604      	mov	r4, r0

  while(!__HAL_PWR_GET_FLAG(PWR_FLAG_ODRDY))
 8003d34:	4b13      	ldr	r3, [pc, #76]	; (8003d84 <HAL_PWREx_EnableOverDrive+0x78>)
 8003d36:	685b      	ldr	r3, [r3, #4]
 8003d38:	f413 3f80 	tst.w	r3, #65536	; 0x10000
 8003d3c:	d108      	bne.n	8003d50 <HAL_PWREx_EnableOverDrive+0x44>
  {
    if((HAL_GetTick() - tickstart ) > PWR_OVERDRIVE_TIMEOUT_VALUE)
 8003d3e:	f7fc fe4b 	bl	80009d8 <HAL_GetTick>
 8003d42:	1b00      	subs	r0, r0, r4
 8003d44:	f5b0 7f7a 	cmp.w	r0, #1000	; 0x3e8
 8003d48:	d9f4      	bls.n	8003d34 <HAL_PWREx_EnableOverDrive+0x28>
    {
      return HAL_TIMEOUT;
 8003d4a:	2003      	movs	r0, #3
    {
      return HAL_TIMEOUT;
    }
  } 
  return HAL_OK;
}
 8003d4c:	b002      	add	sp, #8
 8003d4e:	bd10      	pop	{r4, pc}
  __HAL_PWR_OVERDRIVESWITCHING_ENABLE();
 8003d50:	4a0c      	ldr	r2, [pc, #48]	; (8003d84 <HAL_PWREx_EnableOverDrive+0x78>)
 8003d52:	6813      	ldr	r3, [r2, #0]
 8003d54:	f443 3300 	orr.w	r3, r3, #131072	; 0x20000
 8003d58:	6013      	str	r3, [r2, #0]
  tickstart = HAL_GetTick();
 8003d5a:	f7fc fe3d 	bl	80009d8 <HAL_GetTick>
 8003d5e:	4604      	mov	r4, r0
  while(!__HAL_PWR_GET_FLAG(PWR_FLAG_ODSWRDY))
 8003d60:	4b08      	ldr	r3, [pc, #32]	; (8003d84 <HAL_PWREx_EnableOverDrive+0x78>)
 8003d62:	685b      	ldr	r3, [r3, #4]
 8003d64:	f413 3f00 	tst.w	r3, #131072	; 0x20000
 8003d68:	d107      	bne.n	8003d7a <HAL_PWREx_EnableOverDrive+0x6e>
    if((HAL_GetTick() - tickstart ) > PWR_OVERDRIVE_TIMEOUT_VALUE)
 8003d6a:	f7fc fe35 	bl	80009d8 <HAL_GetTick>
 8003d6e:	1b00      	subs	r0, r0, r4
 8003d70:	f5b0 7f7a 	cmp.w	r0, #1000	; 0x3e8
 8003d74:	d9f4      	bls.n	8003d60 <HAL_PWREx_EnableOverDrive+0x54>
      return HAL_TIMEOUT;
 8003d76:	2003      	movs	r0, #3
 8003d78:	e7e8      	b.n	8003d4c <HAL_PWREx_EnableOverDrive+0x40>
  return HAL_OK;
 8003d7a:	2000      	movs	r0, #0
 8003d7c:	e7e6      	b.n	8003d4c <HAL_PWREx_EnableOverDrive+0x40>
 8003d7e:	bf00      	nop
 8003d80:	40023800 	.word	0x40023800
 8003d84:	40007000 	.word	0x40007000

08003d88 <HAL_RCC_DeInit>:
  *            - Peripheral clocks
  *            - LSI, LSE and RTC clocks
  * @retval None
  */
HAL_StatusTypeDef HAL_RCC_DeInit(void)
{
 8003d88:	b538      	push	{r3, r4, r5, lr}
  uint32_t tickstart;

  /* Get Start Tick */
  tickstart = HAL_GetTick();
 8003d8a:	f7fc fe25 	bl	80009d8 <HAL_GetTick>
 8003d8e:	4604      	mov	r4, r0

  /* Set HSION bit to the reset value */
  SET_BIT(RCC->CR, RCC_CR_HSION);
 8003d90:	4a4e      	ldr	r2, [pc, #312]	; (8003ecc <HAL_RCC_DeInit+0x144>)
 8003d92:	6813      	ldr	r3, [r2, #0]
 8003d94:	f043 0301 	orr.w	r3, r3, #1
 8003d98:	6013      	str	r3, [r2, #0]

  /* Wait till HSI is ready */
  while (READ_BIT(RCC->CR, RCC_CR_HSIRDY) == RESET)
 8003d9a:	4b4c      	ldr	r3, [pc, #304]	; (8003ecc <HAL_RCC_DeInit+0x144>)
 8003d9c:	681b      	ldr	r3, [r3, #0]
 8003d9e:	f013 0f02 	tst.w	r3, #2
 8003da2:	d107      	bne.n	8003db4 <HAL_RCC_DeInit+0x2c>
  {
    if ((HAL_GetTick() - tickstart) > HSI_TIMEOUT_VALUE)
 8003da4:	f7fc fe18 	bl	80009d8 <HAL_GetTick>
 8003da8:	1b00      	subs	r0, r0, r4
 8003daa:	2802      	cmp	r0, #2
 8003dac:	d9f5      	bls.n	8003d9a <HAL_RCC_DeInit+0x12>
    {
      return HAL_TIMEOUT;
 8003dae:	2303      	movs	r3, #3
  }
  else
  {
    return HAL_OK;
  }
}
 8003db0:	4618      	mov	r0, r3
 8003db2:	bd38      	pop	{r3, r4, r5, pc}
  SET_BIT(RCC->CR, RCC_CR_HSITRIM_4);
 8003db4:	4d45      	ldr	r5, [pc, #276]	; (8003ecc <HAL_RCC_DeInit+0x144>)
 8003db6:	682b      	ldr	r3, [r5, #0]
 8003db8:	f043 0380 	orr.w	r3, r3, #128	; 0x80
 8003dbc:	602b      	str	r3, [r5, #0]
  tickstart = HAL_GetTick();
 8003dbe:	f7fc fe0b 	bl	80009d8 <HAL_GetTick>
 8003dc2:	4604      	mov	r4, r0
  CLEAR_REG(RCC->CFGR);
 8003dc4:	2300      	movs	r3, #0
 8003dc6:	60ab      	str	r3, [r5, #8]
  while (READ_BIT(RCC->CFGR, RCC_CFGR_SWS) != RESET)
 8003dc8:	4b40      	ldr	r3, [pc, #256]	; (8003ecc <HAL_RCC_DeInit+0x144>)
 8003dca:	689b      	ldr	r3, [r3, #8]
 8003dcc:	f013 0f0c 	tst.w	r3, #12
 8003dd0:	d008      	beq.n	8003de4 <HAL_RCC_DeInit+0x5c>
    if ((HAL_GetTick() - tickstart) > CLOCKSWITCH_TIMEOUT_VALUE)
 8003dd2:	f7fc fe01 	bl	80009d8 <HAL_GetTick>
 8003dd6:	1b00      	subs	r0, r0, r4
 8003dd8:	f241 3388 	movw	r3, #5000	; 0x1388
 8003ddc:	4298      	cmp	r0, r3
 8003dde:	d9f3      	bls.n	8003dc8 <HAL_RCC_DeInit+0x40>
      return HAL_TIMEOUT;
 8003de0:	2303      	movs	r3, #3
 8003de2:	e7e5      	b.n	8003db0 <HAL_RCC_DeInit+0x28>
  tickstart = HAL_GetTick();
 8003de4:	f7fc fdf8 	bl	80009d8 <HAL_GetTick>
 8003de8:	4604      	mov	r4, r0
  CLEAR_BIT(RCC->CR, RCC_CR_HSEON | RCC_CR_HSEBYP | RCC_CR_CSSON);
 8003dea:	4a38      	ldr	r2, [pc, #224]	; (8003ecc <HAL_RCC_DeInit+0x144>)
 8003dec:	6813      	ldr	r3, [r2, #0]
 8003dee:	f423 2350 	bic.w	r3, r3, #851968	; 0xd0000
 8003df2:	6013      	str	r3, [r2, #0]
  while (READ_BIT(RCC->CR, RCC_CR_HSERDY) != RESET)
 8003df4:	4b35      	ldr	r3, [pc, #212]	; (8003ecc <HAL_RCC_DeInit+0x144>)
 8003df6:	681b      	ldr	r3, [r3, #0]
 8003df8:	f413 3f00 	tst.w	r3, #131072	; 0x20000
 8003dfc:	d006      	beq.n	8003e0c <HAL_RCC_DeInit+0x84>
    if ((HAL_GetTick() - tickstart) > HSE_TIMEOUT_VALUE)
 8003dfe:	f7fc fdeb 	bl	80009d8 <HAL_GetTick>
 8003e02:	1b00      	subs	r0, r0, r4
 8003e04:	2864      	cmp	r0, #100	; 0x64
 8003e06:	d9f5      	bls.n	8003df4 <HAL_RCC_DeInit+0x6c>
      return HAL_TIMEOUT;
 8003e08:	2303      	movs	r3, #3
 8003e0a:	e7d1      	b.n	8003db0 <HAL_RCC_DeInit+0x28>
  tickstart = HAL_GetTick();
 8003e0c:	f7fc fde4 	bl	80009d8 <HAL_GetTick>
 8003e10:	4604      	mov	r4, r0
  CLEAR_BIT(RCC->CR, RCC_CR_PLLON);
 8003e12:	4a2e      	ldr	r2, [pc, #184]	; (8003ecc <HAL_RCC_DeInit+0x144>)
 8003e14:	6813      	ldr	r3, [r2, #0]
 8003e16:	f023 7380 	bic.w	r3, r3, #16777216	; 0x1000000
 8003e1a:	6013      	str	r3, [r2, #0]
  while (READ_BIT(RCC->CR, RCC_CR_PLLRDY) != RESET)
 8003e1c:	4b2b      	ldr	r3, [pc, #172]	; (8003ecc <HAL_RCC_DeInit+0x144>)
 8003e1e:	681b      	ldr	r3, [r3, #0]
 8003e20:	f013 7f00 	tst.w	r3, #33554432	; 0x2000000
 8003e24:	d006      	beq.n	8003e34 <HAL_RCC_DeInit+0xac>
    if ((HAL_GetTick() - tickstart) > PLL_TIMEOUT_VALUE)
 8003e26:	f7fc fdd7 	bl	80009d8 <HAL_GetTick>
 8003e2a:	1b00      	subs	r0, r0, r4
 8003e2c:	2802      	cmp	r0, #2
 8003e2e:	d9f5      	bls.n	8003e1c <HAL_RCC_DeInit+0x94>
      return HAL_TIMEOUT;
 8003e30:	2303      	movs	r3, #3
 8003e32:	e7bd      	b.n	8003db0 <HAL_RCC_DeInit+0x28>
  tickstart = HAL_GetTick();
 8003e34:	f7fc fdd0 	bl	80009d8 <HAL_GetTick>
 8003e38:	4604      	mov	r4, r0
  CLEAR_BIT(RCC->CR, RCC_CR_PLLI2SON);
 8003e3a:	4a24      	ldr	r2, [pc, #144]	; (8003ecc <HAL_RCC_DeInit+0x144>)
 8003e3c:	6813      	ldr	r3, [r2, #0]
 8003e3e:	f023 6380 	bic.w	r3, r3, #67108864	; 0x4000000
 8003e42:	6013      	str	r3, [r2, #0]
  while (READ_BIT(RCC->CR, RCC_CR_PLLI2SRDY) != RESET)
 8003e44:	4b21      	ldr	r3, [pc, #132]	; (8003ecc <HAL_RCC_DeInit+0x144>)
 8003e46:	681b      	ldr	r3, [r3, #0]
 8003e48:	f013 6f00 	tst.w	r3, #134217728	; 0x8000000
 8003e4c:	d006      	beq.n	8003e5c <HAL_RCC_DeInit+0xd4>
    if ((HAL_GetTick() - tickstart) > PLLI2S_TIMEOUT_VALUE)
 8003e4e:	f7fc fdc3 	bl	80009d8 <HAL_GetTick>
 8003e52:	1b00      	subs	r0, r0, r4
 8003e54:	2864      	cmp	r0, #100	; 0x64
 8003e56:	d9f5      	bls.n	8003e44 <HAL_RCC_DeInit+0xbc>
      return HAL_TIMEOUT;
 8003e58:	2303      	movs	r3, #3
 8003e5a:	e7a9      	b.n	8003db0 <HAL_RCC_DeInit+0x28>
  tickstart = HAL_GetTick();
 8003e5c:	f7fc fdbc 	bl	80009d8 <HAL_GetTick>
 8003e60:	4604      	mov	r4, r0
  CLEAR_BIT(RCC->CR, RCC_CR_PLLSAION);
 8003e62:	4a1a      	ldr	r2, [pc, #104]	; (8003ecc <HAL_RCC_DeInit+0x144>)
 8003e64:	6813      	ldr	r3, [r2, #0]
 8003e66:	f023 5380 	bic.w	r3, r3, #268435456	; 0x10000000
 8003e6a:	6013      	str	r3, [r2, #0]
  while (READ_BIT(RCC->CR, RCC_CR_PLLSAIRDY) != RESET)
 8003e6c:	4b17      	ldr	r3, [pc, #92]	; (8003ecc <HAL_RCC_DeInit+0x144>)
 8003e6e:	681b      	ldr	r3, [r3, #0]
 8003e70:	f013 5f00 	tst.w	r3, #536870912	; 0x20000000
 8003e74:	d006      	beq.n	8003e84 <HAL_RCC_DeInit+0xfc>
    if ((HAL_GetTick() - tickstart) > PLLSAI_TIMEOUT_VALUE)
 8003e76:	f7fc fdaf 	bl	80009d8 <HAL_GetTick>
 8003e7a:	1b00      	subs	r0, r0, r4
 8003e7c:	2864      	cmp	r0, #100	; 0x64
 8003e7e:	d9f5      	bls.n	8003e6c <HAL_RCC_DeInit+0xe4>
      return HAL_TIMEOUT;
 8003e80:	2303      	movs	r3, #3
 8003e82:	e795      	b.n	8003db0 <HAL_RCC_DeInit+0x28>
  RCC->PLLCFGR = RCC_PLLCFGR_PLLM_4 | RCC_PLLCFGR_PLLN_6 | RCC_PLLCFGR_PLLN_7 | RCC_PLLCFGR_PLLQ_2 | 0x20000000U;
 8003e84:	4b11      	ldr	r3, [pc, #68]	; (8003ecc <HAL_RCC_DeInit+0x144>)
 8003e86:	4a12      	ldr	r2, [pc, #72]	; (8003ed0 <HAL_RCC_DeInit+0x148>)
 8003e88:	605a      	str	r2, [r3, #4]
  RCC->PLLI2SCFGR = RCC_PLLI2SCFGR_PLLI2SN_6 | RCC_PLLI2SCFGR_PLLI2SN_7 | RCC_PLLI2SCFGR_PLLI2SQ_2 | RCC_PLLI2SCFGR_PLLI2SR_1;
 8003e8a:	3a10      	subs	r2, #16
 8003e8c:	f8c3 2084 	str.w	r2, [r3, #132]	; 0x84
  RCC->PLLSAICFGR = RCC_PLLSAICFGR_PLLSAIN_6 | RCC_PLLSAICFGR_PLLSAIN_7 | RCC_PLLSAICFGR_PLLSAIQ_2 | 0x20000000U;
 8003e90:	f8c3 2088 	str.w	r2, [r3, #136]	; 0x88
  CLEAR_BIT(RCC->CIR, RCC_CIR_LSIRDYIE | RCC_CIR_LSERDYIE | RCC_CIR_HSIRDYIE | RCC_CIR_HSERDYIE | RCC_CIR_PLLRDYIE | RCC_CIR_PLLI2SRDYIE | RCC_CIR_PLLSAIRDYIE);
 8003e94:	68da      	ldr	r2, [r3, #12]
 8003e96:	f422 42fe 	bic.w	r2, r2, #32512	; 0x7f00
 8003e9a:	60da      	str	r2, [r3, #12]
  SET_BIT(RCC->CIR, RCC_CIR_LSIRDYC | RCC_CIR_LSERDYC | RCC_CIR_HSIRDYC | RCC_CIR_HSERDYC | RCC_CIR_PLLRDYC | RCC_CIR_PLLI2SRDYC | RCC_CIR_PLLSAIRDYC | RCC_CIR_CSSC);
 8003e9c:	68da      	ldr	r2, [r3, #12]
 8003e9e:	f442 027f 	orr.w	r2, r2, #16711680	; 0xff0000
 8003ea2:	60da      	str	r2, [r3, #12]
  CLEAR_BIT(RCC->CSR, RCC_CSR_LSION);
 8003ea4:	6f5a      	ldr	r2, [r3, #116]	; 0x74
 8003ea6:	f022 0201 	bic.w	r2, r2, #1
 8003eaa:	675a      	str	r2, [r3, #116]	; 0x74
  SET_BIT(RCC->CSR, RCC_CSR_RMVF);
 8003eac:	6f5a      	ldr	r2, [r3, #116]	; 0x74
 8003eae:	f042 7280 	orr.w	r2, r2, #16777216	; 0x1000000
 8003eb2:	675a      	str	r2, [r3, #116]	; 0x74
  SystemCoreClock = HSI_VALUE;
 8003eb4:	4b07      	ldr	r3, [pc, #28]	; (8003ed4 <HAL_RCC_DeInit+0x14c>)
 8003eb6:	4a08      	ldr	r2, [pc, #32]	; (8003ed8 <HAL_RCC_DeInit+0x150>)
 8003eb8:	601a      	str	r2, [r3, #0]
  if(HAL_InitTick(TICK_INT_PRIORITY) != HAL_OK)
 8003eba:	2000      	movs	r0, #0
 8003ebc:	f7fe ff2e 	bl	8002d1c <HAL_InitTick>
 8003ec0:	4603      	mov	r3, r0
 8003ec2:	2800      	cmp	r0, #0
 8003ec4:	f43f af74 	beq.w	8003db0 <HAL_RCC_DeInit+0x28>
    return HAL_ERROR;
 8003ec8:	2301      	movs	r3, #1
 8003eca:	e771      	b.n	8003db0 <HAL_RCC_DeInit+0x28>
 8003ecc:	40023800 	.word	0x40023800
 8003ed0:	24003010 	.word	0x24003010
 8003ed4:	20000048 	.word	0x20000048
 8003ed8:	00f42400 	.word	0x00f42400

08003edc <HAL_RCC_OscConfig>:
{
  uint32_t tickstart;
  FlagStatus pwrclkchanged = RESET;

  /* Check Null pointer */
  if(RCC_OscInitStruct == NULL)
 8003edc:	2800      	cmp	r0, #0
 8003ede:	f000 81dc 	beq.w	800429a <HAL_RCC_OscConfig+0x3be>
{
 8003ee2:	b570      	push	{r4, r5, r6, lr}
 8003ee4:	b082      	sub	sp, #8
 8003ee6:	4604      	mov	r4, r0

  /* Check the parameters */
  assert_param(IS_RCC_OSCILLATORTYPE(RCC_OscInitStruct->OscillatorType));

  /*------------------------------- HSE Configuration ------------------------*/
  if(((RCC_OscInitStruct->OscillatorType) & RCC_OSCILLATORTYPE_HSE) == RCC_OSCILLATORTYPE_HSE)
 8003ee8:	6803      	ldr	r3, [r0, #0]
 8003eea:	f013 0f01 	tst.w	r3, #1
 8003eee:	d029      	beq.n	8003f44 <HAL_RCC_OscConfig+0x68>
  {
    /* Check the parameters */
    assert_param(IS_RCC_HSE(RCC_OscInitStruct->HSEState));
    /* When the HSE is used as system clock or clock source for PLL, It can not be disabled */
    if((__HAL_RCC_GET_SYSCLK_SOURCE() == RCC_SYSCLKSOURCE_STATUS_HSE)
 8003ef0:	4ba2      	ldr	r3, [pc, #648]	; (800417c <HAL_RCC_OscConfig+0x2a0>)
 8003ef2:	689b      	ldr	r3, [r3, #8]
 8003ef4:	f003 030c 	and.w	r3, r3, #12
 8003ef8:	2b04      	cmp	r3, #4
 8003efa:	d01a      	beq.n	8003f32 <HAL_RCC_OscConfig+0x56>
       || ((__HAL_RCC_GET_SYSCLK_SOURCE() == RCC_SYSCLKSOURCE_STATUS_PLLCLK) && ((RCC->PLLCFGR & RCC_PLLCFGR_PLLSRC) == RCC_PLLCFGR_PLLSRC_HSE)))
 8003efc:	4b9f      	ldr	r3, [pc, #636]	; (800417c <HAL_RCC_OscConfig+0x2a0>)
 8003efe:	689b      	ldr	r3, [r3, #8]
 8003f00:	f003 030c 	and.w	r3, r3, #12
 8003f04:	2b08      	cmp	r3, #8
 8003f06:	d00f      	beq.n	8003f28 <HAL_RCC_OscConfig+0x4c>
      }
    }
    else
    {
      /* Set the new HSE configuration ---------------------------------------*/
      __HAL_RCC_HSE_CONFIG(RCC_OscInitStruct->HSEState);
 8003f08:	6863      	ldr	r3, [r4, #4]
 8003f0a:	f5b3 3f80 	cmp.w	r3, #65536	; 0x10000
 8003f0e:	d040      	beq.n	8003f92 <HAL_RCC_OscConfig+0xb6>
 8003f10:	2b00      	cmp	r3, #0
 8003f12:	d154      	bne.n	8003fbe <HAL_RCC_OscConfig+0xe2>
 8003f14:	4b99      	ldr	r3, [pc, #612]	; (800417c <HAL_RCC_OscConfig+0x2a0>)
 8003f16:	681a      	ldr	r2, [r3, #0]
 8003f18:	f422 3280 	bic.w	r2, r2, #65536	; 0x10000
 8003f1c:	601a      	str	r2, [r3, #0]
 8003f1e:	681a      	ldr	r2, [r3, #0]
 8003f20:	f422 2280 	bic.w	r2, r2, #262144	; 0x40000
 8003f24:	601a      	str	r2, [r3, #0]
 8003f26:	e039      	b.n	8003f9c <HAL_RCC_OscConfig+0xc0>
       || ((__HAL_RCC_GET_SYSCLK_SOURCE() == RCC_SYSCLKSOURCE_STATUS_PLLCLK) && ((RCC->PLLCFGR & RCC_PLLCFGR_PLLSRC) == RCC_PLLCFGR_PLLSRC_HSE)))
 8003f28:	4b94      	ldr	r3, [pc, #592]	; (800417c <HAL_RCC_OscConfig+0x2a0>)
 8003f2a:	685b      	ldr	r3, [r3, #4]
 8003f2c:	f413 0f80 	tst.w	r3, #4194304	; 0x400000
 8003f30:	d0ea      	beq.n	8003f08 <HAL_RCC_OscConfig+0x2c>
      if((__HAL_RCC_GET_FLAG(RCC_FLAG_HSERDY) != RESET) && (RCC_OscInitStruct->HSEState == RCC_HSE_OFF))
 8003f32:	4b92      	ldr	r3, [pc, #584]	; (800417c <HAL_RCC_OscConfig+0x2a0>)
 8003f34:	681b      	ldr	r3, [r3, #0]
 8003f36:	f413 3f00 	tst.w	r3, #131072	; 0x20000
 8003f3a:	d003      	beq.n	8003f44 <HAL_RCC_OscConfig+0x68>
 8003f3c:	6863      	ldr	r3, [r4, #4]
 8003f3e:	2b00      	cmp	r3, #0
 8003f40:	f000 81ad 	beq.w	800429e <HAL_RCC_OscConfig+0x3c2>
        }
      }
    }
  }
  /*----------------------------- HSI Configuration --------------------------*/
  if(((RCC_OscInitStruct->OscillatorType) & RCC_OSCILLATORTYPE_HSI) == RCC_OSCILLATORTYPE_HSI)
 8003f44:	6823      	ldr	r3, [r4, #0]
 8003f46:	f013 0f02 	tst.w	r3, #2
 8003f4a:	d075      	beq.n	8004038 <HAL_RCC_OscConfig+0x15c>
    /* Check the parameters */
    assert_param(IS_RCC_HSI(RCC_OscInitStruct->HSIState));
    assert_param(IS_RCC_CALIBRATION_VALUE(RCC_OscInitStruct->HSICalibrationValue));

    /* Check if HSI is used as system clock or as PLL source when PLL is selected as system clock */
    if((__HAL_RCC_GET_SYSCLK_SOURCE() == RCC_SYSCLKSOURCE_STATUS_HSI)
 8003f4c:	4b8b      	ldr	r3, [pc, #556]	; (800417c <HAL_RCC_OscConfig+0x2a0>)
 8003f4e:	689b      	ldr	r3, [r3, #8]
 8003f50:	f013 0f0c 	tst.w	r3, #12
 8003f54:	d05e      	beq.n	8004014 <HAL_RCC_OscConfig+0x138>
       || ((__HAL_RCC_GET_SYSCLK_SOURCE() == RCC_SYSCLKSOURCE_STATUS_PLLCLK) && ((RCC->PLLCFGR & RCC_PLLCFGR_PLLSRC) == RCC_PLLCFGR_PLLSRC_HSI)))
 8003f56:	4b89      	ldr	r3, [pc, #548]	; (800417c <HAL_RCC_OscConfig+0x2a0>)
 8003f58:	689b      	ldr	r3, [r3, #8]
 8003f5a:	f003 030c 	and.w	r3, r3, #12
 8003f5e:	2b08      	cmp	r3, #8
 8003f60:	d053      	beq.n	800400a <HAL_RCC_OscConfig+0x12e>
      }
    }
    else
    {
      /* Check the HSI State */
      if((RCC_OscInitStruct->HSIState)!= RCC_HSI_OFF)
 8003f62:	68e3      	ldr	r3, [r4, #12]
 8003f64:	2b00      	cmp	r3, #0
 8003f66:	f000 808a 	beq.w	800407e <HAL_RCC_OscConfig+0x1a2>
      {
        /* Enable the Internal High Speed oscillator (HSI). */
        __HAL_RCC_HSI_ENABLE();
 8003f6a:	4a84      	ldr	r2, [pc, #528]	; (800417c <HAL_RCC_OscConfig+0x2a0>)
 8003f6c:	6813      	ldr	r3, [r2, #0]
 8003f6e:	f043 0301 	orr.w	r3, r3, #1
 8003f72:	6013      	str	r3, [r2, #0]

        /* Get Start Tick*/
        tickstart = HAL_GetTick();
 8003f74:	f7fc fd30 	bl	80009d8 <HAL_GetTick>
 8003f78:	4605      	mov	r5, r0

        /* Wait till HSI is ready */
        while(__HAL_RCC_GET_FLAG(RCC_FLAG_HSIRDY) == RESET)
 8003f7a:	4b80      	ldr	r3, [pc, #512]	; (800417c <HAL_RCC_OscConfig+0x2a0>)
 8003f7c:	681b      	ldr	r3, [r3, #0]
 8003f7e:	f013 0f02 	tst.w	r3, #2
 8003f82:	d173      	bne.n	800406c <HAL_RCC_OscConfig+0x190>
        {
          if((HAL_GetTick() - tickstart ) > HSI_TIMEOUT_VALUE)
 8003f84:	f7fc fd28 	bl	80009d8 <HAL_GetTick>
 8003f88:	1b40      	subs	r0, r0, r5
 8003f8a:	2802      	cmp	r0, #2
 8003f8c:	d9f5      	bls.n	8003f7a <HAL_RCC_OscConfig+0x9e>
          {
            return HAL_TIMEOUT;
 8003f8e:	2003      	movs	r0, #3
 8003f90:	e188      	b.n	80042a4 <HAL_RCC_OscConfig+0x3c8>
      __HAL_RCC_HSE_CONFIG(RCC_OscInitStruct->HSEState);
 8003f92:	4a7a      	ldr	r2, [pc, #488]	; (800417c <HAL_RCC_OscConfig+0x2a0>)
 8003f94:	6813      	ldr	r3, [r2, #0]
 8003f96:	f443 3380 	orr.w	r3, r3, #65536	; 0x10000
 8003f9a:	6013      	str	r3, [r2, #0]
      if(RCC_OscInitStruct->HSEState != RCC_HSE_OFF)
 8003f9c:	6863      	ldr	r3, [r4, #4]
 8003f9e:	b32b      	cbz	r3, 8003fec <HAL_RCC_OscConfig+0x110>
        tickstart = HAL_GetTick();
 8003fa0:	f7fc fd1a 	bl	80009d8 <HAL_GetTick>
 8003fa4:	4605      	mov	r5, r0
        while(__HAL_RCC_GET_FLAG(RCC_FLAG_HSERDY) == RESET)
 8003fa6:	4b75      	ldr	r3, [pc, #468]	; (800417c <HAL_RCC_OscConfig+0x2a0>)
 8003fa8:	681b      	ldr	r3, [r3, #0]
 8003faa:	f413 3f00 	tst.w	r3, #131072	; 0x20000
 8003fae:	d1c9      	bne.n	8003f44 <HAL_RCC_OscConfig+0x68>
          if((HAL_GetTick() - tickstart ) > HSE_TIMEOUT_VALUE)
 8003fb0:	f7fc fd12 	bl	80009d8 <HAL_GetTick>
 8003fb4:	1b40      	subs	r0, r0, r5
 8003fb6:	2864      	cmp	r0, #100	; 0x64
 8003fb8:	d9f5      	bls.n	8003fa6 <HAL_RCC_OscConfig+0xca>
            return HAL_TIMEOUT;
 8003fba:	2003      	movs	r0, #3
 8003fbc:	e172      	b.n	80042a4 <HAL_RCC_OscConfig+0x3c8>
      __HAL_RCC_HSE_CONFIG(RCC_OscInitStruct->HSEState);
 8003fbe:	f5b3 2fa0 	cmp.w	r3, #327680	; 0x50000
 8003fc2:	d009      	beq.n	8003fd8 <HAL_RCC_OscConfig+0xfc>
 8003fc4:	4b6d      	ldr	r3, [pc, #436]	; (800417c <HAL_RCC_OscConfig+0x2a0>)
 8003fc6:	681a      	ldr	r2, [r3, #0]
 8003fc8:	f422 3280 	bic.w	r2, r2, #65536	; 0x10000
 8003fcc:	601a      	str	r2, [r3, #0]
 8003fce:	681a      	ldr	r2, [r3, #0]
 8003fd0:	f422 2280 	bic.w	r2, r2, #262144	; 0x40000
 8003fd4:	601a      	str	r2, [r3, #0]
 8003fd6:	e7e1      	b.n	8003f9c <HAL_RCC_OscConfig+0xc0>
 8003fd8:	4b68      	ldr	r3, [pc, #416]	; (800417c <HAL_RCC_OscConfig+0x2a0>)
 8003fda:	681a      	ldr	r2, [r3, #0]
 8003fdc:	f442 2280 	orr.w	r2, r2, #262144	; 0x40000
 8003fe0:	601a      	str	r2, [r3, #0]
 8003fe2:	681a      	ldr	r2, [r3, #0]
 8003fe4:	f442 3280 	orr.w	r2, r2, #65536	; 0x10000
 8003fe8:	601a      	str	r2, [r3, #0]
 8003fea:	e7d7      	b.n	8003f9c <HAL_RCC_OscConfig+0xc0>
        tickstart = HAL_GetTick();
 8003fec:	f7fc fcf4 	bl	80009d8 <HAL_GetTick>
 8003ff0:	4605      	mov	r5, r0
        while(__HAL_RCC_GET_FLAG(RCC_FLAG_HSERDY) != RESET)
 8003ff2:	4b62      	ldr	r3, [pc, #392]	; (800417c <HAL_RCC_OscConfig+0x2a0>)
 8003ff4:	681b      	ldr	r3, [r3, #0]
 8003ff6:	f413 3f00 	tst.w	r3, #131072	; 0x20000
 8003ffa:	d0a3      	beq.n	8003f44 <HAL_RCC_OscConfig+0x68>
           if((HAL_GetTick() - tickstart ) > HSE_TIMEOUT_VALUE)
 8003ffc:	f7fc fcec 	bl	80009d8 <HAL_GetTick>
 8004000:	1b40      	subs	r0, r0, r5
 8004002:	2864      	cmp	r0, #100	; 0x64
 8004004:	d9f5      	bls.n	8003ff2 <HAL_RCC_OscConfig+0x116>
            return HAL_TIMEOUT;
 8004006:	2003      	movs	r0, #3
 8004008:	e14c      	b.n	80042a4 <HAL_RCC_OscConfig+0x3c8>
       || ((__HAL_RCC_GET_SYSCLK_SOURCE() == RCC_SYSCLKSOURCE_STATUS_PLLCLK) && ((RCC->PLLCFGR & RCC_PLLCFGR_PLLSRC) == RCC_PLLCFGR_PLLSRC_HSI)))
 800400a:	4b5c      	ldr	r3, [pc, #368]	; (800417c <HAL_RCC_OscConfig+0x2a0>)
 800400c:	685b      	ldr	r3, [r3, #4]
 800400e:	f413 0f80 	tst.w	r3, #4194304	; 0x400000
 8004012:	d1a6      	bne.n	8003f62 <HAL_RCC_OscConfig+0x86>
      if((__HAL_RCC_GET_FLAG(RCC_FLAG_HSIRDY) != RESET) && (RCC_OscInitStruct->HSIState != RCC_HSI_ON))
 8004014:	4b59      	ldr	r3, [pc, #356]	; (800417c <HAL_RCC_OscConfig+0x2a0>)
 8004016:	681b      	ldr	r3, [r3, #0]
 8004018:	f013 0f02 	tst.w	r3, #2
 800401c:	d004      	beq.n	8004028 <HAL_RCC_OscConfig+0x14c>
 800401e:	68e3      	ldr	r3, [r4, #12]
 8004020:	2b01      	cmp	r3, #1
 8004022:	d001      	beq.n	8004028 <HAL_RCC_OscConfig+0x14c>
        return HAL_ERROR;
 8004024:	2001      	movs	r0, #1
 8004026:	e13d      	b.n	80042a4 <HAL_RCC_OscConfig+0x3c8>
        __HAL_RCC_HSI_CALIBRATIONVALUE_ADJUST(RCC_OscInitStruct->HSICalibrationValue);
 8004028:	4a54      	ldr	r2, [pc, #336]	; (800417c <HAL_RCC_OscConfig+0x2a0>)
 800402a:	6813      	ldr	r3, [r2, #0]
 800402c:	f023 03f8 	bic.w	r3, r3, #248	; 0xf8
 8004030:	6921      	ldr	r1, [r4, #16]
 8004032:	ea43 03c1 	orr.w	r3, r3, r1, lsl #3
 8004036:	6013      	str	r3, [r2, #0]
        }
      }
    }
  }
  /*------------------------------ LSI Configuration -------------------------*/
  if(((RCC_OscInitStruct->OscillatorType) & RCC_OSCILLATORTYPE_LSI) == RCC_OSCILLATORTYPE_LSI)
 8004038:	6823      	ldr	r3, [r4, #0]
 800403a:	f013 0f08 	tst.w	r3, #8
 800403e:	d046      	beq.n	80040ce <HAL_RCC_OscConfig+0x1f2>
  {
    /* Check the parameters */
    assert_param(IS_RCC_LSI(RCC_OscInitStruct->LSIState));

    /* Check the LSI State */
    if((RCC_OscInitStruct->LSIState)!= RCC_LSI_OFF)
 8004040:	6963      	ldr	r3, [r4, #20]
 8004042:	b383      	cbz	r3, 80040a6 <HAL_RCC_OscConfig+0x1ca>
    {
      /* Enable the Internal Low Speed oscillator (LSI). */
      __HAL_RCC_LSI_ENABLE();
 8004044:	4a4d      	ldr	r2, [pc, #308]	; (800417c <HAL_RCC_OscConfig+0x2a0>)
 8004046:	6f53      	ldr	r3, [r2, #116]	; 0x74
 8004048:	f043 0301 	orr.w	r3, r3, #1
 800404c:	6753      	str	r3, [r2, #116]	; 0x74

      /* Get Start Tick*/
      tickstart = HAL_GetTick();
 800404e:	f7fc fcc3 	bl	80009d8 <HAL_GetTick>
 8004052:	4605      	mov	r5, r0

      /* Wait till LSI is ready */
      while(__HAL_RCC_GET_FLAG(RCC_FLAG_LSIRDY) == RESET)
 8004054:	4b49      	ldr	r3, [pc, #292]	; (800417c <HAL_RCC_OscConfig+0x2a0>)
 8004056:	6f5b      	ldr	r3, [r3, #116]	; 0x74
 8004058:	f013 0f02 	tst.w	r3, #2
 800405c:	d137      	bne.n	80040ce <HAL_RCC_OscConfig+0x1f2>
      {
        if((HAL_GetTick() - tickstart ) > LSI_TIMEOUT_VALUE)
 800405e:	f7fc fcbb 	bl	80009d8 <HAL_GetTick>
 8004062:	1b40      	subs	r0, r0, r5
 8004064:	2802      	cmp	r0, #2
 8004066:	d9f5      	bls.n	8004054 <HAL_RCC_OscConfig+0x178>
        {
          return HAL_TIMEOUT;
 8004068:	2003      	movs	r0, #3
 800406a:	e11b      	b.n	80042a4 <HAL_RCC_OscConfig+0x3c8>
        __HAL_RCC_HSI_CALIBRATIONVALUE_ADJUST(RCC_OscInitStruct->HSICalibrationValue);
 800406c:	4a43      	ldr	r2, [pc, #268]	; (800417c <HAL_RCC_OscConfig+0x2a0>)
 800406e:	6813      	ldr	r3, [r2, #0]
 8004070:	f023 03f8 	bic.w	r3, r3, #248	; 0xf8
 8004074:	6921      	ldr	r1, [r4, #16]
 8004076:	ea43 03c1 	orr.w	r3, r3, r1, lsl #3
 800407a:	6013      	str	r3, [r2, #0]
 800407c:	e7dc      	b.n	8004038 <HAL_RCC_OscConfig+0x15c>
        __HAL_RCC_HSI_DISABLE();
 800407e:	4a3f      	ldr	r2, [pc, #252]	; (800417c <HAL_RCC_OscConfig+0x2a0>)
 8004080:	6813      	ldr	r3, [r2, #0]
 8004082:	f023 0301 	bic.w	r3, r3, #1
 8004086:	6013      	str	r3, [r2, #0]
        tickstart = HAL_GetTick();
 8004088:	f7fc fca6 	bl	80009d8 <HAL_GetTick>
 800408c:	4605      	mov	r5, r0
        while(__HAL_RCC_GET_FLAG(RCC_FLAG_HSIRDY) != RESET)
 800408e:	4b3b      	ldr	r3, [pc, #236]	; (800417c <HAL_RCC_OscConfig+0x2a0>)
 8004090:	681b      	ldr	r3, [r3, #0]
 8004092:	f013 0f02 	tst.w	r3, #2
 8004096:	d0cf      	beq.n	8004038 <HAL_RCC_OscConfig+0x15c>
          if((HAL_GetTick() - tickstart ) > HSI_TIMEOUT_VALUE)
 8004098:	f7fc fc9e 	bl	80009d8 <HAL_GetTick>
 800409c:	1b40      	subs	r0, r0, r5
 800409e:	2802      	cmp	r0, #2
 80040a0:	d9f5      	bls.n	800408e <HAL_RCC_OscConfig+0x1b2>
            return HAL_TIMEOUT;
 80040a2:	2003      	movs	r0, #3
 80040a4:	e0fe      	b.n	80042a4 <HAL_RCC_OscConfig+0x3c8>
      }
    }
    else
    {
      /* Disable the Internal Low Speed oscillator (LSI). */
      __HAL_RCC_LSI_DISABLE();
 80040a6:	4a35      	ldr	r2, [pc, #212]	; (800417c <HAL_RCC_OscConfig+0x2a0>)
 80040a8:	6f53      	ldr	r3, [r2, #116]	; 0x74
 80040aa:	f023 0301 	bic.w	r3, r3, #1
 80040ae:	6753      	str	r3, [r2, #116]	; 0x74

      /* Get Start Tick*/
      tickstart = HAL_GetTick();
 80040b0:	f7fc fc92 	bl	80009d8 <HAL_GetTick>
 80040b4:	4605      	mov	r5, r0

      /* Wait till LSI is ready */
      while(__HAL_RCC_GET_FLAG(RCC_FLAG_LSIRDY) != RESET)
 80040b6:	4b31      	ldr	r3, [pc, #196]	; (800417c <HAL_RCC_OscConfig+0x2a0>)
 80040b8:	6f5b      	ldr	r3, [r3, #116]	; 0x74
 80040ba:	f013 0f02 	tst.w	r3, #2
 80040be:	d006      	beq.n	80040ce <HAL_RCC_OscConfig+0x1f2>
      {
        if((HAL_GetTick() - tickstart ) > LSI_TIMEOUT_VALUE)
 80040c0:	f7fc fc8a 	bl	80009d8 <HAL_GetTick>
 80040c4:	1b40      	subs	r0, r0, r5
 80040c6:	2802      	cmp	r0, #2
 80040c8:	d9f5      	bls.n	80040b6 <HAL_RCC_OscConfig+0x1da>
        {
          return HAL_TIMEOUT;
 80040ca:	2003      	movs	r0, #3
 80040cc:	e0ea      	b.n	80042a4 <HAL_RCC_OscConfig+0x3c8>
        }
      }
    }
  }
  /*------------------------------ LSE Configuration -------------------------*/
  if(((RCC_OscInitStruct->OscillatorType) & RCC_OSCILLATORTYPE_LSE) == RCC_OSCILLATORTYPE_LSE)
 80040ce:	6823      	ldr	r3, [r4, #0]
 80040d0:	f013 0f04 	tst.w	r3, #4
 80040d4:	d07e      	beq.n	80041d4 <HAL_RCC_OscConfig+0x2f8>
    /* Check the parameters */
    assert_param(IS_RCC_LSE(RCC_OscInitStruct->LSEState));

    /* Update LSE configuration in Backup Domain control register    */
    /* Requires to enable write access to Backup Domain of necessary */
    if(__HAL_RCC_PWR_IS_CLK_DISABLED())
 80040d6:	4b29      	ldr	r3, [pc, #164]	; (800417c <HAL_RCC_OscConfig+0x2a0>)
 80040d8:	6c1b      	ldr	r3, [r3, #64]	; 0x40
 80040da:	f013 5f80 	tst.w	r3, #268435456	; 0x10000000
 80040de:	d11e      	bne.n	800411e <HAL_RCC_OscConfig+0x242>
    {
      /* Enable Power Clock*/
      __HAL_RCC_PWR_CLK_ENABLE();
 80040e0:	4b26      	ldr	r3, [pc, #152]	; (800417c <HAL_RCC_OscConfig+0x2a0>)
 80040e2:	6c1a      	ldr	r2, [r3, #64]	; 0x40
 80040e4:	f042 5280 	orr.w	r2, r2, #268435456	; 0x10000000
 80040e8:	641a      	str	r2, [r3, #64]	; 0x40
 80040ea:	6c1b      	ldr	r3, [r3, #64]	; 0x40
 80040ec:	f003 5380 	and.w	r3, r3, #268435456	; 0x10000000
 80040f0:	9301      	str	r3, [sp, #4]
 80040f2:	9b01      	ldr	r3, [sp, #4]
      pwrclkchanged = SET;
 80040f4:	2501      	movs	r5, #1
    }

    if(HAL_IS_BIT_CLR(PWR->CR1, PWR_CR1_DBP))
 80040f6:	4b22      	ldr	r3, [pc, #136]	; (8004180 <HAL_RCC_OscConfig+0x2a4>)
 80040f8:	681b      	ldr	r3, [r3, #0]
 80040fa:	f413 7f80 	tst.w	r3, #256	; 0x100
 80040fe:	d010      	beq.n	8004122 <HAL_RCC_OscConfig+0x246>
        }
      }
    }

    /* Set the new LSE configuration -----------------------------------------*/
    __HAL_RCC_LSE_CONFIG(RCC_OscInitStruct->LSEState);
 8004100:	68a3      	ldr	r3, [r4, #8]
 8004102:	2b01      	cmp	r3, #1
 8004104:	d021      	beq.n	800414a <HAL_RCC_OscConfig+0x26e>
 8004106:	2b00      	cmp	r3, #0
 8004108:	d13c      	bne.n	8004184 <HAL_RCC_OscConfig+0x2a8>
 800410a:	4b1c      	ldr	r3, [pc, #112]	; (800417c <HAL_RCC_OscConfig+0x2a0>)
 800410c:	6f1a      	ldr	r2, [r3, #112]	; 0x70
 800410e:	f022 0201 	bic.w	r2, r2, #1
 8004112:	671a      	str	r2, [r3, #112]	; 0x70
 8004114:	6f1a      	ldr	r2, [r3, #112]	; 0x70
 8004116:	f022 0204 	bic.w	r2, r2, #4
 800411a:	671a      	str	r2, [r3, #112]	; 0x70
 800411c:	e01a      	b.n	8004154 <HAL_RCC_OscConfig+0x278>
  FlagStatus pwrclkchanged = RESET;
 800411e:	2500      	movs	r5, #0
 8004120:	e7e9      	b.n	80040f6 <HAL_RCC_OscConfig+0x21a>
      PWR->CR1 |= PWR_CR1_DBP;
 8004122:	4a17      	ldr	r2, [pc, #92]	; (8004180 <HAL_RCC_OscConfig+0x2a4>)
 8004124:	6813      	ldr	r3, [r2, #0]
 8004126:	f443 7380 	orr.w	r3, r3, #256	; 0x100
 800412a:	6013      	str	r3, [r2, #0]
      tickstart = HAL_GetTick();
 800412c:	f7fc fc54 	bl	80009d8 <HAL_GetTick>
 8004130:	4606      	mov	r6, r0
      while(HAL_IS_BIT_CLR(PWR->CR1, PWR_CR1_DBP))
 8004132:	4b13      	ldr	r3, [pc, #76]	; (8004180 <HAL_RCC_OscConfig+0x2a4>)
 8004134:	681b      	ldr	r3, [r3, #0]
 8004136:	f413 7f80 	tst.w	r3, #256	; 0x100
 800413a:	d1e1      	bne.n	8004100 <HAL_RCC_OscConfig+0x224>
        if((HAL_GetTick() - tickstart ) > RCC_DBP_TIMEOUT_VALUE)
 800413c:	f7fc fc4c 	bl	80009d8 <HAL_GetTick>
 8004140:	1b80      	subs	r0, r0, r6
 8004142:	2864      	cmp	r0, #100	; 0x64
 8004144:	d9f5      	bls.n	8004132 <HAL_RCC_OscConfig+0x256>
          return HAL_TIMEOUT;
 8004146:	2003      	movs	r0, #3
 8004148:	e0ac      	b.n	80042a4 <HAL_RCC_OscConfig+0x3c8>
    __HAL_RCC_LSE_CONFIG(RCC_OscInitStruct->LSEState);
 800414a:	4a0c      	ldr	r2, [pc, #48]	; (800417c <HAL_RCC_OscConfig+0x2a0>)
 800414c:	6f13      	ldr	r3, [r2, #112]	; 0x70
 800414e:	f043 0301 	orr.w	r3, r3, #1
 8004152:	6713      	str	r3, [r2, #112]	; 0x70
    /* Check the LSE State */
    if((RCC_OscInitStruct->LSEState) != RCC_LSE_OFF)
 8004154:	68a3      	ldr	r3, [r4, #8]
 8004156:	b35b      	cbz	r3, 80041b0 <HAL_RCC_OscConfig+0x2d4>
    {
      /* Get Start Tick*/
      tickstart = HAL_GetTick();
 8004158:	f7fc fc3e 	bl	80009d8 <HAL_GetTick>
 800415c:	4606      	mov	r6, r0

      /* Wait till LSE is ready */
      while(__HAL_RCC_GET_FLAG(RCC_FLAG_LSERDY) == RESET)
 800415e:	4b07      	ldr	r3, [pc, #28]	; (800417c <HAL_RCC_OscConfig+0x2a0>)
 8004160:	6f1b      	ldr	r3, [r3, #112]	; 0x70
 8004162:	f013 0f02 	tst.w	r3, #2
 8004166:	d134      	bne.n	80041d2 <HAL_RCC_OscConfig+0x2f6>
      {
        if((HAL_GetTick() - tickstart ) > RCC_LSE_TIMEOUT_VALUE)
 8004168:	f7fc fc36 	bl	80009d8 <HAL_GetTick>
 800416c:	1b80      	subs	r0, r0, r6
 800416e:	f241 3388 	movw	r3, #5000	; 0x1388
 8004172:	4298      	cmp	r0, r3
 8004174:	d9f3      	bls.n	800415e <HAL_RCC_OscConfig+0x282>
        {
          return HAL_TIMEOUT;
 8004176:	2003      	movs	r0, #3
 8004178:	e094      	b.n	80042a4 <HAL_RCC_OscConfig+0x3c8>
 800417a:	bf00      	nop
 800417c:	40023800 	.word	0x40023800
 8004180:	40007000 	.word	0x40007000
    __HAL_RCC_LSE_CONFIG(RCC_OscInitStruct->LSEState);
 8004184:	2b05      	cmp	r3, #5
 8004186:	d009      	beq.n	800419c <HAL_RCC_OscConfig+0x2c0>
 8004188:	4b48      	ldr	r3, [pc, #288]	; (80042ac <HAL_RCC_OscConfig+0x3d0>)
 800418a:	6f1a      	ldr	r2, [r3, #112]	; 0x70
 800418c:	f022 0201 	bic.w	r2, r2, #1
 8004190:	671a      	str	r2, [r3, #112]	; 0x70
 8004192:	6f1a      	ldr	r2, [r3, #112]	; 0x70
 8004194:	f022 0204 	bic.w	r2, r2, #4
 8004198:	671a      	str	r2, [r3, #112]	; 0x70
 800419a:	e7db      	b.n	8004154 <HAL_RCC_OscConfig+0x278>
 800419c:	4b43      	ldr	r3, [pc, #268]	; (80042ac <HAL_RCC_OscConfig+0x3d0>)
 800419e:	6f1a      	ldr	r2, [r3, #112]	; 0x70
 80041a0:	f042 0204 	orr.w	r2, r2, #4
 80041a4:	671a      	str	r2, [r3, #112]	; 0x70
 80041a6:	6f1a      	ldr	r2, [r3, #112]	; 0x70
 80041a8:	f042 0201 	orr.w	r2, r2, #1
 80041ac:	671a      	str	r2, [r3, #112]	; 0x70
 80041ae:	e7d1      	b.n	8004154 <HAL_RCC_OscConfig+0x278>
      }
    }
    else
    {
      /* Get Start Tick*/
      tickstart = HAL_GetTick();
 80041b0:	f7fc fc12 	bl	80009d8 <HAL_GetTick>
 80041b4:	4606      	mov	r6, r0

      /* Wait till LSE is ready */
      while(__HAL_RCC_GET_FLAG(RCC_FLAG_LSERDY) != RESET)
 80041b6:	4b3d      	ldr	r3, [pc, #244]	; (80042ac <HAL_RCC_OscConfig+0x3d0>)
 80041b8:	6f1b      	ldr	r3, [r3, #112]	; 0x70
 80041ba:	f013 0f02 	tst.w	r3, #2
 80041be:	d008      	beq.n	80041d2 <HAL_RCC_OscConfig+0x2f6>
      {
        if((HAL_GetTick() - tickstart ) > RCC_LSE_TIMEOUT_VALUE)
 80041c0:	f7fc fc0a 	bl	80009d8 <HAL_GetTick>
 80041c4:	1b80      	subs	r0, r0, r6
 80041c6:	f241 3388 	movw	r3, #5000	; 0x1388
 80041ca:	4298      	cmp	r0, r3
 80041cc:	d9f3      	bls.n	80041b6 <HAL_RCC_OscConfig+0x2da>
        {
          return HAL_TIMEOUT;
 80041ce:	2003      	movs	r0, #3
 80041d0:	e068      	b.n	80042a4 <HAL_RCC_OscConfig+0x3c8>
        }
      }
    }

    /* Restore clock configuration if changed */
    if(pwrclkchanged == SET)
 80041d2:	b9f5      	cbnz	r5, 8004212 <HAL_RCC_OscConfig+0x336>
    }
  }
  /*-------------------------------- PLL Configuration -----------------------*/
  /* Check the parameters */
  assert_param(IS_RCC_PLL(RCC_OscInitStruct->PLL.PLLState));
  if ((RCC_OscInitStruct->PLL.PLLState) != RCC_PLL_NONE)
 80041d4:	69a3      	ldr	r3, [r4, #24]
 80041d6:	2b00      	cmp	r3, #0
 80041d8:	d063      	beq.n	80042a2 <HAL_RCC_OscConfig+0x3c6>
  {
    /* Check if the PLL is used as system clock or not */
    if(__HAL_RCC_GET_SYSCLK_SOURCE() != RCC_SYSCLKSOURCE_STATUS_PLLCLK)
 80041da:	4a34      	ldr	r2, [pc, #208]	; (80042ac <HAL_RCC_OscConfig+0x3d0>)
 80041dc:	6892      	ldr	r2, [r2, #8]
 80041de:	f002 020c 	and.w	r2, r2, #12
 80041e2:	2a08      	cmp	r2, #8
 80041e4:	d060      	beq.n	80042a8 <HAL_RCC_OscConfig+0x3cc>
    {
      if((RCC_OscInitStruct->PLL.PLLState) == RCC_PLL_ON)
 80041e6:	2b02      	cmp	r3, #2
 80041e8:	d019      	beq.n	800421e <HAL_RCC_OscConfig+0x342>
        }
      }
      else
      {
        /* Disable the main PLL. */
        __HAL_RCC_PLL_DISABLE();
 80041ea:	4a30      	ldr	r2, [pc, #192]	; (80042ac <HAL_RCC_OscConfig+0x3d0>)
 80041ec:	6813      	ldr	r3, [r2, #0]
 80041ee:	f023 7380 	bic.w	r3, r3, #16777216	; 0x1000000
 80041f2:	6013      	str	r3, [r2, #0]

        /* Get Start Tick*/
        tickstart = HAL_GetTick();
 80041f4:	f7fc fbf0 	bl	80009d8 <HAL_GetTick>
 80041f8:	4604      	mov	r4, r0

        /* Wait till PLL is ready */
        while(__HAL_RCC_GET_FLAG(RCC_FLAG_PLLRDY) != RESET)
 80041fa:	4b2c      	ldr	r3, [pc, #176]	; (80042ac <HAL_RCC_OscConfig+0x3d0>)
 80041fc:	681b      	ldr	r3, [r3, #0]
 80041fe:	f013 7f00 	tst.w	r3, #33554432	; 0x2000000
 8004202:	d048      	beq.n	8004296 <HAL_RCC_OscConfig+0x3ba>
        {
          if((HAL_GetTick() - tickstart ) > PLL_TIMEOUT_VALUE)
 8004204:	f7fc fbe8 	bl	80009d8 <HAL_GetTick>
 8004208:	1b00      	subs	r0, r0, r4
 800420a:	2802      	cmp	r0, #2
 800420c:	d9f5      	bls.n	80041fa <HAL_RCC_OscConfig+0x31e>
          {
            return HAL_TIMEOUT;
 800420e:	2003      	movs	r0, #3
 8004210:	e048      	b.n	80042a4 <HAL_RCC_OscConfig+0x3c8>
      __HAL_RCC_PWR_CLK_DISABLE();
 8004212:	4a26      	ldr	r2, [pc, #152]	; (80042ac <HAL_RCC_OscConfig+0x3d0>)
 8004214:	6c13      	ldr	r3, [r2, #64]	; 0x40
 8004216:	f023 5380 	bic.w	r3, r3, #268435456	; 0x10000000
 800421a:	6413      	str	r3, [r2, #64]	; 0x40
 800421c:	e7da      	b.n	80041d4 <HAL_RCC_OscConfig+0x2f8>
        __HAL_RCC_PLL_DISABLE();
 800421e:	4a23      	ldr	r2, [pc, #140]	; (80042ac <HAL_RCC_OscConfig+0x3d0>)
 8004220:	6813      	ldr	r3, [r2, #0]
 8004222:	f023 7380 	bic.w	r3, r3, #16777216	; 0x1000000
 8004226:	6013      	str	r3, [r2, #0]
        tickstart = HAL_GetTick();
 8004228:	f7fc fbd6 	bl	80009d8 <HAL_GetTick>
 800422c:	4605      	mov	r5, r0
        while(__HAL_RCC_GET_FLAG(RCC_FLAG_PLLRDY) != RESET)
 800422e:	4b1f      	ldr	r3, [pc, #124]	; (80042ac <HAL_RCC_OscConfig+0x3d0>)
 8004230:	681b      	ldr	r3, [r3, #0]
 8004232:	f013 7f00 	tst.w	r3, #33554432	; 0x2000000
 8004236:	d006      	beq.n	8004246 <HAL_RCC_OscConfig+0x36a>
          if((HAL_GetTick() - tickstart ) > PLL_TIMEOUT_VALUE)
 8004238:	f7fc fbce 	bl	80009d8 <HAL_GetTick>
 800423c:	1b40      	subs	r0, r0, r5
 800423e:	2802      	cmp	r0, #2
 8004240:	d9f5      	bls.n	800422e <HAL_RCC_OscConfig+0x352>
            return HAL_TIMEOUT;
 8004242:	2003      	movs	r0, #3
 8004244:	e02e      	b.n	80042a4 <HAL_RCC_OscConfig+0x3c8>
        __HAL_RCC_PLL_CONFIG(RCC_OscInitStruct->PLL.PLLSource,
 8004246:	69e3      	ldr	r3, [r4, #28]
 8004248:	6a22      	ldr	r2, [r4, #32]
 800424a:	4313      	orrs	r3, r2
 800424c:	6a62      	ldr	r2, [r4, #36]	; 0x24
 800424e:	ea43 1382 	orr.w	r3, r3, r2, lsl #6
 8004252:	6aa2      	ldr	r2, [r4, #40]	; 0x28
 8004254:	0852      	lsrs	r2, r2, #1
 8004256:	3a01      	subs	r2, #1
 8004258:	ea43 4302 	orr.w	r3, r3, r2, lsl #16
 800425c:	6ae2      	ldr	r2, [r4, #44]	; 0x2c
 800425e:	ea43 6302 	orr.w	r3, r3, r2, lsl #24
 8004262:	6b22      	ldr	r2, [r4, #48]	; 0x30
 8004264:	ea43 7302 	orr.w	r3, r3, r2, lsl #28
 8004268:	4a10      	ldr	r2, [pc, #64]	; (80042ac <HAL_RCC_OscConfig+0x3d0>)
 800426a:	6053      	str	r3, [r2, #4]
        __HAL_RCC_PLL_ENABLE();
 800426c:	6813      	ldr	r3, [r2, #0]
 800426e:	f043 7380 	orr.w	r3, r3, #16777216	; 0x1000000
 8004272:	6013      	str	r3, [r2, #0]
        tickstart = HAL_GetTick();
 8004274:	f7fc fbb0 	bl	80009d8 <HAL_GetTick>
 8004278:	4604      	mov	r4, r0
        while(__HAL_RCC_GET_FLAG(RCC_FLAG_PLLRDY) == RESET)
 800427a:	4b0c      	ldr	r3, [pc, #48]	; (80042ac <HAL_RCC_OscConfig+0x3d0>)
 800427c:	681b      	ldr	r3, [r3, #0]
 800427e:	f013 7f00 	tst.w	r3, #33554432	; 0x2000000
 8004282:	d106      	bne.n	8004292 <HAL_RCC_OscConfig+0x3b6>
          if((HAL_GetTick() - tickstart ) > PLL_TIMEOUT_VALUE)
 8004284:	f7fc fba8 	bl	80009d8 <HAL_GetTick>
 8004288:	1b00      	subs	r0, r0, r4
 800428a:	2802      	cmp	r0, #2
 800428c:	d9f5      	bls.n	800427a <HAL_RCC_OscConfig+0x39e>
            return HAL_TIMEOUT;
 800428e:	2003      	movs	r0, #3
 8004290:	e008      	b.n	80042a4 <HAL_RCC_OscConfig+0x3c8>
    else
    {
      return HAL_ERROR;
    }
  }
  return HAL_OK;
 8004292:	2000      	movs	r0, #0
 8004294:	e006      	b.n	80042a4 <HAL_RCC_OscConfig+0x3c8>
 8004296:	2000      	movs	r0, #0
 8004298:	e004      	b.n	80042a4 <HAL_RCC_OscConfig+0x3c8>
    return HAL_ERROR;
 800429a:	2001      	movs	r0, #1
}
 800429c:	4770      	bx	lr
        return HAL_ERROR;
 800429e:	2001      	movs	r0, #1
 80042a0:	e000      	b.n	80042a4 <HAL_RCC_OscConfig+0x3c8>
  return HAL_OK;
 80042a2:	2000      	movs	r0, #0
}
 80042a4:	b002      	add	sp, #8
 80042a6:	bd70      	pop	{r4, r5, r6, pc}
      return HAL_ERROR;
 80042a8:	2001      	movs	r0, #1
 80042aa:	e7fb      	b.n	80042a4 <HAL_RCC_OscConfig+0x3c8>
 80042ac:	40023800 	.word	0x40023800

080042b0 <HAL_RCC_GetSysClockFreq>:
{
  uint32_t pllm = 0, pllvco = 0, pllp = 0;
  uint32_t sysclockfreq = 0;

  /* Get SYSCLK source -------------------------------------------------------*/
  switch (RCC->CFGR & RCC_CFGR_SWS)
 80042b0:	4b32      	ldr	r3, [pc, #200]	; (800437c <HAL_RCC_GetSysClockFreq+0xcc>)
 80042b2:	689b      	ldr	r3, [r3, #8]
 80042b4:	f003 030c 	and.w	r3, r3, #12
 80042b8:	2b04      	cmp	r3, #4
 80042ba:	d05c      	beq.n	8004376 <HAL_RCC_GetSysClockFreq+0xc6>
 80042bc:	2b08      	cmp	r3, #8
 80042be:	d001      	beq.n	80042c4 <HAL_RCC_GetSysClockFreq+0x14>
  {
    case RCC_SYSCLKSOURCE_STATUS_HSI:  /* HSI used as system clock source */
    {
      sysclockfreq = HSI_VALUE;
 80042c0:	482f      	ldr	r0, [pc, #188]	; (8004380 <HAL_RCC_GetSysClockFreq+0xd0>)
 80042c2:	4770      	bx	lr
{
 80042c4:	e92d 4bf0 	stmdb	sp!, {r4, r5, r6, r7, r8, r9, fp, lr}
    }
    case RCC_SYSCLKSOURCE_STATUS_PLLCLK:  /* PLL used as system clock  source */
    {
      /* PLL_VCO = (HSE_VALUE or HSI_VALUE / PLLM) * PLLN
      SYSCLK = PLL_VCO / PLLP */
      pllm = RCC->PLLCFGR & RCC_PLLCFGR_PLLM;
 80042c8:	4b2c      	ldr	r3, [pc, #176]	; (800437c <HAL_RCC_GetSysClockFreq+0xcc>)
 80042ca:	685a      	ldr	r2, [r3, #4]
 80042cc:	f002 023f 	and.w	r2, r2, #63	; 0x3f
      if (__HAL_RCC_GET_PLL_OSCSOURCE() != RCC_PLLCFGR_PLLSRC_HSI)
 80042d0:	685b      	ldr	r3, [r3, #4]
 80042d2:	f413 0f80 	tst.w	r3, #4194304	; 0x400000
 80042d6:	d02b      	beq.n	8004330 <HAL_RCC_GetSysClockFreq+0x80>
      {
        /* HSE used as PLL clock source */
        pllvco = (uint32_t) ((((uint64_t) HSE_VALUE * ((uint64_t) ((RCC->PLLCFGR & RCC_PLLCFGR_PLLN) >> RCC_PLLCFGR_PLLN_Pos)))) / (uint64_t)pllm);
 80042d8:	4b28      	ldr	r3, [pc, #160]	; (800437c <HAL_RCC_GetSysClockFreq+0xcc>)
 80042da:	685b      	ldr	r3, [r3, #4]
 80042dc:	f3c3 1388 	ubfx	r3, r3, #6, #9
 80042e0:	461e      	mov	r6, r3
 80042e2:	2700      	movs	r7, #0
 80042e4:	015c      	lsls	r4, r3, #5
 80042e6:	2500      	movs	r5, #0
 80042e8:	1ae4      	subs	r4, r4, r3
 80042ea:	eb65 0507 	sbc.w	r5, r5, r7
 80042ee:	01a9      	lsls	r1, r5, #6
 80042f0:	ea41 6194 	orr.w	r1, r1, r4, lsr #26
 80042f4:	01a0      	lsls	r0, r4, #6
 80042f6:	1b00      	subs	r0, r0, r4
 80042f8:	eb61 0105 	sbc.w	r1, r1, r5
 80042fc:	00cb      	lsls	r3, r1, #3
 80042fe:	ea43 7350 	orr.w	r3, r3, r0, lsr #29
 8004302:	00c4      	lsls	r4, r0, #3
 8004304:	19a0      	adds	r0, r4, r6
 8004306:	eb43 0107 	adc.w	r1, r3, r7
 800430a:	024b      	lsls	r3, r1, #9
 800430c:	ea43 53d0 	orr.w	r3, r3, r0, lsr #23
 8004310:	0244      	lsls	r4, r0, #9
 8004312:	4620      	mov	r0, r4
 8004314:	4619      	mov	r1, r3
 8004316:	2300      	movs	r3, #0
 8004318:	f7fb ff8e 	bl	8000238 <__aeabi_uldivmod>
      else
      {
        /* HSI used as PLL clock source */
        pllvco = (uint32_t) ((((uint64_t) HSI_VALUE * ((uint64_t) ((RCC->PLLCFGR & RCC_PLLCFGR_PLLN) >> RCC_PLLCFGR_PLLN_Pos)))) / (uint64_t)pllm);
      }
      pllp = ((((RCC->PLLCFGR & RCC_PLLCFGR_PLLP) >> RCC_PLLCFGR_PLLP_Pos) + 1 ) *2);
 800431c:	4b17      	ldr	r3, [pc, #92]	; (800437c <HAL_RCC_GetSysClockFreq+0xcc>)
 800431e:	685b      	ldr	r3, [r3, #4]
 8004320:	f3c3 4301 	ubfx	r3, r3, #16, #2
 8004324:	3301      	adds	r3, #1
 8004326:	005b      	lsls	r3, r3, #1

      sysclockfreq = pllvco/pllp;
 8004328:	fbb0 f0f3 	udiv	r0, r0, r3
      sysclockfreq = HSI_VALUE;
      break;
    }
  }
  return sysclockfreq;
}
 800432c:	e8bd 8bf0 	ldmia.w	sp!, {r4, r5, r6, r7, r8, r9, fp, pc}
        pllvco = (uint32_t) ((((uint64_t) HSI_VALUE * ((uint64_t) ((RCC->PLLCFGR & RCC_PLLCFGR_PLLN) >> RCC_PLLCFGR_PLLN_Pos)))) / (uint64_t)pllm);
 8004330:	4b12      	ldr	r3, [pc, #72]	; (800437c <HAL_RCC_GetSysClockFreq+0xcc>)
 8004332:	685b      	ldr	r3, [r3, #4]
 8004334:	f3c3 1388 	ubfx	r3, r3, #6, #9
 8004338:	461e      	mov	r6, r3
 800433a:	2700      	movs	r7, #0
 800433c:	015c      	lsls	r4, r3, #5
 800433e:	2500      	movs	r5, #0
 8004340:	1ae4      	subs	r4, r4, r3
 8004342:	eb65 0507 	sbc.w	r5, r5, r7
 8004346:	01a9      	lsls	r1, r5, #6
 8004348:	ea41 6194 	orr.w	r1, r1, r4, lsr #26
 800434c:	01a0      	lsls	r0, r4, #6
 800434e:	1b00      	subs	r0, r0, r4
 8004350:	eb61 0105 	sbc.w	r1, r1, r5
 8004354:	00cb      	lsls	r3, r1, #3
 8004356:	ea43 7350 	orr.w	r3, r3, r0, lsr #29
 800435a:	00c4      	lsls	r4, r0, #3
 800435c:	19a0      	adds	r0, r4, r6
 800435e:	eb43 0107 	adc.w	r1, r3, r7
 8004362:	028b      	lsls	r3, r1, #10
 8004364:	ea43 5390 	orr.w	r3, r3, r0, lsr #22
 8004368:	0284      	lsls	r4, r0, #10
 800436a:	4620      	mov	r0, r4
 800436c:	4619      	mov	r1, r3
 800436e:	2300      	movs	r3, #0
 8004370:	f7fb ff62 	bl	8000238 <__aeabi_uldivmod>
 8004374:	e7d2      	b.n	800431c <HAL_RCC_GetSysClockFreq+0x6c>
      sysclockfreq = HSE_VALUE;
 8004376:	4803      	ldr	r0, [pc, #12]	; (8004384 <HAL_RCC_GetSysClockFreq+0xd4>)
}
 8004378:	4770      	bx	lr
 800437a:	bf00      	nop
 800437c:	40023800 	.word	0x40023800
 8004380:	00f42400 	.word	0x00f42400
 8004384:	007a1200 	.word	0x007a1200

08004388 <HAL_RCC_ClockConfig>:
  if(RCC_ClkInitStruct == NULL)
 8004388:	2800      	cmp	r0, #0
 800438a:	f000 80a2 	beq.w	80044d2 <HAL_RCC_ClockConfig+0x14a>
{
 800438e:	b570      	push	{r4, r5, r6, lr}
 8004390:	4604      	mov	r4, r0
  if(FLatency > __HAL_FLASH_GET_LATENCY())
 8004392:	4b52      	ldr	r3, [pc, #328]	; (80044dc <HAL_RCC_ClockConfig+0x154>)
 8004394:	681b      	ldr	r3, [r3, #0]
 8004396:	f003 030f 	and.w	r3, r3, #15
 800439a:	428b      	cmp	r3, r1
 800439c:	d20c      	bcs.n	80043b8 <HAL_RCC_ClockConfig+0x30>
    __HAL_FLASH_SET_LATENCY(FLatency);
 800439e:	4a4f      	ldr	r2, [pc, #316]	; (80044dc <HAL_RCC_ClockConfig+0x154>)
 80043a0:	6813      	ldr	r3, [r2, #0]
 80043a2:	f023 030f 	bic.w	r3, r3, #15
 80043a6:	430b      	orrs	r3, r1
 80043a8:	6013      	str	r3, [r2, #0]
    if(__HAL_FLASH_GET_LATENCY() != FLatency)
 80043aa:	6813      	ldr	r3, [r2, #0]
 80043ac:	f003 030f 	and.w	r3, r3, #15
 80043b0:	428b      	cmp	r3, r1
 80043b2:	d001      	beq.n	80043b8 <HAL_RCC_ClockConfig+0x30>
      return HAL_ERROR;
 80043b4:	2001      	movs	r0, #1
}
 80043b6:	bd70      	pop	{r4, r5, r6, pc}
  if(((RCC_ClkInitStruct->ClockType) & RCC_CLOCKTYPE_HCLK) == RCC_CLOCKTYPE_HCLK)
 80043b8:	6823      	ldr	r3, [r4, #0]
 80043ba:	f013 0f02 	tst.w	r3, #2
 80043be:	d017      	beq.n	80043f0 <HAL_RCC_ClockConfig+0x68>
    if(((RCC_ClkInitStruct->ClockType) & RCC_CLOCKTYPE_PCLK1) == RCC_CLOCKTYPE_PCLK1)
 80043c0:	f013 0f04 	tst.w	r3, #4
 80043c4:	d004      	beq.n	80043d0 <HAL_RCC_ClockConfig+0x48>
      MODIFY_REG(RCC->CFGR, RCC_CFGR_PPRE1, RCC_HCLK_DIV16);
 80043c6:	4a46      	ldr	r2, [pc, #280]	; (80044e0 <HAL_RCC_ClockConfig+0x158>)
 80043c8:	6893      	ldr	r3, [r2, #8]
 80043ca:	f443 53e0 	orr.w	r3, r3, #7168	; 0x1c00
 80043ce:	6093      	str	r3, [r2, #8]
    if(((RCC_ClkInitStruct->ClockType) & RCC_CLOCKTYPE_PCLK2) == RCC_CLOCKTYPE_PCLK2)
 80043d0:	6823      	ldr	r3, [r4, #0]
 80043d2:	f013 0f08 	tst.w	r3, #8
 80043d6:	d004      	beq.n	80043e2 <HAL_RCC_ClockConfig+0x5a>
      MODIFY_REG(RCC->CFGR, RCC_CFGR_PPRE2, (RCC_HCLK_DIV16 << 3));
 80043d8:	4a41      	ldr	r2, [pc, #260]	; (80044e0 <HAL_RCC_ClockConfig+0x158>)
 80043da:	6893      	ldr	r3, [r2, #8]
 80043dc:	f443 4360 	orr.w	r3, r3, #57344	; 0xe000
 80043e0:	6093      	str	r3, [r2, #8]
    MODIFY_REG(RCC->CFGR, RCC_CFGR_HPRE, RCC_ClkInitStruct->AHBCLKDivider);
 80043e2:	4a3f      	ldr	r2, [pc, #252]	; (80044e0 <HAL_RCC_ClockConfig+0x158>)
 80043e4:	6893      	ldr	r3, [r2, #8]
 80043e6:	f023 03f0 	bic.w	r3, r3, #240	; 0xf0
 80043ea:	68a0      	ldr	r0, [r4, #8]
 80043ec:	4303      	orrs	r3, r0
 80043ee:	6093      	str	r3, [r2, #8]
 80043f0:	460d      	mov	r5, r1
  if(((RCC_ClkInitStruct->ClockType) & RCC_CLOCKTYPE_SYSCLK) == RCC_CLOCKTYPE_SYSCLK)
 80043f2:	6823      	ldr	r3, [r4, #0]
 80043f4:	f013 0f01 	tst.w	r3, #1
 80043f8:	d031      	beq.n	800445e <HAL_RCC_ClockConfig+0xd6>
    if(RCC_ClkInitStruct->SYSCLKSource == RCC_SYSCLKSOURCE_HSE)
 80043fa:	6863      	ldr	r3, [r4, #4]
 80043fc:	2b01      	cmp	r3, #1
 80043fe:	d020      	beq.n	8004442 <HAL_RCC_ClockConfig+0xba>
    else if(RCC_ClkInitStruct->SYSCLKSource == RCC_SYSCLKSOURCE_PLLCLK)
 8004400:	2b02      	cmp	r3, #2
 8004402:	d025      	beq.n	8004450 <HAL_RCC_ClockConfig+0xc8>
      if(__HAL_RCC_GET_FLAG(RCC_FLAG_HSIRDY) == RESET)
 8004404:	4a36      	ldr	r2, [pc, #216]	; (80044e0 <HAL_RCC_ClockConfig+0x158>)
 8004406:	6812      	ldr	r2, [r2, #0]
 8004408:	f012 0f02 	tst.w	r2, #2
 800440c:	d063      	beq.n	80044d6 <HAL_RCC_ClockConfig+0x14e>
    __HAL_RCC_SYSCLK_CONFIG(RCC_ClkInitStruct->SYSCLKSource);
 800440e:	4934      	ldr	r1, [pc, #208]	; (80044e0 <HAL_RCC_ClockConfig+0x158>)
 8004410:	688a      	ldr	r2, [r1, #8]
 8004412:	f022 0203 	bic.w	r2, r2, #3
 8004416:	4313      	orrs	r3, r2
 8004418:	608b      	str	r3, [r1, #8]
    tickstart = HAL_GetTick();
 800441a:	f7fc fadd 	bl	80009d8 <HAL_GetTick>
 800441e:	4606      	mov	r6, r0
    while (__HAL_RCC_GET_SYSCLK_SOURCE() != (RCC_ClkInitStruct->SYSCLKSource << RCC_CFGR_SWS_Pos))
 8004420:	4b2f      	ldr	r3, [pc, #188]	; (80044e0 <HAL_RCC_ClockConfig+0x158>)
 8004422:	689b      	ldr	r3, [r3, #8]
 8004424:	f003 030c 	and.w	r3, r3, #12
 8004428:	6862      	ldr	r2, [r4, #4]
 800442a:	ebb3 0f82 	cmp.w	r3, r2, lsl #2
 800442e:	d016      	beq.n	800445e <HAL_RCC_ClockConfig+0xd6>
      if ((HAL_GetTick() - tickstart) > CLOCKSWITCH_TIMEOUT_VALUE)
 8004430:	f7fc fad2 	bl	80009d8 <HAL_GetTick>
 8004434:	1b80      	subs	r0, r0, r6
 8004436:	f241 3388 	movw	r3, #5000	; 0x1388
 800443a:	4298      	cmp	r0, r3
 800443c:	d9f0      	bls.n	8004420 <HAL_RCC_ClockConfig+0x98>
        return HAL_TIMEOUT;
 800443e:	2003      	movs	r0, #3
 8004440:	e7b9      	b.n	80043b6 <HAL_RCC_ClockConfig+0x2e>
      if(__HAL_RCC_GET_FLAG(RCC_FLAG_HSERDY) == RESET)
 8004442:	4a27      	ldr	r2, [pc, #156]	; (80044e0 <HAL_RCC_ClockConfig+0x158>)
 8004444:	6812      	ldr	r2, [r2, #0]
 8004446:	f412 3f00 	tst.w	r2, #131072	; 0x20000
 800444a:	d1e0      	bne.n	800440e <HAL_RCC_ClockConfig+0x86>
        return HAL_ERROR;
 800444c:	2001      	movs	r0, #1
 800444e:	e7b2      	b.n	80043b6 <HAL_RCC_ClockConfig+0x2e>
      if(__HAL_RCC_GET_FLAG(RCC_FLAG_PLLRDY) == RESET)
 8004450:	4a23      	ldr	r2, [pc, #140]	; (80044e0 <HAL_RCC_ClockConfig+0x158>)
 8004452:	6812      	ldr	r2, [r2, #0]
 8004454:	f012 7f00 	tst.w	r2, #33554432	; 0x2000000
 8004458:	d1d9      	bne.n	800440e <HAL_RCC_ClockConfig+0x86>
        return HAL_ERROR;
 800445a:	2001      	movs	r0, #1
 800445c:	e7ab      	b.n	80043b6 <HAL_RCC_ClockConfig+0x2e>
  if(FLatency < __HAL_FLASH_GET_LATENCY())
 800445e:	4b1f      	ldr	r3, [pc, #124]	; (80044dc <HAL_RCC_ClockConfig+0x154>)
 8004460:	681b      	ldr	r3, [r3, #0]
 8004462:	f003 030f 	and.w	r3, r3, #15
 8004466:	42ab      	cmp	r3, r5
 8004468:	d90c      	bls.n	8004484 <HAL_RCC_ClockConfig+0xfc>
    __HAL_FLASH_SET_LATENCY(FLatency);
 800446a:	4a1c      	ldr	r2, [pc, #112]	; (80044dc <HAL_RCC_ClockConfig+0x154>)
 800446c:	6813      	ldr	r3, [r2, #0]
 800446e:	f023 030f 	bic.w	r3, r3, #15
 8004472:	432b      	orrs	r3, r5
 8004474:	6013      	str	r3, [r2, #0]
    if(__HAL_FLASH_GET_LATENCY() != FLatency)
 8004476:	6813      	ldr	r3, [r2, #0]
 8004478:	f003 030f 	and.w	r3, r3, #15
 800447c:	42ab      	cmp	r3, r5
 800447e:	d001      	beq.n	8004484 <HAL_RCC_ClockConfig+0xfc>
      return HAL_ERROR;
 8004480:	2001      	movs	r0, #1
 8004482:	e798      	b.n	80043b6 <HAL_RCC_ClockConfig+0x2e>
  if(((RCC_ClkInitStruct->ClockType) & RCC_CLOCKTYPE_PCLK1) == RCC_CLOCKTYPE_PCLK1)
 8004484:	6823      	ldr	r3, [r4, #0]
 8004486:	f013 0f04 	tst.w	r3, #4
 800448a:	d006      	beq.n	800449a <HAL_RCC_ClockConfig+0x112>
    MODIFY_REG(RCC->CFGR, RCC_CFGR_PPRE1, RCC_ClkInitStruct->APB1CLKDivider);
 800448c:	4a14      	ldr	r2, [pc, #80]	; (80044e0 <HAL_RCC_ClockConfig+0x158>)
 800448e:	6893      	ldr	r3, [r2, #8]
 8004490:	f423 53e0 	bic.w	r3, r3, #7168	; 0x1c00
 8004494:	68e1      	ldr	r1, [r4, #12]
 8004496:	430b      	orrs	r3, r1
 8004498:	6093      	str	r3, [r2, #8]
  if(((RCC_ClkInitStruct->ClockType) & RCC_CLOCKTYPE_PCLK2) == RCC_CLOCKTYPE_PCLK2)
 800449a:	6823      	ldr	r3, [r4, #0]
 800449c:	f013 0f08 	tst.w	r3, #8
 80044a0:	d007      	beq.n	80044b2 <HAL_RCC_ClockConfig+0x12a>
    MODIFY_REG(RCC->CFGR, RCC_CFGR_PPRE2, ((RCC_ClkInitStruct->APB2CLKDivider) << 3));
 80044a2:	4a0f      	ldr	r2, [pc, #60]	; (80044e0 <HAL_RCC_ClockConfig+0x158>)
 80044a4:	6893      	ldr	r3, [r2, #8]
 80044a6:	f423 4360 	bic.w	r3, r3, #57344	; 0xe000
 80044aa:	6921      	ldr	r1, [r4, #16]
 80044ac:	ea43 03c1 	orr.w	r3, r3, r1, lsl #3
 80044b0:	6093      	str	r3, [r2, #8]
  SystemCoreClock = HAL_RCC_GetSysClockFreq() >> AHBPrescTable[(RCC->CFGR & RCC_CFGR_HPRE)>> RCC_CFGR_HPRE_Pos];
 80044b2:	f7ff fefd 	bl	80042b0 <HAL_RCC_GetSysClockFreq>
 80044b6:	4b0a      	ldr	r3, [pc, #40]	; (80044e0 <HAL_RCC_ClockConfig+0x158>)
 80044b8:	689b      	ldr	r3, [r3, #8]
 80044ba:	f3c3 1303 	ubfx	r3, r3, #4, #4
 80044be:	4a09      	ldr	r2, [pc, #36]	; (80044e4 <HAL_RCC_ClockConfig+0x15c>)
 80044c0:	5cd3      	ldrb	r3, [r2, r3]
 80044c2:	40d8      	lsrs	r0, r3
 80044c4:	4b08      	ldr	r3, [pc, #32]	; (80044e8 <HAL_RCC_ClockConfig+0x160>)
 80044c6:	6018      	str	r0, [r3, #0]
  HAL_InitTick (TICK_INT_PRIORITY);
 80044c8:	2000      	movs	r0, #0
 80044ca:	f7fe fc27 	bl	8002d1c <HAL_InitTick>
  return HAL_OK;
 80044ce:	2000      	movs	r0, #0
 80044d0:	e771      	b.n	80043b6 <HAL_RCC_ClockConfig+0x2e>
    return HAL_ERROR;
 80044d2:	2001      	movs	r0, #1
}
 80044d4:	4770      	bx	lr
        return HAL_ERROR;
 80044d6:	2001      	movs	r0, #1
 80044d8:	e76d      	b.n	80043b6 <HAL_RCC_ClockConfig+0x2e>
 80044da:	bf00      	nop
 80044dc:	40023c00 	.word	0x40023c00
 80044e0:	40023800 	.word	0x40023800
 80044e4:	080048b8 	.word	0x080048b8
 80044e8:	20000048 	.word	0x20000048

080044ec <HAL_RCC_GetHCLKFreq>:
  * @retval HCLK frequency
  */
uint32_t HAL_RCC_GetHCLKFreq(void)
{
  return SystemCoreClock;
}
 80044ec:	4b01      	ldr	r3, [pc, #4]	; (80044f4 <HAL_RCC_GetHCLKFreq+0x8>)
 80044ee:	6818      	ldr	r0, [r3, #0]
 80044f0:	4770      	bx	lr
 80044f2:	bf00      	nop
 80044f4:	20000048 	.word	0x20000048

080044f8 <SystemInit>:
  *         SystemFrequency variable.
  * @param  None
  * @retval None
  */
void SystemInit(void)
{
 80044f8:	b410      	push	{r4}
  /* FPU settings ------------------------------------------------------------*/
  #if (__FPU_PRESENT == 1) && (__FPU_USED == 1)
    SCB->CPACR |= ((3UL << 10*2)|(3UL << 11*2));  /* set CP10 and CP11 Full Access */
 80044fa:	4a0f      	ldr	r2, [pc, #60]	; (8004538 <SystemInit+0x40>)
 80044fc:	f8d2 3088 	ldr.w	r3, [r2, #136]	; 0x88
 8004500:	f443 0370 	orr.w	r3, r3, #15728640	; 0xf00000
 8004504:	f8c2 3088 	str.w	r3, [r2, #136]	; 0x88
  #endif
  /* Reset the RCC clock configuration to the default reset state ------------*/
  /* Set HSION bit */
  RCC->CR |= (uint32_t)0x00000001;
 8004508:	4b0c      	ldr	r3, [pc, #48]	; (800453c <SystemInit+0x44>)
 800450a:	6819      	ldr	r1, [r3, #0]
 800450c:	f041 0101 	orr.w	r1, r1, #1
 8004510:	6019      	str	r1, [r3, #0]

  /* Reset CFGR register */
  RCC->CFGR = 0x00000000;
 8004512:	2000      	movs	r0, #0
 8004514:	6098      	str	r0, [r3, #8]

  /* Reset HSEON, CSSON and PLLON bits */
  RCC->CR &= (uint32_t)0xFEF6FFFF;
 8004516:	681c      	ldr	r4, [r3, #0]
 8004518:	4909      	ldr	r1, [pc, #36]	; (8004540 <SystemInit+0x48>)
 800451a:	4021      	ands	r1, r4
 800451c:	6019      	str	r1, [r3, #0]

  /* Reset PLLCFGR register */
  RCC->PLLCFGR = 0x24003010;
 800451e:	4909      	ldr	r1, [pc, #36]	; (8004544 <SystemInit+0x4c>)
 8004520:	6059      	str	r1, [r3, #4]

  /* Reset HSEBYP bit */
  RCC->CR &= (uint32_t)0xFFFBFFFF;
 8004522:	6819      	ldr	r1, [r3, #0]
 8004524:	f421 2180 	bic.w	r1, r1, #262144	; 0x40000
 8004528:	6019      	str	r1, [r3, #0]

  /* Disable all interrupts */
  RCC->CIR = 0x00000000;
 800452a:	60d8      	str	r0, [r3, #12]

  /* Configure the Vector Table location add offset address ------------------*/
#ifdef VECT_TAB_SRAM
  SCB->VTOR = RAMDTCM_BASE | VECT_TAB_OFFSET; /* Vector Table Relocation in Internal SRAM */
#else
  SCB->VTOR = FLASH_BASE | VECT_TAB_OFFSET; /* Vector Table Relocation in Internal FLASH */
 800452c:	f04f 6300 	mov.w	r3, #134217728	; 0x8000000
 8004530:	6093      	str	r3, [r2, #8]
#endif
}
 8004532:	f85d 4b04 	ldr.w	r4, [sp], #4
 8004536:	4770      	bx	lr
 8004538:	e000ed00 	.word	0xe000ed00
 800453c:	40023800 	.word	0x40023800
 8004540:	fef6ffff 	.word	0xfef6ffff
 8004544:	24003010 	.word	0x24003010

08004548 <clock_time>:
#include "boot.h"

/*---------------------------------------------------------------------------*/
clock_time_t
clock_time(void)
{
 8004548:	b508      	push	{r3, lr}
  return (clock_time_t)TimerGet();
 800454a:	f7fc fa3d 	bl	80009c8 <TimerGet>
}
 800454e:	bd08      	pop	{r3, pc}

08004550 <HAL_ETH_MspInit>:
/*---------------------------------------------------------------------------*/
void HAL_ETH_MspInit(ETH_HandleTypeDef* heth)
{
  GPIO_InitTypeDef GPIO_InitStruct;

  if (heth->Instance == ETH)
 8004550:	6802      	ldr	r2, [r0, #0]
 8004552:	4b29      	ldr	r3, [pc, #164]	; (80045f8 <HAL_ETH_MspInit+0xa8>)
 8004554:	429a      	cmp	r2, r3
 8004556:	d000      	beq.n	800455a <HAL_ETH_MspInit+0xa>
 8004558:	4770      	bx	lr
{
 800455a:	b5f0      	push	{r4, r5, r6, r7, lr}
 800455c:	b089      	sub	sp, #36	; 0x24
  {
    /* Ethernet clock enable */
    __HAL_RCC_ETH_CLK_ENABLE();
 800455e:	f5a3 4390 	sub.w	r3, r3, #18432	; 0x4800
 8004562:	6b1a      	ldr	r2, [r3, #48]	; 0x30
 8004564:	f042 7200 	orr.w	r2, r2, #33554432	; 0x2000000
 8004568:	631a      	str	r2, [r3, #48]	; 0x30
 800456a:	6b1a      	ldr	r2, [r3, #48]	; 0x30
 800456c:	f002 7200 	and.w	r2, r2, #33554432	; 0x2000000
 8004570:	9200      	str	r2, [sp, #0]
 8004572:	9a00      	ldr	r2, [sp, #0]
 8004574:	6b1a      	ldr	r2, [r3, #48]	; 0x30
 8004576:	f042 6280 	orr.w	r2, r2, #67108864	; 0x4000000
 800457a:	631a      	str	r2, [r3, #48]	; 0x30
 800457c:	6b1a      	ldr	r2, [r3, #48]	; 0x30
 800457e:	f002 6280 	and.w	r2, r2, #67108864	; 0x4000000
 8004582:	9201      	str	r2, [sp, #4]
 8004584:	9a01      	ldr	r2, [sp, #4]
 8004586:	6b1a      	ldr	r2, [r3, #48]	; 0x30
 8004588:	f042 6200 	orr.w	r2, r2, #134217728	; 0x8000000
 800458c:	631a      	str	r2, [r3, #48]	; 0x30
 800458e:	6b1b      	ldr	r3, [r3, #48]	; 0x30
 8004590:	f003 6300 	and.w	r3, r3, #134217728	; 0x8000000
 8004594:	9302      	str	r3, [sp, #8]
 8004596:	9b02      	ldr	r3, [sp, #8]
     * PC5      ------> ETH_RXD1
     * PB13     ------> ETH_TXD1
     * PG11     ------> ETH_TX_EN
     * PG13     ------> ETH_TXD0
     */
    GPIO_InitStruct.Pin = GPIO_PIN_1 | GPIO_PIN_4 | GPIO_PIN_5;
 8004598:	2332      	movs	r3, #50	; 0x32
 800459a:	9303      	str	r3, [sp, #12]
    GPIO_InitStruct.Mode = GPIO_MODE_AF_PP;
 800459c:	2702      	movs	r7, #2
 800459e:	9704      	str	r7, [sp, #16]
    GPIO_InitStruct.Pull = GPIO_NOPULL;
 80045a0:	2600      	movs	r6, #0
 80045a2:	9605      	str	r6, [sp, #20]
    GPIO_InitStruct.Speed = GPIO_SPEED_FREQ_VERY_HIGH;
 80045a4:	2503      	movs	r5, #3
 80045a6:	9506      	str	r5, [sp, #24]
    GPIO_InitStruct.Alternate = GPIO_AF11_ETH;
 80045a8:	240b      	movs	r4, #11
 80045aa:	9407      	str	r4, [sp, #28]
    HAL_GPIO_Init(GPIOC, &GPIO_InitStruct);
 80045ac:	a903      	add	r1, sp, #12
 80045ae:	4813      	ldr	r0, [pc, #76]	; (80045fc <HAL_ETH_MspInit+0xac>)
 80045b0:	f7ff fa18 	bl	80039e4 <HAL_GPIO_Init>

    GPIO_InitStruct.Pin = GPIO_PIN_1 | GPIO_PIN_2 | GPIO_PIN_7;
 80045b4:	2386      	movs	r3, #134	; 0x86
 80045b6:	9303      	str	r3, [sp, #12]
    GPIO_InitStruct.Mode = GPIO_MODE_AF_PP;
 80045b8:	9704      	str	r7, [sp, #16]
    GPIO_InitStruct.Pull = GPIO_NOPULL;
 80045ba:	9605      	str	r6, [sp, #20]
    GPIO_InitStruct.Speed = GPIO_SPEED_FREQ_VERY_HIGH;
 80045bc:	9506      	str	r5, [sp, #24]
    GPIO_InitStruct.Alternate = GPIO_AF11_ETH;
 80045be:	9407      	str	r4, [sp, #28]
    HAL_GPIO_Init(GPIOA, &GPIO_InitStruct);
 80045c0:	a903      	add	r1, sp, #12
 80045c2:	480f      	ldr	r0, [pc, #60]	; (8004600 <HAL_ETH_MspInit+0xb0>)
 80045c4:	f7ff fa0e 	bl	80039e4 <HAL_GPIO_Init>

    GPIO_InitStruct.Pin = GPIO_PIN_13;
 80045c8:	f44f 5300 	mov.w	r3, #8192	; 0x2000
 80045cc:	9303      	str	r3, [sp, #12]
    GPIO_InitStruct.Mode = GPIO_MODE_AF_PP;
 80045ce:	9704      	str	r7, [sp, #16]
    GPIO_InitStruct.Pull = GPIO_NOPULL;
 80045d0:	9605      	str	r6, [sp, #20]
    GPIO_InitStruct.Speed = GPIO_SPEED_FREQ_VERY_HIGH;
 80045d2:	9506      	str	r5, [sp, #24]
    GPIO_InitStruct.Alternate = GPIO_AF11_ETH;
 80045d4:	9407      	str	r4, [sp, #28]
    HAL_GPIO_Init(GPIOB, &GPIO_InitStruct);
 80045d6:	a903      	add	r1, sp, #12
 80045d8:	480a      	ldr	r0, [pc, #40]	; (8004604 <HAL_ETH_MspInit+0xb4>)
 80045da:	f7ff fa03 	bl	80039e4 <HAL_GPIO_Init>

    GPIO_InitStruct.Pin = GPIO_PIN_11 | GPIO_PIN_13;
 80045de:	f44f 5320 	mov.w	r3, #10240	; 0x2800
 80045e2:	9303      	str	r3, [sp, #12]
    GPIO_InitStruct.Mode = GPIO_MODE_AF_PP;
 80045e4:	9704      	str	r7, [sp, #16]
    GPIO_InitStruct.Pull = GPIO_NOPULL;
 80045e6:	9605      	str	r6, [sp, #20]
    GPIO_InitStruct.Speed = GPIO_SPEED_FREQ_VERY_HIGH;
 80045e8:	9506      	str	r5, [sp, #24]
    GPIO_InitStruct.Alternate = GPIO_AF11_ETH;
 80045ea:	9407      	str	r4, [sp, #28]
    HAL_GPIO_Init(GPIOG, &GPIO_InitStruct);
 80045ec:	a903      	add	r1, sp, #12
 80045ee:	4806      	ldr	r0, [pc, #24]	; (8004608 <HAL_ETH_MspInit+0xb8>)
 80045f0:	f7ff f9f8 	bl	80039e4 <HAL_GPIO_Init>
  }
}
 80045f4:	b009      	add	sp, #36	; 0x24
 80045f6:	bdf0      	pop	{r4, r5, r6, r7, pc}
 80045f8:	40028000 	.word	0x40028000
 80045fc:	40020800 	.word	0x40020800
 8004600:	40020000 	.word	0x40020000
 8004604:	40020400 	.word	0x40020400
 8004608:	40021800 	.word	0x40021800

0800460c <netdev_init>:
}


/*---------------------------------------------------------------------------*/
void netdev_init(void)
{
 800460c:	b510      	push	{r4, lr}
  /* Store the default MAC address. */
  macAddress.addr[0] = NETDEV_DEFAULT_MACADDR0;
 800460e:	4a14      	ldr	r2, [pc, #80]	; (8004660 <netdev_init+0x54>)
 8004610:	2300      	movs	r3, #0
 8004612:	7013      	strb	r3, [r2, #0]
  macAddress.addr[1] = NETDEV_DEFAULT_MACADDR1;
 8004614:	2180      	movs	r1, #128	; 0x80
 8004616:	7051      	strb	r1, [r2, #1]
  macAddress.addr[2] = NETDEV_DEFAULT_MACADDR2;
 8004618:	21e1      	movs	r1, #225	; 0xe1
 800461a:	7091      	strb	r1, [r2, #2]
  macAddress.addr[3] = NETDEV_DEFAULT_MACADDR3;
 800461c:	70d3      	strb	r3, [r2, #3]
  macAddress.addr[4] = NETDEV_DEFAULT_MACADDR4;
 800461e:	7113      	strb	r3, [r2, #4]
  macAddress.addr[5] = NETDEV_DEFAULT_MACADDR5;
 8004620:	7153      	strb	r3, [r2, #5]

  /* Initialize Ethernet. */
  heth.Instance = ETH;
 8004622:	4c10      	ldr	r4, [pc, #64]	; (8004664 <netdev_init+0x58>)
 8004624:	4910      	ldr	r1, [pc, #64]	; (8004668 <netdev_init+0x5c>)
 8004626:	6021      	str	r1, [r4, #0]
  heth.Init.AutoNegotiation = ETH_AUTONEGOTIATION_ENABLE;
 8004628:	2101      	movs	r1, #1
 800462a:	6061      	str	r1, [r4, #4]
  heth.Init.PhyAddress = LAN8742A_PHY_ADDRESS;
 800462c:	8223      	strh	r3, [r4, #16]
  heth.Init.MACAddr = &(macAddress.addr)[0];
 800462e:	6162      	str	r2, [r4, #20]
  heth.Init.RxMode = ETH_RXPOLLING_MODE;
 8004630:	61a3      	str	r3, [r4, #24]
  heth.Init.ChecksumMode = ETH_CHECKSUM_BY_HARDWARE;
 8004632:	61e3      	str	r3, [r4, #28]
  heth.Init.MediaInterface = ETH_MEDIA_INTERFACE_RMII;
 8004634:	f44f 0300 	mov.w	r3, #8388608	; 0x800000
 8004638:	6223      	str	r3, [r4, #32]
  (void)HAL_ETH_Init(&heth);
 800463a:	4620      	mov	r0, r4
 800463c:	f7fe fec0 	bl	80033c0 <HAL_ETH_Init>

  /* Initialize Tx Descriptors list: Chain Mode */
  HAL_ETH_DMATxDescListInit(&heth, DMATxDscrTab, &Tx_Buff[0][0], ETH_TXBUFNB);
 8004640:	2304      	movs	r3, #4
 8004642:	4a0a      	ldr	r2, [pc, #40]	; (800466c <netdev_init+0x60>)
 8004644:	490a      	ldr	r1, [pc, #40]	; (8004670 <netdev_init+0x64>)
 8004646:	4620      	mov	r0, r4
 8004648:	f7fe fcfd 	bl	8003046 <HAL_ETH_DMATxDescListInit>
  /* Initialize Rx Descriptors list: Chain Mode  */
  HAL_ETH_DMARxDescListInit(&heth, DMARxDscrTab, &Rx_Buff[0][0], ETH_RXBUFNB);
 800464c:	2304      	movs	r3, #4
 800464e:	4a09      	ldr	r2, [pc, #36]	; (8004674 <netdev_init+0x68>)
 8004650:	4909      	ldr	r1, [pc, #36]	; (8004678 <netdev_init+0x6c>)
 8004652:	4620      	mov	r0, r4
 8004654:	f7fe fd30 	bl	80030b8 <HAL_ETH_DMARxDescListInit>
  /* Enable MAC and DMA transmission and reception */
  HAL_ETH_Start(&heth);
 8004658:	4620      	mov	r0, r4
 800465a:	f7fe ffdb 	bl	8003614 <HAL_ETH_Start>
}
 800465e:	bd10      	pop	{r4, pc}
 8004660:	200005d4 	.word	0x200005d4
 8004664:	200025e0 	.word	0x200025e0
 8004668:	40028000 	.word	0x40028000
 800466c:	20002628 	.word	0x20002628
 8004670:	20000d10 	.word	0x20000d10
 8004674:	20000d90 	.word	0x20000d90
 8004678:	20002560 	.word	0x20002560

0800467c <netdev_init_mac>:

/*---------------------------------------------------------------------------*/
void netdev_init_mac(void)
{
  /* Configure the MAC address */
  uip_setethaddr(macAddress);
 800467c:	4a07      	ldr	r2, [pc, #28]	; (800469c <netdev_init_mac+0x20>)
 800467e:	7811      	ldrb	r1, [r2, #0]
 8004680:	4b07      	ldr	r3, [pc, #28]	; (80046a0 <netdev_init_mac+0x24>)
 8004682:	7019      	strb	r1, [r3, #0]
 8004684:	7851      	ldrb	r1, [r2, #1]
 8004686:	7059      	strb	r1, [r3, #1]
 8004688:	7891      	ldrb	r1, [r2, #2]
 800468a:	7099      	strb	r1, [r3, #2]
 800468c:	78d1      	ldrb	r1, [r2, #3]
 800468e:	70d9      	strb	r1, [r3, #3]
 8004690:	7911      	ldrb	r1, [r2, #4]
 8004692:	7119      	strb	r1, [r3, #4]
 8004694:	7952      	ldrb	r2, [r2, #5]
 8004696:	715a      	strb	r2, [r3, #5]
}
 8004698:	4770      	bx	lr
 800469a:	bf00      	nop
 800469c:	200005d4 	.word	0x200005d4
 80046a0:	20000558 	.word	0x20000558

080046a4 <netdev_read>:
}


/*---------------------------------------------------------------------------*/
unsigned int netdev_read(void)
{
 80046a4:	b538      	push	{r3, r4, r5, lr}
  uint16_t  len = 0;
  uint8_t * buffer;
  __IO ETH_DMADescTypeDef *dmarxdesc;

  /* Check if a new frame was received. */
  if (HAL_ETH_GetReceivedFrame(&heth) == HAL_OK)
 80046a6:	4812      	ldr	r0, [pc, #72]	; (80046f0 <netdev_read+0x4c>)
 80046a8:	f7fe fdcc 	bl	8003244 <HAL_ETH_GetReceivedFrame>
 80046ac:	b110      	cbz	r0, 80046b4 <netdev_read+0x10>
  unsigned int result = 0;
 80046ae:	2400      	movs	r4, #0
    /* Update the result. */
    result = len;
  }
  /* Give the result back to the caller. */
  return result;
}
 80046b0:	4620      	mov	r0, r4
 80046b2:	bd38      	pop	{r3, r4, r5, pc}
    len = heth.RxFrameInfos.length;
 80046b4:	4d0e      	ldr	r5, [pc, #56]	; (80046f0 <netdev_read+0x4c>)
 80046b6:	8fac      	ldrh	r4, [r5, #60]	; 0x3c
    memcpy(uip_buf, buffer, len);
 80046b8:	4622      	mov	r2, r4
 80046ba:	6c29      	ldr	r1, [r5, #64]	; 0x40
 80046bc:	480d      	ldr	r0, [pc, #52]	; (80046f4 <netdev_read+0x50>)
 80046be:	f000 f888 	bl	80047d2 <memcpy>
    dmarxdesc = heth.RxFrameInfos.FSRxDesc;
 80046c2:	6b2a      	ldr	r2, [r5, #48]	; 0x30
    dmarxdesc->Status |= ETH_DMARXDESC_OWN;
 80046c4:	6813      	ldr	r3, [r2, #0]
 80046c6:	f043 4300 	orr.w	r3, r3, #2147483648	; 0x80000000
 80046ca:	6013      	str	r3, [r2, #0]
    heth.RxFrameInfos.SegCount =0;
 80046cc:	2300      	movs	r3, #0
 80046ce:	63ab      	str	r3, [r5, #56]	; 0x38
    if ((heth.Instance->DMASR & ETH_DMASR_RBUS) != (uint32_t)RESET)
 80046d0:	682b      	ldr	r3, [r5, #0]
 80046d2:	f241 0214 	movw	r2, #4116	; 0x1014
 80046d6:	589a      	ldr	r2, [r3, r2]
 80046d8:	f012 0f80 	tst.w	r2, #128	; 0x80
 80046dc:	d0e8      	beq.n	80046b0 <netdev_read+0xc>
      heth.Instance->DMASR = ETH_DMASR_RBUS;
 80046de:	f241 0214 	movw	r2, #4116	; 0x1014
 80046e2:	2180      	movs	r1, #128	; 0x80
 80046e4:	5099      	str	r1, [r3, r2]
      heth.Instance->DMARPDR = 0;
 80046e6:	f241 0208 	movw	r2, #4104	; 0x1008
 80046ea:	2100      	movs	r1, #0
 80046ec:	5099      	str	r1, [r3, r2]
 80046ee:	e7df      	b.n	80046b0 <netdev_read+0xc>
 80046f0:	200025e0 	.word	0x200025e0
 80046f4:	20000670 	.word	0x20000670

080046f8 <netdev_send>:


/*---------------------------------------------------------------------------*/
void netdev_send(void)
{
 80046f8:	b538      	push	{r3, r4, r5, lr}
  uint32_t framelength;
  uint32_t timeout;
  ErrorStatus errorStatus = SUCCESS;

  /* Obtain pointer to the transmission DMA descriptor. */
  DmaTxDesc = heth.TxDesc;
 80046fa:	4b19      	ldr	r3, [pc, #100]	; (8004760 <netdev_send+0x68>)
 80046fc:	6adc      	ldr	r4, [r3, #44]	; 0x2c
  /* Set timeout time to wait for the DMA buffer to become available. */
  timeout = TimerGet() + NETDEV_TX_PACKET_TIMEOUT_MS;
 80046fe:	f7fc f963 	bl	80009c8 <TimerGet>
 8004702:	f100 05fa 	add.w	r5, r0, #250	; 0xfa
  /* Only continue with packet transmission of the buffer is available. */
  while ((DmaTxDesc->Status & ETH_DMATXDESC_OWN) != (uint32_t)RESET)
 8004706:	6823      	ldr	r3, [r4, #0]
 8004708:	2b00      	cmp	r3, #0
 800470a:	da07      	bge.n	800471c <netdev_send+0x24>
  {
    CopService();
 800470c:	f7fc fa2e 	bl	8000b6c <CopService>
    /* Break loop upon timeout. This would indicate a hardware failure. */
    if (TimerGet() > timeout)
 8004710:	f7fc f95a 	bl	80009c8 <TimerGet>
 8004714:	42a8      	cmp	r0, r5
 8004716:	d9f6      	bls.n	8004706 <netdev_send+0xe>
    {
      /* Update the error status. */
      errorStatus = ERROR;
 8004718:	2300      	movs	r3, #0
 800471a:	e000      	b.n	800471e <netdev_send+0x26>
  ErrorStatus errorStatus = SUCCESS;
 800471c:	2301      	movs	r3, #1
      break;
    }
  }
  /* Only continue with transmission if not error was detected. */
  if (errorStatus == SUCCESS)
 800471e:	b983      	cbnz	r3, 8004742 <netdev_send+0x4a>
  }

  /* When Transmit Underflow flag is set, clear it and issue a Transmit Poll Demand to
   * resume transmission.
   */
  if ((heth.Instance->DMASR & ETH_DMASR_TUS) != (uint32_t)RESET)
 8004720:	4b0f      	ldr	r3, [pc, #60]	; (8004760 <netdev_send+0x68>)
 8004722:	681b      	ldr	r3, [r3, #0]
 8004724:	f241 0214 	movw	r2, #4116	; 0x1014
 8004728:	589a      	ldr	r2, [r3, r2]
 800472a:	f012 0f20 	tst.w	r2, #32
 800472e:	d007      	beq.n	8004740 <netdev_send+0x48>
  {
    /* Clear TUS ETHERNET DMA flag. */
    heth.Instance->DMASR = ETH_DMASR_TUS;
 8004730:	f241 0214 	movw	r2, #4116	; 0x1014
 8004734:	2120      	movs	r1, #32
 8004736:	5099      	str	r1, [r3, r2]
    /* Resume DMA transmission. */
    heth.Instance->DMATPDR = 0;
 8004738:	f241 0204 	movw	r2, #4100	; 0x1004
 800473c:	2100      	movs	r1, #0
 800473e:	5099      	str	r1, [r3, r2]
  }
}
 8004740:	bd38      	pop	{r3, r4, r5, pc}
    framelength = uip_len;
 8004742:	4b08      	ldr	r3, [pc, #32]	; (8004764 <netdev_send+0x6c>)
 8004744:	881d      	ldrh	r5, [r3, #0]
    buffer = (uint8_t *)(heth.TxDesc->Buffer1Addr);
 8004746:	4c06      	ldr	r4, [pc, #24]	; (8004760 <netdev_send+0x68>)
 8004748:	6ae3      	ldr	r3, [r4, #44]	; 0x2c
    memcpy(buffer, uip_buf, framelength);
 800474a:	462a      	mov	r2, r5
 800474c:	4906      	ldr	r1, [pc, #24]	; (8004768 <netdev_send+0x70>)
 800474e:	6898      	ldr	r0, [r3, #8]
 8004750:	f000 f83f 	bl	80047d2 <memcpy>
    HAL_ETH_TransmitFrame(&heth, framelength);
 8004754:	4629      	mov	r1, r5
 8004756:	4620      	mov	r0, r4
 8004758:	f7fe fce4 	bl	8003124 <HAL_ETH_TransmitFrame>
 800475c:	e7e0      	b.n	8004720 <netdev_send+0x28>
 800475e:	bf00      	nop
 8004760:	200025e0 	.word	0x200025e0
 8004764:	200005dc 	.word	0x200005dc
 8004768:	20000670 	.word	0x20000670

0800476c <__libc_init_array>:
 800476c:	b570      	push	{r4, r5, r6, lr}
 800476e:	4e0d      	ldr	r6, [pc, #52]	; (80047a4 <__libc_init_array+0x38>)
 8004770:	4c0d      	ldr	r4, [pc, #52]	; (80047a8 <__libc_init_array+0x3c>)
 8004772:	1ba4      	subs	r4, r4, r6
 8004774:	10a4      	asrs	r4, r4, #2
 8004776:	2500      	movs	r5, #0
 8004778:	42a5      	cmp	r5, r4
 800477a:	d109      	bne.n	8004790 <__libc_init_array+0x24>
 800477c:	4e0b      	ldr	r6, [pc, #44]	; (80047ac <__libc_init_array+0x40>)
 800477e:	4c0c      	ldr	r4, [pc, #48]	; (80047b0 <__libc_init_array+0x44>)
 8004780:	f000 f83a 	bl	80047f8 <_init>
 8004784:	1ba4      	subs	r4, r4, r6
 8004786:	10a4      	asrs	r4, r4, #2
 8004788:	2500      	movs	r5, #0
 800478a:	42a5      	cmp	r5, r4
 800478c:	d105      	bne.n	800479a <__libc_init_array+0x2e>
 800478e:	bd70      	pop	{r4, r5, r6, pc}
 8004790:	f856 3025 	ldr.w	r3, [r6, r5, lsl #2]
 8004794:	4798      	blx	r3
 8004796:	3501      	adds	r5, #1
 8004798:	e7ee      	b.n	8004778 <__libc_init_array+0xc>
 800479a:	f856 3025 	ldr.w	r3, [r6, r5, lsl #2]
 800479e:	4798      	blx	r3
 80047a0:	3501      	adds	r5, #1
 80047a2:	e7f2      	b.n	800478a <__libc_init_array+0x1e>
 80047a4:	080048d0 	.word	0x080048d0
 80047a8:	080048d0 	.word	0x080048d0
 80047ac:	080048d0 	.word	0x080048d0
 80047b0:	080048d4 	.word	0x080048d4

080047b4 <memcmp>:
 80047b4:	b530      	push	{r4, r5, lr}
 80047b6:	2400      	movs	r4, #0
 80047b8:	42a2      	cmp	r2, r4
 80047ba:	d101      	bne.n	80047c0 <memcmp+0xc>
 80047bc:	2000      	movs	r0, #0
 80047be:	e007      	b.n	80047d0 <memcmp+0x1c>
 80047c0:	5d03      	ldrb	r3, [r0, r4]
 80047c2:	3401      	adds	r4, #1
 80047c4:	190d      	adds	r5, r1, r4
 80047c6:	f815 5c01 	ldrb.w	r5, [r5, #-1]
 80047ca:	42ab      	cmp	r3, r5
 80047cc:	d0f4      	beq.n	80047b8 <memcmp+0x4>
 80047ce:	1b58      	subs	r0, r3, r5
 80047d0:	bd30      	pop	{r4, r5, pc}

080047d2 <memcpy>:
 80047d2:	b510      	push	{r4, lr}
 80047d4:	1e43      	subs	r3, r0, #1
 80047d6:	440a      	add	r2, r1
 80047d8:	4291      	cmp	r1, r2
 80047da:	d100      	bne.n	80047de <memcpy+0xc>
 80047dc:	bd10      	pop	{r4, pc}
 80047de:	f811 4b01 	ldrb.w	r4, [r1], #1
 80047e2:	f803 4f01 	strb.w	r4, [r3, #1]!
 80047e6:	e7f7      	b.n	80047d8 <memcpy+0x6>

080047e8 <memset>:
 80047e8:	4402      	add	r2, r0
 80047ea:	4603      	mov	r3, r0
 80047ec:	4293      	cmp	r3, r2
 80047ee:	d100      	bne.n	80047f2 <memset+0xa>
 80047f0:	4770      	bx	lr
 80047f2:	f803 1b01 	strb.w	r1, [r3], #1
 80047f6:	e7f9      	b.n	80047ec <memset+0x4>

080047f8 <_init>:
 80047f8:	b5f8      	push	{r3, r4, r5, r6, r7, lr}
 80047fa:	bf00      	nop
 80047fc:	bcf8      	pop	{r3, r4, r5, r6, r7}
 80047fe:	bc08      	pop	{r3}
 8004800:	469e      	mov	lr, r3
 8004802:	4770      	bx	lr

08004804 <_fini>:
 8004804:	b5f8      	push	{r3, r4, r5, r6, r7, lr}
 8004806:	bf00      	nop
 8004808:	bcf8      	pop	{r3, r4, r5, r6, r7}
 800480a:	bc08      	pop	{r3}
 800480c:	469e      	mov	lr, r3
 800480e:	4770      	bx	lr
