
updating_test.elf:     file format elf32-littlearm

Sections:
Idx Name          Size      VMA       LMA       File off  Algn
  0 .shared       00000040  20000000  20000000  00040000  2**2
                  ALLOC
  1 .isr_vector   000001fc  08008000  08008000  00008000  2**0
                  CONTENTS, ALLOC, LOAD, READONLY, DATA
  2 .text         0000c780  08008200  08008200  00008200  2**4
                  CONTENTS, ALLOC, LOAD, READONLY, CODE
  3 .rodata       00012dfc  08014980  08014980  00014980  2**2
                  CONTENTS, ALLOC, LOAD, READONLY, DATA
  4 .ARM          00000008  0802777c  0802777c  0002777c  2**2
                  CONTENTS, ALLOC, LOAD, READONLY, DATA
  5 .init_array   00000004  08027784  08027784  00027784  2**2
                  CONTENTS, ALLOC, LOAD, DATA
  6 .fini_array   00000004  08027788  08027788  00027788  2**2
                  CONTENTS, ALLOC, LOAD, DATA
  7 .data         0000007c  20000040  0802778c  00030040  2**2
                  CONTENTS, ALLOC, LOAD, DATA
  8 .bss          0000b29c  200000bc  08027808  000300bc  2**2
                  ALLOC
  9 ._user_heap_stack 00000600  2000b358  08027808  0003b358  2**0
                  ALLOC
 10 .ARM.attributes 0000002e  00000000  00000000  000300bc  2**0
                  CONTENTS, READONLY
 11 .comment      0000007b  00000000  00000000  000300ea  2**0
                  CONTENTS, READONLY
 12 .debug_frame  0000084c  00000000  00000000  00030168  2**2
                  CONTENTS, READONLY, DEBUGGING

Disassembly of section .text:

08008200 <__do_global_dtors_aux>:
 8008200:	b510      	push	{r4, lr}
 8008202:	4c05      	ldr	r4, [pc, #20]	; (8008218 <__do_global_dtors_aux+0x18>)
 8008204:	7823      	ldrb	r3, [r4, #0]
 8008206:	b933      	cbnz	r3, 8008216 <__do_global_dtors_aux+0x16>
 8008208:	4b04      	ldr	r3, [pc, #16]	; (800821c <__do_global_dtors_aux+0x1c>)
 800820a:	b113      	cbz	r3, 8008212 <__do_global_dtors_aux+0x12>
 800820c:	4804      	ldr	r0, [pc, #16]	; (8008220 <__do_global_dtors_aux+0x20>)
 800820e:	f3af 8000 	nop.w
 8008212:	2301      	movs	r3, #1
 8008214:	7023      	strb	r3, [r4, #0]
 8008216:	bd10      	pop	{r4, pc}
 8008218:	200000bc 	.word	0x200000bc
 800821c:	00000000 	.word	0x00000000
 8008220:	08014968 	.word	0x08014968

08008224 <frame_dummy>:
 8008224:	b508      	push	{r3, lr}
 8008226:	4b03      	ldr	r3, [pc, #12]	; (8008234 <frame_dummy+0x10>)
 8008228:	b11b      	cbz	r3, 8008232 <frame_dummy+0xe>
 800822a:	4903      	ldr	r1, [pc, #12]	; (8008238 <frame_dummy+0x14>)
 800822c:	4803      	ldr	r0, [pc, #12]	; (800823c <frame_dummy+0x18>)
 800822e:	f3af 8000 	nop.w
 8008232:	bd08      	pop	{r3, pc}
 8008234:	00000000 	.word	0x00000000
 8008238:	200000c0 	.word	0x200000c0
 800823c:	08014968 	.word	0x08014968

08008240 <strcmp>:
 8008240:	f810 2b01 	ldrb.w	r2, [r0], #1
 8008244:	f811 3b01 	ldrb.w	r3, [r1], #1
 8008248:	2a01      	cmp	r2, #1
 800824a:	bf28      	it	cs
 800824c:	429a      	cmpcs	r2, r3
 800824e:	d0f7      	beq.n	8008240 <strcmp>
 8008250:	1ad0      	subs	r0, r2, r3
 8008252:	4770      	bx	lr

08008254 <strlen>:
 8008254:	4603      	mov	r3, r0
 8008256:	f813 2b01 	ldrb.w	r2, [r3], #1
 800825a:	2a00      	cmp	r2, #0
 800825c:	d1fb      	bne.n	8008256 <strlen+0x2>
 800825e:	1a18      	subs	r0, r3, r0
 8008260:	3801      	subs	r0, #1
 8008262:	4770      	bx	lr
	...

08008270 <memchr>:
 8008270:	f001 01ff 	and.w	r1, r1, #255	; 0xff
 8008274:	2a10      	cmp	r2, #16
 8008276:	db2b      	blt.n	80082d0 <memchr+0x60>
 8008278:	f010 0f07 	tst.w	r0, #7
 800827c:	d008      	beq.n	8008290 <memchr+0x20>
 800827e:	f810 3b01 	ldrb.w	r3, [r0], #1
 8008282:	3a01      	subs	r2, #1
 8008284:	428b      	cmp	r3, r1
 8008286:	d02d      	beq.n	80082e4 <memchr+0x74>
 8008288:	f010 0f07 	tst.w	r0, #7
 800828c:	b342      	cbz	r2, 80082e0 <memchr+0x70>
 800828e:	d1f6      	bne.n	800827e <memchr+0xe>
 8008290:	b4f0      	push	{r4, r5, r6, r7}
 8008292:	ea41 2101 	orr.w	r1, r1, r1, lsl #8
 8008296:	ea41 4101 	orr.w	r1, r1, r1, lsl #16
 800829a:	f022 0407 	bic.w	r4, r2, #7
 800829e:	f07f 0700 	mvns.w	r7, #0
 80082a2:	2300      	movs	r3, #0
 80082a4:	e8f0 5602 	ldrd	r5, r6, [r0], #8
 80082a8:	3c08      	subs	r4, #8
 80082aa:	ea85 0501 	eor.w	r5, r5, r1
 80082ae:	ea86 0601 	eor.w	r6, r6, r1
 80082b2:	fa85 f547 	uadd8	r5, r5, r7
 80082b6:	faa3 f587 	sel	r5, r3, r7
 80082ba:	fa86 f647 	uadd8	r6, r6, r7
 80082be:	faa5 f687 	sel	r6, r5, r7
 80082c2:	b98e      	cbnz	r6, 80082e8 <memchr+0x78>
 80082c4:	d1ee      	bne.n	80082a4 <memchr+0x34>
 80082c6:	bcf0      	pop	{r4, r5, r6, r7}
 80082c8:	f001 01ff 	and.w	r1, r1, #255	; 0xff
 80082cc:	f002 0207 	and.w	r2, r2, #7
 80082d0:	b132      	cbz	r2, 80082e0 <memchr+0x70>
 80082d2:	f810 3b01 	ldrb.w	r3, [r0], #1
 80082d6:	3a01      	subs	r2, #1
 80082d8:	ea83 0301 	eor.w	r3, r3, r1
 80082dc:	b113      	cbz	r3, 80082e4 <memchr+0x74>
 80082de:	d1f8      	bne.n	80082d2 <memchr+0x62>
 80082e0:	2000      	movs	r0, #0
 80082e2:	4770      	bx	lr
 80082e4:	3801      	subs	r0, #1
 80082e6:	4770      	bx	lr
 80082e8:	2d00      	cmp	r5, #0
 80082ea:	bf06      	itte	eq
 80082ec:	4635      	moveq	r5, r6
 80082ee:	3803      	subeq	r0, #3
 80082f0:	3807      	subne	r0, #7
 80082f2:	f015 0f01 	tst.w	r5, #1
 80082f6:	d107      	bne.n	8008308 <memchr+0x98>
 80082f8:	3001      	adds	r0, #1
 80082fa:	f415 7f80 	tst.w	r5, #256	; 0x100
 80082fe:	bf02      	ittt	eq
 8008300:	3001      	addeq	r0, #1
 8008302:	f415 3fc0 	tsteq.w	r5, #98304	; 0x18000
 8008306:	3001      	addeq	r0, #1
 8008308:	bcf0      	pop	{r4, r5, r6, r7}
 800830a:	3801      	subs	r0, #1
 800830c:	4770      	bx	lr
 800830e:	bf00      	nop

08008310 <__aeabi_uldivmod>:
 8008310:	b953      	cbnz	r3, 8008328 <__aeabi_uldivmod+0x18>
 8008312:	b94a      	cbnz	r2, 8008328 <__aeabi_uldivmod+0x18>
 8008314:	2900      	cmp	r1, #0
 8008316:	bf08      	it	eq
 8008318:	2800      	cmpeq	r0, #0
 800831a:	bf1c      	itt	ne
 800831c:	f04f 31ff 	movne.w	r1, #4294967295	; 0xffffffff
 8008320:	f04f 30ff 	movne.w	r0, #4294967295	; 0xffffffff
 8008324:	f000 b972 	b.w	800860c <__aeabi_idiv0>
 8008328:	f1ad 0c08 	sub.w	ip, sp, #8
 800832c:	e96d ce04 	strd	ip, lr, [sp, #-16]!
 8008330:	f000 f806 	bl	8008340 <__udivmoddi4>
 8008334:	f8dd e004 	ldr.w	lr, [sp, #4]
 8008338:	e9dd 2302 	ldrd	r2, r3, [sp, #8]
 800833c:	b004      	add	sp, #16
 800833e:	4770      	bx	lr

08008340 <__udivmoddi4>:
 8008340:	e92d 47f0 	stmdb	sp!, {r4, r5, r6, r7, r8, r9, sl, lr}
 8008344:	9e08      	ldr	r6, [sp, #32]
 8008346:	4604      	mov	r4, r0
 8008348:	4688      	mov	r8, r1
 800834a:	2b00      	cmp	r3, #0
 800834c:	d14b      	bne.n	80083e6 <__udivmoddi4+0xa6>
 800834e:	428a      	cmp	r2, r1
 8008350:	4615      	mov	r5, r2
 8008352:	d967      	bls.n	8008424 <__udivmoddi4+0xe4>
 8008354:	fab2 f282 	clz	r2, r2
 8008358:	b14a      	cbz	r2, 800836e <__udivmoddi4+0x2e>
 800835a:	f1c2 0720 	rsb	r7, r2, #32
 800835e:	fa01 f302 	lsl.w	r3, r1, r2
 8008362:	fa20 f707 	lsr.w	r7, r0, r7
 8008366:	4095      	lsls	r5, r2
 8008368:	ea47 0803 	orr.w	r8, r7, r3
 800836c:	4094      	lsls	r4, r2
 800836e:	ea4f 4e15 	mov.w	lr, r5, lsr #16
 8008372:	0c23      	lsrs	r3, r4, #16
 8008374:	fbb8 f7fe 	udiv	r7, r8, lr
 8008378:	fa1f fc85 	uxth.w	ip, r5
 800837c:	fb0e 8817 	mls	r8, lr, r7, r8
 8008380:	ea43 4308 	orr.w	r3, r3, r8, lsl #16
 8008384:	fb07 f10c 	mul.w	r1, r7, ip
 8008388:	4299      	cmp	r1, r3
 800838a:	d909      	bls.n	80083a0 <__udivmoddi4+0x60>
 800838c:	18eb      	adds	r3, r5, r3
 800838e:	f107 30ff 	add.w	r0, r7, #4294967295	; 0xffffffff
 8008392:	f080 811b 	bcs.w	80085cc <__udivmoddi4+0x28c>
 8008396:	4299      	cmp	r1, r3
 8008398:	f240 8118 	bls.w	80085cc <__udivmoddi4+0x28c>
 800839c:	3f02      	subs	r7, #2
 800839e:	442b      	add	r3, r5
 80083a0:	1a5b      	subs	r3, r3, r1
 80083a2:	b2a4      	uxth	r4, r4
 80083a4:	fbb3 f0fe 	udiv	r0, r3, lr
 80083a8:	fb0e 3310 	mls	r3, lr, r0, r3
 80083ac:	ea44 4403 	orr.w	r4, r4, r3, lsl #16
 80083b0:	fb00 fc0c 	mul.w	ip, r0, ip
 80083b4:	45a4      	cmp	ip, r4
 80083b6:	d909      	bls.n	80083cc <__udivmoddi4+0x8c>
 80083b8:	192c      	adds	r4, r5, r4
 80083ba:	f100 33ff 	add.w	r3, r0, #4294967295	; 0xffffffff
 80083be:	f080 8107 	bcs.w	80085d0 <__udivmoddi4+0x290>
 80083c2:	45a4      	cmp	ip, r4
 80083c4:	f240 8104 	bls.w	80085d0 <__udivmoddi4+0x290>
 80083c8:	3802      	subs	r0, #2
 80083ca:	442c      	add	r4, r5
 80083cc:	ea40 4007 	orr.w	r0, r0, r7, lsl #16
 80083d0:	eba4 040c 	sub.w	r4, r4, ip
 80083d4:	2700      	movs	r7, #0
 80083d6:	b11e      	cbz	r6, 80083e0 <__udivmoddi4+0xa0>
 80083d8:	40d4      	lsrs	r4, r2
 80083da:	2300      	movs	r3, #0
 80083dc:	e9c6 4300 	strd	r4, r3, [r6]
 80083e0:	4639      	mov	r1, r7
 80083e2:	e8bd 87f0 	ldmia.w	sp!, {r4, r5, r6, r7, r8, r9, sl, pc}
 80083e6:	428b      	cmp	r3, r1
 80083e8:	d909      	bls.n	80083fe <__udivmoddi4+0xbe>
 80083ea:	2e00      	cmp	r6, #0
 80083ec:	f000 80eb 	beq.w	80085c6 <__udivmoddi4+0x286>
 80083f0:	2700      	movs	r7, #0
 80083f2:	e9c6 0100 	strd	r0, r1, [r6]
 80083f6:	4638      	mov	r0, r7
 80083f8:	4639      	mov	r1, r7
 80083fa:	e8bd 87f0 	ldmia.w	sp!, {r4, r5, r6, r7, r8, r9, sl, pc}
 80083fe:	fab3 f783 	clz	r7, r3
 8008402:	2f00      	cmp	r7, #0
 8008404:	d147      	bne.n	8008496 <__udivmoddi4+0x156>
 8008406:	428b      	cmp	r3, r1
 8008408:	d302      	bcc.n	8008410 <__udivmoddi4+0xd0>
 800840a:	4282      	cmp	r2, r0
 800840c:	f200 80fa 	bhi.w	8008604 <__udivmoddi4+0x2c4>
 8008410:	1a84      	subs	r4, r0, r2
 8008412:	eb61 0303 	sbc.w	r3, r1, r3
 8008416:	2001      	movs	r0, #1
 8008418:	4698      	mov	r8, r3
 800841a:	2e00      	cmp	r6, #0
 800841c:	d0e0      	beq.n	80083e0 <__udivmoddi4+0xa0>
 800841e:	e9c6 4800 	strd	r4, r8, [r6]
 8008422:	e7dd      	b.n	80083e0 <__udivmoddi4+0xa0>
 8008424:	b902      	cbnz	r2, 8008428 <__udivmoddi4+0xe8>
 8008426:	deff      	udf	#255	; 0xff
 8008428:	fab2 f282 	clz	r2, r2
 800842c:	2a00      	cmp	r2, #0
 800842e:	f040 808f 	bne.w	8008550 <__udivmoddi4+0x210>
 8008432:	1b49      	subs	r1, r1, r5
 8008434:	ea4f 4e15 	mov.w	lr, r5, lsr #16
 8008438:	fa1f f885 	uxth.w	r8, r5
 800843c:	2701      	movs	r7, #1
 800843e:	fbb1 fcfe 	udiv	ip, r1, lr
 8008442:	0c23      	lsrs	r3, r4, #16
 8008444:	fb0e 111c 	mls	r1, lr, ip, r1
 8008448:	ea43 4301 	orr.w	r3, r3, r1, lsl #16
 800844c:	fb08 f10c 	mul.w	r1, r8, ip
 8008450:	4299      	cmp	r1, r3
 8008452:	d907      	bls.n	8008464 <__udivmoddi4+0x124>
 8008454:	18eb      	adds	r3, r5, r3
 8008456:	f10c 30ff 	add.w	r0, ip, #4294967295	; 0xffffffff
 800845a:	d202      	bcs.n	8008462 <__udivmoddi4+0x122>
 800845c:	4299      	cmp	r1, r3
 800845e:	f200 80cd 	bhi.w	80085fc <__udivmoddi4+0x2bc>
 8008462:	4684      	mov	ip, r0
 8008464:	1a59      	subs	r1, r3, r1
 8008466:	b2a3      	uxth	r3, r4
 8008468:	fbb1 f0fe 	udiv	r0, r1, lr
 800846c:	fb0e 1410 	mls	r4, lr, r0, r1
 8008470:	ea43 4404 	orr.w	r4, r3, r4, lsl #16
 8008474:	fb08 f800 	mul.w	r8, r8, r0
 8008478:	45a0      	cmp	r8, r4
 800847a:	d907      	bls.n	800848c <__udivmoddi4+0x14c>
 800847c:	192c      	adds	r4, r5, r4
 800847e:	f100 33ff 	add.w	r3, r0, #4294967295	; 0xffffffff
 8008482:	d202      	bcs.n	800848a <__udivmoddi4+0x14a>
 8008484:	45a0      	cmp	r8, r4
 8008486:	f200 80b6 	bhi.w	80085f6 <__udivmoddi4+0x2b6>
 800848a:	4618      	mov	r0, r3
 800848c:	eba4 0408 	sub.w	r4, r4, r8
 8008490:	ea40 400c 	orr.w	r0, r0, ip, lsl #16
 8008494:	e79f      	b.n	80083d6 <__udivmoddi4+0x96>
 8008496:	f1c7 0c20 	rsb	ip, r7, #32
 800849a:	40bb      	lsls	r3, r7
 800849c:	fa22 fe0c 	lsr.w	lr, r2, ip
 80084a0:	ea4e 0e03 	orr.w	lr, lr, r3
 80084a4:	fa01 f407 	lsl.w	r4, r1, r7
 80084a8:	fa20 f50c 	lsr.w	r5, r0, ip
 80084ac:	fa21 f30c 	lsr.w	r3, r1, ip
 80084b0:	ea4f 481e 	mov.w	r8, lr, lsr #16
 80084b4:	4325      	orrs	r5, r4
 80084b6:	fbb3 f9f8 	udiv	r9, r3, r8
 80084ba:	0c2c      	lsrs	r4, r5, #16
 80084bc:	fb08 3319 	mls	r3, r8, r9, r3
 80084c0:	fa1f fa8e 	uxth.w	sl, lr
 80084c4:	ea44 4303 	orr.w	r3, r4, r3, lsl #16
 80084c8:	fb09 f40a 	mul.w	r4, r9, sl
 80084cc:	429c      	cmp	r4, r3
 80084ce:	fa02 f207 	lsl.w	r2, r2, r7
 80084d2:	fa00 f107 	lsl.w	r1, r0, r7
 80084d6:	d90b      	bls.n	80084f0 <__udivmoddi4+0x1b0>
 80084d8:	eb1e 0303 	adds.w	r3, lr, r3
 80084dc:	f109 30ff 	add.w	r0, r9, #4294967295	; 0xffffffff
 80084e0:	f080 8087 	bcs.w	80085f2 <__udivmoddi4+0x2b2>
 80084e4:	429c      	cmp	r4, r3
 80084e6:	f240 8084 	bls.w	80085f2 <__udivmoddi4+0x2b2>
 80084ea:	f1a9 0902 	sub.w	r9, r9, #2
 80084ee:	4473      	add	r3, lr
 80084f0:	1b1b      	subs	r3, r3, r4
 80084f2:	b2ad      	uxth	r5, r5
 80084f4:	fbb3 f0f8 	udiv	r0, r3, r8
 80084f8:	fb08 3310 	mls	r3, r8, r0, r3
 80084fc:	ea45 4403 	orr.w	r4, r5, r3, lsl #16
 8008500:	fb00 fa0a 	mul.w	sl, r0, sl
 8008504:	45a2      	cmp	sl, r4
 8008506:	d908      	bls.n	800851a <__udivmoddi4+0x1da>
 8008508:	eb1e 0404 	adds.w	r4, lr, r4
 800850c:	f100 33ff 	add.w	r3, r0, #4294967295	; 0xffffffff
 8008510:	d26b      	bcs.n	80085ea <__udivmoddi4+0x2aa>
 8008512:	45a2      	cmp	sl, r4
 8008514:	d969      	bls.n	80085ea <__udivmoddi4+0x2aa>
 8008516:	3802      	subs	r0, #2
 8008518:	4474      	add	r4, lr
 800851a:	ea40 4009 	orr.w	r0, r0, r9, lsl #16
 800851e:	fba0 8902 	umull	r8, r9, r0, r2
 8008522:	eba4 040a 	sub.w	r4, r4, sl
 8008526:	454c      	cmp	r4, r9
 8008528:	46c2      	mov	sl, r8
 800852a:	464b      	mov	r3, r9
 800852c:	d354      	bcc.n	80085d8 <__udivmoddi4+0x298>
 800852e:	d051      	beq.n	80085d4 <__udivmoddi4+0x294>
 8008530:	2e00      	cmp	r6, #0
 8008532:	d069      	beq.n	8008608 <__udivmoddi4+0x2c8>
 8008534:	ebb1 050a 	subs.w	r5, r1, sl
 8008538:	eb64 0403 	sbc.w	r4, r4, r3
 800853c:	fa04 fc0c 	lsl.w	ip, r4, ip
 8008540:	40fd      	lsrs	r5, r7
 8008542:	40fc      	lsrs	r4, r7
 8008544:	ea4c 0505 	orr.w	r5, ip, r5
 8008548:	e9c6 5400 	strd	r5, r4, [r6]
 800854c:	2700      	movs	r7, #0
 800854e:	e747      	b.n	80083e0 <__udivmoddi4+0xa0>
 8008550:	f1c2 0320 	rsb	r3, r2, #32
 8008554:	fa20 f703 	lsr.w	r7, r0, r3
 8008558:	4095      	lsls	r5, r2
 800855a:	fa01 f002 	lsl.w	r0, r1, r2
 800855e:	fa21 f303 	lsr.w	r3, r1, r3
 8008562:	ea4f 4e15 	mov.w	lr, r5, lsr #16
 8008566:	4338      	orrs	r0, r7
 8008568:	0c01      	lsrs	r1, r0, #16
 800856a:	fbb3 f7fe 	udiv	r7, r3, lr
 800856e:	fa1f f885 	uxth.w	r8, r5
 8008572:	fb0e 3317 	mls	r3, lr, r7, r3
 8008576:	ea41 4103 	orr.w	r1, r1, r3, lsl #16
 800857a:	fb07 f308 	mul.w	r3, r7, r8
 800857e:	428b      	cmp	r3, r1
 8008580:	fa04 f402 	lsl.w	r4, r4, r2
 8008584:	d907      	bls.n	8008596 <__udivmoddi4+0x256>
 8008586:	1869      	adds	r1, r5, r1
 8008588:	f107 3cff 	add.w	ip, r7, #4294967295	; 0xffffffff
 800858c:	d22f      	bcs.n	80085ee <__udivmoddi4+0x2ae>
 800858e:	428b      	cmp	r3, r1
 8008590:	d92d      	bls.n	80085ee <__udivmoddi4+0x2ae>
 8008592:	3f02      	subs	r7, #2
 8008594:	4429      	add	r1, r5
 8008596:	1acb      	subs	r3, r1, r3
 8008598:	b281      	uxth	r1, r0
 800859a:	fbb3 f0fe 	udiv	r0, r3, lr
 800859e:	fb0e 3310 	mls	r3, lr, r0, r3
 80085a2:	ea41 4103 	orr.w	r1, r1, r3, lsl #16
 80085a6:	fb00 f308 	mul.w	r3, r0, r8
 80085aa:	428b      	cmp	r3, r1
 80085ac:	d907      	bls.n	80085be <__udivmoddi4+0x27e>
 80085ae:	1869      	adds	r1, r5, r1
 80085b0:	f100 3cff 	add.w	ip, r0, #4294967295	; 0xffffffff
 80085b4:	d217      	bcs.n	80085e6 <__udivmoddi4+0x2a6>
 80085b6:	428b      	cmp	r3, r1
 80085b8:	d915      	bls.n	80085e6 <__udivmoddi4+0x2a6>
 80085ba:	3802      	subs	r0, #2
 80085bc:	4429      	add	r1, r5
 80085be:	1ac9      	subs	r1, r1, r3
 80085c0:	ea40 4707 	orr.w	r7, r0, r7, lsl #16
 80085c4:	e73b      	b.n	800843e <__udivmoddi4+0xfe>
 80085c6:	4637      	mov	r7, r6
 80085c8:	4630      	mov	r0, r6
 80085ca:	e709      	b.n	80083e0 <__udivmoddi4+0xa0>
 80085cc:	4607      	mov	r7, r0
 80085ce:	e6e7      	b.n	80083a0 <__udivmoddi4+0x60>
 80085d0:	4618      	mov	r0, r3
 80085d2:	e6fb      	b.n	80083cc <__udivmoddi4+0x8c>
 80085d4:	4541      	cmp	r1, r8
 80085d6:	d2ab      	bcs.n	8008530 <__udivmoddi4+0x1f0>
 80085d8:	ebb8 0a02 	subs.w	sl, r8, r2
 80085dc:	eb69 020e 	sbc.w	r2, r9, lr
 80085e0:	3801      	subs	r0, #1
 80085e2:	4613      	mov	r3, r2
 80085e4:	e7a4      	b.n	8008530 <__udivmoddi4+0x1f0>
 80085e6:	4660      	mov	r0, ip
 80085e8:	e7e9      	b.n	80085be <__udivmoddi4+0x27e>
 80085ea:	4618      	mov	r0, r3
 80085ec:	e795      	b.n	800851a <__udivmoddi4+0x1da>
 80085ee:	4667      	mov	r7, ip
 80085f0:	e7d1      	b.n	8008596 <__udivmoddi4+0x256>
 80085f2:	4681      	mov	r9, r0
 80085f4:	e77c      	b.n	80084f0 <__udivmoddi4+0x1b0>
 80085f6:	3802      	subs	r0, #2
 80085f8:	442c      	add	r4, r5
 80085fa:	e747      	b.n	800848c <__udivmoddi4+0x14c>
 80085fc:	f1ac 0c02 	sub.w	ip, ip, #2
 8008600:	442b      	add	r3, r5
 8008602:	e72f      	b.n	8008464 <__udivmoddi4+0x124>
 8008604:	4638      	mov	r0, r7
 8008606:	e708      	b.n	800841a <__udivmoddi4+0xda>
 8008608:	4637      	mov	r7, r6
 800860a:	e6e9      	b.n	80083e0 <__udivmoddi4+0xa0>

0800860c <__aeabi_idiv0>:
 800860c:	4770      	bx	lr
 800860e:	bf00      	nop

08008610 <__NVIC_SystemReset>:
 8008610:	f3bf 8f4f 	dsb	sy
 8008614:	4905      	ldr	r1, [pc, #20]	; (800862c <__NVIC_SystemReset+0x1c>)
 8008616:	4b06      	ldr	r3, [pc, #24]	; (8008630 <__NVIC_SystemReset+0x20>)
 8008618:	68ca      	ldr	r2, [r1, #12]
 800861a:	f402 62e0 	and.w	r2, r2, #1792	; 0x700
 800861e:	4313      	orrs	r3, r2
 8008620:	60cb      	str	r3, [r1, #12]
 8008622:	f3bf 8f4f 	dsb	sy
 8008626:	bf00      	nop
 8008628:	e7fd      	b.n	8008626 <__NVIC_SystemReset+0x16>
 800862a:	bf00      	nop
 800862c:	e000ed00 	.word	0xe000ed00
 8008630:	05fa0004 	.word	0x05fa0004

08008634 <BootActivate>:
 8008634:	b508      	push	{r3, lr}
 8008636:	f7ff ffeb 	bl	8008610 <__NVIC_SystemReset>
	...

0800863c <vApplicationGetIdleTaskMemory>:
 800863c:	4b03      	ldr	r3, [pc, #12]	; (800864c <vApplicationGetIdleTaskMemory+0x10>)
 800863e:	6003      	str	r3, [r0, #0]
 8008640:	4b03      	ldr	r3, [pc, #12]	; (8008650 <vApplicationGetIdleTaskMemory+0x14>)
 8008642:	600b      	str	r3, [r1, #0]
 8008644:	2380      	movs	r3, #128	; 0x80
 8008646:	6013      	str	r3, [r2, #0]
 8008648:	4770      	bx	lr
 800864a:	bf00      	nop
 800864c:	200002d8 	.word	0x200002d8
 8008650:	200000d8 	.word	0x200000d8

08008654 <StartDefaultTask>:
 8008654:	b538      	push	{r3, r4, r5, lr}
 8008656:	4d10      	ldr	r5, [pc, #64]	; (8008698 <StartDefaultTask+0x44>)
 8008658:	f002 fad2 	bl	800ac00 <MX_LWIP_Init>
 800865c:	f004 ffe0 	bl	800d620 <httpd_init>
 8008660:	241e      	movs	r4, #30
 8008662:	2101      	movs	r1, #1
 8008664:	4628      	mov	r0, r5
 8008666:	f001 f8d4 	bl	8009812 <HAL_GPIO_TogglePin>
 800866a:	f44f 70fa 	mov.w	r0, #500	; 0x1f4
 800866e:	f000 faff 	bl	8008c70 <HAL_Delay>
 8008672:	3c01      	subs	r4, #1
 8008674:	d1f5      	bne.n	8008662 <StartDefaultTask+0xe>
 8008676:	240a      	movs	r4, #10
 8008678:	2101      	movs	r1, #1
 800867a:	4628      	mov	r0, r5
 800867c:	f001 f8c9 	bl	8009812 <HAL_GPIO_TogglePin>
 8008680:	2032      	movs	r0, #50	; 0x32
 8008682:	f000 faf5 	bl	8008c70 <HAL_Delay>
 8008686:	3c01      	subs	r4, #1
 8008688:	d1f6      	bne.n	8008678 <StartDefaultTask+0x24>
 800868a:	2101      	movs	r1, #1
 800868c:	4620      	mov	r0, r4
 800868e:	f000 f96d 	bl	800896c <SharedParamsWriteByIndex>
 8008692:	f7ff ffcf 	bl	8008634 <BootActivate>
 8008696:	e7e3      	b.n	8008660 <StartDefaultTask+0xc>
 8008698:	40020400 	.word	0x40020400

0800869c <SystemClock_Config>:
 800869c:	b510      	push	{r4, lr}
 800869e:	b0b8      	sub	sp, #224	; 0xe0
 80086a0:	2234      	movs	r2, #52	; 0x34
 80086a2:	2100      	movs	r1, #0
 80086a4:	2402      	movs	r4, #2
 80086a6:	a807      	add	r0, sp, #28
 80086a8:	f00b fa16 	bl	8013ad8 <memset>
 80086ac:	2214      	movs	r2, #20
 80086ae:	2100      	movs	r1, #0
 80086b0:	a802      	add	r0, sp, #8
 80086b2:	f00b fa11 	bl	8013ad8 <memset>
 80086b6:	2100      	movs	r1, #0
 80086b8:	2290      	movs	r2, #144	; 0x90
 80086ba:	a814      	add	r0, sp, #80	; 0x50
 80086bc:	f00b fa0c 	bl	8013ad8 <memset>
 80086c0:	f001 f94c 	bl	800995c <HAL_PWR_EnableBkUpAccess>
 80086c4:	4b1f      	ldr	r3, [pc, #124]	; (8008744 <SystemClock_Config+0xa8>)
 80086c6:	a807      	add	r0, sp, #28
 80086c8:	6c1a      	ldr	r2, [r3, #64]	; 0x40
 80086ca:	f042 5280 	orr.w	r2, r2, #268435456	; 0x10000000
 80086ce:	641a      	str	r2, [r3, #64]	; 0x40
 80086d0:	6c1b      	ldr	r3, [r3, #64]	; 0x40
 80086d2:	4a1d      	ldr	r2, [pc, #116]	; (8008748 <SystemClock_Config+0xac>)
 80086d4:	f003 5380 	and.w	r3, r3, #268435456	; 0x10000000
 80086d8:	9300      	str	r3, [sp, #0]
 80086da:	9b00      	ldr	r3, [sp, #0]
 80086dc:	6813      	ldr	r3, [r2, #0]
 80086de:	f423 4340 	bic.w	r3, r3, #49152	; 0xc000
 80086e2:	f443 4380 	orr.w	r3, r3, #16384	; 0x4000
 80086e6:	6013      	str	r3, [r2, #0]
 80086e8:	6813      	ldr	r3, [r2, #0]
 80086ea:	2201      	movs	r2, #1
 80086ec:	f403 4340 	and.w	r3, r3, #49152	; 0xc000
 80086f0:	9301      	str	r3, [sp, #4]
 80086f2:	9b01      	ldr	r3, [sp, #4]
 80086f4:	f44f 23a0 	mov.w	r3, #327680	; 0x50000
 80086f8:	e9cd 2307 	strd	r2, r3, [sp, #28]
 80086fc:	f44f 0380 	mov.w	r3, #4194304	; 0x400000
 8008700:	2260      	movs	r2, #96	; 0x60
 8008702:	e9cd 430d 	strd	r4, r3, [sp, #52]	; 0x34
 8008706:	2304      	movs	r3, #4
 8008708:	e9cd 320f 	strd	r3, r2, [sp, #60]	; 0x3c
 800870c:	e9cd 4311 	strd	r4, r3, [sp, #68]	; 0x44
 8008710:	f001 f964 	bl	80099dc <HAL_RCC_OscConfig>
 8008714:	f001 f92a 	bl	800996c <HAL_PWREx_EnableOverDrive>
 8008718:	230f      	movs	r3, #15
 800871a:	2103      	movs	r1, #3
 800871c:	a802      	add	r0, sp, #8
 800871e:	e9cd 3402 	strd	r3, r4, [sp, #8]
 8008722:	2400      	movs	r4, #0
 8008724:	f44f 5380 	mov.w	r3, #4096	; 0x1000
 8008728:	9406      	str	r4, [sp, #24]
 800872a:	e9cd 4304 	strd	r4, r3, [sp, #16]
 800872e:	f001 fb47 	bl	8009dc0 <HAL_RCC_ClockConfig>
 8008732:	4b06      	ldr	r3, [pc, #24]	; (800874c <SystemClock_Config+0xb0>)
 8008734:	a814      	add	r0, sp, #80	; 0x50
 8008736:	9427      	str	r4, [sp, #156]	; 0x9c
 8008738:	9314      	str	r3, [sp, #80]	; 0x50
 800873a:	9433      	str	r4, [sp, #204]	; 0xcc
 800873c:	f001 fc04 	bl	8009f48 <HAL_RCCEx_PeriphCLKConfig>
 8008740:	b038      	add	sp, #224	; 0xe0
 8008742:	bd10      	pop	{r4, pc}
 8008744:	40023800 	.word	0x40023800
 8008748:	40007000 	.word	0x40007000
 800874c:	00200100 	.word	0x00200100

08008750 <main>:
 8008750:	4b63      	ldr	r3, [pc, #396]	; (80088e0 <main+0x190>)
 8008752:	4a64      	ldr	r2, [pc, #400]	; (80088e4 <main+0x194>)
 8008754:	b570      	push	{r4, r5, r6, lr}
 8008756:	b08e      	sub	sp, #56	; 0x38
 8008758:	609a      	str	r2, [r3, #8]
 800875a:	f000 fa6b 	bl	8008c34 <HAL_Init>
 800875e:	2400      	movs	r4, #0
 8008760:	f7ff ff9c 	bl	800869c <SystemClock_Config>
 8008764:	2214      	movs	r2, #20
 8008766:	2100      	movs	r1, #0
 8008768:	a807      	add	r0, sp, #28
 800876a:	f00b f9b5 	bl	8013ad8 <memset>
 800876e:	4b5e      	ldr	r3, [pc, #376]	; (80088e8 <main+0x198>)
 8008770:	f244 0181 	movw	r1, #16513	; 0x4081
 8008774:	485d      	ldr	r0, [pc, #372]	; (80088ec <main+0x19c>)
 8008776:	6b1a      	ldr	r2, [r3, #48]	; 0x30
 8008778:	2501      	movs	r5, #1
 800877a:	f04f 46a0 	mov.w	r6, #1342177280	; 0x50000000
 800877e:	f042 0204 	orr.w	r2, r2, #4
 8008782:	631a      	str	r2, [r3, #48]	; 0x30
 8008784:	6b1a      	ldr	r2, [r3, #48]	; 0x30
 8008786:	f002 0204 	and.w	r2, r2, #4
 800878a:	9201      	str	r2, [sp, #4]
 800878c:	9a01      	ldr	r2, [sp, #4]
 800878e:	6b1a      	ldr	r2, [r3, #48]	; 0x30
 8008790:	f042 0280 	orr.w	r2, r2, #128	; 0x80
 8008794:	631a      	str	r2, [r3, #48]	; 0x30
 8008796:	6b1a      	ldr	r2, [r3, #48]	; 0x30
 8008798:	f002 0280 	and.w	r2, r2, #128	; 0x80
 800879c:	9202      	str	r2, [sp, #8]
 800879e:	9a02      	ldr	r2, [sp, #8]
 80087a0:	6b1a      	ldr	r2, [r3, #48]	; 0x30
 80087a2:	f042 0201 	orr.w	r2, r2, #1
 80087a6:	631a      	str	r2, [r3, #48]	; 0x30
 80087a8:	6b1a      	ldr	r2, [r3, #48]	; 0x30
 80087aa:	f002 0201 	and.w	r2, r2, #1
 80087ae:	9203      	str	r2, [sp, #12]
 80087b0:	9a03      	ldr	r2, [sp, #12]
 80087b2:	6b1a      	ldr	r2, [r3, #48]	; 0x30
 80087b4:	f042 0202 	orr.w	r2, r2, #2
 80087b8:	631a      	str	r2, [r3, #48]	; 0x30
 80087ba:	6b1a      	ldr	r2, [r3, #48]	; 0x30
 80087bc:	f002 0202 	and.w	r2, r2, #2
 80087c0:	9204      	str	r2, [sp, #16]
 80087c2:	9a04      	ldr	r2, [sp, #16]
 80087c4:	6b1a      	ldr	r2, [r3, #48]	; 0x30
 80087c6:	f042 0208 	orr.w	r2, r2, #8
 80087ca:	631a      	str	r2, [r3, #48]	; 0x30
 80087cc:	6b1a      	ldr	r2, [r3, #48]	; 0x30
 80087ce:	f002 0208 	and.w	r2, r2, #8
 80087d2:	9205      	str	r2, [sp, #20]
 80087d4:	9a05      	ldr	r2, [sp, #20]
 80087d6:	6b1a      	ldr	r2, [r3, #48]	; 0x30
 80087d8:	f042 0240 	orr.w	r2, r2, #64	; 0x40
 80087dc:	631a      	str	r2, [r3, #48]	; 0x30
 80087de:	2200      	movs	r2, #0
 80087e0:	6b1b      	ldr	r3, [r3, #48]	; 0x30
 80087e2:	f003 0340 	and.w	r3, r3, #64	; 0x40
 80087e6:	9306      	str	r3, [sp, #24]
 80087e8:	9b06      	ldr	r3, [sp, #24]
 80087ea:	f001 f80d 	bl	8009808 <HAL_GPIO_WritePin>
 80087ee:	2200      	movs	r2, #0
 80087f0:	2140      	movs	r1, #64	; 0x40
 80087f2:	483f      	ldr	r0, [pc, #252]	; (80088f0 <main+0x1a0>)
 80087f4:	f001 f808 	bl	8009808 <HAL_GPIO_WritePin>
 80087f8:	f44f 5200 	mov.w	r2, #8192	; 0x2000
 80087fc:	4b3d      	ldr	r3, [pc, #244]	; (80088f4 <main+0x1a4>)
 80087fe:	a907      	add	r1, sp, #28
 8008800:	483d      	ldr	r0, [pc, #244]	; (80088f8 <main+0x1a8>)
 8008802:	9409      	str	r4, [sp, #36]	; 0x24
 8008804:	e9cd 2307 	strd	r2, r3, [sp, #28]
 8008808:	f000 ff16 	bl	8009638 <HAL_GPIO_Init>
 800880c:	f244 0381 	movw	r3, #16513	; 0x4081
 8008810:	a907      	add	r1, sp, #28
 8008812:	4836      	ldr	r0, [pc, #216]	; (80088ec <main+0x19c>)
 8008814:	e9cd 3507 	strd	r3, r5, [sp, #28]
 8008818:	e9cd 4409 	strd	r4, r4, [sp, #36]	; 0x24
 800881c:	f000 ff0c 	bl	8009638 <HAL_GPIO_Init>
 8008820:	2340      	movs	r3, #64	; 0x40
 8008822:	a907      	add	r1, sp, #28
 8008824:	4832      	ldr	r0, [pc, #200]	; (80088f0 <main+0x1a0>)
 8008826:	e9cd 3507 	strd	r3, r5, [sp, #28]
 800882a:	e9cd 4409 	strd	r4, r4, [sp, #36]	; 0x24
 800882e:	f000 ff03 	bl	8009638 <HAL_GPIO_Init>
 8008832:	2380      	movs	r3, #128	; 0x80
 8008834:	a907      	add	r1, sp, #28
 8008836:	482e      	ldr	r0, [pc, #184]	; (80088f0 <main+0x1a0>)
 8008838:	9409      	str	r4, [sp, #36]	; 0x24
 800883a:	e9cd 3407 	strd	r3, r4, [sp, #28]
 800883e:	f000 fefb 	bl	8009638 <HAL_GPIO_Init>
 8008842:	482e      	ldr	r0, [pc, #184]	; (80088fc <main+0x1ac>)
 8008844:	492e      	ldr	r1, [pc, #184]	; (8008900 <main+0x1b0>)
 8008846:	f44f 33e1 	mov.w	r3, #115200	; 0x1c200
 800884a:	6104      	str	r4, [r0, #16]
 800884c:	6244      	str	r4, [r0, #36]	; 0x24
 800884e:	e9c0 1300 	strd	r1, r3, [r0]
 8008852:	230c      	movs	r3, #12
 8008854:	e9c0 4402 	strd	r4, r4, [r0, #8]
 8008858:	e9c0 3405 	strd	r3, r4, [r0, #20]
 800885c:	e9c0 4407 	strd	r4, r4, [r0, #28]
 8008860:	f002 f83f 	bl	800a8e2 <HAL_UART_Init>
 8008864:	4827      	ldr	r0, [pc, #156]	; (8008904 <main+0x1b4>)
 8008866:	2306      	movs	r3, #6
 8008868:	e9c0 6300 	strd	r6, r3, [r0]
 800886c:	2302      	movs	r3, #2
 800886e:	4e26      	ldr	r6, [pc, #152]	; (8008908 <main+0x1b8>)
 8008870:	e9c0 3506 	strd	r3, r5, [r0, #24]
 8008874:	e9c0 3403 	strd	r3, r4, [r0, #12]
 8008878:	e9c0 540b 	strd	r5, r4, [r0, #44]	; 0x2c
 800887c:	e9c0 4408 	strd	r4, r4, [r0, #32]
 8008880:	ad07      	add	r5, sp, #28
 8008882:	f000 ffcc 	bl	800981e <HAL_PCD_Init>
 8008886:	ce0f      	ldmia	r6!, {r0, r1, r2, r3}
 8008888:	c50f      	stmia	r5!, {r0, r1, r2, r3}
 800888a:	e896 0007 	ldmia.w	r6, {r0, r1, r2}
 800888e:	e885 0007 	stmia.w	r5, {r0, r1, r2}
 8008892:	4621      	mov	r1, r4
 8008894:	a807      	add	r0, sp, #28
 8008896:	f002 fcb5 	bl	800b204 <osThreadCreate>
 800889a:	4d14      	ldr	r5, [pc, #80]	; (80088ec <main+0x19c>)
 800889c:	4b1b      	ldr	r3, [pc, #108]	; (800890c <main+0x1bc>)
 800889e:	6018      	str	r0, [r3, #0]
 80088a0:	f002 fca4 	bl	800b1ec <osKernelStart>
 80088a4:	240a      	movs	r4, #10
 80088a6:	f244 0181 	movw	r1, #16513	; 0x4081
 80088aa:	4628      	mov	r0, r5
 80088ac:	f000 ffb1 	bl	8009812 <HAL_GPIO_TogglePin>
 80088b0:	f44f 70fa 	mov.w	r0, #500	; 0x1f4
 80088b4:	f000 f9dc 	bl	8008c70 <HAL_Delay>
 80088b8:	3c01      	subs	r4, #1
 80088ba:	d1f4      	bne.n	80088a6 <main+0x156>
 80088bc:	240a      	movs	r4, #10
 80088be:	f244 0181 	movw	r1, #16513	; 0x4081
 80088c2:	4628      	mov	r0, r5
 80088c4:	f000 ffa5 	bl	8009812 <HAL_GPIO_TogglePin>
 80088c8:	2032      	movs	r0, #50	; 0x32
 80088ca:	f000 f9d1 	bl	8008c70 <HAL_Delay>
 80088ce:	3c01      	subs	r4, #1
 80088d0:	d1f5      	bne.n	80088be <main+0x16e>
 80088d2:	2101      	movs	r1, #1
 80088d4:	4620      	mov	r0, r4
 80088d6:	f000 f849 	bl	800896c <SharedParamsWriteByIndex>
 80088da:	f7ff feab 	bl	8008634 <BootActivate>
 80088de:	e7e1      	b.n	80088a4 <main+0x154>
 80088e0:	e000ed00 	.word	0xe000ed00
 80088e4:	08008000 	.word	0x08008000
 80088e8:	40023800 	.word	0x40023800
 80088ec:	40020400 	.word	0x40020400
 80088f0:	40021800 	.word	0x40021800
 80088f4:	10110000 	.word	0x10110000
 80088f8:	40020800 	.word	0x40020800
 80088fc:	20004664 	.word	0x20004664
 8008900:	40004800 	.word	0x40004800
 8008904:	200046e4 	.word	0x200046e4
 8008908:	08014980 	.word	0x08014980
 800890c:	20004660 	.word	0x20004660

08008910 <SharedParamsCalculateChecksum>:
 8008910:	4a0b      	ldr	r2, [pc, #44]	; (8008940 <SharedParamsCalculateChecksum+0x30>)
 8008912:	6813      	ldr	r3, [r2, #0]
 8008914:	b2d9      	uxtb	r1, r3
 8008916:	f3c3 2007 	ubfx	r0, r3, #8, #8
 800891a:	eb01 6113 	add.w	r1, r1, r3, lsr #24
 800891e:	4401      	add	r1, r0
 8008920:	f3c3 4007 	ubfx	r0, r3, #16, #8
 8008924:	2300      	movs	r3, #0
 8008926:	4408      	add	r0, r1
 8008928:	b280      	uxth	r0, r0
 800892a:	18d1      	adds	r1, r2, r3
 800892c:	3301      	adds	r3, #1
 800892e:	7909      	ldrb	r1, [r1, #4]
 8008930:	2b38      	cmp	r3, #56	; 0x38
 8008932:	4408      	add	r0, r1
 8008934:	b280      	uxth	r0, r0
 8008936:	d1f8      	bne.n	800892a <SharedParamsCalculateChecksum+0x1a>
 8008938:	4240      	negs	r0, r0
 800893a:	b280      	uxth	r0, r0
 800893c:	4770      	bx	lr
 800893e:	bf00      	nop
 8008940:	20000000 	.word	0x20000000

08008944 <SharedParamsValidateBuffer>:
 8008944:	b510      	push	{r4, lr}
 8008946:	4c07      	ldr	r4, [pc, #28]	; (8008964 <SharedParamsValidateBuffer+0x20>)
 8008948:	4b07      	ldr	r3, [pc, #28]	; (8008968 <SharedParamsValidateBuffer+0x24>)
 800894a:	6822      	ldr	r2, [r4, #0]
 800894c:	429a      	cmp	r2, r3
 800894e:	d106      	bne.n	800895e <SharedParamsValidateBuffer+0x1a>
 8008950:	f7ff ffde 	bl	8008910 <SharedParamsCalculateChecksum>
 8008954:	8fa3      	ldrh	r3, [r4, #60]	; 0x3c
 8008956:	1a1b      	subs	r3, r3, r0
 8008958:	4258      	negs	r0, r3
 800895a:	4158      	adcs	r0, r3
 800895c:	bd10      	pop	{r4, pc}
 800895e:	2000      	movs	r0, #0
 8008960:	e7fc      	b.n	800895c <SharedParamsValidateBuffer+0x18>
 8008962:	bf00      	nop
 8008964:	20000000 	.word	0x20000000
 8008968:	ce42e7a2 	.word	0xce42e7a2

0800896c <SharedParamsWriteByIndex>:
 800896c:	b5f8      	push	{r3, r4, r5, r6, r7, lr}
 800896e:	4604      	mov	r4, r0
 8008970:	460f      	mov	r7, r1
 8008972:	f7ff ffe7 	bl	8008944 <SharedParamsValidateBuffer>
 8008976:	4605      	mov	r5, r0
 8008978:	b138      	cbz	r0, 800898a <SharedParamsWriteByIndex+0x1e>
 800897a:	2c37      	cmp	r4, #55	; 0x37
 800897c:	d807      	bhi.n	800898e <SharedParamsWriteByIndex+0x22>
 800897e:	4e05      	ldr	r6, [pc, #20]	; (8008994 <SharedParamsWriteByIndex+0x28>)
 8008980:	4434      	add	r4, r6
 8008982:	7127      	strb	r7, [r4, #4]
 8008984:	f7ff ffc4 	bl	8008910 <SharedParamsCalculateChecksum>
 8008988:	87b0      	strh	r0, [r6, #60]	; 0x3c
 800898a:	4628      	mov	r0, r5
 800898c:	bdf8      	pop	{r3, r4, r5, r6, r7, pc}
 800898e:	2500      	movs	r5, #0
 8008990:	e7fb      	b.n	800898a <SharedParamsWriteByIndex+0x1e>
 8008992:	bf00      	nop
 8008994:	20000000 	.word	0x20000000

08008998 <HAL_MspInit>:
 8008998:	4b0d      	ldr	r3, [pc, #52]	; (80089d0 <HAL_MspInit+0x38>)
 800899a:	b082      	sub	sp, #8
 800899c:	210f      	movs	r1, #15
 800899e:	f06f 0001 	mvn.w	r0, #1
 80089a2:	6c1a      	ldr	r2, [r3, #64]	; 0x40
 80089a4:	f042 5280 	orr.w	r2, r2, #268435456	; 0x10000000
 80089a8:	641a      	str	r2, [r3, #64]	; 0x40
 80089aa:	6c1a      	ldr	r2, [r3, #64]	; 0x40
 80089ac:	f002 5280 	and.w	r2, r2, #268435456	; 0x10000000
 80089b0:	9200      	str	r2, [sp, #0]
 80089b2:	9a00      	ldr	r2, [sp, #0]
 80089b4:	6c5a      	ldr	r2, [r3, #68]	; 0x44
 80089b6:	f442 4280 	orr.w	r2, r2, #16384	; 0x4000
 80089ba:	645a      	str	r2, [r3, #68]	; 0x44
 80089bc:	2200      	movs	r2, #0
 80089be:	6c5b      	ldr	r3, [r3, #68]	; 0x44
 80089c0:	f403 4380 	and.w	r3, r3, #16384	; 0x4000
 80089c4:	9301      	str	r3, [sp, #4]
 80089c6:	9b01      	ldr	r3, [sp, #4]
 80089c8:	b002      	add	sp, #8
 80089ca:	f000 b975 	b.w	8008cb8 <HAL_NVIC_SetPriority>
 80089ce:	bf00      	nop
 80089d0:	40023800 	.word	0x40023800

080089d4 <HAL_UART_MspInit>:
 80089d4:	b510      	push	{r4, lr}
 80089d6:	b088      	sub	sp, #32
 80089d8:	4604      	mov	r4, r0
 80089da:	2214      	movs	r2, #20
 80089dc:	2100      	movs	r1, #0
 80089de:	a803      	add	r0, sp, #12
 80089e0:	f00b f87a 	bl	8013ad8 <memset>
 80089e4:	6822      	ldr	r2, [r4, #0]
 80089e6:	4b13      	ldr	r3, [pc, #76]	; (8008a34 <HAL_UART_MspInit+0x60>)
 80089e8:	429a      	cmp	r2, r3
 80089ea:	d120      	bne.n	8008a2e <HAL_UART_MspInit+0x5a>
 80089ec:	f503 33f8 	add.w	r3, r3, #126976	; 0x1f000
 80089f0:	2103      	movs	r1, #3
 80089f2:	4811      	ldr	r0, [pc, #68]	; (8008a38 <HAL_UART_MspInit+0x64>)
 80089f4:	6c1a      	ldr	r2, [r3, #64]	; 0x40
 80089f6:	f442 2280 	orr.w	r2, r2, #262144	; 0x40000
 80089fa:	641a      	str	r2, [r3, #64]	; 0x40
 80089fc:	6c1a      	ldr	r2, [r3, #64]	; 0x40
 80089fe:	f402 2280 	and.w	r2, r2, #262144	; 0x40000
 8008a02:	9201      	str	r2, [sp, #4]
 8008a04:	9a01      	ldr	r2, [sp, #4]
 8008a06:	6b1a      	ldr	r2, [r3, #48]	; 0x30
 8008a08:	f042 0208 	orr.w	r2, r2, #8
 8008a0c:	631a      	str	r2, [r3, #48]	; 0x30
 8008a0e:	f44f 7240 	mov.w	r2, #768	; 0x300
 8008a12:	6b1b      	ldr	r3, [r3, #48]	; 0x30
 8008a14:	f003 0308 	and.w	r3, r3, #8
 8008a18:	9302      	str	r3, [sp, #8]
 8008a1a:	9b02      	ldr	r3, [sp, #8]
 8008a1c:	2302      	movs	r3, #2
 8008a1e:	e9cd 2303 	strd	r2, r3, [sp, #12]
 8008a22:	2307      	movs	r3, #7
 8008a24:	e9cd 1306 	strd	r1, r3, [sp, #24]
 8008a28:	a903      	add	r1, sp, #12
 8008a2a:	f000 fe05 	bl	8009638 <HAL_GPIO_Init>
 8008a2e:	b008      	add	sp, #32
 8008a30:	bd10      	pop	{r4, pc}
 8008a32:	bf00      	nop
 8008a34:	40004800 	.word	0x40004800
 8008a38:	40020c00 	.word	0x40020c00

08008a3c <HAL_PCD_MspInit>:
 8008a3c:	b510      	push	{r4, lr}
 8008a3e:	b088      	sub	sp, #32
 8008a40:	4604      	mov	r4, r0
 8008a42:	2214      	movs	r2, #20
 8008a44:	2100      	movs	r1, #0
 8008a46:	a803      	add	r0, sp, #12
 8008a48:	f00b f846 	bl	8013ad8 <memset>
 8008a4c:	6823      	ldr	r3, [r4, #0]
 8008a4e:	f1b3 4fa0 	cmp.w	r3, #1342177280	; 0x50000000
 8008a52:	d132      	bne.n	8008aba <HAL_PCD_MspInit+0x7e>
 8008a54:	4c1a      	ldr	r4, [pc, #104]	; (8008ac0 <HAL_PCD_MspInit+0x84>)
 8008a56:	f44f 52e8 	mov.w	r2, #7424	; 0x1d00
 8008a5a:	2103      	movs	r1, #3
 8008a5c:	4819      	ldr	r0, [pc, #100]	; (8008ac4 <HAL_PCD_MspInit+0x88>)
 8008a5e:	6b23      	ldr	r3, [r4, #48]	; 0x30
 8008a60:	f043 0301 	orr.w	r3, r3, #1
 8008a64:	6323      	str	r3, [r4, #48]	; 0x30
 8008a66:	6b23      	ldr	r3, [r4, #48]	; 0x30
 8008a68:	f003 0301 	and.w	r3, r3, #1
 8008a6c:	9300      	str	r3, [sp, #0]
 8008a6e:	9b00      	ldr	r3, [sp, #0]
 8008a70:	2302      	movs	r3, #2
 8008a72:	e9cd 2303 	strd	r2, r3, [sp, #12]
 8008a76:	230a      	movs	r3, #10
 8008a78:	e9cd 1306 	strd	r1, r3, [sp, #24]
 8008a7c:	a903      	add	r1, sp, #12
 8008a7e:	f000 fddb 	bl	8009638 <HAL_GPIO_Init>
 8008a82:	2300      	movs	r3, #0
 8008a84:	f44f 7000 	mov.w	r0, #512	; 0x200
 8008a88:	a903      	add	r1, sp, #12
 8008a8a:	9305      	str	r3, [sp, #20]
 8008a8c:	e9cd 0303 	strd	r0, r3, [sp, #12]
 8008a90:	480c      	ldr	r0, [pc, #48]	; (8008ac4 <HAL_PCD_MspInit+0x88>)
 8008a92:	f000 fdd1 	bl	8009638 <HAL_GPIO_Init>
 8008a96:	6b63      	ldr	r3, [r4, #52]	; 0x34
 8008a98:	f043 0380 	orr.w	r3, r3, #128	; 0x80
 8008a9c:	6363      	str	r3, [r4, #52]	; 0x34
 8008a9e:	6b63      	ldr	r3, [r4, #52]	; 0x34
 8008aa0:	f003 0380 	and.w	r3, r3, #128	; 0x80
 8008aa4:	9301      	str	r3, [sp, #4]
 8008aa6:	9b01      	ldr	r3, [sp, #4]
 8008aa8:	6c63      	ldr	r3, [r4, #68]	; 0x44
 8008aaa:	f443 4380 	orr.w	r3, r3, #16384	; 0x4000
 8008aae:	6463      	str	r3, [r4, #68]	; 0x44
 8008ab0:	6c63      	ldr	r3, [r4, #68]	; 0x44
 8008ab2:	f403 4380 	and.w	r3, r3, #16384	; 0x4000
 8008ab6:	9302      	str	r3, [sp, #8]
 8008ab8:	9b02      	ldr	r3, [sp, #8]
 8008aba:	b008      	add	sp, #32
 8008abc:	bd10      	pop	{r4, pc}
 8008abe:	bf00      	nop
 8008ac0:	40023800 	.word	0x40023800
 8008ac4:	40020000 	.word	0x40020000

08008ac8 <NMI_Handler>:
 8008ac8:	4770      	bx	lr

08008aca <HardFault_Handler>:
 8008aca:	e7fe      	b.n	8008aca <HardFault_Handler>

08008acc <MemManage_Handler>:
 8008acc:	e7fe      	b.n	8008acc <MemManage_Handler>

08008ace <BusFault_Handler>:
 8008ace:	e7fe      	b.n	8008ace <BusFault_Handler>

08008ad0 <UsageFault_Handler>:
 8008ad0:	e7fe      	b.n	8008ad0 <UsageFault_Handler>

08008ad2 <DebugMon_Handler>:
 8008ad2:	4770      	bx	lr

08008ad4 <SysTick_Handler>:
 8008ad4:	b508      	push	{r3, lr}
 8008ad6:	f000 f8b9 	bl	8008c4c <HAL_IncTick>
 8008ada:	f003 fe13 	bl	800c704 <xTaskGetSchedulerState>
 8008ade:	2801      	cmp	r0, #1
 8008ae0:	d003      	beq.n	8008aea <SysTick_Handler+0x16>
 8008ae2:	e8bd 4008 	ldmia.w	sp!, {r3, lr}
 8008ae6:	f004 b805 	b.w	800caf4 <xPortSysTickHandler>
 8008aea:	bd08      	pop	{r3, pc}

08008aec <ETH_IRQHandler>:
 8008aec:	4801      	ldr	r0, [pc, #4]	; (8008af4 <ETH_IRQHandler+0x8>)
 8008aee:	f000 baf8 	b.w	80090e2 <HAL_ETH_IRQHandler>
 8008af2:	bf00      	nop
 8008af4:	20006410 	.word	0x20006410

08008af8 <_read>:
 8008af8:	b570      	push	{r4, r5, r6, lr}
 8008afa:	460e      	mov	r6, r1
 8008afc:	4615      	mov	r5, r2
 8008afe:	460c      	mov	r4, r1
 8008b00:	1ba3      	subs	r3, r4, r6
 8008b02:	429d      	cmp	r5, r3
 8008b04:	dc01      	bgt.n	8008b0a <_read+0x12>
 8008b06:	4628      	mov	r0, r5
 8008b08:	bd70      	pop	{r4, r5, r6, pc}
 8008b0a:	f3af 8000 	nop.w
 8008b0e:	f804 0b01 	strb.w	r0, [r4], #1
 8008b12:	e7f5      	b.n	8008b00 <_read+0x8>

08008b14 <_write>:
 8008b14:	b570      	push	{r4, r5, r6, lr}
 8008b16:	460e      	mov	r6, r1
 8008b18:	4615      	mov	r5, r2
 8008b1a:	460c      	mov	r4, r1
 8008b1c:	1ba3      	subs	r3, r4, r6
 8008b1e:	429d      	cmp	r5, r3
 8008b20:	dc01      	bgt.n	8008b26 <_write+0x12>
 8008b22:	4628      	mov	r0, r5
 8008b24:	bd70      	pop	{r4, r5, r6, pc}
 8008b26:	f814 0b01 	ldrb.w	r0, [r4], #1
 8008b2a:	f3af 8000 	nop.w
 8008b2e:	e7f5      	b.n	8008b1c <_write+0x8>

08008b30 <_close>:
 8008b30:	f04f 30ff 	mov.w	r0, #4294967295	; 0xffffffff
 8008b34:	4770      	bx	lr

08008b36 <_fstat>:
 8008b36:	f44f 5300 	mov.w	r3, #8192	; 0x2000
 8008b3a:	2000      	movs	r0, #0
 8008b3c:	604b      	str	r3, [r1, #4]
 8008b3e:	4770      	bx	lr

08008b40 <_isatty>:
 8008b40:	2001      	movs	r0, #1
 8008b42:	4770      	bx	lr

08008b44 <_lseek>:
 8008b44:	2000      	movs	r0, #0
 8008b46:	4770      	bx	lr

08008b48 <_sbrk>:
 8008b48:	4b09      	ldr	r3, [pc, #36]	; (8008b70 <_sbrk+0x28>)
 8008b4a:	4602      	mov	r2, r0
 8008b4c:	6819      	ldr	r1, [r3, #0]
 8008b4e:	b909      	cbnz	r1, 8008b54 <_sbrk+0xc>
 8008b50:	4908      	ldr	r1, [pc, #32]	; (8008b74 <_sbrk+0x2c>)
 8008b52:	6019      	str	r1, [r3, #0]
 8008b54:	6818      	ldr	r0, [r3, #0]
 8008b56:	4669      	mov	r1, sp
 8008b58:	4402      	add	r2, r0
 8008b5a:	428a      	cmp	r2, r1
 8008b5c:	bf83      	ittte	hi
 8008b5e:	4b06      	ldrhi	r3, [pc, #24]	; (8008b78 <_sbrk+0x30>)
 8008b60:	220c      	movhi	r2, #12
 8008b62:	f04f 30ff 	movhi.w	r0, #4294967295	; 0xffffffff
 8008b66:	601a      	strls	r2, [r3, #0]
 8008b68:	bf88      	it	hi
 8008b6a:	601a      	strhi	r2, [r3, #0]
 8008b6c:	4770      	bx	lr
 8008b6e:	bf00      	nop
 8008b70:	2000032c 	.word	0x2000032c
 8008b74:	2000b358 	.word	0x2000b358
 8008b78:	2000b350 	.word	0x2000b350

08008b7c <SystemInit>:
 8008b7c:	4b05      	ldr	r3, [pc, #20]	; (8008b94 <SystemInit+0x18>)
 8008b7e:	f8d3 2088 	ldr.w	r2, [r3, #136]	; 0x88
 8008b82:	f442 0270 	orr.w	r2, r2, #15728640	; 0xf00000
 8008b86:	f8c3 2088 	str.w	r2, [r3, #136]	; 0x88
 8008b8a:	f04f 6200 	mov.w	r2, #134217728	; 0x8000000
 8008b8e:	609a      	str	r2, [r3, #8]
 8008b90:	4770      	bx	lr
 8008b92:	bf00      	nop
 8008b94:	e000ed00 	.word	0xe000ed00

08008b98 <Reset_Handler>:
 8008b98:	f8df d034 	ldr.w	sp, [pc, #52]	; 8008bd0 <LoopFillZerobss+0x14>
 8008b9c:	2100      	movs	r1, #0
 8008b9e:	e003      	b.n	8008ba8 <LoopCopyDataInit>

08008ba0 <CopyDataInit>:
 8008ba0:	4b0c      	ldr	r3, [pc, #48]	; (8008bd4 <LoopFillZerobss+0x18>)
 8008ba2:	585b      	ldr	r3, [r3, r1]
 8008ba4:	5043      	str	r3, [r0, r1]
 8008ba6:	3104      	adds	r1, #4

08008ba8 <LoopCopyDataInit>:
 8008ba8:	480b      	ldr	r0, [pc, #44]	; (8008bd8 <LoopFillZerobss+0x1c>)
 8008baa:	4b0c      	ldr	r3, [pc, #48]	; (8008bdc <LoopFillZerobss+0x20>)
 8008bac:	1842      	adds	r2, r0, r1
 8008bae:	429a      	cmp	r2, r3
 8008bb0:	d3f6      	bcc.n	8008ba0 <CopyDataInit>
 8008bb2:	4a0b      	ldr	r2, [pc, #44]	; (8008be0 <LoopFillZerobss+0x24>)
 8008bb4:	e002      	b.n	8008bbc <LoopFillZerobss>

08008bb6 <FillZerobss>:
 8008bb6:	2300      	movs	r3, #0
 8008bb8:	f842 3b04 	str.w	r3, [r2], #4

08008bbc <LoopFillZerobss>:
 8008bbc:	4b09      	ldr	r3, [pc, #36]	; (8008be4 <LoopFillZerobss+0x28>)
 8008bbe:	429a      	cmp	r2, r3
 8008bc0:	d3f9      	bcc.n	8008bb6 <FillZerobss>
 8008bc2:	f7ff ffdb 	bl	8008b7c <SystemInit>
 8008bc6:	f00a ff49 	bl	8013a5c <__libc_init_array>
 8008bca:	f7ff fdc1 	bl	8008750 <main>
 8008bce:	4770      	bx	lr
 8008bd0:	20080000 	.word	0x20080000
 8008bd4:	0802778c 	.word	0x0802778c
 8008bd8:	20000040 	.word	0x20000040
 8008bdc:	200000bc 	.word	0x200000bc
 8008be0:	200000bc 	.word	0x200000bc
 8008be4:	2000b358 	.word	0x2000b358

08008be8 <ADC_IRQHandler>:
 8008be8:	e7fe      	b.n	8008be8 <ADC_IRQHandler>
	...

08008bec <HAL_InitTick>:
 8008bec:	b538      	push	{r3, r4, r5, lr}
 8008bee:	4b0e      	ldr	r3, [pc, #56]	; (8008c28 <HAL_InitTick+0x3c>)
 8008bf0:	4605      	mov	r5, r0
 8008bf2:	4a0e      	ldr	r2, [pc, #56]	; (8008c2c <HAL_InitTick+0x40>)
 8008bf4:	7818      	ldrb	r0, [r3, #0]
 8008bf6:	f44f 737a 	mov.w	r3, #1000	; 0x3e8
 8008bfa:	fbb3 f3f0 	udiv	r3, r3, r0
 8008bfe:	6810      	ldr	r0, [r2, #0]
 8008c00:	fbb0 f0f3 	udiv	r0, r0, r3
 8008c04:	f000 f898 	bl	8008d38 <HAL_SYSTICK_Config>
 8008c08:	4604      	mov	r4, r0
 8008c0a:	b958      	cbnz	r0, 8008c24 <HAL_InitTick+0x38>
 8008c0c:	2d0f      	cmp	r5, #15
 8008c0e:	d809      	bhi.n	8008c24 <HAL_InitTick+0x38>
 8008c10:	4602      	mov	r2, r0
 8008c12:	4629      	mov	r1, r5
 8008c14:	f04f 30ff 	mov.w	r0, #4294967295	; 0xffffffff
 8008c18:	f000 f84e 	bl	8008cb8 <HAL_NVIC_SetPriority>
 8008c1c:	4b04      	ldr	r3, [pc, #16]	; (8008c30 <HAL_InitTick+0x44>)
 8008c1e:	4620      	mov	r0, r4
 8008c20:	601d      	str	r5, [r3, #0]
 8008c22:	bd38      	pop	{r3, r4, r5, pc}
 8008c24:	2001      	movs	r0, #1
 8008c26:	e7fc      	b.n	8008c22 <HAL_InitTick+0x36>
 8008c28:	20000044 	.word	0x20000044
 8008c2c:	20000040 	.word	0x20000040
 8008c30:	20000048 	.word	0x20000048

08008c34 <HAL_Init>:
 8008c34:	b508      	push	{r3, lr}
 8008c36:	2003      	movs	r0, #3
 8008c38:	f000 f82c 	bl	8008c94 <HAL_NVIC_SetPriorityGrouping>
 8008c3c:	200f      	movs	r0, #15
 8008c3e:	f7ff ffd5 	bl	8008bec <HAL_InitTick>
 8008c42:	f7ff fea9 	bl	8008998 <HAL_MspInit>
 8008c46:	2000      	movs	r0, #0
 8008c48:	bd08      	pop	{r3, pc}
	...

08008c4c <HAL_IncTick>:
 8008c4c:	4a03      	ldr	r2, [pc, #12]	; (8008c5c <HAL_IncTick+0x10>)
 8008c4e:	4b04      	ldr	r3, [pc, #16]	; (8008c60 <HAL_IncTick+0x14>)
 8008c50:	6811      	ldr	r1, [r2, #0]
 8008c52:	781b      	ldrb	r3, [r3, #0]
 8008c54:	440b      	add	r3, r1
 8008c56:	6013      	str	r3, [r2, #0]
 8008c58:	4770      	bx	lr
 8008c5a:	bf00      	nop
 8008c5c:	20004ae8 	.word	0x20004ae8
 8008c60:	20000044 	.word	0x20000044

08008c64 <HAL_GetTick>:
 8008c64:	4b01      	ldr	r3, [pc, #4]	; (8008c6c <HAL_GetTick+0x8>)
 8008c66:	6818      	ldr	r0, [r3, #0]
 8008c68:	4770      	bx	lr
 8008c6a:	bf00      	nop
 8008c6c:	20004ae8 	.word	0x20004ae8

08008c70 <HAL_Delay>:
 8008c70:	b538      	push	{r3, r4, r5, lr}
 8008c72:	4604      	mov	r4, r0
 8008c74:	f7ff fff6 	bl	8008c64 <HAL_GetTick>
 8008c78:	4605      	mov	r5, r0
 8008c7a:	1c63      	adds	r3, r4, #1
 8008c7c:	bf1e      	ittt	ne
 8008c7e:	4b04      	ldrne	r3, [pc, #16]	; (8008c90 <HAL_Delay+0x20>)
 8008c80:	781b      	ldrbne	r3, [r3, #0]
 8008c82:	18e4      	addne	r4, r4, r3
 8008c84:	f7ff ffee 	bl	8008c64 <HAL_GetTick>
 8008c88:	1b40      	subs	r0, r0, r5
 8008c8a:	42a0      	cmp	r0, r4
 8008c8c:	d3fa      	bcc.n	8008c84 <HAL_Delay+0x14>
 8008c8e:	bd38      	pop	{r3, r4, r5, pc}
 8008c90:	20000044 	.word	0x20000044

08008c94 <HAL_NVIC_SetPriorityGrouping>:
 8008c94:	4a07      	ldr	r2, [pc, #28]	; (8008cb4 <HAL_NVIC_SetPriorityGrouping+0x20>)
 8008c96:	0200      	lsls	r0, r0, #8
 8008c98:	68d3      	ldr	r3, [r2, #12]
 8008c9a:	f400 60e0 	and.w	r0, r0, #1792	; 0x700
 8008c9e:	f423 63e0 	bic.w	r3, r3, #1792	; 0x700
 8008ca2:	041b      	lsls	r3, r3, #16
 8008ca4:	0c1b      	lsrs	r3, r3, #16
 8008ca6:	f043 63bf 	orr.w	r3, r3, #100139008	; 0x5f80000
 8008caa:	f443 3300 	orr.w	r3, r3, #131072	; 0x20000
 8008cae:	4303      	orrs	r3, r0
 8008cb0:	60d3      	str	r3, [r2, #12]
 8008cb2:	4770      	bx	lr
 8008cb4:	e000ed00 	.word	0xe000ed00

08008cb8 <HAL_NVIC_SetPriority>:
 8008cb8:	4b16      	ldr	r3, [pc, #88]	; (8008d14 <HAL_NVIC_SetPriority+0x5c>)
 8008cba:	b570      	push	{r4, r5, r6, lr}
 8008cbc:	68dc      	ldr	r4, [r3, #12]
 8008cbe:	f04f 36ff 	mov.w	r6, #4294967295	; 0xffffffff
 8008cc2:	f3c4 2402 	ubfx	r4, r4, #8, #3
 8008cc6:	f1c4 0507 	rsb	r5, r4, #7
 8008cca:	1d23      	adds	r3, r4, #4
 8008ccc:	2d04      	cmp	r5, #4
 8008cce:	bf28      	it	cs
 8008cd0:	2504      	movcs	r5, #4
 8008cd2:	2b06      	cmp	r3, #6
 8008cd4:	fa06 f305 	lsl.w	r3, r6, r5
 8008cd8:	bf8c      	ite	hi
 8008cda:	3c03      	subhi	r4, #3
 8008cdc:	2400      	movls	r4, #0
 8008cde:	2800      	cmp	r0, #0
 8008ce0:	ea21 0303 	bic.w	r3, r1, r3
 8008ce4:	fa03 f304 	lsl.w	r3, r3, r4
 8008ce8:	fa06 f404 	lsl.w	r4, r6, r4
 8008cec:	ea22 0404 	bic.w	r4, r2, r4
 8008cf0:	ea43 0304 	orr.w	r3, r3, r4
 8008cf4:	ea4f 1303 	mov.w	r3, r3, lsl #4
 8008cf8:	b2db      	uxtb	r3, r3
 8008cfa:	db06      	blt.n	8008d0a <HAL_NVIC_SetPriority+0x52>
 8008cfc:	f100 4060 	add.w	r0, r0, #3758096384	; 0xe0000000
 8008d00:	f500 4061 	add.w	r0, r0, #57600	; 0xe100
 8008d04:	f880 3300 	strb.w	r3, [r0, #768]	; 0x300
 8008d08:	bd70      	pop	{r4, r5, r6, pc}
 8008d0a:	f000 000f 	and.w	r0, r0, #15
 8008d0e:	4a02      	ldr	r2, [pc, #8]	; (8008d18 <HAL_NVIC_SetPriority+0x60>)
 8008d10:	5413      	strb	r3, [r2, r0]
 8008d12:	e7f9      	b.n	8008d08 <HAL_NVIC_SetPriority+0x50>
 8008d14:	e000ed00 	.word	0xe000ed00
 8008d18:	e000ed14 	.word	0xe000ed14

08008d1c <HAL_NVIC_EnableIRQ>:
 8008d1c:	2800      	cmp	r0, #0
 8008d1e:	db08      	blt.n	8008d32 <HAL_NVIC_EnableIRQ+0x16>
 8008d20:	0942      	lsrs	r2, r0, #5
 8008d22:	2301      	movs	r3, #1
 8008d24:	f000 001f 	and.w	r0, r0, #31
 8008d28:	fa03 f000 	lsl.w	r0, r3, r0
 8008d2c:	4b01      	ldr	r3, [pc, #4]	; (8008d34 <HAL_NVIC_EnableIRQ+0x18>)
 8008d2e:	f843 0022 	str.w	r0, [r3, r2, lsl #2]
 8008d32:	4770      	bx	lr
 8008d34:	e000e100 	.word	0xe000e100

08008d38 <HAL_SYSTICK_Config>:
 8008d38:	3801      	subs	r0, #1
 8008d3a:	f1b0 7f80 	cmp.w	r0, #16777216	; 0x1000000
 8008d3e:	d20a      	bcs.n	8008d56 <HAL_SYSTICK_Config+0x1e>
 8008d40:	4b06      	ldr	r3, [pc, #24]	; (8008d5c <HAL_SYSTICK_Config+0x24>)
 8008d42:	21f0      	movs	r1, #240	; 0xf0
 8008d44:	4a06      	ldr	r2, [pc, #24]	; (8008d60 <HAL_SYSTICK_Config+0x28>)
 8008d46:	6058      	str	r0, [r3, #4]
 8008d48:	2000      	movs	r0, #0
 8008d4a:	f882 1023 	strb.w	r1, [r2, #35]	; 0x23
 8008d4e:	2207      	movs	r2, #7
 8008d50:	6098      	str	r0, [r3, #8]
 8008d52:	601a      	str	r2, [r3, #0]
 8008d54:	4770      	bx	lr
 8008d56:	2001      	movs	r0, #1
 8008d58:	4770      	bx	lr
 8008d5a:	bf00      	nop
 8008d5c:	e000e010 	.word	0xe000e010
 8008d60:	e000ed00 	.word	0xe000ed00

08008d64 <ETH_FlushTransmitFIFO>:
 8008d64:	2300      	movs	r3, #0
 8008d66:	b537      	push	{r0, r1, r2, r4, r5, lr}
 8008d68:	f241 0418 	movw	r4, #4120	; 0x1018
 8008d6c:	9301      	str	r3, [sp, #4]
 8008d6e:	6803      	ldr	r3, [r0, #0]
 8008d70:	4605      	mov	r5, r0
 8008d72:	2001      	movs	r0, #1
 8008d74:	591a      	ldr	r2, [r3, r4]
 8008d76:	f442 1280 	orr.w	r2, r2, #1048576	; 0x100000
 8008d7a:	511a      	str	r2, [r3, r4]
 8008d7c:	591b      	ldr	r3, [r3, r4]
 8008d7e:	9301      	str	r3, [sp, #4]
 8008d80:	f7ff ff76 	bl	8008c70 <HAL_Delay>
 8008d84:	682b      	ldr	r3, [r5, #0]
 8008d86:	9a01      	ldr	r2, [sp, #4]
 8008d88:	511a      	str	r2, [r3, r4]
 8008d8a:	b003      	add	sp, #12
 8008d8c:	bd30      	pop	{r4, r5, pc}
	...

08008d90 <ETH_MACDMAConfig>:
 8008d90:	b570      	push	{r4, r5, r6, lr}
 8008d92:	4604      	mov	r4, r0
 8008d94:	b129      	cbz	r1, 8008da2 <ETH_MACDMAConfig+0x12>
 8008d96:	f44f 4380 	mov.w	r3, #16384	; 0x4000
 8008d9a:	f44f 6200 	mov.w	r2, #2048	; 0x800
 8008d9e:	e9c0 3202 	strd	r3, r2, [r0, #8]
 8008da2:	69e3      	ldr	r3, [r4, #28]
 8008da4:	6822      	ldr	r2, [r4, #0]
 8008da6:	2b00      	cmp	r3, #0
 8008da8:	6815      	ldr	r5, [r2, #0]
 8008daa:	bf0c      	ite	eq
 8008dac:	f44f 6180 	moveq.w	r1, #1024	; 0x400
 8008db0:	2100      	movne	r1, #0
 8008db2:	e9d4 3002 	ldrd	r3, r0, [r4, #8]
 8008db6:	4303      	orrs	r3, r0
 8008db8:	482d      	ldr	r0, [pc, #180]	; (8008e70 <ETH_MACDMAConfig+0xe0>)
 8008dba:	f443 7300 	orr.w	r3, r3, #512	; 0x200
 8008dbe:	4028      	ands	r0, r5
 8008dc0:	4303      	orrs	r3, r0
 8008dc2:	2001      	movs	r0, #1
 8008dc4:	430b      	orrs	r3, r1
 8008dc6:	6013      	str	r3, [r2, #0]
 8008dc8:	6815      	ldr	r5, [r2, #0]
 8008dca:	f7ff ff51 	bl	8008c70 <HAL_Delay>
 8008dce:	6823      	ldr	r3, [r4, #0]
 8008dd0:	2240      	movs	r2, #64	; 0x40
 8008dd2:	2001      	movs	r0, #1
 8008dd4:	601d      	str	r5, [r3, #0]
 8008dd6:	605a      	str	r2, [r3, #4]
 8008dd8:	685d      	ldr	r5, [r3, #4]
 8008dda:	f7ff ff49 	bl	8008c70 <HAL_Delay>
 8008dde:	6823      	ldr	r3, [r4, #0]
 8008de0:	2001      	movs	r0, #1
 8008de2:	605d      	str	r5, [r3, #4]
 8008de4:	2500      	movs	r5, #0
 8008de6:	609d      	str	r5, [r3, #8]
 8008de8:	60dd      	str	r5, [r3, #12]
 8008dea:	699a      	ldr	r2, [r3, #24]
 8008dec:	f022 02be 	bic.w	r2, r2, #190	; 0xbe
 8008df0:	0412      	lsls	r2, r2, #16
 8008df2:	0c12      	lsrs	r2, r2, #16
 8008df4:	f042 0280 	orr.w	r2, r2, #128	; 0x80
 8008df8:	619a      	str	r2, [r3, #24]
 8008dfa:	699e      	ldr	r6, [r3, #24]
 8008dfc:	f7ff ff38 	bl	8008c70 <HAL_Delay>
 8008e00:	6823      	ldr	r3, [r4, #0]
 8008e02:	2001      	movs	r0, #1
 8008e04:	619e      	str	r6, [r3, #24]
 8008e06:	61dd      	str	r5, [r3, #28]
 8008e08:	69dd      	ldr	r5, [r3, #28]
 8008e0a:	f7ff ff31 	bl	8008c70 <HAL_Delay>
 8008e0e:	6822      	ldr	r2, [r4, #0]
 8008e10:	2001      	movs	r0, #1
 8008e12:	4b18      	ldr	r3, [pc, #96]	; (8008e74 <ETH_MACDMAConfig+0xe4>)
 8008e14:	61d5      	str	r5, [r2, #28]
 8008e16:	f241 0518 	movw	r5, #4120	; 0x1018
 8008e1a:	5951      	ldr	r1, [r2, r5]
 8008e1c:	400b      	ands	r3, r1
 8008e1e:	f043 7308 	orr.w	r3, r3, #35651584	; 0x2200000
 8008e22:	f043 0304 	orr.w	r3, r3, #4
 8008e26:	5153      	str	r3, [r2, r5]
 8008e28:	5956      	ldr	r6, [r2, r5]
 8008e2a:	f7ff ff21 	bl	8008c70 <HAL_Delay>
 8008e2e:	6823      	ldr	r3, [r4, #0]
 8008e30:	2001      	movs	r0, #1
 8008e32:	4a11      	ldr	r2, [pc, #68]	; (8008e78 <ETH_MACDMAConfig+0xe8>)
 8008e34:	515e      	str	r6, [r3, r5]
 8008e36:	f503 5380 	add.w	r3, r3, #4096	; 0x1000
 8008e3a:	601a      	str	r2, [r3, #0]
 8008e3c:	681d      	ldr	r5, [r3, #0]
 8008e3e:	f7ff ff17 	bl	8008c70 <HAL_Delay>
 8008e42:	6822      	ldr	r2, [r4, #0]
 8008e44:	f502 5380 	add.w	r3, r2, #4096	; 0x1000
 8008e48:	601d      	str	r5, [r3, #0]
 8008e4a:	69a3      	ldr	r3, [r4, #24]
 8008e4c:	2b01      	cmp	r3, #1
 8008e4e:	d107      	bne.n	8008e60 <ETH_MACDMAConfig+0xd0>
 8008e50:	f241 011c 	movw	r1, #4124	; 0x101c
 8008e54:	5853      	ldr	r3, [r2, r1]
 8008e56:	f443 3380 	orr.w	r3, r3, #65536	; 0x10000
 8008e5a:	f043 0340 	orr.w	r3, r3, #64	; 0x40
 8008e5e:	5053      	str	r3, [r2, r1]
 8008e60:	6963      	ldr	r3, [r4, #20]
 8008e62:	4a06      	ldr	r2, [pc, #24]	; (8008e7c <ETH_MACDMAConfig+0xec>)
 8008e64:	8899      	ldrh	r1, [r3, #4]
 8008e66:	6011      	str	r1, [r2, #0]
 8008e68:	681a      	ldr	r2, [r3, #0]
 8008e6a:	4b05      	ldr	r3, [pc, #20]	; (8008e80 <ETH_MACDMAConfig+0xf0>)
 8008e6c:	601a      	str	r2, [r3, #0]
 8008e6e:	bd70      	pop	{r4, r5, r6, pc}
 8008e70:	ff20810f 	.word	0xff20810f
 8008e74:	f8de3f23 	.word	0xf8de3f23
 8008e78:	02c12080 	.word	0x02c12080
 8008e7c:	40028040 	.word	0x40028040
 8008e80:	40028044 	.word	0x40028044

08008e84 <HAL_ETH_DMATxDescListInit>:
 8008e84:	e92d 41f0 	stmdb	sp!, {r4, r5, r6, r7, r8, lr}
 8008e88:	f890 4045 	ldrb.w	r4, [r0, #69]	; 0x45
 8008e8c:	2c01      	cmp	r4, #1
 8008e8e:	f04f 0402 	mov.w	r4, #2
 8008e92:	d031      	beq.n	8008ef8 <HAL_ETH_DMATxDescListInit+0x74>
 8008e94:	2501      	movs	r5, #1
 8008e96:	f880 4044 	strb.w	r4, [r0, #68]	; 0x44
 8008e9a:	f44f 1780 	mov.w	r7, #1048576	; 0x100000
 8008e9e:	460c      	mov	r4, r1
 8008ea0:	f880 5045 	strb.w	r5, [r0, #69]	; 0x45
 8008ea4:	f240 5cf4 	movw	ip, #1524	; 0x5f4
 8008ea8:	2500      	movs	r5, #0
 8008eaa:	f103 3eff 	add.w	lr, r3, #4294967295	; 0xffffffff
 8008eae:	62c1      	str	r1, [r0, #44]	; 0x2c
 8008eb0:	429d      	cmp	r5, r3
 8008eb2:	d10c      	bne.n	8008ece <HAL_ETH_DMATxDescListInit+0x4a>
 8008eb4:	6802      	ldr	r2, [r0, #0]
 8008eb6:	f241 0310 	movw	r3, #4112	; 0x1010
 8008eba:	50d1      	str	r1, [r2, r3]
 8008ebc:	2301      	movs	r3, #1
 8008ebe:	f880 3044 	strb.w	r3, [r0, #68]	; 0x44
 8008ec2:	2300      	movs	r3, #0
 8008ec4:	f880 3045 	strb.w	r3, [r0, #69]	; 0x45
 8008ec8:	4618      	mov	r0, r3
 8008eca:	e8bd 81f0 	ldmia.w	sp!, {r4, r5, r6, r7, r8, pc}
 8008ece:	fb0c 2605 	mla	r6, ip, r5, r2
 8008ed2:	6027      	str	r7, [r4, #0]
 8008ed4:	60a6      	str	r6, [r4, #8]
 8008ed6:	69c6      	ldr	r6, [r0, #28]
 8008ed8:	b91e      	cbnz	r6, 8008ee2 <HAL_ETH_DMATxDescListInit+0x5e>
 8008eda:	6826      	ldr	r6, [r4, #0]
 8008edc:	f446 0640 	orr.w	r6, r6, #12582912	; 0xc00000
 8008ee0:	6026      	str	r6, [r4, #0]
 8008ee2:	f104 0620 	add.w	r6, r4, #32
 8008ee6:	45ae      	cmp	lr, r5
 8008ee8:	bf94      	ite	ls
 8008eea:	4688      	movls	r8, r1
 8008eec:	46b0      	movhi	r8, r6
 8008eee:	3501      	adds	r5, #1
 8008ef0:	f8c4 800c 	str.w	r8, [r4, #12]
 8008ef4:	4634      	mov	r4, r6
 8008ef6:	e7db      	b.n	8008eb0 <HAL_ETH_DMATxDescListInit+0x2c>
 8008ef8:	4620      	mov	r0, r4
 8008efa:	e7e6      	b.n	8008eca <HAL_ETH_DMATxDescListInit+0x46>

08008efc <HAL_ETH_DMARxDescListInit>:
 8008efc:	e92d 43f0 	stmdb	sp!, {r4, r5, r6, r7, r8, r9, lr}
 8008f00:	f890 4045 	ldrb.w	r4, [r0, #69]	; 0x45
 8008f04:	2c01      	cmp	r4, #1
 8008f06:	f04f 0402 	mov.w	r4, #2
 8008f0a:	d02f      	beq.n	8008f6c <HAL_ETH_DMARxDescListInit+0x70>
 8008f0c:	2501      	movs	r5, #1
 8008f0e:	f880 4044 	strb.w	r4, [r0, #68]	; 0x44
 8008f12:	f04f 4700 	mov.w	r7, #2147483648	; 0x80000000
 8008f16:	460c      	mov	r4, r1
 8008f18:	f880 5045 	strb.w	r5, [r0, #69]	; 0x45
 8008f1c:	f244 5cf4 	movw	ip, #17908	; 0x45f4
 8008f20:	2500      	movs	r5, #0
 8008f22:	f240 5ef4 	movw	lr, #1524	; 0x5f4
 8008f26:	f103 38ff 	add.w	r8, r3, #4294967295	; 0xffffffff
 8008f2a:	6281      	str	r1, [r0, #40]	; 0x28
 8008f2c:	42ab      	cmp	r3, r5
 8008f2e:	d10c      	bne.n	8008f4a <HAL_ETH_DMARxDescListInit+0x4e>
 8008f30:	6802      	ldr	r2, [r0, #0]
 8008f32:	f241 030c 	movw	r3, #4108	; 0x100c
 8008f36:	50d1      	str	r1, [r2, r3]
 8008f38:	2301      	movs	r3, #1
 8008f3a:	f880 3044 	strb.w	r3, [r0, #68]	; 0x44
 8008f3e:	2300      	movs	r3, #0
 8008f40:	f880 3045 	strb.w	r3, [r0, #69]	; 0x45
 8008f44:	4618      	mov	r0, r3
 8008f46:	e8bd 83f0 	ldmia.w	sp!, {r4, r5, r6, r7, r8, r9, pc}
 8008f4a:	fb0e 2605 	mla	r6, lr, r5, r2
 8008f4e:	6027      	str	r7, [r4, #0]
 8008f50:	60a6      	str	r6, [r4, #8]
 8008f52:	f104 0620 	add.w	r6, r4, #32
 8008f56:	f8c4 c004 	str.w	ip, [r4, #4]
 8008f5a:	45a8      	cmp	r8, r5
 8008f5c:	bf94      	ite	ls
 8008f5e:	4689      	movls	r9, r1
 8008f60:	46b1      	movhi	r9, r6
 8008f62:	3501      	adds	r5, #1
 8008f64:	f8c4 900c 	str.w	r9, [r4, #12]
 8008f68:	4634      	mov	r4, r6
 8008f6a:	e7df      	b.n	8008f2c <HAL_ETH_DMARxDescListInit+0x30>
 8008f6c:	4620      	mov	r0, r4
 8008f6e:	e7ea      	b.n	8008f46 <HAL_ETH_DMARxDescListInit+0x4a>

08008f70 <HAL_ETH_TransmitFrame>:
 8008f70:	f890 3045 	ldrb.w	r3, [r0, #69]	; 0x45
 8008f74:	2b01      	cmp	r3, #1
 8008f76:	f04f 0302 	mov.w	r3, #2
 8008f7a:	b5f0      	push	{r4, r5, r6, r7, lr}
 8008f7c:	d066      	beq.n	800904c <HAL_ETH_TransmitFrame+0xdc>
 8008f7e:	2201      	movs	r2, #1
 8008f80:	f880 3044 	strb.w	r3, [r0, #68]	; 0x44
 8008f84:	f880 2045 	strb.w	r2, [r0, #69]	; 0x45
 8008f88:	b929      	cbnz	r1, 8008f96 <HAL_ETH_TransmitFrame+0x26>
 8008f8a:	f880 2044 	strb.w	r2, [r0, #68]	; 0x44
 8008f8e:	f880 1045 	strb.w	r1, [r0, #69]	; 0x45
 8008f92:	4610      	mov	r0, r2
 8008f94:	bdf0      	pop	{r4, r5, r6, r7, pc}
 8008f96:	6ac3      	ldr	r3, [r0, #44]	; 0x2c
 8008f98:	681c      	ldr	r4, [r3, #0]
 8008f9a:	2c00      	cmp	r4, #0
 8008f9c:	da06      	bge.n	8008fac <HAL_ETH_TransmitFrame+0x3c>
 8008f9e:	2312      	movs	r3, #18
 8008fa0:	f880 3044 	strb.w	r3, [r0, #68]	; 0x44
 8008fa4:	2300      	movs	r3, #0
 8008fa6:	f880 3045 	strb.w	r3, [r0, #69]	; 0x45
 8008faa:	e7f2      	b.n	8008f92 <HAL_ETH_TransmitFrame+0x22>
 8008fac:	f240 54f4 	movw	r4, #1524	; 0x5f4
 8008fb0:	42a1      	cmp	r1, r4
 8008fb2:	d92c      	bls.n	800900e <HAL_ETH_TransmitFrame+0x9e>
 8008fb4:	fbb1 f2f4 	udiv	r2, r1, r4
 8008fb8:	fb04 1412 	mls	r4, r4, r2, r1
 8008fbc:	b32c      	cbz	r4, 800900a <HAL_ETH_TransmitFrame+0x9a>
 8008fbe:	3201      	adds	r2, #1
 8008fc0:	4c23      	ldr	r4, [pc, #140]	; (8009050 <HAL_ETH_TransmitFrame+0xe0>)
 8008fc2:	f201 51f4 	addw	r1, r1, #1524	; 0x5f4
 8008fc6:	f240 57f4 	movw	r7, #1524	; 0x5f4
 8008fca:	1e56      	subs	r6, r2, #1
 8008fcc:	fb04 1102 	mla	r1, r4, r2, r1
 8008fd0:	2400      	movs	r4, #0
 8008fd2:	f3c1 010c 	ubfx	r1, r1, #0, #13
 8008fd6:	681d      	ldr	r5, [r3, #0]
 8008fd8:	f025 5540 	bic.w	r5, r5, #805306368	; 0x30000000
 8008fdc:	601d      	str	r5, [r3, #0]
 8008fde:	b91c      	cbnz	r4, 8008fe8 <HAL_ETH_TransmitFrame+0x78>
 8008fe0:	681d      	ldr	r5, [r3, #0]
 8008fe2:	f045 5580 	orr.w	r5, r5, #268435456	; 0x10000000
 8008fe6:	601d      	str	r5, [r3, #0]
 8008fe8:	42a6      	cmp	r6, r4
 8008fea:	605f      	str	r7, [r3, #4]
 8008fec:	d104      	bne.n	8008ff8 <HAL_ETH_TransmitFrame+0x88>
 8008fee:	681d      	ldr	r5, [r3, #0]
 8008ff0:	6059      	str	r1, [r3, #4]
 8008ff2:	f045 5500 	orr.w	r5, r5, #536870912	; 0x20000000
 8008ff6:	601d      	str	r5, [r3, #0]
 8008ff8:	681d      	ldr	r5, [r3, #0]
 8008ffa:	3401      	adds	r4, #1
 8008ffc:	f045 4500 	orr.w	r5, r5, #2147483648	; 0x80000000
 8009000:	4294      	cmp	r4, r2
 8009002:	601d      	str	r5, [r3, #0]
 8009004:	68db      	ldr	r3, [r3, #12]
 8009006:	d1e6      	bne.n	8008fd6 <HAL_ETH_TransmitFrame+0x66>
 8009008:	e00d      	b.n	8009026 <HAL_ETH_TransmitFrame+0xb6>
 800900a:	2a01      	cmp	r2, #1
 800900c:	d1d8      	bne.n	8008fc0 <HAL_ETH_TransmitFrame+0x50>
 800900e:	681a      	ldr	r2, [r3, #0]
 8009010:	f3c1 010c 	ubfx	r1, r1, #0, #13
 8009014:	f042 5240 	orr.w	r2, r2, #805306368	; 0x30000000
 8009018:	6059      	str	r1, [r3, #4]
 800901a:	601a      	str	r2, [r3, #0]
 800901c:	681a      	ldr	r2, [r3, #0]
 800901e:	f042 4200 	orr.w	r2, r2, #2147483648	; 0x80000000
 8009022:	601a      	str	r2, [r3, #0]
 8009024:	68db      	ldr	r3, [r3, #12]
 8009026:	62c3      	str	r3, [r0, #44]	; 0x2c
 8009028:	f241 0214 	movw	r2, #4116	; 0x1014
 800902c:	6803      	ldr	r3, [r0, #0]
 800902e:	5899      	ldr	r1, [r3, r2]
 8009030:	0749      	lsls	r1, r1, #29
 8009032:	d505      	bpl.n	8009040 <HAL_ETH_TransmitFrame+0xd0>
 8009034:	2104      	movs	r1, #4
 8009036:	5099      	str	r1, [r3, r2]
 8009038:	f241 0204 	movw	r2, #4100	; 0x1004
 800903c:	2100      	movs	r1, #0
 800903e:	5099      	str	r1, [r3, r2]
 8009040:	2301      	movs	r3, #1
 8009042:	f880 3044 	strb.w	r3, [r0, #68]	; 0x44
 8009046:	2300      	movs	r3, #0
 8009048:	f880 3045 	strb.w	r3, [r0, #69]	; 0x45
 800904c:	4618      	mov	r0, r3
 800904e:	e7a1      	b.n	8008f94 <HAL_ETH_TransmitFrame+0x24>
 8009050:	fffffa0c 	.word	0xfffffa0c

08009054 <HAL_ETH_GetReceivedFrame_IT>:
 8009054:	f890 3045 	ldrb.w	r3, [r0, #69]	; 0x45
 8009058:	2b01      	cmp	r3, #1
 800905a:	f04f 0302 	mov.w	r3, #2
 800905e:	b570      	push	{r4, r5, r6, lr}
 8009060:	d03b      	beq.n	80090da <HAL_ETH_GetReceivedFrame_IT+0x86>
 8009062:	2201      	movs	r2, #1
 8009064:	2405      	movs	r4, #5
 8009066:	f880 3044 	strb.w	r3, [r0, #68]	; 0x44
 800906a:	4611      	mov	r1, r2
 800906c:	f880 2045 	strb.w	r2, [r0, #69]	; 0x45
 8009070:	6a83      	ldr	r3, [r0, #40]	; 0x28
 8009072:	681a      	ldr	r2, [r3, #0]
 8009074:	2a00      	cmp	r2, #0
 8009076:	db01      	blt.n	800907c <HAL_ETH_GetReceivedFrame_IT+0x28>
 8009078:	3c01      	subs	r4, #1
 800907a:	d106      	bne.n	800908a <HAL_ETH_GetReceivedFrame_IT+0x36>
 800907c:	2301      	movs	r3, #1
 800907e:	2200      	movs	r2, #0
 8009080:	f880 3044 	strb.w	r3, [r0, #68]	; 0x44
 8009084:	f880 2045 	strb.w	r2, [r0, #69]	; 0x45
 8009088:	e027      	b.n	80090da <HAL_ETH_GetReceivedFrame_IT+0x86>
 800908a:	681a      	ldr	r2, [r3, #0]
 800908c:	68dd      	ldr	r5, [r3, #12]
 800908e:	f402 7240 	and.w	r2, r2, #768	; 0x300
 8009092:	f5b2 7f00 	cmp.w	r2, #512	; 0x200
 8009096:	d103      	bne.n	80090a0 <HAL_ETH_GetReceivedFrame_IT+0x4c>
 8009098:	6303      	str	r3, [r0, #48]	; 0x30
 800909a:	6381      	str	r1, [r0, #56]	; 0x38
 800909c:	6285      	str	r5, [r0, #40]	; 0x28
 800909e:	e7e7      	b.n	8009070 <HAL_ETH_GetReceivedFrame_IT+0x1c>
 80090a0:	681e      	ldr	r6, [r3, #0]
 80090a2:	6b82      	ldr	r2, [r0, #56]	; 0x38
 80090a4:	f416 7f40 	tst.w	r6, #768	; 0x300
 80090a8:	f102 0201 	add.w	r2, r2, #1
 80090ac:	d101      	bne.n	80090b2 <HAL_ETH_GetReceivedFrame_IT+0x5e>
 80090ae:	6382      	str	r2, [r0, #56]	; 0x38
 80090b0:	e7f4      	b.n	800909c <HAL_ETH_GetReceivedFrame_IT+0x48>
 80090b2:	2a01      	cmp	r2, #1
 80090b4:	e9c0 320d 	strd	r3, r2, [r0, #52]	; 0x34
 80090b8:	bf08      	it	eq
 80090ba:	6303      	streq	r3, [r0, #48]	; 0x30
 80090bc:	681b      	ldr	r3, [r3, #0]
 80090be:	f3c3 430d 	ubfx	r3, r3, #16, #14
 80090c2:	3b04      	subs	r3, #4
 80090c4:	63c3      	str	r3, [r0, #60]	; 0x3c
 80090c6:	6b03      	ldr	r3, [r0, #48]	; 0x30
 80090c8:	689b      	ldr	r3, [r3, #8]
 80090ca:	6285      	str	r5, [r0, #40]	; 0x28
 80090cc:	6403      	str	r3, [r0, #64]	; 0x40
 80090ce:	2301      	movs	r3, #1
 80090d0:	f880 3044 	strb.w	r3, [r0, #68]	; 0x44
 80090d4:	2300      	movs	r3, #0
 80090d6:	f880 3045 	strb.w	r3, [r0, #69]	; 0x45
 80090da:	4618      	mov	r0, r3
 80090dc:	bd70      	pop	{r4, r5, r6, pc}

080090de <HAL_ETH_TxCpltCallback>:
 80090de:	4770      	bx	lr

080090e0 <HAL_ETH_ErrorCallback>:
 80090e0:	4770      	bx	lr

080090e2 <HAL_ETH_IRQHandler>:
 80090e2:	b570      	push	{r4, r5, r6, lr}
 80090e4:	6802      	ldr	r2, [r0, #0]
 80090e6:	f241 0614 	movw	r6, #4116	; 0x1014
 80090ea:	4604      	mov	r4, r0
 80090ec:	5995      	ldr	r5, [r2, r6]
 80090ee:	f015 0540 	ands.w	r5, r5, #64	; 0x40
 80090f2:	d021      	beq.n	8009138 <HAL_ETH_IRQHandler+0x56>
 80090f4:	f001 ff52 	bl	800af9c <HAL_ETH_RxCpltCallback>
 80090f8:	6823      	ldr	r3, [r4, #0]
 80090fa:	2240      	movs	r2, #64	; 0x40
 80090fc:	519a      	str	r2, [r3, r6]
 80090fe:	2301      	movs	r3, #1
 8009100:	f884 3044 	strb.w	r3, [r4, #68]	; 0x44
 8009104:	2300      	movs	r3, #0
 8009106:	f884 3045 	strb.w	r3, [r4, #69]	; 0x45
 800910a:	6823      	ldr	r3, [r4, #0]
 800910c:	f241 0514 	movw	r5, #4116	; 0x1014
 8009110:	f44f 3280 	mov.w	r2, #65536	; 0x10000
 8009114:	515a      	str	r2, [r3, r5]
 8009116:	595b      	ldr	r3, [r3, r5]
 8009118:	041b      	lsls	r3, r3, #16
 800911a:	d50c      	bpl.n	8009136 <HAL_ETH_IRQHandler+0x54>
 800911c:	4620      	mov	r0, r4
 800911e:	f7ff ffdf 	bl	80090e0 <HAL_ETH_ErrorCallback>
 8009122:	6823      	ldr	r3, [r4, #0]
 8009124:	f44f 4200 	mov.w	r2, #32768	; 0x8000
 8009128:	515a      	str	r2, [r3, r5]
 800912a:	2301      	movs	r3, #1
 800912c:	f884 3044 	strb.w	r3, [r4, #68]	; 0x44
 8009130:	2300      	movs	r3, #0
 8009132:	f884 3045 	strb.w	r3, [r4, #69]	; 0x45
 8009136:	bd70      	pop	{r4, r5, r6, pc}
 8009138:	5993      	ldr	r3, [r2, r6]
 800913a:	07da      	lsls	r2, r3, #31
 800913c:	d5e5      	bpl.n	800910a <HAL_ETH_IRQHandler+0x28>
 800913e:	f7ff ffce 	bl	80090de <HAL_ETH_TxCpltCallback>
 8009142:	2301      	movs	r3, #1
 8009144:	6822      	ldr	r2, [r4, #0]
 8009146:	5193      	str	r3, [r2, r6]
 8009148:	f884 3044 	strb.w	r3, [r4, #68]	; 0x44
 800914c:	f884 5045 	strb.w	r5, [r4, #69]	; 0x45
 8009150:	e7db      	b.n	800910a <HAL_ETH_IRQHandler+0x28>

08009152 <HAL_ETH_ReadPHYRegister>:
 8009152:	b5f8      	push	{r3, r4, r5, r6, r7, lr}
 8009154:	f890 3044 	ldrb.w	r3, [r0, #68]	; 0x44
 8009158:	4605      	mov	r5, r0
 800915a:	4616      	mov	r6, r2
 800915c:	2b82      	cmp	r3, #130	; 0x82
 800915e:	d030      	beq.n	80091c2 <HAL_ETH_ReadPHYRegister+0x70>
 8009160:	2382      	movs	r3, #130	; 0x82
 8009162:	018c      	lsls	r4, r1, #6
 8009164:	f880 3044 	strb.w	r3, [r0, #68]	; 0x44
 8009168:	f404 64f8 	and.w	r4, r4, #1984	; 0x7c0
 800916c:	6803      	ldr	r3, [r0, #0]
 800916e:	f044 0401 	orr.w	r4, r4, #1
 8009172:	6918      	ldr	r0, [r3, #16]
 8009174:	f000 001c 	and.w	r0, r0, #28
 8009178:	4320      	orrs	r0, r4
 800917a:	8a2c      	ldrh	r4, [r5, #16]
 800917c:	02e4      	lsls	r4, r4, #11
 800917e:	b2a4      	uxth	r4, r4
 8009180:	4304      	orrs	r4, r0
 8009182:	611c      	str	r4, [r3, #16]
 8009184:	f7ff fd6e 	bl	8008c64 <HAL_GetTick>
 8009188:	4607      	mov	r7, r0
 800918a:	f014 0001 	ands.w	r0, r4, #1
 800918e:	d107      	bne.n	80091a0 <HAL_ETH_ReadPHYRegister+0x4e>
 8009190:	682b      	ldr	r3, [r5, #0]
 8009192:	695b      	ldr	r3, [r3, #20]
 8009194:	b29b      	uxth	r3, r3
 8009196:	6033      	str	r3, [r6, #0]
 8009198:	2301      	movs	r3, #1
 800919a:	f885 3044 	strb.w	r3, [r5, #68]	; 0x44
 800919e:	e00c      	b.n	80091ba <HAL_ETH_ReadPHYRegister+0x68>
 80091a0:	f7ff fd60 	bl	8008c64 <HAL_GetTick>
 80091a4:	1bc0      	subs	r0, r0, r7
 80091a6:	f5b0 3f80 	cmp.w	r0, #65536	; 0x10000
 80091aa:	d307      	bcc.n	80091bc <HAL_ETH_ReadPHYRegister+0x6a>
 80091ac:	2301      	movs	r3, #1
 80091ae:	2003      	movs	r0, #3
 80091b0:	f885 3044 	strb.w	r3, [r5, #68]	; 0x44
 80091b4:	2300      	movs	r3, #0
 80091b6:	f885 3045 	strb.w	r3, [r5, #69]	; 0x45
 80091ba:	bdf8      	pop	{r3, r4, r5, r6, r7, pc}
 80091bc:	682b      	ldr	r3, [r5, #0]
 80091be:	691c      	ldr	r4, [r3, #16]
 80091c0:	e7e3      	b.n	800918a <HAL_ETH_ReadPHYRegister+0x38>
 80091c2:	2002      	movs	r0, #2
 80091c4:	e7f9      	b.n	80091ba <HAL_ETH_ReadPHYRegister+0x68>

080091c6 <HAL_ETH_WritePHYRegister>:
 80091c6:	f890 3044 	ldrb.w	r3, [r0, #68]	; 0x44
 80091ca:	2b42      	cmp	r3, #66	; 0x42
 80091cc:	b570      	push	{r4, r5, r6, lr}
 80091ce:	4605      	mov	r5, r0
 80091d0:	d02e      	beq.n	8009230 <HAL_ETH_WritePHYRegister+0x6a>
 80091d2:	2342      	movs	r3, #66	; 0x42
 80091d4:	018c      	lsls	r4, r1, #6
 80091d6:	b292      	uxth	r2, r2
 80091d8:	f880 3044 	strb.w	r3, [r0, #68]	; 0x44
 80091dc:	f404 64f8 	and.w	r4, r4, #1984	; 0x7c0
 80091e0:	6803      	ldr	r3, [r0, #0]
 80091e2:	f044 0403 	orr.w	r4, r4, #3
 80091e6:	6918      	ldr	r0, [r3, #16]
 80091e8:	f000 001c 	and.w	r0, r0, #28
 80091ec:	4320      	orrs	r0, r4
 80091ee:	8a2c      	ldrh	r4, [r5, #16]
 80091f0:	615a      	str	r2, [r3, #20]
 80091f2:	02e4      	lsls	r4, r4, #11
 80091f4:	b2a4      	uxth	r4, r4
 80091f6:	4304      	orrs	r4, r0
 80091f8:	611c      	str	r4, [r3, #16]
 80091fa:	f7ff fd33 	bl	8008c64 <HAL_GetTick>
 80091fe:	4606      	mov	r6, r0
 8009200:	f014 0001 	ands.w	r0, r4, #1
 8009204:	d103      	bne.n	800920e <HAL_ETH_WritePHYRegister+0x48>
 8009206:	2301      	movs	r3, #1
 8009208:	f885 3044 	strb.w	r3, [r5, #68]	; 0x44
 800920c:	e00c      	b.n	8009228 <HAL_ETH_WritePHYRegister+0x62>
 800920e:	f7ff fd29 	bl	8008c64 <HAL_GetTick>
 8009212:	1b80      	subs	r0, r0, r6
 8009214:	f5b0 3f80 	cmp.w	r0, #65536	; 0x10000
 8009218:	d307      	bcc.n	800922a <HAL_ETH_WritePHYRegister+0x64>
 800921a:	2301      	movs	r3, #1
 800921c:	2003      	movs	r0, #3
 800921e:	f885 3044 	strb.w	r3, [r5, #68]	; 0x44
 8009222:	2300      	movs	r3, #0
 8009224:	f885 3045 	strb.w	r3, [r5, #69]	; 0x45
 8009228:	bd70      	pop	{r4, r5, r6, pc}
 800922a:	682b      	ldr	r3, [r5, #0]
 800922c:	691c      	ldr	r4, [r3, #16]
 800922e:	e7e7      	b.n	8009200 <HAL_ETH_WritePHYRegister+0x3a>
 8009230:	2002      	movs	r0, #2
 8009232:	e7f9      	b.n	8009228 <HAL_ETH_WritePHYRegister+0x62>

08009234 <HAL_ETH_Init>:
 8009234:	2300      	movs	r3, #0
 8009236:	b5f7      	push	{r0, r1, r2, r4, r5, r6, r7, lr}
 8009238:	4604      	mov	r4, r0
 800923a:	9300      	str	r3, [sp, #0]
 800923c:	2800      	cmp	r0, #0
 800923e:	f000 80dc 	beq.w	80093fa <HAL_ETH_Init+0x1c6>
 8009242:	f890 3044 	ldrb.w	r3, [r0, #68]	; 0x44
 8009246:	f003 02ff 	and.w	r2, r3, #255	; 0xff
 800924a:	b91b      	cbnz	r3, 8009254 <HAL_ETH_Init+0x20>
 800924c:	f880 2045 	strb.w	r2, [r0, #69]	; 0x45
 8009250:	f001 fe16 	bl	800ae80 <HAL_ETH_MspInit>
 8009254:	4b6a      	ldr	r3, [pc, #424]	; (8009400 <HAL_ETH_Init+0x1cc>)
 8009256:	6c5a      	ldr	r2, [r3, #68]	; 0x44
 8009258:	f442 4280 	orr.w	r2, r2, #16384	; 0x4000
 800925c:	645a      	str	r2, [r3, #68]	; 0x44
 800925e:	6c5b      	ldr	r3, [r3, #68]	; 0x44
 8009260:	f403 4380 	and.w	r3, r3, #16384	; 0x4000
 8009264:	9301      	str	r3, [sp, #4]
 8009266:	9b01      	ldr	r3, [sp, #4]
 8009268:	4b66      	ldr	r3, [pc, #408]	; (8009404 <HAL_ETH_Init+0x1d0>)
 800926a:	685a      	ldr	r2, [r3, #4]
 800926c:	f422 0200 	bic.w	r2, r2, #8388608	; 0x800000
 8009270:	605a      	str	r2, [r3, #4]
 8009272:	685a      	ldr	r2, [r3, #4]
 8009274:	6a21      	ldr	r1, [r4, #32]
 8009276:	430a      	orrs	r2, r1
 8009278:	605a      	str	r2, [r3, #4]
 800927a:	6823      	ldr	r3, [r4, #0]
 800927c:	f503 5380 	add.w	r3, r3, #4096	; 0x1000
 8009280:	681a      	ldr	r2, [r3, #0]
 8009282:	f042 0201 	orr.w	r2, r2, #1
 8009286:	601a      	str	r2, [r3, #0]
 8009288:	f7ff fcec 	bl	8008c64 <HAL_GetTick>
 800928c:	4605      	mov	r5, r0
 800928e:	6823      	ldr	r3, [r4, #0]
 8009290:	f503 5280 	add.w	r2, r3, #4096	; 0x1000
 8009294:	6812      	ldr	r2, [r2, #0]
 8009296:	07d0      	lsls	r0, r2, #31
 8009298:	d41d      	bmi.n	80092d6 <HAL_ETH_Init+0xa2>
 800929a:	691d      	ldr	r5, [r3, #16]
 800929c:	f000 fe2e 	bl	8009efc <HAL_RCC_GetHCLKFreq>
 80092a0:	4b59      	ldr	r3, [pc, #356]	; (8009408 <HAL_ETH_Init+0x1d4>)
 80092a2:	4a5a      	ldr	r2, [pc, #360]	; (800940c <HAL_ETH_Init+0x1d8>)
 80092a4:	f025 051c 	bic.w	r5, r5, #28
 80092a8:	4403      	add	r3, r0
 80092aa:	4293      	cmp	r3, r2
 80092ac:	d822      	bhi.n	80092f4 <HAL_ETH_Init+0xc0>
 80092ae:	f045 0508 	orr.w	r5, r5, #8
 80092b2:	6823      	ldr	r3, [r4, #0]
 80092b4:	f44f 4200 	mov.w	r2, #32768	; 0x8000
 80092b8:	2100      	movs	r1, #0
 80092ba:	4620      	mov	r0, r4
 80092bc:	611d      	str	r5, [r3, #16]
 80092be:	f7ff ff82 	bl	80091c6 <HAL_ETH_WritePHYRegister>
 80092c2:	4605      	mov	r5, r0
 80092c4:	b368      	cbz	r0, 8009322 <HAL_ETH_Init+0xee>
 80092c6:	2501      	movs	r5, #1
 80092c8:	2101      	movs	r1, #1
 80092ca:	4620      	mov	r0, r4
 80092cc:	f7ff fd60 	bl	8008d90 <ETH_MACDMAConfig>
 80092d0:	f884 5044 	strb.w	r5, [r4, #68]	; 0x44
 80092d4:	e00b      	b.n	80092ee <HAL_ETH_Init+0xba>
 80092d6:	f7ff fcc5 	bl	8008c64 <HAL_GetTick>
 80092da:	1b40      	subs	r0, r0, r5
 80092dc:	f5b0 7ffa 	cmp.w	r0, #500	; 0x1f4
 80092e0:	d9d5      	bls.n	800928e <HAL_ETH_Init+0x5a>
 80092e2:	2503      	movs	r5, #3
 80092e4:	2300      	movs	r3, #0
 80092e6:	f884 5044 	strb.w	r5, [r4, #68]	; 0x44
 80092ea:	f884 3045 	strb.w	r3, [r4, #69]	; 0x45
 80092ee:	4628      	mov	r0, r5
 80092f0:	b003      	add	sp, #12
 80092f2:	bdf0      	pop	{r4, r5, r6, r7, pc}
 80092f4:	4b46      	ldr	r3, [pc, #280]	; (8009410 <HAL_ETH_Init+0x1dc>)
 80092f6:	4a47      	ldr	r2, [pc, #284]	; (8009414 <HAL_ETH_Init+0x1e0>)
 80092f8:	4403      	add	r3, r0
 80092fa:	4293      	cmp	r3, r2
 80092fc:	d802      	bhi.n	8009304 <HAL_ETH_Init+0xd0>
 80092fe:	f045 050c 	orr.w	r5, r5, #12
 8009302:	e7d6      	b.n	80092b2 <HAL_ETH_Init+0x7e>
 8009304:	4b44      	ldr	r3, [pc, #272]	; (8009418 <HAL_ETH_Init+0x1e4>)
 8009306:	4a45      	ldr	r2, [pc, #276]	; (800941c <HAL_ETH_Init+0x1e8>)
 8009308:	4403      	add	r3, r0
 800930a:	4293      	cmp	r3, r2
 800930c:	d9d1      	bls.n	80092b2 <HAL_ETH_Init+0x7e>
 800930e:	4b44      	ldr	r3, [pc, #272]	; (8009420 <HAL_ETH_Init+0x1ec>)
 8009310:	4a44      	ldr	r2, [pc, #272]	; (8009424 <HAL_ETH_Init+0x1f0>)
 8009312:	4403      	add	r3, r0
 8009314:	4293      	cmp	r3, r2
 8009316:	bf94      	ite	ls
 8009318:	f045 0504 	orrls.w	r5, r5, #4
 800931c:	f045 0510 	orrhi.w	r5, r5, #16
 8009320:	e7c7      	b.n	80092b2 <HAL_ETH_Init+0x7e>
 8009322:	20ff      	movs	r0, #255	; 0xff
 8009324:	f7ff fca4 	bl	8008c70 <HAL_Delay>
 8009328:	6863      	ldr	r3, [r4, #4]
 800932a:	2b00      	cmp	r3, #0
 800932c:	d053      	beq.n	80093d6 <HAL_ETH_Init+0x1a2>
 800932e:	f7ff fc99 	bl	8008c64 <HAL_GetTick>
 8009332:	f241 3788 	movw	r7, #5000	; 0x1388
 8009336:	4606      	mov	r6, r0
 8009338:	466a      	mov	r2, sp
 800933a:	2101      	movs	r1, #1
 800933c:	4620      	mov	r0, r4
 800933e:	f7ff ff08 	bl	8009152 <HAL_ETH_ReadPHYRegister>
 8009342:	f7ff fc8f 	bl	8008c64 <HAL_GetTick>
 8009346:	1b80      	subs	r0, r0, r6
 8009348:	42b8      	cmp	r0, r7
 800934a:	d90b      	bls.n	8009364 <HAL_ETH_Init+0x130>
 800934c:	2101      	movs	r1, #1
 800934e:	4620      	mov	r0, r4
 8009350:	f7ff fd1e 	bl	8008d90 <ETH_MACDMAConfig>
 8009354:	2301      	movs	r3, #1
 8009356:	2503      	movs	r5, #3
 8009358:	f884 3044 	strb.w	r3, [r4, #68]	; 0x44
 800935c:	2300      	movs	r3, #0
 800935e:	f884 3045 	strb.w	r3, [r4, #69]	; 0x45
 8009362:	e7c4      	b.n	80092ee <HAL_ETH_Init+0xba>
 8009364:	9b00      	ldr	r3, [sp, #0]
 8009366:	0759      	lsls	r1, r3, #29
 8009368:	d5e6      	bpl.n	8009338 <HAL_ETH_Init+0x104>
 800936a:	f44f 5280 	mov.w	r2, #4096	; 0x1000
 800936e:	2100      	movs	r1, #0
 8009370:	4620      	mov	r0, r4
 8009372:	f7ff ff28 	bl	80091c6 <HAL_ETH_WritePHYRegister>
 8009376:	2800      	cmp	r0, #0
 8009378:	d1a5      	bne.n	80092c6 <HAL_ETH_Init+0x92>
 800937a:	f7ff fc73 	bl	8008c64 <HAL_GetTick>
 800937e:	f241 3788 	movw	r7, #5000	; 0x1388
 8009382:	4606      	mov	r6, r0
 8009384:	466a      	mov	r2, sp
 8009386:	2101      	movs	r1, #1
 8009388:	4620      	mov	r0, r4
 800938a:	f7ff fee2 	bl	8009152 <HAL_ETH_ReadPHYRegister>
 800938e:	f7ff fc69 	bl	8008c64 <HAL_GetTick>
 8009392:	1b80      	subs	r0, r0, r6
 8009394:	42b8      	cmp	r0, r7
 8009396:	d8d9      	bhi.n	800934c <HAL_ETH_Init+0x118>
 8009398:	9b00      	ldr	r3, [sp, #0]
 800939a:	069a      	lsls	r2, r3, #26
 800939c:	d5f2      	bpl.n	8009384 <HAL_ETH_Init+0x150>
 800939e:	466a      	mov	r2, sp
 80093a0:	211f      	movs	r1, #31
 80093a2:	4620      	mov	r0, r4
 80093a4:	f7ff fed5 	bl	8009152 <HAL_ETH_ReadPHYRegister>
 80093a8:	2800      	cmp	r0, #0
 80093aa:	d18c      	bne.n	80092c6 <HAL_ETH_Init+0x92>
 80093ac:	9b00      	ldr	r3, [sp, #0]
 80093ae:	f013 0210 	ands.w	r2, r3, #16
 80093b2:	bf18      	it	ne
 80093b4:	f44f 6200 	movne.w	r2, #2048	; 0x800
 80093b8:	075b      	lsls	r3, r3, #29
 80093ba:	bf4c      	ite	mi
 80093bc:	2300      	movmi	r3, #0
 80093be:	f44f 4380 	movpl.w	r3, #16384	; 0x4000
 80093c2:	60e2      	str	r2, [r4, #12]
 80093c4:	60a3      	str	r3, [r4, #8]
 80093c6:	2100      	movs	r1, #0
 80093c8:	4620      	mov	r0, r4
 80093ca:	f7ff fce1 	bl	8008d90 <ETH_MACDMAConfig>
 80093ce:	2301      	movs	r3, #1
 80093d0:	f884 3044 	strb.w	r3, [r4, #68]	; 0x44
 80093d4:	e78b      	b.n	80092ee <HAL_ETH_Init+0xba>
 80093d6:	e9d4 3202 	ldrd	r3, r2, [r4, #8]
 80093da:	4629      	mov	r1, r5
 80093dc:	4620      	mov	r0, r4
 80093de:	085b      	lsrs	r3, r3, #1
 80093e0:	ea43 02d2 	orr.w	r2, r3, r2, lsr #3
 80093e4:	b292      	uxth	r2, r2
 80093e6:	f7ff feee 	bl	80091c6 <HAL_ETH_WritePHYRegister>
 80093ea:	2800      	cmp	r0, #0
 80093ec:	f47f af6b 	bne.w	80092c6 <HAL_ETH_Init+0x92>
 80093f0:	f640 70ff 	movw	r0, #4095	; 0xfff
 80093f4:	f7ff fc3c 	bl	8008c70 <HAL_Delay>
 80093f8:	e7e5      	b.n	80093c6 <HAL_ETH_Init+0x192>
 80093fa:	2501      	movs	r5, #1
 80093fc:	e777      	b.n	80092ee <HAL_ETH_Init+0xba>
 80093fe:	bf00      	nop
 8009400:	40023800 	.word	0x40023800
 8009404:	40013800 	.word	0x40013800
 8009408:	feced300 	.word	0xfeced300
 800940c:	00e4e1bf 	.word	0x00e4e1bf
 8009410:	fde9f140 	.word	0xfde9f140
 8009414:	017d783f 	.word	0x017d783f
 8009418:	fc6c7900 	.word	0xfc6c7900
 800941c:	026259ff 	.word	0x026259ff
 8009420:	fa0a1f00 	.word	0xfa0a1f00
 8009424:	02faf07f 	.word	0x02faf07f

08009428 <HAL_ETH_Start>:
 8009428:	f890 3045 	ldrb.w	r3, [r0, #69]	; 0x45
 800942c:	2b01      	cmp	r3, #1
 800942e:	b573      	push	{r0, r1, r4, r5, r6, lr}
 8009430:	4605      	mov	r5, r0
 8009432:	f04f 0002 	mov.w	r0, #2
 8009436:	d033      	beq.n	80094a0 <HAL_ETH_Start+0x78>
 8009438:	2400      	movs	r4, #0
 800943a:	682b      	ldr	r3, [r5, #0]
 800943c:	f885 0044 	strb.w	r0, [r5, #68]	; 0x44
 8009440:	2601      	movs	r6, #1
 8009442:	9401      	str	r4, [sp, #4]
 8009444:	681a      	ldr	r2, [r3, #0]
 8009446:	4630      	mov	r0, r6
 8009448:	f885 6045 	strb.w	r6, [r5, #69]	; 0x45
 800944c:	f042 0208 	orr.w	r2, r2, #8
 8009450:	601a      	str	r2, [r3, #0]
 8009452:	681b      	ldr	r3, [r3, #0]
 8009454:	9301      	str	r3, [sp, #4]
 8009456:	f7ff fc0b 	bl	8008c70 <HAL_Delay>
 800945a:	9a01      	ldr	r2, [sp, #4]
 800945c:	4630      	mov	r0, r6
 800945e:	682b      	ldr	r3, [r5, #0]
 8009460:	601a      	str	r2, [r3, #0]
 8009462:	9400      	str	r4, [sp, #0]
 8009464:	681a      	ldr	r2, [r3, #0]
 8009466:	f042 0204 	orr.w	r2, r2, #4
 800946a:	601a      	str	r2, [r3, #0]
 800946c:	681b      	ldr	r3, [r3, #0]
 800946e:	9300      	str	r3, [sp, #0]
 8009470:	f7ff fbfe 	bl	8008c70 <HAL_Delay>
 8009474:	682b      	ldr	r3, [r5, #0]
 8009476:	4628      	mov	r0, r5
 8009478:	9a00      	ldr	r2, [sp, #0]
 800947a:	601a      	str	r2, [r3, #0]
 800947c:	f7ff fc72 	bl	8008d64 <ETH_FlushTransmitFIFO>
 8009480:	682a      	ldr	r2, [r5, #0]
 8009482:	f241 0318 	movw	r3, #4120	; 0x1018
 8009486:	4620      	mov	r0, r4
 8009488:	58d1      	ldr	r1, [r2, r3]
 800948a:	f441 5100 	orr.w	r1, r1, #8192	; 0x2000
 800948e:	50d1      	str	r1, [r2, r3]
 8009490:	58d1      	ldr	r1, [r2, r3]
 8009492:	f041 0102 	orr.w	r1, r1, #2
 8009496:	50d1      	str	r1, [r2, r3]
 8009498:	f885 6044 	strb.w	r6, [r5, #68]	; 0x44
 800949c:	f885 4045 	strb.w	r4, [r5, #69]	; 0x45
 80094a0:	b002      	add	sp, #8
 80094a2:	bd70      	pop	{r4, r5, r6, pc}

080094a4 <HAL_ETH_Stop>:
 80094a4:	f890 3045 	ldrb.w	r3, [r0, #69]	; 0x45
 80094a8:	2b01      	cmp	r3, #1
 80094aa:	b573      	push	{r0, r1, r4, r5, r6, lr}
 80094ac:	4605      	mov	r5, r0
 80094ae:	f04f 0002 	mov.w	r0, #2
 80094b2:	d033      	beq.n	800951c <HAL_ETH_Stop+0x78>
 80094b4:	682b      	ldr	r3, [r5, #0]
 80094b6:	f241 0218 	movw	r2, #4120	; 0x1018
 80094ba:	f885 0044 	strb.w	r0, [r5, #68]	; 0x44
 80094be:	2601      	movs	r6, #1
 80094c0:	5899      	ldr	r1, [r3, r2]
 80094c2:	2400      	movs	r4, #0
 80094c4:	f885 6045 	strb.w	r6, [r5, #69]	; 0x45
 80094c8:	4630      	mov	r0, r6
 80094ca:	f421 5100 	bic.w	r1, r1, #8192	; 0x2000
 80094ce:	5099      	str	r1, [r3, r2]
 80094d0:	5899      	ldr	r1, [r3, r2]
 80094d2:	f021 0102 	bic.w	r1, r1, #2
 80094d6:	5099      	str	r1, [r3, r2]
 80094d8:	9401      	str	r4, [sp, #4]
 80094da:	681a      	ldr	r2, [r3, #0]
 80094dc:	f022 0204 	bic.w	r2, r2, #4
 80094e0:	601a      	str	r2, [r3, #0]
 80094e2:	681b      	ldr	r3, [r3, #0]
 80094e4:	9301      	str	r3, [sp, #4]
 80094e6:	f7ff fbc3 	bl	8008c70 <HAL_Delay>
 80094ea:	682b      	ldr	r3, [r5, #0]
 80094ec:	4628      	mov	r0, r5
 80094ee:	9a01      	ldr	r2, [sp, #4]
 80094f0:	601a      	str	r2, [r3, #0]
 80094f2:	f7ff fc37 	bl	8008d64 <ETH_FlushTransmitFIFO>
 80094f6:	682b      	ldr	r3, [r5, #0]
 80094f8:	9400      	str	r4, [sp, #0]
 80094fa:	4630      	mov	r0, r6
 80094fc:	681a      	ldr	r2, [r3, #0]
 80094fe:	f022 0208 	bic.w	r2, r2, #8
 8009502:	601a      	str	r2, [r3, #0]
 8009504:	681b      	ldr	r3, [r3, #0]
 8009506:	9300      	str	r3, [sp, #0]
 8009508:	f7ff fbb2 	bl	8008c70 <HAL_Delay>
 800950c:	9a00      	ldr	r2, [sp, #0]
 800950e:	4620      	mov	r0, r4
 8009510:	682b      	ldr	r3, [r5, #0]
 8009512:	601a      	str	r2, [r3, #0]
 8009514:	f885 6044 	strb.w	r6, [r5, #68]	; 0x44
 8009518:	f885 4045 	strb.w	r4, [r5, #69]	; 0x45
 800951c:	b002      	add	sp, #8
 800951e:	bd70      	pop	{r4, r5, r6, pc}

08009520 <HAL_ETH_ConfigMAC>:
 8009520:	b5f8      	push	{r3, r4, r5, r6, r7, lr}
 8009522:	f890 3045 	ldrb.w	r3, [r0, #69]	; 0x45
 8009526:	4605      	mov	r5, r0
 8009528:	460c      	mov	r4, r1
 800952a:	2002      	movs	r0, #2
 800952c:	2b01      	cmp	r3, #1
 800952e:	d071      	beq.n	8009614 <HAL_ETH_ConfigMAC+0xf4>
 8009530:	2601      	movs	r6, #1
 8009532:	f885 0044 	strb.w	r0, [r5, #68]	; 0x44
 8009536:	682a      	ldr	r2, [r5, #0]
 8009538:	f885 6045 	strb.w	r6, [r5, #69]	; 0x45
 800953c:	e9d5 7002 	ldrd	r7, r0, [r5, #8]
 8009540:	2900      	cmp	r1, #0
 8009542:	d068      	beq.n	8009616 <HAL_ETH_ConfigMAC+0xf6>
 8009544:	6813      	ldr	r3, [r2, #0]
 8009546:	f8df c0ec 	ldr.w	ip, [pc, #236]	; 8009634 <HAL_ETH_ConfigMAC+0x114>
 800954a:	ea0c 0c03 	and.w	ip, ip, r3
 800954e:	e9d1 3100 	ldrd	r3, r1, [r1]
 8009552:	430b      	orrs	r3, r1
 8009554:	68a1      	ldr	r1, [r4, #8]
 8009556:	430b      	orrs	r3, r1
 8009558:	68e1      	ldr	r1, [r4, #12]
 800955a:	430b      	orrs	r3, r1
 800955c:	6921      	ldr	r1, [r4, #16]
 800955e:	430b      	orrs	r3, r1
 8009560:	6961      	ldr	r1, [r4, #20]
 8009562:	430b      	orrs	r3, r1
 8009564:	69a1      	ldr	r1, [r4, #24]
 8009566:	430b      	orrs	r3, r1
 8009568:	69e1      	ldr	r1, [r4, #28]
 800956a:	430b      	orrs	r3, r1
 800956c:	6a21      	ldr	r1, [r4, #32]
 800956e:	430b      	orrs	r3, r1
 8009570:	6a61      	ldr	r1, [r4, #36]	; 0x24
 8009572:	430b      	orrs	r3, r1
 8009574:	6aa1      	ldr	r1, [r4, #40]	; 0x28
 8009576:	430b      	orrs	r3, r1
 8009578:	433b      	orrs	r3, r7
 800957a:	4303      	orrs	r3, r0
 800957c:	4630      	mov	r0, r6
 800957e:	ea43 030c 	orr.w	r3, r3, ip
 8009582:	6013      	str	r3, [r2, #0]
 8009584:	6817      	ldr	r7, [r2, #0]
 8009586:	f7ff fb73 	bl	8008c70 <HAL_Delay>
 800958a:	682a      	ldr	r2, [r5, #0]
 800958c:	4630      	mov	r0, r6
 800958e:	e9d4 310b 	ldrd	r3, r1, [r4, #44]	; 0x2c
 8009592:	6017      	str	r7, [r2, #0]
 8009594:	430b      	orrs	r3, r1
 8009596:	6b61      	ldr	r1, [r4, #52]	; 0x34
 8009598:	430b      	orrs	r3, r1
 800959a:	6ba1      	ldr	r1, [r4, #56]	; 0x38
 800959c:	430b      	orrs	r3, r1
 800959e:	6be1      	ldr	r1, [r4, #60]	; 0x3c
 80095a0:	430b      	orrs	r3, r1
 80095a2:	6c21      	ldr	r1, [r4, #64]	; 0x40
 80095a4:	430b      	orrs	r3, r1
 80095a6:	6c61      	ldr	r1, [r4, #68]	; 0x44
 80095a8:	430b      	orrs	r3, r1
 80095aa:	6ca1      	ldr	r1, [r4, #72]	; 0x48
 80095ac:	430b      	orrs	r3, r1
 80095ae:	6053      	str	r3, [r2, #4]
 80095b0:	6857      	ldr	r7, [r2, #4]
 80095b2:	f7ff fb5d 	bl	8008c70 <HAL_Delay>
 80095b6:	682a      	ldr	r2, [r5, #0]
 80095b8:	6ce3      	ldr	r3, [r4, #76]	; 0x4c
 80095ba:	6057      	str	r7, [r2, #4]
 80095bc:	6093      	str	r3, [r2, #8]
 80095be:	6d23      	ldr	r3, [r4, #80]	; 0x50
 80095c0:	60d3      	str	r3, [r2, #12]
 80095c2:	6991      	ldr	r1, [r2, #24]
 80095c4:	e9d4 3016 	ldrd	r3, r0, [r4, #88]	; 0x58
 80095c8:	f021 01be 	bic.w	r1, r1, #190	; 0xbe
 80095cc:	4303      	orrs	r3, r0
 80095ce:	6e20      	ldr	r0, [r4, #96]	; 0x60
 80095d0:	0409      	lsls	r1, r1, #16
 80095d2:	4303      	orrs	r3, r0
 80095d4:	6e60      	ldr	r0, [r4, #100]	; 0x64
 80095d6:	0c09      	lsrs	r1, r1, #16
 80095d8:	4303      	orrs	r3, r0
 80095da:	6ea0      	ldr	r0, [r4, #104]	; 0x68
 80095dc:	4303      	orrs	r3, r0
 80095de:	6d60      	ldr	r0, [r4, #84]	; 0x54
 80095e0:	ea43 4300 	orr.w	r3, r3, r0, lsl #16
 80095e4:	4630      	mov	r0, r6
 80095e6:	430b      	orrs	r3, r1
 80095e8:	6193      	str	r3, [r2, #24]
 80095ea:	6997      	ldr	r7, [r2, #24]
 80095ec:	f7ff fb40 	bl	8008c70 <HAL_Delay>
 80095f0:	682b      	ldr	r3, [r5, #0]
 80095f2:	4630      	mov	r0, r6
 80095f4:	e9d4 211b 	ldrd	r2, r1, [r4, #108]	; 0x6c
 80095f8:	619f      	str	r7, [r3, #24]
 80095fa:	430a      	orrs	r2, r1
 80095fc:	61da      	str	r2, [r3, #28]
 80095fe:	69dc      	ldr	r4, [r3, #28]
 8009600:	f7ff fb36 	bl	8008c70 <HAL_Delay>
 8009604:	682b      	ldr	r3, [r5, #0]
 8009606:	61dc      	str	r4, [r3, #28]
 8009608:	2301      	movs	r3, #1
 800960a:	2000      	movs	r0, #0
 800960c:	f885 3044 	strb.w	r3, [r5, #68]	; 0x44
 8009610:	f885 0045 	strb.w	r0, [r5, #69]	; 0x45
 8009614:	bdf8      	pop	{r3, r4, r5, r6, r7, pc}
 8009616:	6811      	ldr	r1, [r2, #0]
 8009618:	ea47 0300 	orr.w	r3, r7, r0
 800961c:	4630      	mov	r0, r6
 800961e:	f421 4190 	bic.w	r1, r1, #18432	; 0x4800
 8009622:	430b      	orrs	r3, r1
 8009624:	6013      	str	r3, [r2, #0]
 8009626:	6814      	ldr	r4, [r2, #0]
 8009628:	f7ff fb22 	bl	8008c70 <HAL_Delay>
 800962c:	682b      	ldr	r3, [r5, #0]
 800962e:	601c      	str	r4, [r3, #0]
 8009630:	e7ea      	b.n	8009608 <HAL_ETH_ConfigMAC+0xe8>
 8009632:	bf00      	nop
 8009634:	ff20810f 	.word	0xff20810f

08009638 <HAL_GPIO_Init>:
 8009638:	e92d 4ff0 	stmdb	sp!, {r4, r5, r6, r7, r8, r9, sl, fp, lr}
 800963c:	680b      	ldr	r3, [r1, #0]
 800963e:	b085      	sub	sp, #20
 8009640:	f8df 81bc 	ldr.w	r8, [pc, #444]	; 8009800 <HAL_GPIO_Init+0x1c8>
 8009644:	9301      	str	r3, [sp, #4]
 8009646:	2300      	movs	r3, #0
 8009648:	4a6b      	ldr	r2, [pc, #428]	; (80097f8 <HAL_GPIO_Init+0x1c0>)
 800964a:	f8df 91b8 	ldr.w	r9, [pc, #440]	; 8009804 <HAL_GPIO_Init+0x1cc>
 800964e:	2401      	movs	r4, #1
 8009650:	9d01      	ldr	r5, [sp, #4]
 8009652:	409c      	lsls	r4, r3
 8009654:	4025      	ands	r5, r4
 8009656:	42ac      	cmp	r4, r5
 8009658:	f040 80b4 	bne.w	80097c4 <HAL_GPIO_Init+0x18c>
 800965c:	684c      	ldr	r4, [r1, #4]
 800965e:	ea4f 0e43 	mov.w	lr, r3, lsl #1
 8009662:	2603      	movs	r6, #3
 8009664:	f024 0c10 	bic.w	ip, r4, #16
 8009668:	fa06 f60e 	lsl.w	r6, r6, lr
 800966c:	f10c 37ff 	add.w	r7, ip, #4294967295	; 0xffffffff
 8009670:	43f6      	mvns	r6, r6
 8009672:	2f01      	cmp	r7, #1
 8009674:	d811      	bhi.n	800969a <HAL_GPIO_Init+0x62>
 8009676:	6887      	ldr	r7, [r0, #8]
 8009678:	ea07 0a06 	and.w	sl, r7, r6
 800967c:	68cf      	ldr	r7, [r1, #12]
 800967e:	fa07 f70e 	lsl.w	r7, r7, lr
 8009682:	ea47 070a 	orr.w	r7, r7, sl
 8009686:	6087      	str	r7, [r0, #8]
 8009688:	6847      	ldr	r7, [r0, #4]
 800968a:	ea27 0a05 	bic.w	sl, r7, r5
 800968e:	f3c4 1700 	ubfx	r7, r4, #4, #1
 8009692:	409f      	lsls	r7, r3
 8009694:	ea47 070a 	orr.w	r7, r7, sl
 8009698:	6047      	str	r7, [r0, #4]
 800969a:	68c7      	ldr	r7, [r0, #12]
 800969c:	f1bc 0f02 	cmp.w	ip, #2
 80096a0:	ea07 0a06 	and.w	sl, r7, r6
 80096a4:	688f      	ldr	r7, [r1, #8]
 80096a6:	fa07 f70e 	lsl.w	r7, r7, lr
 80096aa:	ea47 070a 	orr.w	r7, r7, sl
 80096ae:	60c7      	str	r7, [r0, #12]
 80096b0:	d116      	bne.n	80096e0 <HAL_GPIO_Init+0xa8>
 80096b2:	ea4f 0ad3 	mov.w	sl, r3, lsr #3
 80096b6:	f003 0b07 	and.w	fp, r3, #7
 80096ba:	f04f 0c0f 	mov.w	ip, #15
 80096be:	eb00 0a8a 	add.w	sl, r0, sl, lsl #2
 80096c2:	ea4f 0b8b 	mov.w	fp, fp, lsl #2
 80096c6:	f8da 7020 	ldr.w	r7, [sl, #32]
 80096ca:	fa0c fc0b 	lsl.w	ip, ip, fp
 80096ce:	ea27 0c0c 	bic.w	ip, r7, ip
 80096d2:	690f      	ldr	r7, [r1, #16]
 80096d4:	fa07 f70b 	lsl.w	r7, r7, fp
 80096d8:	ea47 070c 	orr.w	r7, r7, ip
 80096dc:	f8ca 7020 	str.w	r7, [sl, #32]
 80096e0:	6807      	ldr	r7, [r0, #0]
 80096e2:	403e      	ands	r6, r7
 80096e4:	f004 0703 	and.w	r7, r4, #3
 80096e8:	fa07 fe0e 	lsl.w	lr, r7, lr
 80096ec:	ea4e 0606 	orr.w	r6, lr, r6
 80096f0:	6006      	str	r6, [r0, #0]
 80096f2:	00e6      	lsls	r6, r4, #3
 80096f4:	d566      	bpl.n	80097c4 <HAL_GPIO_Init+0x18c>
 80096f6:	f8d8 6044 	ldr.w	r6, [r8, #68]	; 0x44
 80096fa:	f023 0703 	bic.w	r7, r3, #3
 80096fe:	f003 0c03 	and.w	ip, r3, #3
 8009702:	f04f 0e0f 	mov.w	lr, #15
 8009706:	f446 4680 	orr.w	r6, r6, #16384	; 0x4000
 800970a:	f107 4780 	add.w	r7, r7, #1073741824	; 0x40000000
 800970e:	ea4f 0c8c 	mov.w	ip, ip, lsl #2
 8009712:	f8c8 6044 	str.w	r6, [r8, #68]	; 0x44
 8009716:	f507 379c 	add.w	r7, r7, #79872	; 0x13800
 800971a:	f8d8 6044 	ldr.w	r6, [r8, #68]	; 0x44
 800971e:	f406 4680 	and.w	r6, r6, #16384	; 0x4000
 8009722:	9603      	str	r6, [sp, #12]
 8009724:	9e03      	ldr	r6, [sp, #12]
 8009726:	fa0e f60c 	lsl.w	r6, lr, ip
 800972a:	f8d7 a008 	ldr.w	sl, [r7, #8]
 800972e:	ea2a 0e06 	bic.w	lr, sl, r6
 8009732:	4e32      	ldr	r6, [pc, #200]	; (80097fc <HAL_GPIO_Init+0x1c4>)
 8009734:	42b0      	cmp	r0, r6
 8009736:	d04c      	beq.n	80097d2 <HAL_GPIO_Init+0x19a>
 8009738:	f506 6680 	add.w	r6, r6, #1024	; 0x400
 800973c:	42b0      	cmp	r0, r6
 800973e:	d04a      	beq.n	80097d6 <HAL_GPIO_Init+0x19e>
 8009740:	f506 6680 	add.w	r6, r6, #1024	; 0x400
 8009744:	42b0      	cmp	r0, r6
 8009746:	d048      	beq.n	80097da <HAL_GPIO_Init+0x1a2>
 8009748:	f506 6680 	add.w	r6, r6, #1024	; 0x400
 800974c:	42b0      	cmp	r0, r6
 800974e:	d046      	beq.n	80097de <HAL_GPIO_Init+0x1a6>
 8009750:	f506 6680 	add.w	r6, r6, #1024	; 0x400
 8009754:	42b0      	cmp	r0, r6
 8009756:	d044      	beq.n	80097e2 <HAL_GPIO_Init+0x1aa>
 8009758:	4548      	cmp	r0, r9
 800975a:	d044      	beq.n	80097e6 <HAL_GPIO_Init+0x1ae>
 800975c:	f506 6600 	add.w	r6, r6, #2048	; 0x800
 8009760:	42b0      	cmp	r0, r6
 8009762:	d042      	beq.n	80097ea <HAL_GPIO_Init+0x1b2>
 8009764:	f506 6680 	add.w	r6, r6, #1024	; 0x400
 8009768:	42b0      	cmp	r0, r6
 800976a:	d040      	beq.n	80097ee <HAL_GPIO_Init+0x1b6>
 800976c:	f506 6680 	add.w	r6, r6, #1024	; 0x400
 8009770:	42b0      	cmp	r0, r6
 8009772:	d03e      	beq.n	80097f2 <HAL_GPIO_Init+0x1ba>
 8009774:	f506 6680 	add.w	r6, r6, #1024	; 0x400
 8009778:	42b0      	cmp	r0, r6
 800977a:	bf14      	ite	ne
 800977c:	260a      	movne	r6, #10
 800977e:	2609      	moveq	r6, #9
 8009780:	fa06 f60c 	lsl.w	r6, r6, ip
 8009784:	f414 3f80 	tst.w	r4, #65536	; 0x10000
 8009788:	ea46 060e 	orr.w	r6, r6, lr
 800978c:	60be      	str	r6, [r7, #8]
 800978e:	ea6f 0705 	mvn.w	r7, r5
 8009792:	6816      	ldr	r6, [r2, #0]
 8009794:	bf0c      	ite	eq
 8009796:	403e      	andeq	r6, r7
 8009798:	432e      	orrne	r6, r5
 800979a:	f414 3f00 	tst.w	r4, #131072	; 0x20000
 800979e:	6016      	str	r6, [r2, #0]
 80097a0:	6856      	ldr	r6, [r2, #4]
 80097a2:	bf0c      	ite	eq
 80097a4:	403e      	andeq	r6, r7
 80097a6:	432e      	orrne	r6, r5
 80097a8:	f414 1f80 	tst.w	r4, #1048576	; 0x100000
 80097ac:	6056      	str	r6, [r2, #4]
 80097ae:	6896      	ldr	r6, [r2, #8]
 80097b0:	bf0c      	ite	eq
 80097b2:	403e      	andeq	r6, r7
 80097b4:	432e      	orrne	r6, r5
 80097b6:	02a4      	lsls	r4, r4, #10
 80097b8:	6096      	str	r6, [r2, #8]
 80097ba:	68d6      	ldr	r6, [r2, #12]
 80097bc:	bf54      	ite	pl
 80097be:	403e      	andpl	r6, r7
 80097c0:	432e      	orrmi	r6, r5
 80097c2:	60d6      	str	r6, [r2, #12]
 80097c4:	3301      	adds	r3, #1
 80097c6:	2b10      	cmp	r3, #16
 80097c8:	f47f af41 	bne.w	800964e <HAL_GPIO_Init+0x16>
 80097cc:	b005      	add	sp, #20
 80097ce:	e8bd 8ff0 	ldmia.w	sp!, {r4, r5, r6, r7, r8, r9, sl, fp, pc}
 80097d2:	2600      	movs	r6, #0
 80097d4:	e7d4      	b.n	8009780 <HAL_GPIO_Init+0x148>
 80097d6:	2601      	movs	r6, #1
 80097d8:	e7d2      	b.n	8009780 <HAL_GPIO_Init+0x148>
 80097da:	2602      	movs	r6, #2
 80097dc:	e7d0      	b.n	8009780 <HAL_GPIO_Init+0x148>
 80097de:	2603      	movs	r6, #3
 80097e0:	e7ce      	b.n	8009780 <HAL_GPIO_Init+0x148>
 80097e2:	2604      	movs	r6, #4
 80097e4:	e7cc      	b.n	8009780 <HAL_GPIO_Init+0x148>
 80097e6:	2605      	movs	r6, #5
 80097e8:	e7ca      	b.n	8009780 <HAL_GPIO_Init+0x148>
 80097ea:	2606      	movs	r6, #6
 80097ec:	e7c8      	b.n	8009780 <HAL_GPIO_Init+0x148>
 80097ee:	2607      	movs	r6, #7
 80097f0:	e7c6      	b.n	8009780 <HAL_GPIO_Init+0x148>
 80097f2:	2608      	movs	r6, #8
 80097f4:	e7c4      	b.n	8009780 <HAL_GPIO_Init+0x148>
 80097f6:	bf00      	nop
 80097f8:	40013c00 	.word	0x40013c00
 80097fc:	40020000 	.word	0x40020000
 8009800:	40023800 	.word	0x40023800
 8009804:	40021400 	.word	0x40021400

08009808 <HAL_GPIO_WritePin>:
 8009808:	b10a      	cbz	r2, 800980e <HAL_GPIO_WritePin+0x6>
 800980a:	6181      	str	r1, [r0, #24]
 800980c:	4770      	bx	lr
 800980e:	0409      	lsls	r1, r1, #16
 8009810:	e7fb      	b.n	800980a <HAL_GPIO_WritePin+0x2>

08009812 <HAL_GPIO_TogglePin>:
 8009812:	6943      	ldr	r3, [r0, #20]
 8009814:	420b      	tst	r3, r1
 8009816:	bf18      	it	ne
 8009818:	0409      	lslne	r1, r1, #16
 800981a:	6181      	str	r1, [r0, #24]
 800981c:	4770      	bx	lr

0800981e <HAL_PCD_Init>:
 800981e:	b5f0      	push	{r4, r5, r6, r7, lr}
 8009820:	4604      	mov	r4, r0
 8009822:	b08b      	sub	sp, #44	; 0x2c
 8009824:	b360      	cbz	r0, 8009880 <HAL_PCD_Init+0x62>
 8009826:	f890 33bd 	ldrb.w	r3, [r0, #957]	; 0x3bd
 800982a:	6805      	ldr	r5, [r0, #0]
 800982c:	f003 02ff 	and.w	r2, r3, #255	; 0xff
 8009830:	b91b      	cbnz	r3, 800983a <HAL_PCD_Init+0x1c>
 8009832:	f880 23bc 	strb.w	r2, [r0, #956]	; 0x3bc
 8009836:	f7ff f901 	bl	8008a3c <HAL_PCD_MspInit>
 800983a:	2303      	movs	r3, #3
 800983c:	466e      	mov	r6, sp
 800983e:	1d27      	adds	r7, r4, #4
 8009840:	f884 33bd 	strb.w	r3, [r4, #957]	; 0x3bd
 8009844:	6beb      	ldr	r3, [r5, #60]	; 0x3c
 8009846:	4625      	mov	r5, r4
 8009848:	f413 7380 	ands.w	r3, r3, #256	; 0x100
 800984c:	f855 0b10 	ldr.w	r0, [r5], #16
 8009850:	bf08      	it	eq
 8009852:	6123      	streq	r3, [r4, #16]
 8009854:	f001 f8c7 	bl	800a9e6 <USB_DisableGlobalInt>
 8009858:	cd0f      	ldmia	r5!, {r0, r1, r2, r3}
 800985a:	c60f      	stmia	r6!, {r0, r1, r2, r3}
 800985c:	cd0f      	ldmia	r5!, {r0, r1, r2, r3}
 800985e:	c60f      	stmia	r6!, {r0, r1, r2, r3}
 8009860:	e895 0003 	ldmia.w	r5, {r0, r1}
 8009864:	4625      	mov	r5, r4
 8009866:	e886 0003 	stmia.w	r6, {r0, r1}
 800986a:	e897 000e 	ldmia.w	r7, {r1, r2, r3}
 800986e:	f855 0b10 	ldr.w	r0, [r5], #16
 8009872:	f001 f87d 	bl	800a970 <USB_CoreInit>
 8009876:	4606      	mov	r6, r0
 8009878:	b120      	cbz	r0, 8009884 <HAL_PCD_Init+0x66>
 800987a:	2302      	movs	r3, #2
 800987c:	f884 33bd 	strb.w	r3, [r4, #957]	; 0x3bd
 8009880:	2501      	movs	r5, #1
 8009882:	e054      	b.n	800992e <HAL_PCD_Init+0x110>
 8009884:	4601      	mov	r1, r0
 8009886:	6820      	ldr	r0, [r4, #0]
 8009888:	f001 f8b3 	bl	800a9f2 <USB_SetCurrentMode>
 800988c:	4630      	mov	r0, r6
 800988e:	f8d4 c004 	ldr.w	ip, [r4, #4]
 8009892:	261c      	movs	r6, #28
 8009894:	f04f 0e01 	mov.w	lr, #1
 8009898:	4601      	mov	r1, r0
 800989a:	b2c2      	uxtb	r2, r0
 800989c:	3001      	adds	r0, #1
 800989e:	4594      	cmp	ip, r2
 80098a0:	d81b      	bhi.n	80098da <HAL_PCD_Init+0xbc>
 80098a2:	2300      	movs	r3, #0
 80098a4:	261c      	movs	r6, #28
 80098a6:	4619      	mov	r1, r3
 80098a8:	b2d8      	uxtb	r0, r3
 80098aa:	3301      	adds	r3, #1
 80098ac:	4584      	cmp	ip, r0
 80098ae:	d822      	bhi.n	80098f6 <HAL_PCD_Init+0xd8>
 80098b0:	466e      	mov	r6, sp
 80098b2:	cd0f      	ldmia	r5!, {r0, r1, r2, r3}
 80098b4:	c60f      	stmia	r6!, {r0, r1, r2, r3}
 80098b6:	cd0f      	ldmia	r5!, {r0, r1, r2, r3}
 80098b8:	c60f      	stmia	r6!, {r0, r1, r2, r3}
 80098ba:	e895 0003 	ldmia.w	r5, {r0, r1}
 80098be:	e886 0003 	stmia.w	r6, {r0, r1}
 80098c2:	e897 000e 	ldmia.w	r7, {r1, r2, r3}
 80098c6:	6820      	ldr	r0, [r4, #0]
 80098c8:	f001 f8d4 	bl	800aa74 <USB_DevInit>
 80098cc:	2301      	movs	r3, #1
 80098ce:	4605      	mov	r5, r0
 80098d0:	b300      	cbz	r0, 8009914 <HAL_PCD_Init+0xf6>
 80098d2:	2202      	movs	r2, #2
 80098d4:	f884 23bd 	strb.w	r2, [r4, #957]	; 0x3bd
 80098d8:	e7d2      	b.n	8009880 <HAL_PCD_Init+0x62>
 80098da:	fb06 4302 	mla	r3, r6, r2, r4
 80098de:	f883 e03d 	strb.w	lr, [r3, #61]	; 0x3d
 80098e2:	f883 203c 	strb.w	r2, [r3, #60]	; 0x3c
 80098e6:	f8a3 2042 	strh.w	r2, [r3, #66]	; 0x42
 80098ea:	f883 103f 	strb.w	r1, [r3, #63]	; 0x3f
 80098ee:	6519      	str	r1, [r3, #80]	; 0x50
 80098f0:	e9c3 1111 	strd	r1, r1, [r3, #68]	; 0x44
 80098f4:	e7d1      	b.n	800989a <HAL_PCD_Init+0x7c>
 80098f6:	fb06 4200 	mla	r2, r6, r0, r4
 80098fa:	f882 11fd 	strb.w	r1, [r2, #509]	; 0x1fd
 80098fe:	f882 01fc 	strb.w	r0, [r2, #508]	; 0x1fc
 8009902:	f882 11ff 	strb.w	r1, [r2, #511]	; 0x1ff
 8009906:	f8c2 1204 	str.w	r1, [r2, #516]	; 0x204
 800990a:	f8c2 1208 	str.w	r1, [r2, #520]	; 0x208
 800990e:	f8c2 1210 	str.w	r1, [r2, #528]	; 0x210
 8009912:	e7c9      	b.n	80098a8 <HAL_PCD_Init+0x8a>
 8009914:	f884 0038 	strb.w	r0, [r4, #56]	; 0x38
 8009918:	f884 33bd 	strb.w	r3, [r4, #957]	; 0x3bd
 800991c:	6a63      	ldr	r3, [r4, #36]	; 0x24
 800991e:	2b01      	cmp	r3, #1
 8009920:	d102      	bne.n	8009928 <HAL_PCD_Init+0x10a>
 8009922:	4620      	mov	r0, r4
 8009924:	f000 f806 	bl	8009934 <HAL_PCDEx_ActivateLPM>
 8009928:	6820      	ldr	r0, [r4, #0]
 800992a:	f001 f95d 	bl	800abe8 <USB_DevDisconnect>
 800992e:	4628      	mov	r0, r5
 8009930:	b00b      	add	sp, #44	; 0x2c
 8009932:	bdf0      	pop	{r4, r5, r6, r7, pc}

08009934 <HAL_PCDEx_ActivateLPM>:
 8009934:	2101      	movs	r1, #1
 8009936:	6802      	ldr	r2, [r0, #0]
 8009938:	4603      	mov	r3, r0
 800993a:	f8c0 13fc 	str.w	r1, [r0, #1020]	; 0x3fc
 800993e:	2000      	movs	r0, #0
 8009940:	f883 03f4 	strb.w	r0, [r3, #1012]	; 0x3f4
 8009944:	6993      	ldr	r3, [r2, #24]
 8009946:	f043 6300 	orr.w	r3, r3, #134217728	; 0x8000000
 800994a:	6193      	str	r3, [r2, #24]
 800994c:	6d53      	ldr	r3, [r2, #84]	; 0x54
 800994e:	f043 5380 	orr.w	r3, r3, #268435456	; 0x10000000
 8009952:	f043 0303 	orr.w	r3, r3, #3
 8009956:	6553      	str	r3, [r2, #84]	; 0x54
 8009958:	4770      	bx	lr
	...

0800995c <HAL_PWR_EnableBkUpAccess>:
 800995c:	4a02      	ldr	r2, [pc, #8]	; (8009968 <HAL_PWR_EnableBkUpAccess+0xc>)
 800995e:	6813      	ldr	r3, [r2, #0]
 8009960:	f443 7380 	orr.w	r3, r3, #256	; 0x100
 8009964:	6013      	str	r3, [r2, #0]
 8009966:	4770      	bx	lr
 8009968:	40007000 	.word	0x40007000

0800996c <HAL_PWREx_EnableOverDrive>:
 800996c:	4b19      	ldr	r3, [pc, #100]	; (80099d4 <HAL_PWREx_EnableOverDrive+0x68>)
 800996e:	b537      	push	{r0, r1, r2, r4, r5, lr}
 8009970:	6c1a      	ldr	r2, [r3, #64]	; 0x40
 8009972:	4c19      	ldr	r4, [pc, #100]	; (80099d8 <HAL_PWREx_EnableOverDrive+0x6c>)
 8009974:	f042 5280 	orr.w	r2, r2, #268435456	; 0x10000000
 8009978:	641a      	str	r2, [r3, #64]	; 0x40
 800997a:	6c1b      	ldr	r3, [r3, #64]	; 0x40
 800997c:	f003 5380 	and.w	r3, r3, #268435456	; 0x10000000
 8009980:	9301      	str	r3, [sp, #4]
 8009982:	9b01      	ldr	r3, [sp, #4]
 8009984:	6823      	ldr	r3, [r4, #0]
 8009986:	f443 3380 	orr.w	r3, r3, #65536	; 0x10000
 800998a:	6023      	str	r3, [r4, #0]
 800998c:	f7ff f96a 	bl	8008c64 <HAL_GetTick>
 8009990:	4605      	mov	r5, r0
 8009992:	6863      	ldr	r3, [r4, #4]
 8009994:	03da      	lsls	r2, r3, #15
 8009996:	d50c      	bpl.n	80099b2 <HAL_PWREx_EnableOverDrive+0x46>
 8009998:	6823      	ldr	r3, [r4, #0]
 800999a:	f443 3300 	orr.w	r3, r3, #131072	; 0x20000
 800999e:	6023      	str	r3, [r4, #0]
 80099a0:	f7ff f960 	bl	8008c64 <HAL_GetTick>
 80099a4:	4c0c      	ldr	r4, [pc, #48]	; (80099d8 <HAL_PWREx_EnableOverDrive+0x6c>)
 80099a6:	4605      	mov	r5, r0
 80099a8:	6863      	ldr	r3, [r4, #4]
 80099aa:	039b      	lsls	r3, r3, #14
 80099ac:	d50a      	bpl.n	80099c4 <HAL_PWREx_EnableOverDrive+0x58>
 80099ae:	2000      	movs	r0, #0
 80099b0:	e006      	b.n	80099c0 <HAL_PWREx_EnableOverDrive+0x54>
 80099b2:	f7ff f957 	bl	8008c64 <HAL_GetTick>
 80099b6:	1b40      	subs	r0, r0, r5
 80099b8:	f5b0 7f7a 	cmp.w	r0, #1000	; 0x3e8
 80099bc:	d9e9      	bls.n	8009992 <HAL_PWREx_EnableOverDrive+0x26>
 80099be:	2003      	movs	r0, #3
 80099c0:	b003      	add	sp, #12
 80099c2:	bd30      	pop	{r4, r5, pc}
 80099c4:	f7ff f94e 	bl	8008c64 <HAL_GetTick>
 80099c8:	1b40      	subs	r0, r0, r5
 80099ca:	f5b0 7f7a 	cmp.w	r0, #1000	; 0x3e8
 80099ce:	d9eb      	bls.n	80099a8 <HAL_PWREx_EnableOverDrive+0x3c>
 80099d0:	e7f5      	b.n	80099be <HAL_PWREx_EnableOverDrive+0x52>
 80099d2:	bf00      	nop
 80099d4:	40023800 	.word	0x40023800
 80099d8:	40007000 	.word	0x40007000

080099dc <HAL_RCC_OscConfig>:
 80099dc:	e92d 41f3 	stmdb	sp!, {r0, r1, r4, r5, r6, r7, r8, lr}
 80099e0:	4604      	mov	r4, r0
 80099e2:	b908      	cbnz	r0, 80099e8 <HAL_RCC_OscConfig+0xc>
 80099e4:	2001      	movs	r0, #1
 80099e6:	e03f      	b.n	8009a68 <HAL_RCC_OscConfig+0x8c>
 80099e8:	6803      	ldr	r3, [r0, #0]
 80099ea:	07d8      	lsls	r0, r3, #31
 80099ec:	d410      	bmi.n	8009a10 <HAL_RCC_OscConfig+0x34>
 80099ee:	6823      	ldr	r3, [r4, #0]
 80099f0:	0799      	lsls	r1, r3, #30
 80099f2:	d460      	bmi.n	8009ab6 <HAL_RCC_OscConfig+0xda>
 80099f4:	6823      	ldr	r3, [r4, #0]
 80099f6:	0719      	lsls	r1, r3, #28
 80099f8:	f100 80a5 	bmi.w	8009b46 <HAL_RCC_OscConfig+0x16a>
 80099fc:	6823      	ldr	r3, [r4, #0]
 80099fe:	075a      	lsls	r2, r3, #29
 8009a00:	f100 80c6 	bmi.w	8009b90 <HAL_RCC_OscConfig+0x1b4>
 8009a04:	69a0      	ldr	r0, [r4, #24]
 8009a06:	2800      	cmp	r0, #0
 8009a08:	f040 8130 	bne.w	8009c6c <HAL_RCC_OscConfig+0x290>
 8009a0c:	2000      	movs	r0, #0
 8009a0e:	e02b      	b.n	8009a68 <HAL_RCC_OscConfig+0x8c>
 8009a10:	4b94      	ldr	r3, [pc, #592]	; (8009c64 <HAL_RCC_OscConfig+0x288>)
 8009a12:	689a      	ldr	r2, [r3, #8]
 8009a14:	f002 020c 	and.w	r2, r2, #12
 8009a18:	2a04      	cmp	r2, #4
 8009a1a:	d007      	beq.n	8009a2c <HAL_RCC_OscConfig+0x50>
 8009a1c:	689a      	ldr	r2, [r3, #8]
 8009a1e:	f002 020c 	and.w	r2, r2, #12
 8009a22:	2a08      	cmp	r2, #8
 8009a24:	d10a      	bne.n	8009a3c <HAL_RCC_OscConfig+0x60>
 8009a26:	685b      	ldr	r3, [r3, #4]
 8009a28:	025a      	lsls	r2, r3, #9
 8009a2a:	d507      	bpl.n	8009a3c <HAL_RCC_OscConfig+0x60>
 8009a2c:	4b8d      	ldr	r3, [pc, #564]	; (8009c64 <HAL_RCC_OscConfig+0x288>)
 8009a2e:	681b      	ldr	r3, [r3, #0]
 8009a30:	039b      	lsls	r3, r3, #14
 8009a32:	d5dc      	bpl.n	80099ee <HAL_RCC_OscConfig+0x12>
 8009a34:	6863      	ldr	r3, [r4, #4]
 8009a36:	2b00      	cmp	r3, #0
 8009a38:	d1d9      	bne.n	80099ee <HAL_RCC_OscConfig+0x12>
 8009a3a:	e7d3      	b.n	80099e4 <HAL_RCC_OscConfig+0x8>
 8009a3c:	6863      	ldr	r3, [r4, #4]
 8009a3e:	4d89      	ldr	r5, [pc, #548]	; (8009c64 <HAL_RCC_OscConfig+0x288>)
 8009a40:	f5b3 3f80 	cmp.w	r3, #65536	; 0x10000
 8009a44:	d113      	bne.n	8009a6e <HAL_RCC_OscConfig+0x92>
 8009a46:	682b      	ldr	r3, [r5, #0]
 8009a48:	f443 3380 	orr.w	r3, r3, #65536	; 0x10000
 8009a4c:	602b      	str	r3, [r5, #0]
 8009a4e:	f7ff f909 	bl	8008c64 <HAL_GetTick>
 8009a52:	4d84      	ldr	r5, [pc, #528]	; (8009c64 <HAL_RCC_OscConfig+0x288>)
 8009a54:	4606      	mov	r6, r0
 8009a56:	682b      	ldr	r3, [r5, #0]
 8009a58:	039f      	lsls	r7, r3, #14
 8009a5a:	d4c8      	bmi.n	80099ee <HAL_RCC_OscConfig+0x12>
 8009a5c:	f7ff f902 	bl	8008c64 <HAL_GetTick>
 8009a60:	1b80      	subs	r0, r0, r6
 8009a62:	2864      	cmp	r0, #100	; 0x64
 8009a64:	d9f7      	bls.n	8009a56 <HAL_RCC_OscConfig+0x7a>
 8009a66:	2003      	movs	r0, #3
 8009a68:	b002      	add	sp, #8
 8009a6a:	e8bd 81f0 	ldmia.w	sp!, {r4, r5, r6, r7, r8, pc}
 8009a6e:	b99b      	cbnz	r3, 8009a98 <HAL_RCC_OscConfig+0xbc>
 8009a70:	682b      	ldr	r3, [r5, #0]
 8009a72:	f423 3380 	bic.w	r3, r3, #65536	; 0x10000
 8009a76:	602b      	str	r3, [r5, #0]
 8009a78:	682b      	ldr	r3, [r5, #0]
 8009a7a:	f423 2380 	bic.w	r3, r3, #262144	; 0x40000
 8009a7e:	602b      	str	r3, [r5, #0]
 8009a80:	f7ff f8f0 	bl	8008c64 <HAL_GetTick>
 8009a84:	4606      	mov	r6, r0
 8009a86:	682b      	ldr	r3, [r5, #0]
 8009a88:	0398      	lsls	r0, r3, #14
 8009a8a:	d5b0      	bpl.n	80099ee <HAL_RCC_OscConfig+0x12>
 8009a8c:	f7ff f8ea 	bl	8008c64 <HAL_GetTick>
 8009a90:	1b80      	subs	r0, r0, r6
 8009a92:	2864      	cmp	r0, #100	; 0x64
 8009a94:	d9f7      	bls.n	8009a86 <HAL_RCC_OscConfig+0xaa>
 8009a96:	e7e6      	b.n	8009a66 <HAL_RCC_OscConfig+0x8a>
 8009a98:	f5b3 2fa0 	cmp.w	r3, #327680	; 0x50000
 8009a9c:	682b      	ldr	r3, [r5, #0]
 8009a9e:	d103      	bne.n	8009aa8 <HAL_RCC_OscConfig+0xcc>
 8009aa0:	f443 2380 	orr.w	r3, r3, #262144	; 0x40000
 8009aa4:	602b      	str	r3, [r5, #0]
 8009aa6:	e7ce      	b.n	8009a46 <HAL_RCC_OscConfig+0x6a>
 8009aa8:	f423 3380 	bic.w	r3, r3, #65536	; 0x10000
 8009aac:	602b      	str	r3, [r5, #0]
 8009aae:	682b      	ldr	r3, [r5, #0]
 8009ab0:	f423 2380 	bic.w	r3, r3, #262144	; 0x40000
 8009ab4:	e7ca      	b.n	8009a4c <HAL_RCC_OscConfig+0x70>
 8009ab6:	4b6b      	ldr	r3, [pc, #428]	; (8009c64 <HAL_RCC_OscConfig+0x288>)
 8009ab8:	689a      	ldr	r2, [r3, #8]
 8009aba:	f012 0f0c 	tst.w	r2, #12
 8009abe:	d007      	beq.n	8009ad0 <HAL_RCC_OscConfig+0xf4>
 8009ac0:	689a      	ldr	r2, [r3, #8]
 8009ac2:	f002 020c 	and.w	r2, r2, #12
 8009ac6:	2a08      	cmp	r2, #8
 8009ac8:	d111      	bne.n	8009aee <HAL_RCC_OscConfig+0x112>
 8009aca:	685b      	ldr	r3, [r3, #4]
 8009acc:	0259      	lsls	r1, r3, #9
 8009ace:	d40e      	bmi.n	8009aee <HAL_RCC_OscConfig+0x112>
 8009ad0:	4b64      	ldr	r3, [pc, #400]	; (8009c64 <HAL_RCC_OscConfig+0x288>)
 8009ad2:	681a      	ldr	r2, [r3, #0]
 8009ad4:	0792      	lsls	r2, r2, #30
 8009ad6:	d502      	bpl.n	8009ade <HAL_RCC_OscConfig+0x102>
 8009ad8:	68e2      	ldr	r2, [r4, #12]
 8009ada:	2a01      	cmp	r2, #1
 8009adc:	d182      	bne.n	80099e4 <HAL_RCC_OscConfig+0x8>
 8009ade:	681a      	ldr	r2, [r3, #0]
 8009ae0:	6921      	ldr	r1, [r4, #16]
 8009ae2:	f022 02f8 	bic.w	r2, r2, #248	; 0xf8
 8009ae6:	ea42 02c1 	orr.w	r2, r2, r1, lsl #3
 8009aea:	601a      	str	r2, [r3, #0]
 8009aec:	e782      	b.n	80099f4 <HAL_RCC_OscConfig+0x18>
 8009aee:	68e3      	ldr	r3, [r4, #12]
 8009af0:	4d5c      	ldr	r5, [pc, #368]	; (8009c64 <HAL_RCC_OscConfig+0x288>)
 8009af2:	b1bb      	cbz	r3, 8009b24 <HAL_RCC_OscConfig+0x148>
 8009af4:	682b      	ldr	r3, [r5, #0]
 8009af6:	f043 0301 	orr.w	r3, r3, #1
 8009afa:	602b      	str	r3, [r5, #0]
 8009afc:	f7ff f8b2 	bl	8008c64 <HAL_GetTick>
 8009b00:	4606      	mov	r6, r0
 8009b02:	682b      	ldr	r3, [r5, #0]
 8009b04:	079f      	lsls	r7, r3, #30
 8009b06:	d507      	bpl.n	8009b18 <HAL_RCC_OscConfig+0x13c>
 8009b08:	682b      	ldr	r3, [r5, #0]
 8009b0a:	6922      	ldr	r2, [r4, #16]
 8009b0c:	f023 03f8 	bic.w	r3, r3, #248	; 0xf8
 8009b10:	ea43 03c2 	orr.w	r3, r3, r2, lsl #3
 8009b14:	602b      	str	r3, [r5, #0]
 8009b16:	e76d      	b.n	80099f4 <HAL_RCC_OscConfig+0x18>
 8009b18:	f7ff f8a4 	bl	8008c64 <HAL_GetTick>
 8009b1c:	1b80      	subs	r0, r0, r6
 8009b1e:	2802      	cmp	r0, #2
 8009b20:	d9ef      	bls.n	8009b02 <HAL_RCC_OscConfig+0x126>
 8009b22:	e7a0      	b.n	8009a66 <HAL_RCC_OscConfig+0x8a>
 8009b24:	682b      	ldr	r3, [r5, #0]
 8009b26:	f023 0301 	bic.w	r3, r3, #1
 8009b2a:	602b      	str	r3, [r5, #0]
 8009b2c:	f7ff f89a 	bl	8008c64 <HAL_GetTick>
 8009b30:	4606      	mov	r6, r0
 8009b32:	682b      	ldr	r3, [r5, #0]
 8009b34:	0798      	lsls	r0, r3, #30
 8009b36:	f57f af5d 	bpl.w	80099f4 <HAL_RCC_OscConfig+0x18>
 8009b3a:	f7ff f893 	bl	8008c64 <HAL_GetTick>
 8009b3e:	1b80      	subs	r0, r0, r6
 8009b40:	2802      	cmp	r0, #2
 8009b42:	d9f6      	bls.n	8009b32 <HAL_RCC_OscConfig+0x156>
 8009b44:	e78f      	b.n	8009a66 <HAL_RCC_OscConfig+0x8a>
 8009b46:	6963      	ldr	r3, [r4, #20]
 8009b48:	4d46      	ldr	r5, [pc, #280]	; (8009c64 <HAL_RCC_OscConfig+0x288>)
 8009b4a:	b183      	cbz	r3, 8009b6e <HAL_RCC_OscConfig+0x192>
 8009b4c:	6f6b      	ldr	r3, [r5, #116]	; 0x74
 8009b4e:	f043 0301 	orr.w	r3, r3, #1
 8009b52:	676b      	str	r3, [r5, #116]	; 0x74
 8009b54:	f7ff f886 	bl	8008c64 <HAL_GetTick>
 8009b58:	4606      	mov	r6, r0
 8009b5a:	6f6b      	ldr	r3, [r5, #116]	; 0x74
 8009b5c:	079b      	lsls	r3, r3, #30
 8009b5e:	f53f af4d 	bmi.w	80099fc <HAL_RCC_OscConfig+0x20>
 8009b62:	f7ff f87f 	bl	8008c64 <HAL_GetTick>
 8009b66:	1b80      	subs	r0, r0, r6
 8009b68:	2802      	cmp	r0, #2
 8009b6a:	d9f6      	bls.n	8009b5a <HAL_RCC_OscConfig+0x17e>
 8009b6c:	e77b      	b.n	8009a66 <HAL_RCC_OscConfig+0x8a>
 8009b6e:	6f6b      	ldr	r3, [r5, #116]	; 0x74
 8009b70:	f023 0301 	bic.w	r3, r3, #1
 8009b74:	676b      	str	r3, [r5, #116]	; 0x74
 8009b76:	f7ff f875 	bl	8008c64 <HAL_GetTick>
 8009b7a:	4606      	mov	r6, r0
 8009b7c:	6f6b      	ldr	r3, [r5, #116]	; 0x74
 8009b7e:	079f      	lsls	r7, r3, #30
 8009b80:	f57f af3c 	bpl.w	80099fc <HAL_RCC_OscConfig+0x20>
 8009b84:	f7ff f86e 	bl	8008c64 <HAL_GetTick>
 8009b88:	1b80      	subs	r0, r0, r6
 8009b8a:	2802      	cmp	r0, #2
 8009b8c:	d9f6      	bls.n	8009b7c <HAL_RCC_OscConfig+0x1a0>
 8009b8e:	e76a      	b.n	8009a66 <HAL_RCC_OscConfig+0x8a>
 8009b90:	4b34      	ldr	r3, [pc, #208]	; (8009c64 <HAL_RCC_OscConfig+0x288>)
 8009b92:	6c1a      	ldr	r2, [r3, #64]	; 0x40
 8009b94:	00d0      	lsls	r0, r2, #3
 8009b96:	d427      	bmi.n	8009be8 <HAL_RCC_OscConfig+0x20c>
 8009b98:	6c1a      	ldr	r2, [r3, #64]	; 0x40
 8009b9a:	2601      	movs	r6, #1
 8009b9c:	f042 5280 	orr.w	r2, r2, #268435456	; 0x10000000
 8009ba0:	641a      	str	r2, [r3, #64]	; 0x40
 8009ba2:	6c1b      	ldr	r3, [r3, #64]	; 0x40
 8009ba4:	f003 5380 	and.w	r3, r3, #268435456	; 0x10000000
 8009ba8:	9301      	str	r3, [sp, #4]
 8009baa:	9b01      	ldr	r3, [sp, #4]
 8009bac:	4d2e      	ldr	r5, [pc, #184]	; (8009c68 <HAL_RCC_OscConfig+0x28c>)
 8009bae:	682b      	ldr	r3, [r5, #0]
 8009bb0:	05d9      	lsls	r1, r3, #23
 8009bb2:	d51b      	bpl.n	8009bec <HAL_RCC_OscConfig+0x210>
 8009bb4:	68a3      	ldr	r3, [r4, #8]
 8009bb6:	4d2b      	ldr	r5, [pc, #172]	; (8009c64 <HAL_RCC_OscConfig+0x288>)
 8009bb8:	2b01      	cmp	r3, #1
 8009bba:	d127      	bne.n	8009c0c <HAL_RCC_OscConfig+0x230>
 8009bbc:	6f2b      	ldr	r3, [r5, #112]	; 0x70
 8009bbe:	f043 0301 	orr.w	r3, r3, #1
 8009bc2:	672b      	str	r3, [r5, #112]	; 0x70
 8009bc4:	f241 3588 	movw	r5, #5000	; 0x1388
 8009bc8:	f7ff f84c 	bl	8008c64 <HAL_GetTick>
 8009bcc:	4f25      	ldr	r7, [pc, #148]	; (8009c64 <HAL_RCC_OscConfig+0x288>)
 8009bce:	4680      	mov	r8, r0
 8009bd0:	6f3b      	ldr	r3, [r7, #112]	; 0x70
 8009bd2:	079b      	lsls	r3, r3, #30
 8009bd4:	d53f      	bpl.n	8009c56 <HAL_RCC_OscConfig+0x27a>
 8009bd6:	2e00      	cmp	r6, #0
 8009bd8:	f43f af14 	beq.w	8009a04 <HAL_RCC_OscConfig+0x28>
 8009bdc:	4a21      	ldr	r2, [pc, #132]	; (8009c64 <HAL_RCC_OscConfig+0x288>)
 8009bde:	6c13      	ldr	r3, [r2, #64]	; 0x40
 8009be0:	f023 5380 	bic.w	r3, r3, #268435456	; 0x10000000
 8009be4:	6413      	str	r3, [r2, #64]	; 0x40
 8009be6:	e70d      	b.n	8009a04 <HAL_RCC_OscConfig+0x28>
 8009be8:	2600      	movs	r6, #0
 8009bea:	e7df      	b.n	8009bac <HAL_RCC_OscConfig+0x1d0>
 8009bec:	682b      	ldr	r3, [r5, #0]
 8009bee:	f443 7380 	orr.w	r3, r3, #256	; 0x100
 8009bf2:	602b      	str	r3, [r5, #0]
 8009bf4:	f7ff f836 	bl	8008c64 <HAL_GetTick>
 8009bf8:	4607      	mov	r7, r0
 8009bfa:	682b      	ldr	r3, [r5, #0]
 8009bfc:	05da      	lsls	r2, r3, #23
 8009bfe:	d4d9      	bmi.n	8009bb4 <HAL_RCC_OscConfig+0x1d8>
 8009c00:	f7ff f830 	bl	8008c64 <HAL_GetTick>
 8009c04:	1bc0      	subs	r0, r0, r7
 8009c06:	2864      	cmp	r0, #100	; 0x64
 8009c08:	d9f7      	bls.n	8009bfa <HAL_RCC_OscConfig+0x21e>
 8009c0a:	e72c      	b.n	8009a66 <HAL_RCC_OscConfig+0x8a>
 8009c0c:	b9ab      	cbnz	r3, 8009c3a <HAL_RCC_OscConfig+0x25e>
 8009c0e:	6f2b      	ldr	r3, [r5, #112]	; 0x70
 8009c10:	f241 3888 	movw	r8, #5000	; 0x1388
 8009c14:	f023 0301 	bic.w	r3, r3, #1
 8009c18:	672b      	str	r3, [r5, #112]	; 0x70
 8009c1a:	6f2b      	ldr	r3, [r5, #112]	; 0x70
 8009c1c:	f023 0304 	bic.w	r3, r3, #4
 8009c20:	672b      	str	r3, [r5, #112]	; 0x70
 8009c22:	f7ff f81f 	bl	8008c64 <HAL_GetTick>
 8009c26:	4607      	mov	r7, r0
 8009c28:	6f2b      	ldr	r3, [r5, #112]	; 0x70
 8009c2a:	0798      	lsls	r0, r3, #30
 8009c2c:	d5d3      	bpl.n	8009bd6 <HAL_RCC_OscConfig+0x1fa>
 8009c2e:	f7ff f819 	bl	8008c64 <HAL_GetTick>
 8009c32:	1bc0      	subs	r0, r0, r7
 8009c34:	4540      	cmp	r0, r8
 8009c36:	d9f7      	bls.n	8009c28 <HAL_RCC_OscConfig+0x24c>
 8009c38:	e715      	b.n	8009a66 <HAL_RCC_OscConfig+0x8a>
 8009c3a:	2b05      	cmp	r3, #5
 8009c3c:	6f2b      	ldr	r3, [r5, #112]	; 0x70
 8009c3e:	d103      	bne.n	8009c48 <HAL_RCC_OscConfig+0x26c>
 8009c40:	f043 0304 	orr.w	r3, r3, #4
 8009c44:	672b      	str	r3, [r5, #112]	; 0x70
 8009c46:	e7b9      	b.n	8009bbc <HAL_RCC_OscConfig+0x1e0>
 8009c48:	f023 0301 	bic.w	r3, r3, #1
 8009c4c:	672b      	str	r3, [r5, #112]	; 0x70
 8009c4e:	6f2b      	ldr	r3, [r5, #112]	; 0x70
 8009c50:	f023 0304 	bic.w	r3, r3, #4
 8009c54:	e7b5      	b.n	8009bc2 <HAL_RCC_OscConfig+0x1e6>
 8009c56:	f7ff f805 	bl	8008c64 <HAL_GetTick>
 8009c5a:	eba0 0008 	sub.w	r0, r0, r8
 8009c5e:	42a8      	cmp	r0, r5
 8009c60:	d9b6      	bls.n	8009bd0 <HAL_RCC_OscConfig+0x1f4>
 8009c62:	e700      	b.n	8009a66 <HAL_RCC_OscConfig+0x8a>
 8009c64:	40023800 	.word	0x40023800
 8009c68:	40007000 	.word	0x40007000
 8009c6c:	4d3c      	ldr	r5, [pc, #240]	; (8009d60 <HAL_RCC_OscConfig+0x384>)
 8009c6e:	68ab      	ldr	r3, [r5, #8]
 8009c70:	f003 030c 	and.w	r3, r3, #12
 8009c74:	2b08      	cmp	r3, #8
 8009c76:	d042      	beq.n	8009cfe <HAL_RCC_OscConfig+0x322>
 8009c78:	682b      	ldr	r3, [r5, #0]
 8009c7a:	2802      	cmp	r0, #2
 8009c7c:	f023 7380 	bic.w	r3, r3, #16777216	; 0x1000000
 8009c80:	602b      	str	r3, [r5, #0]
 8009c82:	d12f      	bne.n	8009ce4 <HAL_RCC_OscConfig+0x308>
 8009c84:	f7fe ffee 	bl	8008c64 <HAL_GetTick>
 8009c88:	4606      	mov	r6, r0
 8009c8a:	682b      	ldr	r3, [r5, #0]
 8009c8c:	0199      	lsls	r1, r3, #6
 8009c8e:	d423      	bmi.n	8009cd8 <HAL_RCC_OscConfig+0x2fc>
 8009c90:	e9d4 3207 	ldrd	r3, r2, [r4, #28]
 8009c94:	4313      	orrs	r3, r2
 8009c96:	6a62      	ldr	r2, [r4, #36]	; 0x24
 8009c98:	ea43 1382 	orr.w	r3, r3, r2, lsl #6
 8009c9c:	6ae2      	ldr	r2, [r4, #44]	; 0x2c
 8009c9e:	ea43 6302 	orr.w	r3, r3, r2, lsl #24
 8009ca2:	6b22      	ldr	r2, [r4, #48]	; 0x30
 8009ca4:	ea43 7302 	orr.w	r3, r3, r2, lsl #28
 8009ca8:	6aa2      	ldr	r2, [r4, #40]	; 0x28
 8009caa:	4c2d      	ldr	r4, [pc, #180]	; (8009d60 <HAL_RCC_OscConfig+0x384>)
 8009cac:	0852      	lsrs	r2, r2, #1
 8009cae:	3a01      	subs	r2, #1
 8009cb0:	ea43 4302 	orr.w	r3, r3, r2, lsl #16
 8009cb4:	606b      	str	r3, [r5, #4]
 8009cb6:	682b      	ldr	r3, [r5, #0]
 8009cb8:	f043 7380 	orr.w	r3, r3, #16777216	; 0x1000000
 8009cbc:	602b      	str	r3, [r5, #0]
 8009cbe:	f7fe ffd1 	bl	8008c64 <HAL_GetTick>
 8009cc2:	4605      	mov	r5, r0
 8009cc4:	6823      	ldr	r3, [r4, #0]
 8009cc6:	019a      	lsls	r2, r3, #6
 8009cc8:	f53f aea0 	bmi.w	8009a0c <HAL_RCC_OscConfig+0x30>
 8009ccc:	f7fe ffca 	bl	8008c64 <HAL_GetTick>
 8009cd0:	1b40      	subs	r0, r0, r5
 8009cd2:	2802      	cmp	r0, #2
 8009cd4:	d9f6      	bls.n	8009cc4 <HAL_RCC_OscConfig+0x2e8>
 8009cd6:	e6c6      	b.n	8009a66 <HAL_RCC_OscConfig+0x8a>
 8009cd8:	f7fe ffc4 	bl	8008c64 <HAL_GetTick>
 8009cdc:	1b80      	subs	r0, r0, r6
 8009cde:	2802      	cmp	r0, #2
 8009ce0:	d9d3      	bls.n	8009c8a <HAL_RCC_OscConfig+0x2ae>
 8009ce2:	e6c0      	b.n	8009a66 <HAL_RCC_OscConfig+0x8a>
 8009ce4:	f7fe ffbe 	bl	8008c64 <HAL_GetTick>
 8009ce8:	4604      	mov	r4, r0
 8009cea:	682b      	ldr	r3, [r5, #0]
 8009cec:	019b      	lsls	r3, r3, #6
 8009cee:	f57f ae8d 	bpl.w	8009a0c <HAL_RCC_OscConfig+0x30>
 8009cf2:	f7fe ffb7 	bl	8008c64 <HAL_GetTick>
 8009cf6:	1b00      	subs	r0, r0, r4
 8009cf8:	2802      	cmp	r0, #2
 8009cfa:	d9f6      	bls.n	8009cea <HAL_RCC_OscConfig+0x30e>
 8009cfc:	e6b3      	b.n	8009a66 <HAL_RCC_OscConfig+0x8a>
 8009cfe:	2801      	cmp	r0, #1
 8009d00:	686b      	ldr	r3, [r5, #4]
 8009d02:	f43f aeb1 	beq.w	8009a68 <HAL_RCC_OscConfig+0x8c>
 8009d06:	f403 0280 	and.w	r2, r3, #4194304	; 0x400000
 8009d0a:	69e1      	ldr	r1, [r4, #28]
 8009d0c:	428a      	cmp	r2, r1
 8009d0e:	f47f ae69 	bne.w	80099e4 <HAL_RCC_OscConfig+0x8>
 8009d12:	f003 023f 	and.w	r2, r3, #63	; 0x3f
 8009d16:	6a21      	ldr	r1, [r4, #32]
 8009d18:	428a      	cmp	r2, r1
 8009d1a:	f47f ae63 	bne.w	80099e4 <HAL_RCC_OscConfig+0x8>
 8009d1e:	f647 72c0 	movw	r2, #32704	; 0x7fc0
 8009d22:	6a61      	ldr	r1, [r4, #36]	; 0x24
 8009d24:	401a      	ands	r2, r3
 8009d26:	ebb2 1f81 	cmp.w	r2, r1, lsl #6
 8009d2a:	f47f ae5b 	bne.w	80099e4 <HAL_RCC_OscConfig+0x8>
 8009d2e:	6aa2      	ldr	r2, [r4, #40]	; 0x28
 8009d30:	f403 3140 	and.w	r1, r3, #196608	; 0x30000
 8009d34:	0852      	lsrs	r2, r2, #1
 8009d36:	3a01      	subs	r2, #1
 8009d38:	ebb1 4f02 	cmp.w	r1, r2, lsl #16
 8009d3c:	f47f ae52 	bne.w	80099e4 <HAL_RCC_OscConfig+0x8>
 8009d40:	f003 6270 	and.w	r2, r3, #251658240	; 0xf000000
 8009d44:	6ae1      	ldr	r1, [r4, #44]	; 0x2c
 8009d46:	ebb2 6f01 	cmp.w	r2, r1, lsl #24
 8009d4a:	f47f ae4b 	bne.w	80099e4 <HAL_RCC_OscConfig+0x8>
 8009d4e:	6b22      	ldr	r2, [r4, #48]	; 0x30
 8009d50:	f003 43e0 	and.w	r3, r3, #1879048192	; 0x70000000
 8009d54:	ebb3 7f02 	cmp.w	r3, r2, lsl #28
 8009d58:	bf14      	ite	ne
 8009d5a:	2001      	movne	r0, #1
 8009d5c:	2000      	moveq	r0, #0
 8009d5e:	e683      	b.n	8009a68 <HAL_RCC_OscConfig+0x8c>
 8009d60:	40023800 	.word	0x40023800

08009d64 <HAL_RCC_GetSysClockFreq>:
 8009d64:	4913      	ldr	r1, [pc, #76]	; (8009db4 <HAL_RCC_GetSysClockFreq+0x50>)
 8009d66:	b508      	push	{r3, lr}
 8009d68:	688b      	ldr	r3, [r1, #8]
 8009d6a:	f003 030c 	and.w	r3, r3, #12
 8009d6e:	2b04      	cmp	r3, #4
 8009d70:	d003      	beq.n	8009d7a <HAL_RCC_GetSysClockFreq+0x16>
 8009d72:	2b08      	cmp	r3, #8
 8009d74:	d003      	beq.n	8009d7e <HAL_RCC_GetSysClockFreq+0x1a>
 8009d76:	4810      	ldr	r0, [pc, #64]	; (8009db8 <HAL_RCC_GetSysClockFreq+0x54>)
 8009d78:	e000      	b.n	8009d7c <HAL_RCC_GetSysClockFreq+0x18>
 8009d7a:	4810      	ldr	r0, [pc, #64]	; (8009dbc <HAL_RCC_GetSysClockFreq+0x58>)
 8009d7c:	bd08      	pop	{r3, pc}
 8009d7e:	684a      	ldr	r2, [r1, #4]
 8009d80:	684b      	ldr	r3, [r1, #4]
 8009d82:	6849      	ldr	r1, [r1, #4]
 8009d84:	f002 023f 	and.w	r2, r2, #63	; 0x3f
 8009d88:	f413 0380 	ands.w	r3, r3, #4194304	; 0x400000
 8009d8c:	f3c1 1188 	ubfx	r1, r1, #6, #9
 8009d90:	bf1a      	itte	ne
 8009d92:	480a      	ldrne	r0, [pc, #40]	; (8009dbc <HAL_RCC_GetSysClockFreq+0x58>)
 8009d94:	2300      	movne	r3, #0
 8009d96:	4808      	ldreq	r0, [pc, #32]	; (8009db8 <HAL_RCC_GetSysClockFreq+0x54>)
 8009d98:	fba1 0100 	umull	r0, r1, r1, r0
 8009d9c:	f7fe fab8 	bl	8008310 <__aeabi_uldivmod>
 8009da0:	4b04      	ldr	r3, [pc, #16]	; (8009db4 <HAL_RCC_GetSysClockFreq+0x50>)
 8009da2:	685b      	ldr	r3, [r3, #4]
 8009da4:	f3c3 4301 	ubfx	r3, r3, #16, #2
 8009da8:	3301      	adds	r3, #1
 8009daa:	005b      	lsls	r3, r3, #1
 8009dac:	fbb0 f0f3 	udiv	r0, r0, r3
 8009db0:	e7e4      	b.n	8009d7c <HAL_RCC_GetSysClockFreq+0x18>
 8009db2:	bf00      	nop
 8009db4:	40023800 	.word	0x40023800
 8009db8:	00f42400 	.word	0x00f42400
 8009dbc:	007a1200 	.word	0x007a1200

08009dc0 <HAL_RCC_ClockConfig>:
 8009dc0:	e92d 41f0 	stmdb	sp!, {r4, r5, r6, r7, r8, lr}
 8009dc4:	460d      	mov	r5, r1
 8009dc6:	4604      	mov	r4, r0
 8009dc8:	b910      	cbnz	r0, 8009dd0 <HAL_RCC_ClockConfig+0x10>
 8009dca:	2001      	movs	r0, #1
 8009dcc:	e8bd 81f0 	ldmia.w	sp!, {r4, r5, r6, r7, r8, pc}
 8009dd0:	4a45      	ldr	r2, [pc, #276]	; (8009ee8 <HAL_RCC_ClockConfig+0x128>)
 8009dd2:	6813      	ldr	r3, [r2, #0]
 8009dd4:	f003 030f 	and.w	r3, r3, #15
 8009dd8:	428b      	cmp	r3, r1
 8009dda:	d328      	bcc.n	8009e2e <HAL_RCC_ClockConfig+0x6e>
 8009ddc:	6821      	ldr	r1, [r4, #0]
 8009dde:	078f      	lsls	r7, r1, #30
 8009de0:	d430      	bmi.n	8009e44 <HAL_RCC_ClockConfig+0x84>
 8009de2:	07c8      	lsls	r0, r1, #31
 8009de4:	d443      	bmi.n	8009e6e <HAL_RCC_ClockConfig+0xae>
 8009de6:	4a40      	ldr	r2, [pc, #256]	; (8009ee8 <HAL_RCC_ClockConfig+0x128>)
 8009de8:	6813      	ldr	r3, [r2, #0]
 8009dea:	f003 030f 	and.w	r3, r3, #15
 8009dee:	42ab      	cmp	r3, r5
 8009df0:	d866      	bhi.n	8009ec0 <HAL_RCC_ClockConfig+0x100>
 8009df2:	6822      	ldr	r2, [r4, #0]
 8009df4:	0751      	lsls	r1, r2, #29
 8009df6:	d46f      	bmi.n	8009ed8 <HAL_RCC_ClockConfig+0x118>
 8009df8:	0713      	lsls	r3, r2, #28
 8009dfa:	d507      	bpl.n	8009e0c <HAL_RCC_ClockConfig+0x4c>
 8009dfc:	4a3b      	ldr	r2, [pc, #236]	; (8009eec <HAL_RCC_ClockConfig+0x12c>)
 8009dfe:	6921      	ldr	r1, [r4, #16]
 8009e00:	6893      	ldr	r3, [r2, #8]
 8009e02:	f423 4360 	bic.w	r3, r3, #57344	; 0xe000
 8009e06:	ea43 03c1 	orr.w	r3, r3, r1, lsl #3
 8009e0a:	6093      	str	r3, [r2, #8]
 8009e0c:	f7ff ffaa 	bl	8009d64 <HAL_RCC_GetSysClockFreq>
 8009e10:	4b36      	ldr	r3, [pc, #216]	; (8009eec <HAL_RCC_ClockConfig+0x12c>)
 8009e12:	4a37      	ldr	r2, [pc, #220]	; (8009ef0 <HAL_RCC_ClockConfig+0x130>)
 8009e14:	689b      	ldr	r3, [r3, #8]
 8009e16:	f3c3 1303 	ubfx	r3, r3, #4, #4
 8009e1a:	5cd3      	ldrb	r3, [r2, r3]
 8009e1c:	40d8      	lsrs	r0, r3
 8009e1e:	4b35      	ldr	r3, [pc, #212]	; (8009ef4 <HAL_RCC_ClockConfig+0x134>)
 8009e20:	6018      	str	r0, [r3, #0]
 8009e22:	4b35      	ldr	r3, [pc, #212]	; (8009ef8 <HAL_RCC_ClockConfig+0x138>)
 8009e24:	6818      	ldr	r0, [r3, #0]
 8009e26:	f7fe fee1 	bl	8008bec <HAL_InitTick>
 8009e2a:	2000      	movs	r0, #0
 8009e2c:	e7ce      	b.n	8009dcc <HAL_RCC_ClockConfig+0xc>
 8009e2e:	6813      	ldr	r3, [r2, #0]
 8009e30:	f023 030f 	bic.w	r3, r3, #15
 8009e34:	430b      	orrs	r3, r1
 8009e36:	6013      	str	r3, [r2, #0]
 8009e38:	6813      	ldr	r3, [r2, #0]
 8009e3a:	f003 030f 	and.w	r3, r3, #15
 8009e3e:	428b      	cmp	r3, r1
 8009e40:	d1c3      	bne.n	8009dca <HAL_RCC_ClockConfig+0xa>
 8009e42:	e7cb      	b.n	8009ddc <HAL_RCC_ClockConfig+0x1c>
 8009e44:	f011 0f04 	tst.w	r1, #4
 8009e48:	4b28      	ldr	r3, [pc, #160]	; (8009eec <HAL_RCC_ClockConfig+0x12c>)
 8009e4a:	d003      	beq.n	8009e54 <HAL_RCC_ClockConfig+0x94>
 8009e4c:	689a      	ldr	r2, [r3, #8]
 8009e4e:	f442 52e0 	orr.w	r2, r2, #7168	; 0x1c00
 8009e52:	609a      	str	r2, [r3, #8]
 8009e54:	070e      	lsls	r6, r1, #28
 8009e56:	d503      	bpl.n	8009e60 <HAL_RCC_ClockConfig+0xa0>
 8009e58:	689a      	ldr	r2, [r3, #8]
 8009e5a:	f442 4260 	orr.w	r2, r2, #57344	; 0xe000
 8009e5e:	609a      	str	r2, [r3, #8]
 8009e60:	689a      	ldr	r2, [r3, #8]
 8009e62:	68a0      	ldr	r0, [r4, #8]
 8009e64:	f022 02f0 	bic.w	r2, r2, #240	; 0xf0
 8009e68:	4302      	orrs	r2, r0
 8009e6a:	609a      	str	r2, [r3, #8]
 8009e6c:	e7b9      	b.n	8009de2 <HAL_RCC_ClockConfig+0x22>
 8009e6e:	6861      	ldr	r1, [r4, #4]
 8009e70:	4b1e      	ldr	r3, [pc, #120]	; (8009eec <HAL_RCC_ClockConfig+0x12c>)
 8009e72:	2901      	cmp	r1, #1
 8009e74:	681a      	ldr	r2, [r3, #0]
 8009e76:	d11b      	bne.n	8009eb0 <HAL_RCC_ClockConfig+0xf0>
 8009e78:	f412 3f00 	tst.w	r2, #131072	; 0x20000
 8009e7c:	d0a5      	beq.n	8009dca <HAL_RCC_ClockConfig+0xa>
 8009e7e:	689a      	ldr	r2, [r3, #8]
 8009e80:	f241 3888 	movw	r8, #5000	; 0x1388
 8009e84:	4e19      	ldr	r6, [pc, #100]	; (8009eec <HAL_RCC_ClockConfig+0x12c>)
 8009e86:	f022 0203 	bic.w	r2, r2, #3
 8009e8a:	430a      	orrs	r2, r1
 8009e8c:	609a      	str	r2, [r3, #8]
 8009e8e:	f7fe fee9 	bl	8008c64 <HAL_GetTick>
 8009e92:	4607      	mov	r7, r0
 8009e94:	68b3      	ldr	r3, [r6, #8]
 8009e96:	6862      	ldr	r2, [r4, #4]
 8009e98:	f003 030c 	and.w	r3, r3, #12
 8009e9c:	ebb3 0f82 	cmp.w	r3, r2, lsl #2
 8009ea0:	d0a1      	beq.n	8009de6 <HAL_RCC_ClockConfig+0x26>
 8009ea2:	f7fe fedf 	bl	8008c64 <HAL_GetTick>
 8009ea6:	1bc0      	subs	r0, r0, r7
 8009ea8:	4540      	cmp	r0, r8
 8009eaa:	d9f3      	bls.n	8009e94 <HAL_RCC_ClockConfig+0xd4>
 8009eac:	2003      	movs	r0, #3
 8009eae:	e78d      	b.n	8009dcc <HAL_RCC_ClockConfig+0xc>
 8009eb0:	2902      	cmp	r1, #2
 8009eb2:	d102      	bne.n	8009eba <HAL_RCC_ClockConfig+0xfa>
 8009eb4:	f012 7f00 	tst.w	r2, #33554432	; 0x2000000
 8009eb8:	e7e0      	b.n	8009e7c <HAL_RCC_ClockConfig+0xbc>
 8009eba:	f012 0f02 	tst.w	r2, #2
 8009ebe:	e7dd      	b.n	8009e7c <HAL_RCC_ClockConfig+0xbc>
 8009ec0:	6813      	ldr	r3, [r2, #0]
 8009ec2:	f023 030f 	bic.w	r3, r3, #15
 8009ec6:	432b      	orrs	r3, r5
 8009ec8:	6013      	str	r3, [r2, #0]
 8009eca:	6813      	ldr	r3, [r2, #0]
 8009ecc:	f003 030f 	and.w	r3, r3, #15
 8009ed0:	42ab      	cmp	r3, r5
 8009ed2:	f47f af7a 	bne.w	8009dca <HAL_RCC_ClockConfig+0xa>
 8009ed6:	e78c      	b.n	8009df2 <HAL_RCC_ClockConfig+0x32>
 8009ed8:	4904      	ldr	r1, [pc, #16]	; (8009eec <HAL_RCC_ClockConfig+0x12c>)
 8009eda:	68e0      	ldr	r0, [r4, #12]
 8009edc:	688b      	ldr	r3, [r1, #8]
 8009ede:	f423 53e0 	bic.w	r3, r3, #7168	; 0x1c00
 8009ee2:	4303      	orrs	r3, r0
 8009ee4:	608b      	str	r3, [r1, #8]
 8009ee6:	e787      	b.n	8009df8 <HAL_RCC_ClockConfig+0x38>
 8009ee8:	40023c00 	.word	0x40023c00
 8009eec:	40023800 	.word	0x40023800
 8009ef0:	080149e0 	.word	0x080149e0
 8009ef4:	20000040 	.word	0x20000040
 8009ef8:	20000048 	.word	0x20000048

08009efc <HAL_RCC_GetHCLKFreq>:
 8009efc:	4b01      	ldr	r3, [pc, #4]	; (8009f04 <HAL_RCC_GetHCLKFreq+0x8>)
 8009efe:	6818      	ldr	r0, [r3, #0]
 8009f00:	4770      	bx	lr
 8009f02:	bf00      	nop
 8009f04:	20000040 	.word	0x20000040

08009f08 <HAL_RCC_GetPCLK1Freq>:
 8009f08:	4b04      	ldr	r3, [pc, #16]	; (8009f1c <HAL_RCC_GetPCLK1Freq+0x14>)
 8009f0a:	4a05      	ldr	r2, [pc, #20]	; (8009f20 <HAL_RCC_GetPCLK1Freq+0x18>)
 8009f0c:	689b      	ldr	r3, [r3, #8]
 8009f0e:	f3c3 2382 	ubfx	r3, r3, #10, #3
 8009f12:	5cd3      	ldrb	r3, [r2, r3]
 8009f14:	4a03      	ldr	r2, [pc, #12]	; (8009f24 <HAL_RCC_GetPCLK1Freq+0x1c>)
 8009f16:	6810      	ldr	r0, [r2, #0]
 8009f18:	40d8      	lsrs	r0, r3
 8009f1a:	4770      	bx	lr
 8009f1c:	40023800 	.word	0x40023800
 8009f20:	080149f0 	.word	0x080149f0
 8009f24:	20000040 	.word	0x20000040

08009f28 <HAL_RCC_GetPCLK2Freq>:
 8009f28:	4b04      	ldr	r3, [pc, #16]	; (8009f3c <HAL_RCC_GetPCLK2Freq+0x14>)
 8009f2a:	4a05      	ldr	r2, [pc, #20]	; (8009f40 <HAL_RCC_GetPCLK2Freq+0x18>)
 8009f2c:	689b      	ldr	r3, [r3, #8]
 8009f2e:	f3c3 3342 	ubfx	r3, r3, #13, #3
 8009f32:	5cd3      	ldrb	r3, [r2, r3]
 8009f34:	4a03      	ldr	r2, [pc, #12]	; (8009f44 <HAL_RCC_GetPCLK2Freq+0x1c>)
 8009f36:	6810      	ldr	r0, [r2, #0]
 8009f38:	40d8      	lsrs	r0, r3
 8009f3a:	4770      	bx	lr
 8009f3c:	40023800 	.word	0x40023800
 8009f40:	080149f0 	.word	0x080149f0
 8009f44:	20000040 	.word	0x20000040

08009f48 <HAL_RCCEx_PeriphCLKConfig>:
 8009f48:	e92d 43f7 	stmdb	sp!, {r0, r1, r2, r4, r5, r6, r7, r8, r9, lr}
 8009f4c:	6802      	ldr	r2, [r0, #0]
 8009f4e:	4604      	mov	r4, r0
 8009f50:	f012 0601 	ands.w	r6, r2, #1
 8009f54:	d00b      	beq.n	8009f6e <HAL_RCCEx_PeriphCLKConfig+0x26>
 8009f56:	4bba      	ldr	r3, [pc, #744]	; (800a240 <HAL_RCCEx_PeriphCLKConfig+0x2f8>)
 8009f58:	6899      	ldr	r1, [r3, #8]
 8009f5a:	f421 0100 	bic.w	r1, r1, #8388608	; 0x800000
 8009f5e:	6099      	str	r1, [r3, #8]
 8009f60:	6b46      	ldr	r6, [r0, #52]	; 0x34
 8009f62:	6899      	ldr	r1, [r3, #8]
 8009f64:	4331      	orrs	r1, r6
 8009f66:	fab6 f686 	clz	r6, r6
 8009f6a:	0976      	lsrs	r6, r6, #5
 8009f6c:	6099      	str	r1, [r3, #8]
 8009f6e:	f412 2500 	ands.w	r5, r2, #524288	; 0x80000
 8009f72:	d012      	beq.n	8009f9a <HAL_RCCEx_PeriphCLKConfig+0x52>
 8009f74:	49b2      	ldr	r1, [pc, #712]	; (800a240 <HAL_RCCEx_PeriphCLKConfig+0x2f8>)
 8009f76:	6be5      	ldr	r5, [r4, #60]	; 0x3c
 8009f78:	f8d1 308c 	ldr.w	r3, [r1, #140]	; 0x8c
 8009f7c:	f5b5 1f80 	cmp.w	r5, #1048576	; 0x100000
 8009f80:	f423 1340 	bic.w	r3, r3, #3145728	; 0x300000
 8009f84:	bf08      	it	eq
 8009f86:	2601      	moveq	r6, #1
 8009f88:	ea43 0305 	orr.w	r3, r3, r5
 8009f8c:	bf16      	itet	ne
 8009f8e:	fab5 f585 	clzne	r5, r5
 8009f92:	2500      	moveq	r5, #0
 8009f94:	096d      	lsrne	r5, r5, #5
 8009f96:	f8c1 308c 	str.w	r3, [r1, #140]	; 0x8c
 8009f9a:	02d7      	lsls	r7, r2, #11
 8009f9c:	d510      	bpl.n	8009fc0 <HAL_RCCEx_PeriphCLKConfig+0x78>
 8009f9e:	48a8      	ldr	r0, [pc, #672]	; (800a240 <HAL_RCCEx_PeriphCLKConfig+0x2f8>)
 8009fa0:	6c21      	ldr	r1, [r4, #64]	; 0x40
 8009fa2:	f8d0 308c 	ldr.w	r3, [r0, #140]	; 0x8c
 8009fa6:	f5b1 0f80 	cmp.w	r1, #4194304	; 0x400000
 8009faa:	f423 0340 	bic.w	r3, r3, #12582912	; 0xc00000
 8009fae:	ea43 0301 	orr.w	r3, r3, r1
 8009fb2:	f8c0 308c 	str.w	r3, [r0, #140]	; 0x8c
 8009fb6:	f000 81a9 	beq.w	800a30c <HAL_RCCEx_PeriphCLKConfig+0x3c4>
 8009fba:	2900      	cmp	r1, #0
 8009fbc:	bf08      	it	eq
 8009fbe:	2501      	moveq	r5, #1
 8009fc0:	f012 7f80 	tst.w	r2, #16777216	; 0x1000000
 8009fc4:	bf18      	it	ne
 8009fc6:	2601      	movne	r6, #1
 8009fc8:	0690      	lsls	r0, r2, #26
 8009fca:	d531      	bpl.n	800a030 <HAL_RCCEx_PeriphCLKConfig+0xe8>
 8009fcc:	4b9c      	ldr	r3, [pc, #624]	; (800a240 <HAL_RCCEx_PeriphCLKConfig+0x2f8>)
 8009fce:	4f9d      	ldr	r7, [pc, #628]	; (800a244 <HAL_RCCEx_PeriphCLKConfig+0x2fc>)
 8009fd0:	6c1a      	ldr	r2, [r3, #64]	; 0x40
 8009fd2:	f042 5280 	orr.w	r2, r2, #268435456	; 0x10000000
 8009fd6:	641a      	str	r2, [r3, #64]	; 0x40
 8009fd8:	6c1b      	ldr	r3, [r3, #64]	; 0x40
 8009fda:	f003 5380 	and.w	r3, r3, #268435456	; 0x10000000
 8009fde:	9301      	str	r3, [sp, #4]
 8009fe0:	9b01      	ldr	r3, [sp, #4]
 8009fe2:	683b      	ldr	r3, [r7, #0]
 8009fe4:	f443 7380 	orr.w	r3, r3, #256	; 0x100
 8009fe8:	603b      	str	r3, [r7, #0]
 8009fea:	f7fe fe3b 	bl	8008c64 <HAL_GetTick>
 8009fee:	4680      	mov	r8, r0
 8009ff0:	683b      	ldr	r3, [r7, #0]
 8009ff2:	05d9      	lsls	r1, r3, #23
 8009ff4:	f140 818c 	bpl.w	800a310 <HAL_RCCEx_PeriphCLKConfig+0x3c8>
 8009ff8:	4f91      	ldr	r7, [pc, #580]	; (800a240 <HAL_RCCEx_PeriphCLKConfig+0x2f8>)
 8009ffa:	6f3b      	ldr	r3, [r7, #112]	; 0x70
 8009ffc:	f413 7340 	ands.w	r3, r3, #768	; 0x300
 800a000:	f040 8191 	bne.w	800a326 <HAL_RCCEx_PeriphCLKConfig+0x3de>
 800a004:	6b23      	ldr	r3, [r4, #48]	; 0x30
 800a006:	f403 7240 	and.w	r2, r3, #768	; 0x300
 800a00a:	f5b2 7f40 	cmp.w	r2, #768	; 0x300
 800a00e:	4a8c      	ldr	r2, [pc, #560]	; (800a240 <HAL_RCCEx_PeriphCLKConfig+0x2f8>)
 800a010:	f040 81af 	bne.w	800a372 <HAL_RCCEx_PeriphCLKConfig+0x42a>
 800a014:	6891      	ldr	r1, [r2, #8]
 800a016:	f023 4070 	bic.w	r0, r3, #4026531840	; 0xf0000000
 800a01a:	f421 11f8 	bic.w	r1, r1, #2031616	; 0x1f0000
 800a01e:	f420 7040 	bic.w	r0, r0, #768	; 0x300
 800a022:	4301      	orrs	r1, r0
 800a024:	6091      	str	r1, [r2, #8]
 800a026:	f3c3 030b 	ubfx	r3, r3, #0, #12
 800a02a:	6f11      	ldr	r1, [r2, #112]	; 0x70
 800a02c:	430b      	orrs	r3, r1
 800a02e:	6713      	str	r3, [r2, #112]	; 0x70
 800a030:	6823      	ldr	r3, [r4, #0]
 800a032:	06df      	lsls	r7, r3, #27
 800a034:	d50c      	bpl.n	800a050 <HAL_RCCEx_PeriphCLKConfig+0x108>
 800a036:	4a82      	ldr	r2, [pc, #520]	; (800a240 <HAL_RCCEx_PeriphCLKConfig+0x2f8>)
 800a038:	f8d2 108c 	ldr.w	r1, [r2, #140]	; 0x8c
 800a03c:	f021 7180 	bic.w	r1, r1, #16777216	; 0x1000000
 800a040:	f8c2 108c 	str.w	r1, [r2, #140]	; 0x8c
 800a044:	f8d2 108c 	ldr.w	r1, [r2, #140]	; 0x8c
 800a048:	6ba0      	ldr	r0, [r4, #56]	; 0x38
 800a04a:	4301      	orrs	r1, r0
 800a04c:	f8c2 108c 	str.w	r1, [r2, #140]	; 0x8c
 800a050:	0458      	lsls	r0, r3, #17
 800a052:	d508      	bpl.n	800a066 <HAL_RCCEx_PeriphCLKConfig+0x11e>
 800a054:	497a      	ldr	r1, [pc, #488]	; (800a240 <HAL_RCCEx_PeriphCLKConfig+0x2f8>)
 800a056:	6e60      	ldr	r0, [r4, #100]	; 0x64
 800a058:	f8d1 2090 	ldr.w	r2, [r1, #144]	; 0x90
 800a05c:	f422 3240 	bic.w	r2, r2, #196608	; 0x30000
 800a060:	4302      	orrs	r2, r0
 800a062:	f8c1 2090 	str.w	r2, [r1, #144]	; 0x90
 800a066:	0419      	lsls	r1, r3, #16
 800a068:	d508      	bpl.n	800a07c <HAL_RCCEx_PeriphCLKConfig+0x134>
 800a06a:	4975      	ldr	r1, [pc, #468]	; (800a240 <HAL_RCCEx_PeriphCLKConfig+0x2f8>)
 800a06c:	6ea0      	ldr	r0, [r4, #104]	; 0x68
 800a06e:	f8d1 2090 	ldr.w	r2, [r1, #144]	; 0x90
 800a072:	f422 2240 	bic.w	r2, r2, #786432	; 0xc0000
 800a076:	4302      	orrs	r2, r0
 800a078:	f8c1 2090 	str.w	r2, [r1, #144]	; 0x90
 800a07c:	03da      	lsls	r2, r3, #15
 800a07e:	d508      	bpl.n	800a092 <HAL_RCCEx_PeriphCLKConfig+0x14a>
 800a080:	496f      	ldr	r1, [pc, #444]	; (800a240 <HAL_RCCEx_PeriphCLKConfig+0x2f8>)
 800a082:	6ee0      	ldr	r0, [r4, #108]	; 0x6c
 800a084:	f8d1 2090 	ldr.w	r2, [r1, #144]	; 0x90
 800a088:	f422 1240 	bic.w	r2, r2, #3145728	; 0x300000
 800a08c:	4302      	orrs	r2, r0
 800a08e:	f8c1 2090 	str.w	r2, [r1, #144]	; 0x90
 800a092:	039f      	lsls	r7, r3, #14
 800a094:	d508      	bpl.n	800a0a8 <HAL_RCCEx_PeriphCLKConfig+0x160>
 800a096:	496a      	ldr	r1, [pc, #424]	; (800a240 <HAL_RCCEx_PeriphCLKConfig+0x2f8>)
 800a098:	6f20      	ldr	r0, [r4, #112]	; 0x70
 800a09a:	f8d1 2090 	ldr.w	r2, [r1, #144]	; 0x90
 800a09e:	f422 0240 	bic.w	r2, r2, #12582912	; 0xc00000
 800a0a2:	4302      	orrs	r2, r0
 800a0a4:	f8c1 2090 	str.w	r2, [r1, #144]	; 0x90
 800a0a8:	0658      	lsls	r0, r3, #25
 800a0aa:	d508      	bpl.n	800a0be <HAL_RCCEx_PeriphCLKConfig+0x176>
 800a0ac:	4964      	ldr	r1, [pc, #400]	; (800a240 <HAL_RCCEx_PeriphCLKConfig+0x2f8>)
 800a0ae:	6c60      	ldr	r0, [r4, #68]	; 0x44
 800a0b0:	f8d1 2090 	ldr.w	r2, [r1, #144]	; 0x90
 800a0b4:	f022 0203 	bic.w	r2, r2, #3
 800a0b8:	4302      	orrs	r2, r0
 800a0ba:	f8c1 2090 	str.w	r2, [r1, #144]	; 0x90
 800a0be:	0619      	lsls	r1, r3, #24
 800a0c0:	d508      	bpl.n	800a0d4 <HAL_RCCEx_PeriphCLKConfig+0x18c>
 800a0c2:	495f      	ldr	r1, [pc, #380]	; (800a240 <HAL_RCCEx_PeriphCLKConfig+0x2f8>)
 800a0c4:	6ca0      	ldr	r0, [r4, #72]	; 0x48
 800a0c6:	f8d1 2090 	ldr.w	r2, [r1, #144]	; 0x90
 800a0ca:	f022 020c 	bic.w	r2, r2, #12
 800a0ce:	4302      	orrs	r2, r0
 800a0d0:	f8c1 2090 	str.w	r2, [r1, #144]	; 0x90
 800a0d4:	05da      	lsls	r2, r3, #23
 800a0d6:	d508      	bpl.n	800a0ea <HAL_RCCEx_PeriphCLKConfig+0x1a2>
 800a0d8:	4959      	ldr	r1, [pc, #356]	; (800a240 <HAL_RCCEx_PeriphCLKConfig+0x2f8>)
 800a0da:	6ce0      	ldr	r0, [r4, #76]	; 0x4c
 800a0dc:	f8d1 2090 	ldr.w	r2, [r1, #144]	; 0x90
 800a0e0:	f022 0230 	bic.w	r2, r2, #48	; 0x30
 800a0e4:	4302      	orrs	r2, r0
 800a0e6:	f8c1 2090 	str.w	r2, [r1, #144]	; 0x90
 800a0ea:	059f      	lsls	r7, r3, #22
 800a0ec:	d508      	bpl.n	800a100 <HAL_RCCEx_PeriphCLKConfig+0x1b8>
 800a0ee:	4954      	ldr	r1, [pc, #336]	; (800a240 <HAL_RCCEx_PeriphCLKConfig+0x2f8>)
 800a0f0:	6d20      	ldr	r0, [r4, #80]	; 0x50
 800a0f2:	f8d1 2090 	ldr.w	r2, [r1, #144]	; 0x90
 800a0f6:	f022 02c0 	bic.w	r2, r2, #192	; 0xc0
 800a0fa:	4302      	orrs	r2, r0
 800a0fc:	f8c1 2090 	str.w	r2, [r1, #144]	; 0x90
 800a100:	0558      	lsls	r0, r3, #21
 800a102:	d508      	bpl.n	800a116 <HAL_RCCEx_PeriphCLKConfig+0x1ce>
 800a104:	494e      	ldr	r1, [pc, #312]	; (800a240 <HAL_RCCEx_PeriphCLKConfig+0x2f8>)
 800a106:	6d60      	ldr	r0, [r4, #84]	; 0x54
 800a108:	f8d1 2090 	ldr.w	r2, [r1, #144]	; 0x90
 800a10c:	f422 7240 	bic.w	r2, r2, #768	; 0x300
 800a110:	4302      	orrs	r2, r0
 800a112:	f8c1 2090 	str.w	r2, [r1, #144]	; 0x90
 800a116:	0519      	lsls	r1, r3, #20
 800a118:	d508      	bpl.n	800a12c <HAL_RCCEx_PeriphCLKConfig+0x1e4>
 800a11a:	4949      	ldr	r1, [pc, #292]	; (800a240 <HAL_RCCEx_PeriphCLKConfig+0x2f8>)
 800a11c:	6da0      	ldr	r0, [r4, #88]	; 0x58
 800a11e:	f8d1 2090 	ldr.w	r2, [r1, #144]	; 0x90
 800a122:	f422 6240 	bic.w	r2, r2, #3072	; 0xc00
 800a126:	4302      	orrs	r2, r0
 800a128:	f8c1 2090 	str.w	r2, [r1, #144]	; 0x90
 800a12c:	04da      	lsls	r2, r3, #19
 800a12e:	d508      	bpl.n	800a142 <HAL_RCCEx_PeriphCLKConfig+0x1fa>
 800a130:	4943      	ldr	r1, [pc, #268]	; (800a240 <HAL_RCCEx_PeriphCLKConfig+0x2f8>)
 800a132:	6de0      	ldr	r0, [r4, #92]	; 0x5c
 800a134:	f8d1 2090 	ldr.w	r2, [r1, #144]	; 0x90
 800a138:	f422 5240 	bic.w	r2, r2, #12288	; 0x3000
 800a13c:	4302      	orrs	r2, r0
 800a13e:	f8c1 2090 	str.w	r2, [r1, #144]	; 0x90
 800a142:	049f      	lsls	r7, r3, #18
 800a144:	d508      	bpl.n	800a158 <HAL_RCCEx_PeriphCLKConfig+0x210>
 800a146:	493e      	ldr	r1, [pc, #248]	; (800a240 <HAL_RCCEx_PeriphCLKConfig+0x2f8>)
 800a148:	6e20      	ldr	r0, [r4, #96]	; 0x60
 800a14a:	f8d1 2090 	ldr.w	r2, [r1, #144]	; 0x90
 800a14e:	f422 4240 	bic.w	r2, r2, #49152	; 0xc000
 800a152:	4302      	orrs	r2, r0
 800a154:	f8c1 2090 	str.w	r2, [r1, #144]	; 0x90
 800a158:	0258      	lsls	r0, r3, #9
 800a15a:	d508      	bpl.n	800a16e <HAL_RCCEx_PeriphCLKConfig+0x226>
 800a15c:	4938      	ldr	r1, [pc, #224]	; (800a240 <HAL_RCCEx_PeriphCLKConfig+0x2f8>)
 800a15e:	6fa0      	ldr	r0, [r4, #120]	; 0x78
 800a160:	f8d1 2090 	ldr.w	r2, [r1, #144]	; 0x90
 800a164:	f022 6280 	bic.w	r2, r2, #67108864	; 0x4000000
 800a168:	4302      	orrs	r2, r0
 800a16a:	f8c1 2090 	str.w	r2, [r1, #144]	; 0x90
 800a16e:	0299      	lsls	r1, r3, #10
 800a170:	d50c      	bpl.n	800a18c <HAL_RCCEx_PeriphCLKConfig+0x244>
 800a172:	4833      	ldr	r0, [pc, #204]	; (800a240 <HAL_RCCEx_PeriphCLKConfig+0x2f8>)
 800a174:	6fe1      	ldr	r1, [r4, #124]	; 0x7c
 800a176:	f8d0 2090 	ldr.w	r2, [r0, #144]	; 0x90
 800a17a:	f1b1 6f00 	cmp.w	r1, #134217728	; 0x8000000
 800a17e:	f022 6200 	bic.w	r2, r2, #134217728	; 0x8000000
 800a182:	bf08      	it	eq
 800a184:	2501      	moveq	r5, #1
 800a186:	430a      	orrs	r2, r1
 800a188:	f8c0 2090 	str.w	r2, [r0, #144]	; 0x90
 800a18c:	f013 0f08 	tst.w	r3, #8
 800a190:	bf18      	it	ne
 800a192:	2501      	movne	r5, #1
 800a194:	035a      	lsls	r2, r3, #13
 800a196:	d508      	bpl.n	800a1aa <HAL_RCCEx_PeriphCLKConfig+0x262>
 800a198:	4929      	ldr	r1, [pc, #164]	; (800a240 <HAL_RCCEx_PeriphCLKConfig+0x2f8>)
 800a19a:	6f60      	ldr	r0, [r4, #116]	; 0x74
 800a19c:	f8d1 2090 	ldr.w	r2, [r1, #144]	; 0x90
 800a1a0:	f022 7240 	bic.w	r2, r2, #50331648	; 0x3000000
 800a1a4:	4302      	orrs	r2, r0
 800a1a6:	f8c1 2090 	str.w	r2, [r1, #144]	; 0x90
 800a1aa:	021f      	lsls	r7, r3, #8
 800a1ac:	d509      	bpl.n	800a1c2 <HAL_RCCEx_PeriphCLKConfig+0x27a>
 800a1ae:	4924      	ldr	r1, [pc, #144]	; (800a240 <HAL_RCCEx_PeriphCLKConfig+0x2f8>)
 800a1b0:	f8d4 0080 	ldr.w	r0, [r4, #128]	; 0x80
 800a1b4:	f8d1 2090 	ldr.w	r2, [r1, #144]	; 0x90
 800a1b8:	f022 5280 	bic.w	r2, r2, #268435456	; 0x10000000
 800a1bc:	4302      	orrs	r2, r0
 800a1be:	f8c1 2090 	str.w	r2, [r1, #144]	; 0x90
 800a1c2:	0158      	lsls	r0, r3, #5
 800a1c4:	d509      	bpl.n	800a1da <HAL_RCCEx_PeriphCLKConfig+0x292>
 800a1c6:	491e      	ldr	r1, [pc, #120]	; (800a240 <HAL_RCCEx_PeriphCLKConfig+0x2f8>)
 800a1c8:	f8d4 0084 	ldr.w	r0, [r4, #132]	; 0x84
 800a1cc:	f8d1 2090 	ldr.w	r2, [r1, #144]	; 0x90
 800a1d0:	f022 5200 	bic.w	r2, r2, #536870912	; 0x20000000
 800a1d4:	4302      	orrs	r2, r0
 800a1d6:	f8c1 2090 	str.w	r2, [r1, #144]	; 0x90
 800a1da:	0119      	lsls	r1, r3, #4
 800a1dc:	d509      	bpl.n	800a1f2 <HAL_RCCEx_PeriphCLKConfig+0x2aa>
 800a1de:	4918      	ldr	r1, [pc, #96]	; (800a240 <HAL_RCCEx_PeriphCLKConfig+0x2f8>)
 800a1e0:	f8d4 0088 	ldr.w	r0, [r4, #136]	; 0x88
 800a1e4:	f8d1 208c 	ldr.w	r2, [r1, #140]	; 0x8c
 800a1e8:	f022 7200 	bic.w	r2, r2, #33554432	; 0x2000000
 800a1ec:	4302      	orrs	r2, r0
 800a1ee:	f8c1 208c 	str.w	r2, [r1, #140]	; 0x8c
 800a1f2:	00da      	lsls	r2, r3, #3
 800a1f4:	d509      	bpl.n	800a20a <HAL_RCCEx_PeriphCLKConfig+0x2c2>
 800a1f6:	4912      	ldr	r1, [pc, #72]	; (800a240 <HAL_RCCEx_PeriphCLKConfig+0x2f8>)
 800a1f8:	f8d4 008c 	ldr.w	r0, [r4, #140]	; 0x8c
 800a1fc:	f8d1 208c 	ldr.w	r2, [r1, #140]	; 0x8c
 800a200:	f022 6280 	bic.w	r2, r2, #67108864	; 0x4000000
 800a204:	4302      	orrs	r2, r0
 800a206:	f8c1 208c 	str.w	r2, [r1, #140]	; 0x8c
 800a20a:	2e01      	cmp	r6, #1
 800a20c:	f000 80b5 	beq.w	800a37a <HAL_RCCEx_PeriphCLKConfig+0x432>
 800a210:	f1b3 7f00 	cmp.w	r3, #33554432	; 0x2000000
 800a214:	f000 80b1 	beq.w	800a37a <HAL_RCCEx_PeriphCLKConfig+0x432>
 800a218:	2d01      	cmp	r5, #1
 800a21a:	d175      	bne.n	800a308 <HAL_RCCEx_PeriphCLKConfig+0x3c0>
 800a21c:	4d08      	ldr	r5, [pc, #32]	; (800a240 <HAL_RCCEx_PeriphCLKConfig+0x2f8>)
 800a21e:	682b      	ldr	r3, [r5, #0]
 800a220:	f023 5380 	bic.w	r3, r3, #268435456	; 0x10000000
 800a224:	602b      	str	r3, [r5, #0]
 800a226:	f7fe fd1d 	bl	8008c64 <HAL_GetTick>
 800a22a:	4606      	mov	r6, r0
 800a22c:	682b      	ldr	r3, [r5, #0]
 800a22e:	009f      	lsls	r7, r3, #2
 800a230:	f100 8127 	bmi.w	800a482 <HAL_RCCEx_PeriphCLKConfig+0x53a>
 800a234:	6821      	ldr	r1, [r4, #0]
 800a236:	030e      	lsls	r6, r1, #12
 800a238:	d506      	bpl.n	800a248 <HAL_RCCEx_PeriphCLKConfig+0x300>
 800a23a:	6be3      	ldr	r3, [r4, #60]	; 0x3c
 800a23c:	b143      	cbz	r3, 800a250 <HAL_RCCEx_PeriphCLKConfig+0x308>
 800a23e:	e003      	b.n	800a248 <HAL_RCCEx_PeriphCLKConfig+0x300>
 800a240:	40023800 	.word	0x40023800
 800a244:	40007000 	.word	0x40007000
 800a248:	02cd      	lsls	r5, r1, #11
 800a24a:	d51d      	bpl.n	800a288 <HAL_RCCEx_PeriphCLKConfig+0x340>
 800a24c:	6c23      	ldr	r3, [r4, #64]	; 0x40
 800a24e:	b9db      	cbnz	r3, 800a288 <HAL_RCCEx_PeriphCLKConfig+0x340>
 800a250:	4a93      	ldr	r2, [pc, #588]	; (800a4a0 <HAL_RCCEx_PeriphCLKConfig+0x558>)
 800a252:	f8d2 3088 	ldr.w	r3, [r2, #136]	; 0x88
 800a256:	f8d2 0088 	ldr.w	r0, [r2, #136]	; 0x88
 800a25a:	f403 3340 	and.w	r3, r3, #196608	; 0x30000
 800a25e:	f000 40e0 	and.w	r0, r0, #1879048192	; 0x70000000
 800a262:	4303      	orrs	r3, r0
 800a264:	6960      	ldr	r0, [r4, #20]
 800a266:	ea43 1380 	orr.w	r3, r3, r0, lsl #6
 800a26a:	69a0      	ldr	r0, [r4, #24]
 800a26c:	ea43 6300 	orr.w	r3, r3, r0, lsl #24
 800a270:	f8c2 3088 	str.w	r3, [r2, #136]	; 0x88
 800a274:	f8d2 308c 	ldr.w	r3, [r2, #140]	; 0x8c
 800a278:	6aa0      	ldr	r0, [r4, #40]	; 0x28
 800a27a:	f423 53f8 	bic.w	r3, r3, #7936	; 0x1f00
 800a27e:	3801      	subs	r0, #1
 800a280:	ea43 2300 	orr.w	r3, r3, r0, lsl #8
 800a284:	f8c2 308c 	str.w	r3, [r2, #140]	; 0x8c
 800a288:	0288      	lsls	r0, r1, #10
 800a28a:	d515      	bpl.n	800a2b8 <HAL_RCCEx_PeriphCLKConfig+0x370>
 800a28c:	6fe3      	ldr	r3, [r4, #124]	; 0x7c
 800a28e:	f1b3 6f00 	cmp.w	r3, #134217728	; 0x8000000
 800a292:	d111      	bne.n	800a2b8 <HAL_RCCEx_PeriphCLKConfig+0x370>
 800a294:	4a82      	ldr	r2, [pc, #520]	; (800a4a0 <HAL_RCCEx_PeriphCLKConfig+0x558>)
 800a296:	f8d2 3088 	ldr.w	r3, [r2, #136]	; 0x88
 800a29a:	f8d2 0088 	ldr.w	r0, [r2, #136]	; 0x88
 800a29e:	f003 6370 	and.w	r3, r3, #251658240	; 0xf000000
 800a2a2:	f000 40e0 	and.w	r0, r0, #1879048192	; 0x70000000
 800a2a6:	4303      	orrs	r3, r0
 800a2a8:	6960      	ldr	r0, [r4, #20]
 800a2aa:	ea43 1380 	orr.w	r3, r3, r0, lsl #6
 800a2ae:	6a20      	ldr	r0, [r4, #32]
 800a2b0:	ea43 4300 	orr.w	r3, r3, r0, lsl #16
 800a2b4:	f8c2 3088 	str.w	r3, [r2, #136]	; 0x88
 800a2b8:	070a      	lsls	r2, r1, #28
 800a2ba:	d519      	bpl.n	800a2f0 <HAL_RCCEx_PeriphCLKConfig+0x3a8>
 800a2bc:	4978      	ldr	r1, [pc, #480]	; (800a4a0 <HAL_RCCEx_PeriphCLKConfig+0x558>)
 800a2be:	f8d1 2088 	ldr.w	r2, [r1, #136]	; 0x88
 800a2c2:	f8d1 3088 	ldr.w	r3, [r1, #136]	; 0x88
 800a2c6:	f002 6270 	and.w	r2, r2, #251658240	; 0xf000000
 800a2ca:	f403 3340 	and.w	r3, r3, #196608	; 0x30000
 800a2ce:	4313      	orrs	r3, r2
 800a2d0:	6962      	ldr	r2, [r4, #20]
 800a2d2:	ea43 1382 	orr.w	r3, r3, r2, lsl #6
 800a2d6:	69e2      	ldr	r2, [r4, #28]
 800a2d8:	ea43 7302 	orr.w	r3, r3, r2, lsl #28
 800a2dc:	f8c1 3088 	str.w	r3, [r1, #136]	; 0x88
 800a2e0:	f8d1 308c 	ldr.w	r3, [r1, #140]	; 0x8c
 800a2e4:	6ae2      	ldr	r2, [r4, #44]	; 0x2c
 800a2e6:	f423 3340 	bic.w	r3, r3, #196608	; 0x30000
 800a2ea:	4313      	orrs	r3, r2
 800a2ec:	f8c1 308c 	str.w	r3, [r1, #140]	; 0x8c
 800a2f0:	4c6b      	ldr	r4, [pc, #428]	; (800a4a0 <HAL_RCCEx_PeriphCLKConfig+0x558>)
 800a2f2:	6823      	ldr	r3, [r4, #0]
 800a2f4:	f043 5380 	orr.w	r3, r3, #268435456	; 0x10000000
 800a2f8:	6023      	str	r3, [r4, #0]
 800a2fa:	f7fe fcb3 	bl	8008c64 <HAL_GetTick>
 800a2fe:	4605      	mov	r5, r0
 800a300:	6823      	ldr	r3, [r4, #0]
 800a302:	009b      	lsls	r3, r3, #2
 800a304:	f140 80c4 	bpl.w	800a490 <HAL_RCCEx_PeriphCLKConfig+0x548>
 800a308:	2000      	movs	r0, #0
 800a30a:	e009      	b.n	800a320 <HAL_RCCEx_PeriphCLKConfig+0x3d8>
 800a30c:	2601      	movs	r6, #1
 800a30e:	e657      	b.n	8009fc0 <HAL_RCCEx_PeriphCLKConfig+0x78>
 800a310:	f7fe fca8 	bl	8008c64 <HAL_GetTick>
 800a314:	eba0 0008 	sub.w	r0, r0, r8
 800a318:	2864      	cmp	r0, #100	; 0x64
 800a31a:	f67f ae69 	bls.w	8009ff0 <HAL_RCCEx_PeriphCLKConfig+0xa8>
 800a31e:	2003      	movs	r0, #3
 800a320:	b003      	add	sp, #12
 800a322:	e8bd 83f0 	ldmia.w	sp!, {r4, r5, r6, r7, r8, r9, pc}
 800a326:	6b22      	ldr	r2, [r4, #48]	; 0x30
 800a328:	f402 7240 	and.w	r2, r2, #768	; 0x300
 800a32c:	429a      	cmp	r2, r3
 800a32e:	f43f ae69 	beq.w	800a004 <HAL_RCCEx_PeriphCLKConfig+0xbc>
 800a332:	6f3b      	ldr	r3, [r7, #112]	; 0x70
 800a334:	6f3a      	ldr	r2, [r7, #112]	; 0x70
 800a336:	f423 7340 	bic.w	r3, r3, #768	; 0x300
 800a33a:	f442 3280 	orr.w	r2, r2, #65536	; 0x10000
 800a33e:	673a      	str	r2, [r7, #112]	; 0x70
 800a340:	6f3a      	ldr	r2, [r7, #112]	; 0x70
 800a342:	f422 3280 	bic.w	r2, r2, #65536	; 0x10000
 800a346:	673a      	str	r2, [r7, #112]	; 0x70
 800a348:	673b      	str	r3, [r7, #112]	; 0x70
 800a34a:	6f3b      	ldr	r3, [r7, #112]	; 0x70
 800a34c:	07da      	lsls	r2, r3, #31
 800a34e:	f57f ae59 	bpl.w	800a004 <HAL_RCCEx_PeriphCLKConfig+0xbc>
 800a352:	f7fe fc87 	bl	8008c64 <HAL_GetTick>
 800a356:	f241 3988 	movw	r9, #5000	; 0x1388
 800a35a:	4680      	mov	r8, r0
 800a35c:	6f3b      	ldr	r3, [r7, #112]	; 0x70
 800a35e:	079b      	lsls	r3, r3, #30
 800a360:	f53f ae50 	bmi.w	800a004 <HAL_RCCEx_PeriphCLKConfig+0xbc>
 800a364:	f7fe fc7e 	bl	8008c64 <HAL_GetTick>
 800a368:	eba0 0008 	sub.w	r0, r0, r8
 800a36c:	4548      	cmp	r0, r9
 800a36e:	d9f5      	bls.n	800a35c <HAL_RCCEx_PeriphCLKConfig+0x414>
 800a370:	e7d5      	b.n	800a31e <HAL_RCCEx_PeriphCLKConfig+0x3d6>
 800a372:	6891      	ldr	r1, [r2, #8]
 800a374:	f421 11f8 	bic.w	r1, r1, #2031616	; 0x1f0000
 800a378:	e654      	b.n	800a024 <HAL_RCCEx_PeriphCLKConfig+0xdc>
 800a37a:	4e49      	ldr	r6, [pc, #292]	; (800a4a0 <HAL_RCCEx_PeriphCLKConfig+0x558>)
 800a37c:	6833      	ldr	r3, [r6, #0]
 800a37e:	f023 6380 	bic.w	r3, r3, #67108864	; 0x4000000
 800a382:	6033      	str	r3, [r6, #0]
 800a384:	f7fe fc6e 	bl	8008c64 <HAL_GetTick>
 800a388:	4607      	mov	r7, r0
 800a38a:	6833      	ldr	r3, [r6, #0]
 800a38c:	011b      	lsls	r3, r3, #4
 800a38e:	d472      	bmi.n	800a476 <HAL_RCCEx_PeriphCLKConfig+0x52e>
 800a390:	6822      	ldr	r2, [r4, #0]
 800a392:	07d7      	lsls	r7, r2, #31
 800a394:	d512      	bpl.n	800a3bc <HAL_RCCEx_PeriphCLKConfig+0x474>
 800a396:	6b63      	ldr	r3, [r4, #52]	; 0x34
 800a398:	b983      	cbnz	r3, 800a3bc <HAL_RCCEx_PeriphCLKConfig+0x474>
 800a39a:	f8d6 3084 	ldr.w	r3, [r6, #132]	; 0x84
 800a39e:	f8d6 1084 	ldr.w	r1, [r6, #132]	; 0x84
 800a3a2:	f403 3340 	and.w	r3, r3, #196608	; 0x30000
 800a3a6:	f001 6170 	and.w	r1, r1, #251658240	; 0xf000000
 800a3aa:	430b      	orrs	r3, r1
 800a3ac:	6861      	ldr	r1, [r4, #4]
 800a3ae:	ea43 1381 	orr.w	r3, r3, r1, lsl #6
 800a3b2:	68a1      	ldr	r1, [r4, #8]
 800a3b4:	ea43 7301 	orr.w	r3, r3, r1, lsl #28
 800a3b8:	f8c6 3084 	str.w	r3, [r6, #132]	; 0x84
 800a3bc:	0316      	lsls	r6, r2, #12
 800a3be:	d503      	bpl.n	800a3c8 <HAL_RCCEx_PeriphCLKConfig+0x480>
 800a3c0:	6be3      	ldr	r3, [r4, #60]	; 0x3c
 800a3c2:	f5b3 1f80 	cmp.w	r3, #1048576	; 0x100000
 800a3c6:	d005      	beq.n	800a3d4 <HAL_RCCEx_PeriphCLKConfig+0x48c>
 800a3c8:	02d0      	lsls	r0, r2, #11
 800a3ca:	d51e      	bpl.n	800a40a <HAL_RCCEx_PeriphCLKConfig+0x4c2>
 800a3cc:	6c23      	ldr	r3, [r4, #64]	; 0x40
 800a3ce:	f5b3 0f80 	cmp.w	r3, #4194304	; 0x400000
 800a3d2:	d11a      	bne.n	800a40a <HAL_RCCEx_PeriphCLKConfig+0x4c2>
 800a3d4:	4932      	ldr	r1, [pc, #200]	; (800a4a0 <HAL_RCCEx_PeriphCLKConfig+0x558>)
 800a3d6:	f8d1 3084 	ldr.w	r3, [r1, #132]	; 0x84
 800a3da:	f8d1 0084 	ldr.w	r0, [r1, #132]	; 0x84
 800a3de:	f403 3340 	and.w	r3, r3, #196608	; 0x30000
 800a3e2:	f000 40e0 	and.w	r0, r0, #1879048192	; 0x70000000
 800a3e6:	4303      	orrs	r3, r0
 800a3e8:	6860      	ldr	r0, [r4, #4]
 800a3ea:	ea43 1380 	orr.w	r3, r3, r0, lsl #6
 800a3ee:	68e0      	ldr	r0, [r4, #12]
 800a3f0:	ea43 6300 	orr.w	r3, r3, r0, lsl #24
 800a3f4:	f8c1 3084 	str.w	r3, [r1, #132]	; 0x84
 800a3f8:	f8d1 008c 	ldr.w	r0, [r1, #140]	; 0x8c
 800a3fc:	6a63      	ldr	r3, [r4, #36]	; 0x24
 800a3fe:	f020 001f 	bic.w	r0, r0, #31
 800a402:	3b01      	subs	r3, #1
 800a404:	4303      	orrs	r3, r0
 800a406:	f8c1 308c 	str.w	r3, [r1, #140]	; 0x8c
 800a40a:	01d1      	lsls	r1, r2, #7
 800a40c:	d511      	bpl.n	800a432 <HAL_RCCEx_PeriphCLKConfig+0x4ea>
 800a40e:	4924      	ldr	r1, [pc, #144]	; (800a4a0 <HAL_RCCEx_PeriphCLKConfig+0x558>)
 800a410:	f8d1 3084 	ldr.w	r3, [r1, #132]	; 0x84
 800a414:	f8d1 0084 	ldr.w	r0, [r1, #132]	; 0x84
 800a418:	f003 6370 	and.w	r3, r3, #251658240	; 0xf000000
 800a41c:	f000 40e0 	and.w	r0, r0, #1879048192	; 0x70000000
 800a420:	4303      	orrs	r3, r0
 800a422:	6860      	ldr	r0, [r4, #4]
 800a424:	ea43 1380 	orr.w	r3, r3, r0, lsl #6
 800a428:	6920      	ldr	r0, [r4, #16]
 800a42a:	ea43 4300 	orr.w	r3, r3, r0, lsl #16
 800a42e:	f8c1 3084 	str.w	r3, [r1, #132]	; 0x84
 800a432:	0192      	lsls	r2, r2, #6
 800a434:	d50d      	bpl.n	800a452 <HAL_RCCEx_PeriphCLKConfig+0x50a>
 800a436:	6923      	ldr	r3, [r4, #16]
 800a438:	6862      	ldr	r2, [r4, #4]
 800a43a:	041b      	lsls	r3, r3, #16
 800a43c:	ea43 1382 	orr.w	r3, r3, r2, lsl #6
 800a440:	68e2      	ldr	r2, [r4, #12]
 800a442:	ea43 6302 	orr.w	r3, r3, r2, lsl #24
 800a446:	68a2      	ldr	r2, [r4, #8]
 800a448:	ea43 7302 	orr.w	r3, r3, r2, lsl #28
 800a44c:	4a14      	ldr	r2, [pc, #80]	; (800a4a0 <HAL_RCCEx_PeriphCLKConfig+0x558>)
 800a44e:	f8c2 3084 	str.w	r3, [r2, #132]	; 0x84
 800a452:	4e13      	ldr	r6, [pc, #76]	; (800a4a0 <HAL_RCCEx_PeriphCLKConfig+0x558>)
 800a454:	6833      	ldr	r3, [r6, #0]
 800a456:	f043 6380 	orr.w	r3, r3, #67108864	; 0x4000000
 800a45a:	6033      	str	r3, [r6, #0]
 800a45c:	f7fe fc02 	bl	8008c64 <HAL_GetTick>
 800a460:	4607      	mov	r7, r0
 800a462:	6833      	ldr	r3, [r6, #0]
 800a464:	011b      	lsls	r3, r3, #4
 800a466:	f53f aed7 	bmi.w	800a218 <HAL_RCCEx_PeriphCLKConfig+0x2d0>
 800a46a:	f7fe fbfb 	bl	8008c64 <HAL_GetTick>
 800a46e:	1bc0      	subs	r0, r0, r7
 800a470:	2864      	cmp	r0, #100	; 0x64
 800a472:	d9f6      	bls.n	800a462 <HAL_RCCEx_PeriphCLKConfig+0x51a>
 800a474:	e753      	b.n	800a31e <HAL_RCCEx_PeriphCLKConfig+0x3d6>
 800a476:	f7fe fbf5 	bl	8008c64 <HAL_GetTick>
 800a47a:	1bc0      	subs	r0, r0, r7
 800a47c:	2864      	cmp	r0, #100	; 0x64
 800a47e:	d984      	bls.n	800a38a <HAL_RCCEx_PeriphCLKConfig+0x442>
 800a480:	e74d      	b.n	800a31e <HAL_RCCEx_PeriphCLKConfig+0x3d6>
 800a482:	f7fe fbef 	bl	8008c64 <HAL_GetTick>
 800a486:	1b80      	subs	r0, r0, r6
 800a488:	2864      	cmp	r0, #100	; 0x64
 800a48a:	f67f aecf 	bls.w	800a22c <HAL_RCCEx_PeriphCLKConfig+0x2e4>
 800a48e:	e746      	b.n	800a31e <HAL_RCCEx_PeriphCLKConfig+0x3d6>
 800a490:	f7fe fbe8 	bl	8008c64 <HAL_GetTick>
 800a494:	1b40      	subs	r0, r0, r5
 800a496:	2864      	cmp	r0, #100	; 0x64
 800a498:	f67f af32 	bls.w	800a300 <HAL_RCCEx_PeriphCLKConfig+0x3b8>
 800a49c:	e73f      	b.n	800a31e <HAL_RCCEx_PeriphCLKConfig+0x3d6>
 800a49e:	bf00      	nop
 800a4a0:	40023800 	.word	0x40023800

0800a4a4 <UART_SetConfig>:
 800a4a4:	b538      	push	{r3, r4, r5, lr}
 800a4a6:	69c2      	ldr	r2, [r0, #28]
 800a4a8:	4604      	mov	r4, r0
 800a4aa:	6803      	ldr	r3, [r0, #0]
 800a4ac:	6881      	ldr	r1, [r0, #8]
 800a4ae:	6900      	ldr	r0, [r0, #16]
 800a4b0:	681d      	ldr	r5, [r3, #0]
 800a4b2:	4301      	orrs	r1, r0
 800a4b4:	6960      	ldr	r0, [r4, #20]
 800a4b6:	4301      	orrs	r1, r0
 800a4b8:	489a      	ldr	r0, [pc, #616]	; (800a724 <UART_SetConfig+0x280>)
 800a4ba:	4311      	orrs	r1, r2
 800a4bc:	4028      	ands	r0, r5
 800a4be:	6a25      	ldr	r5, [r4, #32]
 800a4c0:	4301      	orrs	r1, r0
 800a4c2:	68e0      	ldr	r0, [r4, #12]
 800a4c4:	6019      	str	r1, [r3, #0]
 800a4c6:	6859      	ldr	r1, [r3, #4]
 800a4c8:	f421 5140 	bic.w	r1, r1, #12288	; 0x3000
 800a4cc:	4301      	orrs	r1, r0
 800a4ce:	6059      	str	r1, [r3, #4]
 800a4d0:	69a1      	ldr	r1, [r4, #24]
 800a4d2:	6898      	ldr	r0, [r3, #8]
 800a4d4:	4329      	orrs	r1, r5
 800a4d6:	f420 6030 	bic.w	r0, r0, #2816	; 0xb00
 800a4da:	4301      	orrs	r1, r0
 800a4dc:	6099      	str	r1, [r3, #8]
 800a4de:	4992      	ldr	r1, [pc, #584]	; (800a728 <UART_SetConfig+0x284>)
 800a4e0:	428b      	cmp	r3, r1
 800a4e2:	d118      	bne.n	800a516 <UART_SetConfig+0x72>
 800a4e4:	4b91      	ldr	r3, [pc, #580]	; (800a72c <UART_SetConfig+0x288>)
 800a4e6:	4992      	ldr	r1, [pc, #584]	; (800a730 <UART_SetConfig+0x28c>)
 800a4e8:	f8d3 3090 	ldr.w	r3, [r3, #144]	; 0x90
 800a4ec:	f003 0303 	and.w	r3, r3, #3
 800a4f0:	5ccb      	ldrb	r3, [r1, r3]
 800a4f2:	f5b2 4f00 	cmp.w	r2, #32768	; 0x8000
 800a4f6:	f040 80bd 	bne.w	800a674 <UART_SetConfig+0x1d0>
 800a4fa:	2b08      	cmp	r3, #8
 800a4fc:	f200 80af 	bhi.w	800a65e <UART_SetConfig+0x1ba>
 800a500:	e8df f013 	tbh	[pc, r3, lsl #1]
 800a504:	00aa0095 	.word	0x00aa0095
 800a508:	00ad00f9 	.word	0x00ad00f9
 800a50c:	00ad0105 	.word	0x00ad0105
 800a510:	00ad00ad 	.word	0x00ad00ad
 800a514:	010b      	.short	0x010b
 800a516:	4987      	ldr	r1, [pc, #540]	; (800a734 <UART_SetConfig+0x290>)
 800a518:	428b      	cmp	r3, r1
 800a51a:	d106      	bne.n	800a52a <UART_SetConfig+0x86>
 800a51c:	4b83      	ldr	r3, [pc, #524]	; (800a72c <UART_SetConfig+0x288>)
 800a51e:	4986      	ldr	r1, [pc, #536]	; (800a738 <UART_SetConfig+0x294>)
 800a520:	f8d3 3090 	ldr.w	r3, [r3, #144]	; 0x90
 800a524:	f003 030c 	and.w	r3, r3, #12
 800a528:	e7e2      	b.n	800a4f0 <UART_SetConfig+0x4c>
 800a52a:	4984      	ldr	r1, [pc, #528]	; (800a73c <UART_SetConfig+0x298>)
 800a52c:	428b      	cmp	r3, r1
 800a52e:	d118      	bne.n	800a562 <UART_SetConfig+0xbe>
 800a530:	4b7e      	ldr	r3, [pc, #504]	; (800a72c <UART_SetConfig+0x288>)
 800a532:	f8d3 3090 	ldr.w	r3, [r3, #144]	; 0x90
 800a536:	f003 0330 	and.w	r3, r3, #48	; 0x30
 800a53a:	2b10      	cmp	r3, #16
 800a53c:	f000 80e4 	beq.w	800a708 <UART_SetConfig+0x264>
 800a540:	d802      	bhi.n	800a548 <UART_SetConfig+0xa4>
 800a542:	2b00      	cmp	r3, #0
 800a544:	d0d5      	beq.n	800a4f2 <UART_SetConfig+0x4e>
 800a546:	e005      	b.n	800a554 <UART_SetConfig+0xb0>
 800a548:	2b20      	cmp	r3, #32
 800a54a:	f000 80d1 	beq.w	800a6f0 <UART_SetConfig+0x24c>
 800a54e:	2b30      	cmp	r3, #48	; 0x30
 800a550:	f000 80e0 	beq.w	800a714 <UART_SetConfig+0x270>
 800a554:	f5b2 4f00 	cmp.w	r2, #32768	; 0x8000
 800a558:	f000 8081 	beq.w	800a65e <UART_SetConfig+0x1ba>
 800a55c:	2001      	movs	r0, #1
 800a55e:	2300      	movs	r3, #0
 800a560:	e0a9      	b.n	800a6b6 <UART_SetConfig+0x212>
 800a562:	4977      	ldr	r1, [pc, #476]	; (800a740 <UART_SetConfig+0x29c>)
 800a564:	428b      	cmp	r3, r1
 800a566:	d10d      	bne.n	800a584 <UART_SetConfig+0xe0>
 800a568:	4b70      	ldr	r3, [pc, #448]	; (800a72c <UART_SetConfig+0x288>)
 800a56a:	f8d3 3090 	ldr.w	r3, [r3, #144]	; 0x90
 800a56e:	f003 03c0 	and.w	r3, r3, #192	; 0xc0
 800a572:	2b40      	cmp	r3, #64	; 0x40
 800a574:	f000 80c8 	beq.w	800a708 <UART_SetConfig+0x264>
 800a578:	d9e3      	bls.n	800a542 <UART_SetConfig+0x9e>
 800a57a:	2b80      	cmp	r3, #128	; 0x80
 800a57c:	f000 80b8 	beq.w	800a6f0 <UART_SetConfig+0x24c>
 800a580:	2bc0      	cmp	r3, #192	; 0xc0
 800a582:	e7e5      	b.n	800a550 <UART_SetConfig+0xac>
 800a584:	496f      	ldr	r1, [pc, #444]	; (800a744 <UART_SetConfig+0x2a0>)
 800a586:	428b      	cmp	r3, r1
 800a588:	d110      	bne.n	800a5ac <UART_SetConfig+0x108>
 800a58a:	4b68      	ldr	r3, [pc, #416]	; (800a72c <UART_SetConfig+0x288>)
 800a58c:	f8d3 3090 	ldr.w	r3, [r3, #144]	; 0x90
 800a590:	f403 7340 	and.w	r3, r3, #768	; 0x300
 800a594:	f5b3 7f80 	cmp.w	r3, #256	; 0x100
 800a598:	f000 80b6 	beq.w	800a708 <UART_SetConfig+0x264>
 800a59c:	d9d1      	bls.n	800a542 <UART_SetConfig+0x9e>
 800a59e:	f5b3 7f00 	cmp.w	r3, #512	; 0x200
 800a5a2:	f000 80a5 	beq.w	800a6f0 <UART_SetConfig+0x24c>
 800a5a6:	f5b3 7f40 	cmp.w	r3, #768	; 0x300
 800a5aa:	e7d1      	b.n	800a550 <UART_SetConfig+0xac>
 800a5ac:	4966      	ldr	r1, [pc, #408]	; (800a748 <UART_SetConfig+0x2a4>)
 800a5ae:	428b      	cmp	r3, r1
 800a5b0:	d114      	bne.n	800a5dc <UART_SetConfig+0x138>
 800a5b2:	4b5e      	ldr	r3, [pc, #376]	; (800a72c <UART_SetConfig+0x288>)
 800a5b4:	f8d3 3090 	ldr.w	r3, [r3, #144]	; 0x90
 800a5b8:	f403 6340 	and.w	r3, r3, #3072	; 0xc00
 800a5bc:	f5b3 6f80 	cmp.w	r3, #1024	; 0x400
 800a5c0:	f000 80a2 	beq.w	800a708 <UART_SetConfig+0x264>
 800a5c4:	d803      	bhi.n	800a5ce <UART_SetConfig+0x12a>
 800a5c6:	2b00      	cmp	r3, #0
 800a5c8:	d1c4      	bne.n	800a554 <UART_SetConfig+0xb0>
 800a5ca:	2301      	movs	r3, #1
 800a5cc:	e791      	b.n	800a4f2 <UART_SetConfig+0x4e>
 800a5ce:	f5b3 6f00 	cmp.w	r3, #2048	; 0x800
 800a5d2:	f000 808d 	beq.w	800a6f0 <UART_SetConfig+0x24c>
 800a5d6:	f5b3 6f40 	cmp.w	r3, #3072	; 0xc00
 800a5da:	e7b9      	b.n	800a550 <UART_SetConfig+0xac>
 800a5dc:	495b      	ldr	r1, [pc, #364]	; (800a74c <UART_SetConfig+0x2a8>)
 800a5de:	428b      	cmp	r3, r1
 800a5e0:	d113      	bne.n	800a60a <UART_SetConfig+0x166>
 800a5e2:	4b52      	ldr	r3, [pc, #328]	; (800a72c <UART_SetConfig+0x288>)
 800a5e4:	f8d3 3090 	ldr.w	r3, [r3, #144]	; 0x90
 800a5e8:	f403 5340 	and.w	r3, r3, #12288	; 0x3000
 800a5ec:	f5b3 5f80 	cmp.w	r3, #4096	; 0x1000
 800a5f0:	f000 808a 	beq.w	800a708 <UART_SetConfig+0x264>
 800a5f4:	d803      	bhi.n	800a5fe <UART_SetConfig+0x15a>
 800a5f6:	2b00      	cmp	r3, #0
 800a5f8:	d1ac      	bne.n	800a554 <UART_SetConfig+0xb0>
 800a5fa:	2300      	movs	r3, #0
 800a5fc:	e779      	b.n	800a4f2 <UART_SetConfig+0x4e>
 800a5fe:	f5b3 5f00 	cmp.w	r3, #8192	; 0x2000
 800a602:	d075      	beq.n	800a6f0 <UART_SetConfig+0x24c>
 800a604:	f5b3 5f40 	cmp.w	r3, #12288	; 0x3000
 800a608:	e7a2      	b.n	800a550 <UART_SetConfig+0xac>
 800a60a:	4951      	ldr	r1, [pc, #324]	; (800a750 <UART_SetConfig+0x2ac>)
 800a60c:	428b      	cmp	r3, r1
 800a60e:	d1a1      	bne.n	800a554 <UART_SetConfig+0xb0>
 800a610:	4b46      	ldr	r3, [pc, #280]	; (800a72c <UART_SetConfig+0x288>)
 800a612:	f8d3 3090 	ldr.w	r3, [r3, #144]	; 0x90
 800a616:	f403 4340 	and.w	r3, r3, #49152	; 0xc000
 800a61a:	f5b3 4f80 	cmp.w	r3, #16384	; 0x4000
 800a61e:	d073      	beq.n	800a708 <UART_SetConfig+0x264>
 800a620:	d98f      	bls.n	800a542 <UART_SetConfig+0x9e>
 800a622:	f5b3 4f00 	cmp.w	r3, #32768	; 0x8000
 800a626:	d063      	beq.n	800a6f0 <UART_SetConfig+0x24c>
 800a628:	f5b3 4f40 	cmp.w	r3, #49152	; 0xc000
 800a62c:	e790      	b.n	800a550 <UART_SetConfig+0xac>
 800a62e:	f7ff fc6b 	bl	8009f08 <HAL_RCC_GetPCLK1Freq>
 800a632:	6861      	ldr	r1, [r4, #4]
 800a634:	084a      	lsrs	r2, r1, #1
 800a636:	eb02 0340 	add.w	r3, r2, r0, lsl #1
 800a63a:	fbb3 f3f1 	udiv	r3, r3, r1
 800a63e:	b29b      	uxth	r3, r3
 800a640:	2000      	movs	r0, #0
 800a642:	f1a3 0110 	sub.w	r1, r3, #16
 800a646:	f64f 72ef 	movw	r2, #65519	; 0xffef
 800a64a:	4291      	cmp	r1, r2
 800a64c:	d90a      	bls.n	800a664 <UART_SetConfig+0x1c0>
 800a64e:	2001      	movs	r0, #1
 800a650:	2300      	movs	r3, #0
 800a652:	e9c4 3318 	strd	r3, r3, [r4, #96]	; 0x60
 800a656:	bd38      	pop	{r3, r4, r5, pc}
 800a658:	f7ff fc66 	bl	8009f28 <HAL_RCC_GetPCLK2Freq>
 800a65c:	e7e9      	b.n	800a632 <UART_SetConfig+0x18e>
 800a65e:	2001      	movs	r0, #1
 800a660:	2300      	movs	r3, #0
 800a662:	e7ee      	b.n	800a642 <UART_SetConfig+0x19e>
 800a664:	f023 020f 	bic.w	r2, r3, #15
 800a668:	f3c3 0342 	ubfx	r3, r3, #1, #3
 800a66c:	6821      	ldr	r1, [r4, #0]
 800a66e:	4313      	orrs	r3, r2
 800a670:	60cb      	str	r3, [r1, #12]
 800a672:	e7ed      	b.n	800a650 <UART_SetConfig+0x1ac>
 800a674:	2b08      	cmp	r3, #8
 800a676:	f63f af71 	bhi.w	800a55c <UART_SetConfig+0xb8>
 800a67a:	a201      	add	r2, pc, #4	; (adr r2, 800a680 <UART_SetConfig+0x1dc>)
 800a67c:	f852 f023 	ldr.w	pc, [r2, r3, lsl #2]
 800a680:	0800a6a5 	.word	0x0800a6a5
 800a684:	0800a6c9 	.word	0x0800a6c9
 800a688:	0800a6cf 	.word	0x0800a6cf
 800a68c:	0800a55d 	.word	0x0800a55d
 800a690:	0800a6e1 	.word	0x0800a6e1
 800a694:	0800a55d 	.word	0x0800a55d
 800a698:	0800a55d 	.word	0x0800a55d
 800a69c:	0800a55d 	.word	0x0800a55d
 800a6a0:	0800a6e7 	.word	0x0800a6e7
 800a6a4:	f7ff fc30 	bl	8009f08 <HAL_RCC_GetPCLK1Freq>
 800a6a8:	6862      	ldr	r2, [r4, #4]
 800a6aa:	eb00 0352 	add.w	r3, r0, r2, lsr #1
 800a6ae:	fbb3 f3f2 	udiv	r3, r3, r2
 800a6b2:	b29b      	uxth	r3, r3
 800a6b4:	2000      	movs	r0, #0
 800a6b6:	f1a3 0110 	sub.w	r1, r3, #16
 800a6ba:	f64f 72ef 	movw	r2, #65519	; 0xffef
 800a6be:	4291      	cmp	r1, r2
 800a6c0:	d8c5      	bhi.n	800a64e <UART_SetConfig+0x1aa>
 800a6c2:	6822      	ldr	r2, [r4, #0]
 800a6c4:	60d3      	str	r3, [r2, #12]
 800a6c6:	e7c3      	b.n	800a650 <UART_SetConfig+0x1ac>
 800a6c8:	f7ff fc2e 	bl	8009f28 <HAL_RCC_GetPCLK2Freq>
 800a6cc:	e7ec      	b.n	800a6a8 <UART_SetConfig+0x204>
 800a6ce:	6860      	ldr	r0, [r4, #4]
 800a6d0:	0843      	lsrs	r3, r0, #1
 800a6d2:	f503 0374 	add.w	r3, r3, #15990784	; 0xf40000
 800a6d6:	f503 5310 	add.w	r3, r3, #9216	; 0x2400
 800a6da:	fbb3 f3f0 	udiv	r3, r3, r0
 800a6de:	e7e8      	b.n	800a6b2 <UART_SetConfig+0x20e>
 800a6e0:	f7ff fb40 	bl	8009d64 <HAL_RCC_GetSysClockFreq>
 800a6e4:	e7e0      	b.n	800a6a8 <UART_SetConfig+0x204>
 800a6e6:	6860      	ldr	r0, [r4, #4]
 800a6e8:	0843      	lsrs	r3, r0, #1
 800a6ea:	f503 4300 	add.w	r3, r3, #32768	; 0x8000
 800a6ee:	e7f4      	b.n	800a6da <UART_SetConfig+0x236>
 800a6f0:	f5b2 4f00 	cmp.w	r2, #32768	; 0x8000
 800a6f4:	d1eb      	bne.n	800a6ce <UART_SetConfig+0x22a>
 800a6f6:	6860      	ldr	r0, [r4, #4]
 800a6f8:	0843      	lsrs	r3, r0, #1
 800a6fa:	f103 73f4 	add.w	r3, r3, #31981568	; 0x1e80000
 800a6fe:	f503 4390 	add.w	r3, r3, #18432	; 0x4800
 800a702:	fbb3 f3f0 	udiv	r3, r3, r0
 800a706:	e79a      	b.n	800a63e <UART_SetConfig+0x19a>
 800a708:	f5b2 4f00 	cmp.w	r2, #32768	; 0x8000
 800a70c:	d1e8      	bne.n	800a6e0 <UART_SetConfig+0x23c>
 800a70e:	f7ff fb29 	bl	8009d64 <HAL_RCC_GetSysClockFreq>
 800a712:	e78e      	b.n	800a632 <UART_SetConfig+0x18e>
 800a714:	f5b2 4f00 	cmp.w	r2, #32768	; 0x8000
 800a718:	d1e5      	bne.n	800a6e6 <UART_SetConfig+0x242>
 800a71a:	6860      	ldr	r0, [r4, #4]
 800a71c:	0843      	lsrs	r3, r0, #1
 800a71e:	f503 3380 	add.w	r3, r3, #65536	; 0x10000
 800a722:	e7ee      	b.n	800a702 <UART_SetConfig+0x25e>
 800a724:	efff69f3 	.word	0xefff69f3
 800a728:	40011000 	.word	0x40011000
 800a72c:	40023800 	.word	0x40023800
 800a730:	080149f8 	.word	0x080149f8
 800a734:	40004400 	.word	0x40004400
 800a738:	080149fc 	.word	0x080149fc
 800a73c:	40004800 	.word	0x40004800
 800a740:	40004c00 	.word	0x40004c00
 800a744:	40005000 	.word	0x40005000
 800a748:	40011400 	.word	0x40011400
 800a74c:	40007800 	.word	0x40007800
 800a750:	40007c00 	.word	0x40007c00

0800a754 <UART_AdvFeatureConfig>:
 800a754:	6a43      	ldr	r3, [r0, #36]	; 0x24
 800a756:	07da      	lsls	r2, r3, #31
 800a758:	b510      	push	{r4, lr}
 800a75a:	d506      	bpl.n	800a76a <UART_AdvFeatureConfig+0x16>
 800a75c:	6801      	ldr	r1, [r0, #0]
 800a75e:	6a84      	ldr	r4, [r0, #40]	; 0x28
 800a760:	684a      	ldr	r2, [r1, #4]
 800a762:	f422 3200 	bic.w	r2, r2, #131072	; 0x20000
 800a766:	4322      	orrs	r2, r4
 800a768:	604a      	str	r2, [r1, #4]
 800a76a:	079c      	lsls	r4, r3, #30
 800a76c:	d506      	bpl.n	800a77c <UART_AdvFeatureConfig+0x28>
 800a76e:	6801      	ldr	r1, [r0, #0]
 800a770:	6ac4      	ldr	r4, [r0, #44]	; 0x2c
 800a772:	684a      	ldr	r2, [r1, #4]
 800a774:	f422 3280 	bic.w	r2, r2, #65536	; 0x10000
 800a778:	4322      	orrs	r2, r4
 800a77a:	604a      	str	r2, [r1, #4]
 800a77c:	0759      	lsls	r1, r3, #29
 800a77e:	d506      	bpl.n	800a78e <UART_AdvFeatureConfig+0x3a>
 800a780:	6801      	ldr	r1, [r0, #0]
 800a782:	6b04      	ldr	r4, [r0, #48]	; 0x30
 800a784:	684a      	ldr	r2, [r1, #4]
 800a786:	f422 2280 	bic.w	r2, r2, #262144	; 0x40000
 800a78a:	4322      	orrs	r2, r4
 800a78c:	604a      	str	r2, [r1, #4]
 800a78e:	071a      	lsls	r2, r3, #28
 800a790:	d506      	bpl.n	800a7a0 <UART_AdvFeatureConfig+0x4c>
 800a792:	6801      	ldr	r1, [r0, #0]
 800a794:	6b44      	ldr	r4, [r0, #52]	; 0x34
 800a796:	684a      	ldr	r2, [r1, #4]
 800a798:	f422 4200 	bic.w	r2, r2, #32768	; 0x8000
 800a79c:	4322      	orrs	r2, r4
 800a79e:	604a      	str	r2, [r1, #4]
 800a7a0:	06dc      	lsls	r4, r3, #27
 800a7a2:	d506      	bpl.n	800a7b2 <UART_AdvFeatureConfig+0x5e>
 800a7a4:	6801      	ldr	r1, [r0, #0]
 800a7a6:	6b84      	ldr	r4, [r0, #56]	; 0x38
 800a7a8:	688a      	ldr	r2, [r1, #8]
 800a7aa:	f422 5280 	bic.w	r2, r2, #4096	; 0x1000
 800a7ae:	4322      	orrs	r2, r4
 800a7b0:	608a      	str	r2, [r1, #8]
 800a7b2:	0699      	lsls	r1, r3, #26
 800a7b4:	d506      	bpl.n	800a7c4 <UART_AdvFeatureConfig+0x70>
 800a7b6:	6801      	ldr	r1, [r0, #0]
 800a7b8:	6bc4      	ldr	r4, [r0, #60]	; 0x3c
 800a7ba:	688a      	ldr	r2, [r1, #8]
 800a7bc:	f422 5200 	bic.w	r2, r2, #8192	; 0x2000
 800a7c0:	4322      	orrs	r2, r4
 800a7c2:	608a      	str	r2, [r1, #8]
 800a7c4:	065a      	lsls	r2, r3, #25
 800a7c6:	d510      	bpl.n	800a7ea <UART_AdvFeatureConfig+0x96>
 800a7c8:	6801      	ldr	r1, [r0, #0]
 800a7ca:	6c04      	ldr	r4, [r0, #64]	; 0x40
 800a7cc:	684a      	ldr	r2, [r1, #4]
 800a7ce:	f5b4 1f80 	cmp.w	r4, #1048576	; 0x100000
 800a7d2:	f422 1280 	bic.w	r2, r2, #1048576	; 0x100000
 800a7d6:	ea42 0204 	orr.w	r2, r2, r4
 800a7da:	604a      	str	r2, [r1, #4]
 800a7dc:	d105      	bne.n	800a7ea <UART_AdvFeatureConfig+0x96>
 800a7de:	684a      	ldr	r2, [r1, #4]
 800a7e0:	6c44      	ldr	r4, [r0, #68]	; 0x44
 800a7e2:	f422 02c0 	bic.w	r2, r2, #6291456	; 0x600000
 800a7e6:	4322      	orrs	r2, r4
 800a7e8:	604a      	str	r2, [r1, #4]
 800a7ea:	061b      	lsls	r3, r3, #24
 800a7ec:	d506      	bpl.n	800a7fc <UART_AdvFeatureConfig+0xa8>
 800a7ee:	6802      	ldr	r2, [r0, #0]
 800a7f0:	6c81      	ldr	r1, [r0, #72]	; 0x48
 800a7f2:	6853      	ldr	r3, [r2, #4]
 800a7f4:	f423 2300 	bic.w	r3, r3, #524288	; 0x80000
 800a7f8:	430b      	orrs	r3, r1
 800a7fa:	6053      	str	r3, [r2, #4]
 800a7fc:	bd10      	pop	{r4, pc}

0800a7fe <UART_WaitOnFlagUntilTimeout>:
 800a7fe:	e92d 41f0 	stmdb	sp!, {r4, r5, r6, r7, r8, lr}
 800a802:	9d06      	ldr	r5, [sp, #24]
 800a804:	4604      	mov	r4, r0
 800a806:	460f      	mov	r7, r1
 800a808:	4616      	mov	r6, r2
 800a80a:	4698      	mov	r8, r3
 800a80c:	6821      	ldr	r1, [r4, #0]
 800a80e:	69ca      	ldr	r2, [r1, #28]
 800a810:	ea37 0302 	bics.w	r3, r7, r2
 800a814:	bf0c      	ite	eq
 800a816:	2201      	moveq	r2, #1
 800a818:	2200      	movne	r2, #0
 800a81a:	42b2      	cmp	r2, r6
 800a81c:	d001      	beq.n	800a822 <UART_WaitOnFlagUntilTimeout+0x24>
 800a81e:	2000      	movs	r0, #0
 800a820:	e018      	b.n	800a854 <UART_WaitOnFlagUntilTimeout+0x56>
 800a822:	1c68      	adds	r0, r5, #1
 800a824:	d0f3      	beq.n	800a80e <UART_WaitOnFlagUntilTimeout+0x10>
 800a826:	f7fe fa1d 	bl	8008c64 <HAL_GetTick>
 800a82a:	eba0 0008 	sub.w	r0, r0, r8
 800a82e:	42a8      	cmp	r0, r5
 800a830:	6820      	ldr	r0, [r4, #0]
 800a832:	6803      	ldr	r3, [r0, #0]
 800a834:	d800      	bhi.n	800a838 <UART_WaitOnFlagUntilTimeout+0x3a>
 800a836:	b97d      	cbnz	r5, 800a858 <UART_WaitOnFlagUntilTimeout+0x5a>
 800a838:	f423 73d0 	bic.w	r3, r3, #416	; 0x1a0
 800a83c:	6003      	str	r3, [r0, #0]
 800a83e:	6883      	ldr	r3, [r0, #8]
 800a840:	f023 0301 	bic.w	r3, r3, #1
 800a844:	6083      	str	r3, [r0, #8]
 800a846:	2320      	movs	r3, #32
 800a848:	6763      	str	r3, [r4, #116]	; 0x74
 800a84a:	67a3      	str	r3, [r4, #120]	; 0x78
 800a84c:	2300      	movs	r3, #0
 800a84e:	2003      	movs	r0, #3
 800a850:	f884 3070 	strb.w	r3, [r4, #112]	; 0x70
 800a854:	e8bd 81f0 	ldmia.w	sp!, {r4, r5, r6, r7, r8, pc}
 800a858:	075a      	lsls	r2, r3, #29
 800a85a:	d5d7      	bpl.n	800a80c <UART_WaitOnFlagUntilTimeout+0xe>
 800a85c:	69c3      	ldr	r3, [r0, #28]
 800a85e:	051b      	lsls	r3, r3, #20
 800a860:	d5d4      	bpl.n	800a80c <UART_WaitOnFlagUntilTimeout+0xe>
 800a862:	f44f 6300 	mov.w	r3, #2048	; 0x800
 800a866:	6203      	str	r3, [r0, #32]
 800a868:	6803      	ldr	r3, [r0, #0]
 800a86a:	f423 73d0 	bic.w	r3, r3, #416	; 0x1a0
 800a86e:	6003      	str	r3, [r0, #0]
 800a870:	6883      	ldr	r3, [r0, #8]
 800a872:	f023 0301 	bic.w	r3, r3, #1
 800a876:	6083      	str	r3, [r0, #8]
 800a878:	2320      	movs	r3, #32
 800a87a:	6763      	str	r3, [r4, #116]	; 0x74
 800a87c:	67a3      	str	r3, [r4, #120]	; 0x78
 800a87e:	67e3      	str	r3, [r4, #124]	; 0x7c
 800a880:	e7e4      	b.n	800a84c <UART_WaitOnFlagUntilTimeout+0x4e>

0800a882 <UART_CheckIdleState>:
 800a882:	b573      	push	{r0, r1, r4, r5, r6, lr}
 800a884:	2600      	movs	r6, #0
 800a886:	4604      	mov	r4, r0
 800a888:	67c6      	str	r6, [r0, #124]	; 0x7c
 800a88a:	f7fe f9eb 	bl	8008c64 <HAL_GetTick>
 800a88e:	6823      	ldr	r3, [r4, #0]
 800a890:	4605      	mov	r5, r0
 800a892:	681b      	ldr	r3, [r3, #0]
 800a894:	071a      	lsls	r2, r3, #28
 800a896:	d415      	bmi.n	800a8c4 <UART_CheckIdleState+0x42>
 800a898:	6823      	ldr	r3, [r4, #0]
 800a89a:	681b      	ldr	r3, [r3, #0]
 800a89c:	075b      	lsls	r3, r3, #29
 800a89e:	d50a      	bpl.n	800a8b6 <UART_CheckIdleState+0x34>
 800a8a0:	f06f 437e 	mvn.w	r3, #4261412864	; 0xfe000000
 800a8a4:	2200      	movs	r2, #0
 800a8a6:	f44f 0180 	mov.w	r1, #4194304	; 0x400000
 800a8aa:	4620      	mov	r0, r4
 800a8ac:	9300      	str	r3, [sp, #0]
 800a8ae:	462b      	mov	r3, r5
 800a8b0:	f7ff ffa5 	bl	800a7fe <UART_WaitOnFlagUntilTimeout>
 800a8b4:	b990      	cbnz	r0, 800a8dc <UART_CheckIdleState+0x5a>
 800a8b6:	2320      	movs	r3, #32
 800a8b8:	2000      	movs	r0, #0
 800a8ba:	6763      	str	r3, [r4, #116]	; 0x74
 800a8bc:	f884 0070 	strb.w	r0, [r4, #112]	; 0x70
 800a8c0:	67a3      	str	r3, [r4, #120]	; 0x78
 800a8c2:	e00c      	b.n	800a8de <UART_CheckIdleState+0x5c>
 800a8c4:	f06f 437e 	mvn.w	r3, #4261412864	; 0xfe000000
 800a8c8:	4632      	mov	r2, r6
 800a8ca:	f44f 1100 	mov.w	r1, #2097152	; 0x200000
 800a8ce:	9300      	str	r3, [sp, #0]
 800a8d0:	4603      	mov	r3, r0
 800a8d2:	4620      	mov	r0, r4
 800a8d4:	f7ff ff93 	bl	800a7fe <UART_WaitOnFlagUntilTimeout>
 800a8d8:	2800      	cmp	r0, #0
 800a8da:	d0dd      	beq.n	800a898 <UART_CheckIdleState+0x16>
 800a8dc:	2003      	movs	r0, #3
 800a8de:	b002      	add	sp, #8
 800a8e0:	bd70      	pop	{r4, r5, r6, pc}

0800a8e2 <HAL_UART_Init>:
 800a8e2:	b510      	push	{r4, lr}
 800a8e4:	4604      	mov	r4, r0
 800a8e6:	b340      	cbz	r0, 800a93a <HAL_UART_Init+0x58>
 800a8e8:	6f43      	ldr	r3, [r0, #116]	; 0x74
 800a8ea:	b91b      	cbnz	r3, 800a8f4 <HAL_UART_Init+0x12>
 800a8ec:	f880 3070 	strb.w	r3, [r0, #112]	; 0x70
 800a8f0:	f7fe f870 	bl	80089d4 <HAL_UART_MspInit>
 800a8f4:	6822      	ldr	r2, [r4, #0]
 800a8f6:	2324      	movs	r3, #36	; 0x24
 800a8f8:	4620      	mov	r0, r4
 800a8fa:	6763      	str	r3, [r4, #116]	; 0x74
 800a8fc:	6813      	ldr	r3, [r2, #0]
 800a8fe:	f023 0301 	bic.w	r3, r3, #1
 800a902:	6013      	str	r3, [r2, #0]
 800a904:	f7ff fdce 	bl	800a4a4 <UART_SetConfig>
 800a908:	2801      	cmp	r0, #1
 800a90a:	d016      	beq.n	800a93a <HAL_UART_Init+0x58>
 800a90c:	6a63      	ldr	r3, [r4, #36]	; 0x24
 800a90e:	b113      	cbz	r3, 800a916 <HAL_UART_Init+0x34>
 800a910:	4620      	mov	r0, r4
 800a912:	f7ff ff1f 	bl	800a754 <UART_AdvFeatureConfig>
 800a916:	6823      	ldr	r3, [r4, #0]
 800a918:	4620      	mov	r0, r4
 800a91a:	685a      	ldr	r2, [r3, #4]
 800a91c:	f422 4290 	bic.w	r2, r2, #18432	; 0x4800
 800a920:	605a      	str	r2, [r3, #4]
 800a922:	689a      	ldr	r2, [r3, #8]
 800a924:	f022 022a 	bic.w	r2, r2, #42	; 0x2a
 800a928:	609a      	str	r2, [r3, #8]
 800a92a:	681a      	ldr	r2, [r3, #0]
 800a92c:	f042 0201 	orr.w	r2, r2, #1
 800a930:	e8bd 4010 	ldmia.w	sp!, {r4, lr}
 800a934:	601a      	str	r2, [r3, #0]
 800a936:	f7ff bfa4 	b.w	800a882 <UART_CheckIdleState>
 800a93a:	2001      	movs	r0, #1
 800a93c:	bd10      	pop	{r4, pc}
	...

0800a940 <USB_CoreReset>:
 800a940:	4b0a      	ldr	r3, [pc, #40]	; (800a96c <USB_CoreReset+0x2c>)
 800a942:	3b01      	subs	r3, #1
 800a944:	d00f      	beq.n	800a966 <USB_CoreReset+0x26>
 800a946:	6902      	ldr	r2, [r0, #16]
 800a948:	2a00      	cmp	r2, #0
 800a94a:	dafa      	bge.n	800a942 <USB_CoreReset+0x2>
 800a94c:	6903      	ldr	r3, [r0, #16]
 800a94e:	4a07      	ldr	r2, [pc, #28]	; (800a96c <USB_CoreReset+0x2c>)
 800a950:	f043 0301 	orr.w	r3, r3, #1
 800a954:	6103      	str	r3, [r0, #16]
 800a956:	3a01      	subs	r2, #1
 800a958:	d005      	beq.n	800a966 <USB_CoreReset+0x26>
 800a95a:	6903      	ldr	r3, [r0, #16]
 800a95c:	f013 0301 	ands.w	r3, r3, #1
 800a960:	d1f9      	bne.n	800a956 <USB_CoreReset+0x16>
 800a962:	4618      	mov	r0, r3
 800a964:	4770      	bx	lr
 800a966:	2003      	movs	r0, #3
 800a968:	4770      	bx	lr
 800a96a:	bf00      	nop
 800a96c:	00030d41 	.word	0x00030d41

0800a970 <USB_CoreInit>:
 800a970:	b084      	sub	sp, #16
 800a972:	b538      	push	{r3, r4, r5, lr}
 800a974:	ad05      	add	r5, sp, #20
 800a976:	4604      	mov	r4, r0
 800a978:	e885 000e 	stmia.w	r5, {r1, r2, r3}
 800a97c:	9b0a      	ldr	r3, [sp, #40]	; 0x28
 800a97e:	2b01      	cmp	r3, #1
 800a980:	d126      	bne.n	800a9d0 <USB_CoreInit+0x60>
 800a982:	6b83      	ldr	r3, [r0, #56]	; 0x38
 800a984:	f423 3380 	bic.w	r3, r3, #65536	; 0x10000
 800a988:	6383      	str	r3, [r0, #56]	; 0x38
 800a98a:	68c3      	ldr	r3, [r0, #12]
 800a98c:	f423 0384 	bic.w	r3, r3, #4325376	; 0x420000
 800a990:	f023 0340 	bic.w	r3, r3, #64	; 0x40
 800a994:	60c3      	str	r3, [r0, #12]
 800a996:	68c3      	ldr	r3, [r0, #12]
 800a998:	f423 1340 	bic.w	r3, r3, #3145728	; 0x300000
 800a99c:	60c3      	str	r3, [r0, #12]
 800a99e:	9b11      	ldr	r3, [sp, #68]	; 0x44
 800a9a0:	2b01      	cmp	r3, #1
 800a9a2:	d103      	bne.n	800a9ac <USB_CoreInit+0x3c>
 800a9a4:	68c3      	ldr	r3, [r0, #12]
 800a9a6:	f443 1380 	orr.w	r3, r3, #1048576	; 0x100000
 800a9aa:	60c3      	str	r3, [r0, #12]
 800a9ac:	4620      	mov	r0, r4
 800a9ae:	f7ff ffc7 	bl	800a940 <USB_CoreReset>
 800a9b2:	9b08      	ldr	r3, [sp, #32]
 800a9b4:	2b01      	cmp	r3, #1
 800a9b6:	d107      	bne.n	800a9c8 <USB_CoreInit+0x58>
 800a9b8:	68a3      	ldr	r3, [r4, #8]
 800a9ba:	f043 0306 	orr.w	r3, r3, #6
 800a9be:	60a3      	str	r3, [r4, #8]
 800a9c0:	68a3      	ldr	r3, [r4, #8]
 800a9c2:	f043 0320 	orr.w	r3, r3, #32
 800a9c6:	60a3      	str	r3, [r4, #8]
 800a9c8:	e8bd 4038 	ldmia.w	sp!, {r3, r4, r5, lr}
 800a9cc:	b004      	add	sp, #16
 800a9ce:	4770      	bx	lr
 800a9d0:	68c3      	ldr	r3, [r0, #12]
 800a9d2:	f043 0340 	orr.w	r3, r3, #64	; 0x40
 800a9d6:	60c3      	str	r3, [r0, #12]
 800a9d8:	f7ff ffb2 	bl	800a940 <USB_CoreReset>
 800a9dc:	6ba3      	ldr	r3, [r4, #56]	; 0x38
 800a9de:	f443 3380 	orr.w	r3, r3, #65536	; 0x10000
 800a9e2:	63a3      	str	r3, [r4, #56]	; 0x38
 800a9e4:	e7e5      	b.n	800a9b2 <USB_CoreInit+0x42>

0800a9e6 <USB_DisableGlobalInt>:
 800a9e6:	6883      	ldr	r3, [r0, #8]
 800a9e8:	f023 0301 	bic.w	r3, r3, #1
 800a9ec:	6083      	str	r3, [r0, #8]
 800a9ee:	2000      	movs	r0, #0
 800a9f0:	4770      	bx	lr

0800a9f2 <USB_SetCurrentMode>:
 800a9f2:	b508      	push	{r3, lr}
 800a9f4:	68c3      	ldr	r3, [r0, #12]
 800a9f6:	2901      	cmp	r1, #1
 800a9f8:	f023 43c0 	bic.w	r3, r3, #1610612736	; 0x60000000
 800a9fc:	60c3      	str	r3, [r0, #12]
 800a9fe:	d108      	bne.n	800aa12 <USB_SetCurrentMode+0x20>
 800aa00:	68c3      	ldr	r3, [r0, #12]
 800aa02:	f043 5300 	orr.w	r3, r3, #536870912	; 0x20000000
 800aa06:	60c3      	str	r3, [r0, #12]
 800aa08:	2032      	movs	r0, #50	; 0x32
 800aa0a:	f7fe f931 	bl	8008c70 <HAL_Delay>
 800aa0e:	2000      	movs	r0, #0
 800aa10:	bd08      	pop	{r3, pc}
 800aa12:	b919      	cbnz	r1, 800aa1c <USB_SetCurrentMode+0x2a>
 800aa14:	68c3      	ldr	r3, [r0, #12]
 800aa16:	f043 4380 	orr.w	r3, r3, #1073741824	; 0x40000000
 800aa1a:	e7f4      	b.n	800aa06 <USB_SetCurrentMode+0x14>
 800aa1c:	2001      	movs	r0, #1
 800aa1e:	e7f7      	b.n	800aa10 <USB_SetCurrentMode+0x1e>

0800aa20 <USB_FlushTxFifo>:
 800aa20:	0189      	lsls	r1, r1, #6
 800aa22:	4a07      	ldr	r2, [pc, #28]	; (800aa40 <USB_FlushTxFifo+0x20>)
 800aa24:	f041 0120 	orr.w	r1, r1, #32
 800aa28:	6101      	str	r1, [r0, #16]
 800aa2a:	3a01      	subs	r2, #1
 800aa2c:	d005      	beq.n	800aa3a <USB_FlushTxFifo+0x1a>
 800aa2e:	6903      	ldr	r3, [r0, #16]
 800aa30:	f013 0320 	ands.w	r3, r3, #32
 800aa34:	d1f9      	bne.n	800aa2a <USB_FlushTxFifo+0xa>
 800aa36:	4618      	mov	r0, r3
 800aa38:	4770      	bx	lr
 800aa3a:	2003      	movs	r0, #3
 800aa3c:	4770      	bx	lr
 800aa3e:	bf00      	nop
 800aa40:	00030d41 	.word	0x00030d41

0800aa44 <USB_FlushRxFifo>:
 800aa44:	2310      	movs	r3, #16
 800aa46:	4a06      	ldr	r2, [pc, #24]	; (800aa60 <USB_FlushRxFifo+0x1c>)
 800aa48:	6103      	str	r3, [r0, #16]
 800aa4a:	3a01      	subs	r2, #1
 800aa4c:	d005      	beq.n	800aa5a <USB_FlushRxFifo+0x16>
 800aa4e:	6903      	ldr	r3, [r0, #16]
 800aa50:	f013 0310 	ands.w	r3, r3, #16
 800aa54:	d1f9      	bne.n	800aa4a <USB_FlushRxFifo+0x6>
 800aa56:	4618      	mov	r0, r3
 800aa58:	4770      	bx	lr
 800aa5a:	2003      	movs	r0, #3
 800aa5c:	4770      	bx	lr
 800aa5e:	bf00      	nop
 800aa60:	00030d41 	.word	0x00030d41

0800aa64 <USB_SetDevSpeed>:
 800aa64:	f8d0 3800 	ldr.w	r3, [r0, #2048]	; 0x800
 800aa68:	4319      	orrs	r1, r3
 800aa6a:	f8c0 1800 	str.w	r1, [r0, #2048]	; 0x800
 800aa6e:	2000      	movs	r0, #0
 800aa70:	4770      	bx	lr
	...

0800aa74 <USB_DevInit>:
 800aa74:	b084      	sub	sp, #16
 800aa76:	e92d 43f8 	stmdb	sp!, {r3, r4, r5, r6, r7, r8, r9, lr}
 800aa7a:	4604      	mov	r4, r0
 800aa7c:	a809      	add	r0, sp, #36	; 0x24
 800aa7e:	460f      	mov	r7, r1
 800aa80:	e880 000e 	stmia.w	r0, {r1, r2, r3}
 800aa84:	2300      	movs	r3, #0
 800aa86:	9a0b      	ldr	r2, [sp, #44]	; 0x2c
 800aa88:	990e      	ldr	r1, [sp, #56]	; 0x38
 800aa8a:	9d13      	ldr	r5, [sp, #76]	; 0x4c
 800aa8c:	461e      	mov	r6, r3
 800aa8e:	f103 0040 	add.w	r0, r3, #64	; 0x40
 800aa92:	3301      	adds	r3, #1
 800aa94:	eb04 0080 	add.w	r0, r4, r0, lsl #2
 800aa98:	2b0f      	cmp	r3, #15
 800aa9a:	6046      	str	r6, [r0, #4]
 800aa9c:	d1f7      	bne.n	800aa8e <USB_DevInit+0x1a>
 800aa9e:	f504 6600 	add.w	r6, r4, #2048	; 0x800
 800aaa2:	2d00      	cmp	r5, #0
 800aaa4:	d16b      	bne.n	800ab7e <USB_DevInit+0x10a>
 800aaa6:	6873      	ldr	r3, [r6, #4]
 800aaa8:	f043 0302 	orr.w	r3, r3, #2
 800aaac:	6073      	str	r3, [r6, #4]
 800aaae:	6ba3      	ldr	r3, [r4, #56]	; 0x38
 800aab0:	f423 1300 	bic.w	r3, r3, #2097152	; 0x200000
 800aab4:	63a3      	str	r3, [r4, #56]	; 0x38
 800aab6:	6823      	ldr	r3, [r4, #0]
 800aab8:	f043 0340 	orr.w	r3, r3, #64	; 0x40
 800aabc:	6023      	str	r3, [r4, #0]
 800aabe:	6823      	ldr	r3, [r4, #0]
 800aac0:	f043 0380 	orr.w	r3, r3, #128	; 0x80
 800aac4:	6023      	str	r3, [r4, #0]
 800aac6:	2300      	movs	r3, #0
 800aac8:	2901      	cmp	r1, #1
 800aaca:	f8c4 3e00 	str.w	r3, [r4, #3584]	; 0xe00
 800aace:	f8d4 3800 	ldr.w	r3, [r4, #2048]	; 0x800
 800aad2:	f8c4 3800 	str.w	r3, [r4, #2048]	; 0x800
 800aad6:	d159      	bne.n	800ab8c <USB_DevInit+0x118>
 800aad8:	2a00      	cmp	r2, #0
 800aada:	d155      	bne.n	800ab88 <USB_DevInit+0x114>
 800aadc:	2100      	movs	r1, #0
 800aade:	4620      	mov	r0, r4
 800aae0:	f7ff ffc0 	bl	800aa64 <USB_SetDevSpeed>
 800aae4:	2110      	movs	r1, #16
 800aae6:	4620      	mov	r0, r4
 800aae8:	f7ff ff9a 	bl	800aa20 <USB_FlushTxFifo>
 800aaec:	4601      	mov	r1, r0
 800aaee:	4620      	mov	r0, r4
 800aaf0:	f7ff ffa8 	bl	800aa44 <USB_FlushRxFifo>
 800aaf4:	2800      	cmp	r0, #0
 800aaf6:	d14d      	bne.n	800ab94 <USB_DevInit+0x120>
 800aaf8:	1c08      	adds	r0, r1, #0
 800aafa:	bf18      	it	ne
 800aafc:	2001      	movne	r0, #1
 800aafe:	2300      	movs	r3, #0
 800ab00:	f504 6210 	add.w	r2, r4, #2304	; 0x900
 800ab04:	f04f 4c90 	mov.w	ip, #1207959552	; 0x48000000
 800ab08:	f04f 6e00 	mov.w	lr, #134217728	; 0x8000000
 800ab0c:	4619      	mov	r1, r3
 800ab0e:	f64f 387f 	movw	r8, #64383	; 0xfb7f
 800ab12:	6133      	str	r3, [r6, #16]
 800ab14:	6173      	str	r3, [r6, #20]
 800ab16:	61f3      	str	r3, [r6, #28]
 800ab18:	42bb      	cmp	r3, r7
 800ab1a:	d13d      	bne.n	800ab98 <USB_DevInit+0x124>
 800ab1c:	2100      	movs	r1, #0
 800ab1e:	f504 6230 	add.w	r2, r4, #2816	; 0xb00
 800ab22:	f04f 4c90 	mov.w	ip, #1207959552	; 0x48000000
 800ab26:	f04f 6e00 	mov.w	lr, #134217728	; 0x8000000
 800ab2a:	460f      	mov	r7, r1
 800ab2c:	f64f 387f 	movw	r8, #64383	; 0xfb7f
 800ab30:	428b      	cmp	r3, r1
 800ab32:	d144      	bne.n	800abbe <USB_DevInit+0x14a>
 800ab34:	6933      	ldr	r3, [r6, #16]
 800ab36:	f423 7380 	bic.w	r3, r3, #256	; 0x100
 800ab3a:	6133      	str	r3, [r6, #16]
 800ab3c:	2300      	movs	r3, #0
 800ab3e:	61a3      	str	r3, [r4, #24]
 800ab40:	f06f 4380 	mvn.w	r3, #1073741824	; 0x40000000
 800ab44:	6163      	str	r3, [r4, #20]
 800ab46:	9b0c      	ldr	r3, [sp, #48]	; 0x30
 800ab48:	b91b      	cbnz	r3, 800ab52 <USB_DevInit+0xde>
 800ab4a:	69a3      	ldr	r3, [r4, #24]
 800ab4c:	f043 0310 	orr.w	r3, r3, #16
 800ab50:	61a3      	str	r3, [r4, #24]
 800ab52:	69a2      	ldr	r2, [r4, #24]
 800ab54:	4b23      	ldr	r3, [pc, #140]	; (800abe4 <USB_DevInit+0x170>)
 800ab56:	4313      	orrs	r3, r2
 800ab58:	61a3      	str	r3, [r4, #24]
 800ab5a:	9b0f      	ldr	r3, [sp, #60]	; 0x3c
 800ab5c:	b11b      	cbz	r3, 800ab66 <USB_DevInit+0xf2>
 800ab5e:	69a3      	ldr	r3, [r4, #24]
 800ab60:	f043 0308 	orr.w	r3, r3, #8
 800ab64:	61a3      	str	r3, [r4, #24]
 800ab66:	2d01      	cmp	r5, #1
 800ab68:	d105      	bne.n	800ab76 <USB_DevInit+0x102>
 800ab6a:	69a3      	ldr	r3, [r4, #24]
 800ab6c:	f043 4380 	orr.w	r3, r3, #1073741824	; 0x40000000
 800ab70:	f043 0304 	orr.w	r3, r3, #4
 800ab74:	61a3      	str	r3, [r4, #24]
 800ab76:	e8bd 43f8 	ldmia.w	sp!, {r3, r4, r5, r6, r7, r8, r9, lr}
 800ab7a:	b004      	add	sp, #16
 800ab7c:	4770      	bx	lr
 800ab7e:	6ba3      	ldr	r3, [r4, #56]	; 0x38
 800ab80:	f443 1300 	orr.w	r3, r3, #2097152	; 0x200000
 800ab84:	63a3      	str	r3, [r4, #56]	; 0x38
 800ab86:	e79e      	b.n	800aac6 <USB_DevInit+0x52>
 800ab88:	2101      	movs	r1, #1
 800ab8a:	e7a8      	b.n	800aade <USB_DevInit+0x6a>
 800ab8c:	2903      	cmp	r1, #3
 800ab8e:	d0a3      	beq.n	800aad8 <USB_DevInit+0x64>
 800ab90:	2103      	movs	r1, #3
 800ab92:	e7a4      	b.n	800aade <USB_DevInit+0x6a>
 800ab94:	2001      	movs	r0, #1
 800ab96:	e7b2      	b.n	800aafe <USB_DevInit+0x8a>
 800ab98:	f8d2 9000 	ldr.w	r9, [r2]
 800ab9c:	f1b9 0f00 	cmp.w	r9, #0
 800aba0:	da0b      	bge.n	800abba <USB_DevInit+0x146>
 800aba2:	b93b      	cbnz	r3, 800abb4 <USB_DevInit+0x140>
 800aba4:	f8c2 e000 	str.w	lr, [r2]
 800aba8:	6111      	str	r1, [r2, #16]
 800abaa:	3301      	adds	r3, #1
 800abac:	f8c2 8008 	str.w	r8, [r2, #8]
 800abb0:	3220      	adds	r2, #32
 800abb2:	e7b1      	b.n	800ab18 <USB_DevInit+0xa4>
 800abb4:	f8c2 c000 	str.w	ip, [r2]
 800abb8:	e7f6      	b.n	800aba8 <USB_DevInit+0x134>
 800abba:	6011      	str	r1, [r2, #0]
 800abbc:	e7f4      	b.n	800aba8 <USB_DevInit+0x134>
 800abbe:	f8d2 9000 	ldr.w	r9, [r2]
 800abc2:	f1b9 0f00 	cmp.w	r9, #0
 800abc6:	da0b      	bge.n	800abe0 <USB_DevInit+0x16c>
 800abc8:	b939      	cbnz	r1, 800abda <USB_DevInit+0x166>
 800abca:	f8c2 e000 	str.w	lr, [r2]
 800abce:	6117      	str	r7, [r2, #16]
 800abd0:	3101      	adds	r1, #1
 800abd2:	f8c2 8008 	str.w	r8, [r2, #8]
 800abd6:	3220      	adds	r2, #32
 800abd8:	e7aa      	b.n	800ab30 <USB_DevInit+0xbc>
 800abda:	f8c2 c000 	str.w	ip, [r2]
 800abde:	e7f6      	b.n	800abce <USB_DevInit+0x15a>
 800abe0:	6017      	str	r7, [r2, #0]
 800abe2:	e7f4      	b.n	800abce <USB_DevInit+0x15a>
 800abe4:	803c3800 	.word	0x803c3800

0800abe8 <USB_DevDisconnect>:
 800abe8:	b508      	push	{r3, lr}
 800abea:	f8d0 3804 	ldr.w	r3, [r0, #2052]	; 0x804
 800abee:	f043 0302 	orr.w	r3, r3, #2
 800abf2:	f8c0 3804 	str.w	r3, [r0, #2052]	; 0x804
 800abf6:	2003      	movs	r0, #3
 800abf8:	f7fe f83a 	bl	8008c70 <HAL_Delay>
 800abfc:	2000      	movs	r0, #0
 800abfe:	bd08      	pop	{r3, pc}

0800ac00 <MX_LWIP_Init>:
 800ac00:	b5f0      	push	{r4, r5, r6, r7, lr}
 800ac02:	23c0      	movs	r3, #192	; 0xc0
 800ac04:	4f2a      	ldr	r7, [pc, #168]	; (800acb0 <MX_LWIP_Init+0xb0>)
 800ac06:	2500      	movs	r5, #0
 800ac08:	4c2a      	ldr	r4, [pc, #168]	; (800acb4 <MX_LWIP_Init+0xb4>)
 800ac0a:	703b      	strb	r3, [r7, #0]
 800ac0c:	23a8      	movs	r3, #168	; 0xa8
 800ac0e:	4e2a      	ldr	r6, [pc, #168]	; (800acb8 <MX_LWIP_Init+0xb8>)
 800ac10:	b08f      	sub	sp, #60	; 0x3c
 800ac12:	707b      	strb	r3, [r7, #1]
 800ac14:	2301      	movs	r3, #1
 800ac16:	4629      	mov	r1, r5
 800ac18:	4628      	mov	r0, r5
 800ac1a:	70bb      	strb	r3, [r7, #2]
 800ac1c:	2346      	movs	r3, #70	; 0x46
 800ac1e:	7025      	strb	r5, [r4, #0]
 800ac20:	70fb      	strb	r3, [r7, #3]
 800ac22:	23ff      	movs	r3, #255	; 0xff
 800ac24:	7065      	strb	r5, [r4, #1]
 800ac26:	7033      	strb	r3, [r6, #0]
 800ac28:	7073      	strb	r3, [r6, #1]
 800ac2a:	70b3      	strb	r3, [r6, #2]
 800ac2c:	70a5      	strb	r5, [r4, #2]
 800ac2e:	70e5      	strb	r5, [r4, #3]
 800ac30:	70f5      	strb	r5, [r6, #3]
 800ac32:	f002 f9e7 	bl	800d004 <tcpip_init>
 800ac36:	683b      	ldr	r3, [r7, #0]
 800ac38:	4920      	ldr	r1, [pc, #128]	; (800acbc <MX_LWIP_Init+0xbc>)
 800ac3a:	4a21      	ldr	r2, [pc, #132]	; (800acc0 <MX_LWIP_Init+0xc0>)
 800ac3c:	600b      	str	r3, [r1, #0]
 800ac3e:	6833      	ldr	r3, [r6, #0]
 800ac40:	6820      	ldr	r0, [r4, #0]
 800ac42:	6013      	str	r3, [r2, #0]
 800ac44:	4b1f      	ldr	r3, [pc, #124]	; (800acc4 <MX_LWIP_Init+0xc4>)
 800ac46:	4c20      	ldr	r4, [pc, #128]	; (800acc8 <MX_LWIP_Init+0xc8>)
 800ac48:	6018      	str	r0, [r3, #0]
 800ac4a:	4820      	ldr	r0, [pc, #128]	; (800accc <MX_LWIP_Init+0xcc>)
 800ac4c:	9002      	str	r0, [sp, #8]
 800ac4e:	4820      	ldr	r0, [pc, #128]	; (800acd0 <MX_LWIP_Init+0xd0>)
 800ac50:	e9cd 5000 	strd	r5, r0, [sp]
 800ac54:	4620      	mov	r0, r4
 800ac56:	f003 f8df 	bl	800de18 <netif_add>
 800ac5a:	4620      	mov	r0, r4
 800ac5c:	f003 f974 	bl	800df48 <netif_set_default>
 800ac60:	f894 302d 	ldrb.w	r3, [r4, #45]	; 0x2d
 800ac64:	4620      	mov	r0, r4
 800ac66:	075b      	lsls	r3, r3, #29
 800ac68:	d51f      	bpl.n	800acaa <MX_LWIP_Init+0xaa>
 800ac6a:	f003 f973 	bl	800df54 <netif_set_up>
 800ac6e:	4919      	ldr	r1, [pc, #100]	; (800acd4 <MX_LWIP_Init+0xd4>)
 800ac70:	4815      	ldr	r0, [pc, #84]	; (800acc8 <MX_LWIP_Init+0xc8>)
 800ac72:	f003 f9e3 	bl	800e03c <netif_set_link_callback>
 800ac76:	2300      	movs	r3, #0
 800ac78:	2101      	movs	r1, #1
 800ac7a:	a805      	add	r0, sp, #20
 800ac7c:	4e16      	ldr	r6, [pc, #88]	; (800acd8 <MX_LWIP_Init+0xd8>)
 800ac7e:	4d17      	ldr	r5, [pc, #92]	; (800acdc <MX_LWIP_Init+0xdc>)
 800ac80:	e9cd 3305 	strd	r3, r3, [sp, #20]
 800ac84:	f000 fb40 	bl	800b308 <osSemaphoreCreate>
 800ac88:	4b15      	ldr	r3, [pc, #84]	; (800ace0 <MX_LWIP_Init+0xe0>)
 800ac8a:	e9c6 4000 	strd	r4, r0, [r6]
 800ac8e:	6018      	str	r0, [r3, #0]
 800ac90:	ac07      	add	r4, sp, #28
 800ac92:	cd0f      	ldmia	r5!, {r0, r1, r2, r3}
 800ac94:	c40f      	stmia	r4!, {r0, r1, r2, r3}
 800ac96:	e895 0007 	ldmia.w	r5, {r0, r1, r2}
 800ac9a:	e884 0007 	stmia.w	r4, {r0, r1, r2}
 800ac9e:	4631      	mov	r1, r6
 800aca0:	a807      	add	r0, sp, #28
 800aca2:	f000 faaf 	bl	800b204 <osThreadCreate>
 800aca6:	b00f      	add	sp, #60	; 0x3c
 800aca8:	bdf0      	pop	{r4, r5, r6, r7, pc}
 800acaa:	f003 f96d 	bl	800df88 <netif_set_down>
 800acae:	e7de      	b.n	800ac6e <MX_LWIP_Init+0x6e>
 800acb0:	20004b34 	.word	0x20004b34
 800acb4:	20004af4 	.word	0x20004af4
 800acb8:	20004b30 	.word	0x20004b30
 800acbc:	20004b2c 	.word	0x20004b2c
 800acc0:	20004b38 	.word	0x20004b38
 800acc4:	20004b3c 	.word	0x20004b3c
 800acc8:	20004af8 	.word	0x20004af8
 800accc:	0800cf91 	.word	0x0800cf91
 800acd0:	0800afa9 	.word	0x0800afa9
 800acd4:	0800b145 	.word	0x0800b145
 800acd8:	20004aec 	.word	0x20004aec
 800acdc:	0801499c 	.word	0x0801499c
 800ace0:	20000330 	.word	0x20000330

0800ace4 <low_level_output>:
 800ace4:	e92d 4ff7 	stmdb	sp!, {r0, r1, r2, r4, r5, r6, r7, r8, r9, sl, fp, lr}
 800ace8:	4a24      	ldr	r2, [pc, #144]	; (800ad7c <low_level_output+0x98>)
 800acea:	f04f 0800 	mov.w	r8, #0
 800acee:	460c      	mov	r4, r1
 800acf0:	f240 5bf4 	movw	fp, #1524	; 0x5f4
 800acf4:	6ad6      	ldr	r6, [r2, #44]	; 0x2c
 800acf6:	4647      	mov	r7, r8
 800acf8:	9200      	str	r2, [sp, #0]
 800acfa:	68b3      	ldr	r3, [r6, #8]
 800acfc:	b92c      	cbnz	r4, 800ad0a <low_level_output+0x26>
 800acfe:	4639      	mov	r1, r7
 800ad00:	481e      	ldr	r0, [pc, #120]	; (800ad7c <low_level_output+0x98>)
 800ad02:	f7fe f935 	bl	8008f70 <HAL_ETH_TransmitFrame>
 800ad06:	4620      	mov	r0, r4
 800ad08:	e004      	b.n	800ad14 <low_level_output+0x30>
 800ad0a:	6832      	ldr	r2, [r6, #0]
 800ad0c:	2a00      	cmp	r2, #0
 800ad0e:	da11      	bge.n	800ad34 <low_level_output+0x50>
 800ad10:	f06f 0007 	mvn.w	r0, #7
 800ad14:	9b00      	ldr	r3, [sp, #0]
 800ad16:	f241 0214 	movw	r2, #4116	; 0x1014
 800ad1a:	681b      	ldr	r3, [r3, #0]
 800ad1c:	5899      	ldr	r1, [r3, r2]
 800ad1e:	0689      	lsls	r1, r1, #26
 800ad20:	d505      	bpl.n	800ad2e <low_level_output+0x4a>
 800ad22:	2120      	movs	r1, #32
 800ad24:	5099      	str	r1, [r3, r2]
 800ad26:	f241 0204 	movw	r2, #4100	; 0x1004
 800ad2a:	2100      	movs	r1, #0
 800ad2c:	5099      	str	r1, [r3, r2]
 800ad2e:	b003      	add	sp, #12
 800ad30:	e8bd 8ff0 	ldmia.w	sp!, {r4, r5, r6, r7, r8, r9, sl, fp, pc}
 800ad34:	f8b4 900a 	ldrh.w	r9, [r4, #10]
 800ad38:	4645      	mov	r5, r8
 800ad3a:	f04f 0a00 	mov.w	sl, #0
 800ad3e:	eb05 0809 	add.w	r8, r5, r9
 800ad42:	6861      	ldr	r1, [r4, #4]
 800ad44:	1958      	adds	r0, r3, r5
 800ad46:	45d8      	cmp	r8, fp
 800ad48:	4451      	add	r1, sl
 800ad4a:	d807      	bhi.n	800ad5c <low_level_output+0x78>
 800ad4c:	464a      	mov	r2, r9
 800ad4e:	9301      	str	r3, [sp, #4]
 800ad50:	444f      	add	r7, r9
 800ad52:	f008 feb6 	bl	8013ac2 <memcpy>
 800ad56:	6824      	ldr	r4, [r4, #0]
 800ad58:	9b01      	ldr	r3, [sp, #4]
 800ad5a:	e7cf      	b.n	800acfc <low_level_output+0x18>
 800ad5c:	ebab 0505 	sub.w	r5, fp, r5
 800ad60:	462a      	mov	r2, r5
 800ad62:	f008 feae 	bl	8013ac2 <memcpy>
 800ad66:	68f6      	ldr	r6, [r6, #12]
 800ad68:	6833      	ldr	r3, [r6, #0]
 800ad6a:	2b00      	cmp	r3, #0
 800ad6c:	dbd0      	blt.n	800ad10 <low_level_output+0x2c>
 800ad6e:	44aa      	add	sl, r5
 800ad70:	442f      	add	r7, r5
 800ad72:	68b3      	ldr	r3, [r6, #8]
 800ad74:	f2a8 59f4 	subw	r9, r8, #1524	; 0x5f4
 800ad78:	2500      	movs	r5, #0
 800ad7a:	e7e0      	b.n	800ad3e <low_level_output+0x5a>
 800ad7c:	20006410 	.word	0x20006410

0800ad80 <ethernetif_input>:
 800ad80:	e92d 4ff7 	stmdb	sp!, {r0, r1, r2, r4, r5, r6, r7, r8, r9, sl, fp, lr}
 800ad84:	4683      	mov	fp, r0
 800ad86:	4c3b      	ldr	r4, [pc, #236]	; (800ae74 <ethernetif_input+0xf4>)
 800ad88:	f04f 31ff 	mov.w	r1, #4294967295	; 0xffffffff
 800ad8c:	6820      	ldr	r0, [r4, #0]
 800ad8e:	f000 fae1 	bl	800b354 <osSemaphoreWait>
 800ad92:	2800      	cmp	r0, #0
 800ad94:	d1f8      	bne.n	800ad88 <ethernetif_input+0x8>
 800ad96:	4d38      	ldr	r5, [pc, #224]	; (800ae78 <ethernetif_input+0xf8>)
 800ad98:	4838      	ldr	r0, [pc, #224]	; (800ae7c <ethernetif_input+0xfc>)
 800ad9a:	f008 fe2c 	bl	80139f6 <sys_mutex_lock>
 800ad9e:	4628      	mov	r0, r5
 800ada0:	f7fe f958 	bl	8009054 <HAL_ETH_GetReceivedFrame_IT>
 800ada4:	4607      	mov	r7, r0
 800ada6:	b130      	cbz	r0, 800adb6 <ethernetif_input+0x36>
 800ada8:	2400      	movs	r4, #0
 800adaa:	4834      	ldr	r0, [pc, #208]	; (800ae7c <ethernetif_input+0xfc>)
 800adac:	f008 fe28 	bl	8013a00 <sys_mutex_unlock>
 800adb0:	2c00      	cmp	r4, #0
 800adb2:	d1f0      	bne.n	800ad96 <ethernetif_input+0x16>
 800adb4:	e7e7      	b.n	800ad86 <ethernetif_input+0x6>
 800adb6:	8fa9      	ldrh	r1, [r5, #60]	; 0x3c
 800adb8:	2900      	cmp	r1, #0
 800adba:	d051      	beq.n	800ae60 <ethernetif_input+0xe0>
 800adbc:	f44f 72c1 	mov.w	r2, #386	; 0x182
 800adc0:	6c2e      	ldr	r6, [r5, #64]	; 0x40
 800adc2:	f003 fa77 	bl	800e2b4 <pbuf_alloc>
 800adc6:	4604      	mov	r4, r0
 800adc8:	2800      	cmp	r0, #0
 800adca:	d049      	beq.n	800ae60 <ethernetif_input+0xe0>
 800adcc:	f8d5 a030 	ldr.w	sl, [r5, #48]	; 0x30
 800add0:	4680      	mov	r8, r0
 800add2:	f240 59f4 	movw	r9, #1524	; 0x5f4
 800add6:	9600      	str	r6, [sp, #0]
 800add8:	f8b8 200a 	ldrh.w	r2, [r8, #10]
 800addc:	463e      	mov	r6, r7
 800adde:	2300      	movs	r3, #0
 800ade0:	18b7      	adds	r7, r6, r2
 800ade2:	f8d8 0004 	ldr.w	r0, [r8, #4]
 800ade6:	9900      	ldr	r1, [sp, #0]
 800ade8:	454f      	cmp	r7, r9
 800adea:	4418      	add	r0, r3
 800adec:	4431      	add	r1, r6
 800adee:	d826      	bhi.n	800ae3e <ethernetif_input+0xbe>
 800adf0:	f008 fe67 	bl	8013ac2 <memcpy>
 800adf4:	f8d8 8000 	ldr.w	r8, [r8]
 800adf8:	f1b8 0f00 	cmp.w	r8, #0
 800adfc:	d1ec      	bne.n	800add8 <ethernetif_input+0x58>
 800adfe:	6b2b      	ldr	r3, [r5, #48]	; 0x30
 800ae00:	2200      	movs	r2, #0
 800ae02:	6ba8      	ldr	r0, [r5, #56]	; 0x38
 800ae04:	4282      	cmp	r2, r0
 800ae06:	d12d      	bne.n	800ae64 <ethernetif_input+0xe4>
 800ae08:	2300      	movs	r3, #0
 800ae0a:	f241 0214 	movw	r2, #4116	; 0x1014
 800ae0e:	63ab      	str	r3, [r5, #56]	; 0x38
 800ae10:	682b      	ldr	r3, [r5, #0]
 800ae12:	5899      	ldr	r1, [r3, r2]
 800ae14:	0609      	lsls	r1, r1, #24
 800ae16:	d505      	bpl.n	800ae24 <ethernetif_input+0xa4>
 800ae18:	2180      	movs	r1, #128	; 0x80
 800ae1a:	5099      	str	r1, [r3, r2]
 800ae1c:	f241 0208 	movw	r2, #4104	; 0x1008
 800ae20:	2100      	movs	r1, #0
 800ae22:	5099      	str	r1, [r3, r2]
 800ae24:	2c00      	cmp	r4, #0
 800ae26:	d0bf      	beq.n	800ada8 <ethernetif_input+0x28>
 800ae28:	f8db 3010 	ldr.w	r3, [fp, #16]
 800ae2c:	4659      	mov	r1, fp
 800ae2e:	4620      	mov	r0, r4
 800ae30:	4798      	blx	r3
 800ae32:	2800      	cmp	r0, #0
 800ae34:	d0b9      	beq.n	800adaa <ethernetif_input+0x2a>
 800ae36:	4620      	mov	r0, r4
 800ae38:	f003 f9d4 	bl	800e1e4 <pbuf_free>
 800ae3c:	e7b5      	b.n	800adaa <ethernetif_input+0x2a>
 800ae3e:	eba9 0606 	sub.w	r6, r9, r6
 800ae42:	9301      	str	r3, [sp, #4]
 800ae44:	4632      	mov	r2, r6
 800ae46:	f008 fe3c 	bl	8013ac2 <memcpy>
 800ae4a:	f8da a00c 	ldr.w	sl, [sl, #12]
 800ae4e:	f2a7 52f4 	subw	r2, r7, #1524	; 0x5f4
 800ae52:	f8da 3008 	ldr.w	r3, [sl, #8]
 800ae56:	9300      	str	r3, [sp, #0]
 800ae58:	9b01      	ldr	r3, [sp, #4]
 800ae5a:	4433      	add	r3, r6
 800ae5c:	2600      	movs	r6, #0
 800ae5e:	e7bf      	b.n	800ade0 <ethernetif_input+0x60>
 800ae60:	2400      	movs	r4, #0
 800ae62:	e7cc      	b.n	800adfe <ethernetif_input+0x7e>
 800ae64:	6819      	ldr	r1, [r3, #0]
 800ae66:	3201      	adds	r2, #1
 800ae68:	f041 4100 	orr.w	r1, r1, #2147483648	; 0x80000000
 800ae6c:	6019      	str	r1, [r3, #0]
 800ae6e:	68db      	ldr	r3, [r3, #12]
 800ae70:	e7c8      	b.n	800ae04 <ethernetif_input+0x84>
 800ae72:	bf00      	nop
 800ae74:	20000334 	.word	0x20000334
 800ae78:	20006410 	.word	0x20006410
 800ae7c:	20007c28 	.word	0x20007c28

0800ae80 <HAL_ETH_MspInit>:
 800ae80:	b5f0      	push	{r4, r5, r6, r7, lr}
 800ae82:	b08d      	sub	sp, #52	; 0x34
 800ae84:	4604      	mov	r4, r0
 800ae86:	2214      	movs	r2, #20
 800ae88:	2100      	movs	r1, #0
 800ae8a:	a807      	add	r0, sp, #28
 800ae8c:	f008 fe24 	bl	8013ad8 <memset>
 800ae90:	6822      	ldr	r2, [r4, #0]
 800ae92:	4b3d      	ldr	r3, [pc, #244]	; (800af88 <HAL_ETH_MspInit+0x108>)
 800ae94:	429a      	cmp	r2, r3
 800ae96:	d175      	bne.n	800af84 <HAL_ETH_MspInit+0x104>
 800ae98:	f5a3 4390 	sub.w	r3, r3, #18432	; 0x4800
 800ae9c:	2702      	movs	r7, #2
 800ae9e:	2603      	movs	r6, #3
 800aea0:	250b      	movs	r5, #11
 800aea2:	6b1a      	ldr	r2, [r3, #48]	; 0x30
 800aea4:	a907      	add	r1, sp, #28
 800aea6:	4839      	ldr	r0, [pc, #228]	; (800af8c <HAL_ETH_MspInit+0x10c>)
 800aea8:	2400      	movs	r4, #0
 800aeaa:	f042 7200 	orr.w	r2, r2, #33554432	; 0x2000000
 800aeae:	631a      	str	r2, [r3, #48]	; 0x30
 800aeb0:	6b1a      	ldr	r2, [r3, #48]	; 0x30
 800aeb2:	f002 7200 	and.w	r2, r2, #33554432	; 0x2000000
 800aeb6:	9200      	str	r2, [sp, #0]
 800aeb8:	9a00      	ldr	r2, [sp, #0]
 800aeba:	6b1a      	ldr	r2, [r3, #48]	; 0x30
 800aebc:	f042 6280 	orr.w	r2, r2, #67108864	; 0x4000000
 800aec0:	631a      	str	r2, [r3, #48]	; 0x30
 800aec2:	6b1a      	ldr	r2, [r3, #48]	; 0x30
 800aec4:	f002 6280 	and.w	r2, r2, #67108864	; 0x4000000
 800aec8:	9201      	str	r2, [sp, #4]
 800aeca:	9a01      	ldr	r2, [sp, #4]
 800aecc:	6b1a      	ldr	r2, [r3, #48]	; 0x30
 800aece:	f042 6200 	orr.w	r2, r2, #134217728	; 0x8000000
 800aed2:	631a      	str	r2, [r3, #48]	; 0x30
 800aed4:	6b1a      	ldr	r2, [r3, #48]	; 0x30
 800aed6:	f002 6200 	and.w	r2, r2, #134217728	; 0x8000000
 800aeda:	9202      	str	r2, [sp, #8]
 800aedc:	9a02      	ldr	r2, [sp, #8]
 800aede:	6b1a      	ldr	r2, [r3, #48]	; 0x30
 800aee0:	f042 0204 	orr.w	r2, r2, #4
 800aee4:	631a      	str	r2, [r3, #48]	; 0x30
 800aee6:	6b1a      	ldr	r2, [r3, #48]	; 0x30
 800aee8:	f002 0204 	and.w	r2, r2, #4
 800aeec:	9203      	str	r2, [sp, #12]
 800aeee:	9a03      	ldr	r2, [sp, #12]
 800aef0:	6b1a      	ldr	r2, [r3, #48]	; 0x30
 800aef2:	f042 0201 	orr.w	r2, r2, #1
 800aef6:	631a      	str	r2, [r3, #48]	; 0x30
 800aef8:	6b1a      	ldr	r2, [r3, #48]	; 0x30
 800aefa:	f002 0201 	and.w	r2, r2, #1
 800aefe:	9204      	str	r2, [sp, #16]
 800af00:	9a04      	ldr	r2, [sp, #16]
 800af02:	6b1a      	ldr	r2, [r3, #48]	; 0x30
 800af04:	f042 0202 	orr.w	r2, r2, #2
 800af08:	631a      	str	r2, [r3, #48]	; 0x30
 800af0a:	6b1a      	ldr	r2, [r3, #48]	; 0x30
 800af0c:	f002 0202 	and.w	r2, r2, #2
 800af10:	9205      	str	r2, [sp, #20]
 800af12:	9a05      	ldr	r2, [sp, #20]
 800af14:	6b1a      	ldr	r2, [r3, #48]	; 0x30
 800af16:	f042 0240 	orr.w	r2, r2, #64	; 0x40
 800af1a:	631a      	str	r2, [r3, #48]	; 0x30
 800af1c:	6b1b      	ldr	r3, [r3, #48]	; 0x30
 800af1e:	f003 0340 	and.w	r3, r3, #64	; 0x40
 800af22:	9306      	str	r3, [sp, #24]
 800af24:	9b06      	ldr	r3, [sp, #24]
 800af26:	2332      	movs	r3, #50	; 0x32
 800af28:	e9cd 650a 	strd	r6, r5, [sp, #40]	; 0x28
 800af2c:	e9cd 3707 	strd	r3, r7, [sp, #28]
 800af30:	f7fe fb82 	bl	8009638 <HAL_GPIO_Init>
 800af34:	2386      	movs	r3, #134	; 0x86
 800af36:	a907      	add	r1, sp, #28
 800af38:	4815      	ldr	r0, [pc, #84]	; (800af90 <HAL_ETH_MspInit+0x110>)
 800af3a:	950b      	str	r5, [sp, #44]	; 0x2c
 800af3c:	e9cd 3707 	strd	r3, r7, [sp, #28]
 800af40:	e9cd 4609 	strd	r4, r6, [sp, #36]	; 0x24
 800af44:	f7fe fb78 	bl	8009638 <HAL_GPIO_Init>
 800af48:	f44f 5300 	mov.w	r3, #8192	; 0x2000
 800af4c:	a907      	add	r1, sp, #28
 800af4e:	4811      	ldr	r0, [pc, #68]	; (800af94 <HAL_ETH_MspInit+0x114>)
 800af50:	950b      	str	r5, [sp, #44]	; 0x2c
 800af52:	e9cd 3707 	strd	r3, r7, [sp, #28]
 800af56:	e9cd 4609 	strd	r4, r6, [sp, #36]	; 0x24
 800af5a:	f7fe fb6d 	bl	8009638 <HAL_GPIO_Init>
 800af5e:	f44f 5320 	mov.w	r3, #10240	; 0x2800
 800af62:	a907      	add	r1, sp, #28
 800af64:	480c      	ldr	r0, [pc, #48]	; (800af98 <HAL_ETH_MspInit+0x118>)
 800af66:	950b      	str	r5, [sp, #44]	; 0x2c
 800af68:	e9cd 3707 	strd	r3, r7, [sp, #28]
 800af6c:	e9cd 4609 	strd	r4, r6, [sp, #36]	; 0x24
 800af70:	f7fe fb62 	bl	8009638 <HAL_GPIO_Init>
 800af74:	203d      	movs	r0, #61	; 0x3d
 800af76:	4622      	mov	r2, r4
 800af78:	4621      	mov	r1, r4
 800af7a:	f7fd fe9d 	bl	8008cb8 <HAL_NVIC_SetPriority>
 800af7e:	203d      	movs	r0, #61	; 0x3d
 800af80:	f7fd fecc 	bl	8008d1c <HAL_NVIC_EnableIRQ>
 800af84:	b00d      	add	sp, #52	; 0x34
 800af86:	bdf0      	pop	{r4, r5, r6, r7, pc}
 800af88:	40028000 	.word	0x40028000
 800af8c:	40020800 	.word	0x40020800
 800af90:	40020000 	.word	0x40020000
 800af94:	40020400 	.word	0x40020400
 800af98:	40021800 	.word	0x40021800

0800af9c <HAL_ETH_RxCpltCallback>:
 800af9c:	4b01      	ldr	r3, [pc, #4]	; (800afa4 <HAL_ETH_RxCpltCallback+0x8>)
 800af9e:	6818      	ldr	r0, [r3, #0]
 800afa0:	f000 b9fe 	b.w	800b3a0 <osSemaphoreRelease>
 800afa4:	20000334 	.word	0x20000334

0800afa8 <ethernetif_init>:
 800afa8:	b5f0      	push	{r4, r5, r6, r7, lr}
 800afaa:	4604      	mov	r4, r0
 800afac:	b08d      	sub	sp, #52	; 0x34
 800afae:	b930      	cbnz	r0, 800afbe <ethernetif_init+0x16>
 800afb0:	4b41      	ldr	r3, [pc, #260]	; (800b0b8 <ethernetif_init+0x110>)
 800afb2:	f240 2233 	movw	r2, #563	; 0x233
 800afb6:	4941      	ldr	r1, [pc, #260]	; (800b0bc <ethernetif_init+0x114>)
 800afb8:	4841      	ldr	r0, [pc, #260]	; (800b0c0 <ethernetif_init+0x118>)
 800afba:	f008 fd95 	bl	8013ae8 <iprintf>
 800afbe:	f247 4373 	movw	r3, #29811	; 0x7473
 800afc2:	4d40      	ldr	r5, [pc, #256]	; (800b0c4 <ethernetif_init+0x11c>)
 800afc4:	4940      	ldr	r1, [pc, #256]	; (800b0c8 <ethernetif_init+0x120>)
 800afc6:	2201      	movs	r2, #1
 800afc8:	85e3      	strh	r3, [r4, #46]	; 0x2e
 800afca:	4628      	mov	r0, r5
 800afcc:	4b3f      	ldr	r3, [pc, #252]	; (800b0cc <ethernetif_init+0x124>)
 800afce:	6163      	str	r3, [r4, #20]
 800afd0:	4b3f      	ldr	r3, [pc, #252]	; (800b0d0 <ethernetif_init+0x128>)
 800afd2:	e9c5 1200 	strd	r1, r2, [r5]
 800afd6:	61a3      	str	r3, [r4, #24]
 800afd8:	2300      	movs	r3, #0
 800afda:	493e      	ldr	r1, [pc, #248]	; (800b0d4 <ethernetif_init+0x12c>)
 800afdc:	9300      	str	r3, [sp, #0]
 800afde:	822b      	strh	r3, [r5, #16]
 800afe0:	9101      	str	r1, [sp, #4]
 800afe2:	a901      	add	r1, sp, #4
 800afe4:	f8ad 3008 	strh.w	r3, [sp, #8]
 800afe8:	61eb      	str	r3, [r5, #28]
 800afea:	f44f 0300 	mov.w	r3, #8388608	; 0x800000
 800afee:	e9c5 1205 	strd	r1, r2, [r5, #20]
 800aff2:	622b      	str	r3, [r5, #32]
 800aff4:	f7fe f91e 	bl	8009234 <HAL_ETH_Init>
 800aff8:	b928      	cbnz	r0, 800b006 <ethernetif_init+0x5e>
 800affa:	f894 302d 	ldrb.w	r3, [r4, #45]	; 0x2d
 800affe:	f043 0304 	orr.w	r3, r3, #4
 800b002:	f884 302d 	strb.w	r3, [r4, #45]	; 0x2d
 800b006:	2304      	movs	r3, #4
 800b008:	4a33      	ldr	r2, [pc, #204]	; (800b0d8 <ethernetif_init+0x130>)
 800b00a:	4934      	ldr	r1, [pc, #208]	; (800b0dc <ethernetif_init+0x134>)
 800b00c:	2700      	movs	r7, #0
 800b00e:	482d      	ldr	r0, [pc, #180]	; (800b0c4 <ethernetif_init+0x11c>)
 800b010:	f7fd ff38 	bl	8008e84 <HAL_ETH_DMATxDescListInit>
 800b014:	2304      	movs	r3, #4
 800b016:	4a32      	ldr	r2, [pc, #200]	; (800b0e0 <ethernetif_init+0x138>)
 800b018:	4932      	ldr	r1, [pc, #200]	; (800b0e4 <ethernetif_init+0x13c>)
 800b01a:	482a      	ldr	r0, [pc, #168]	; (800b0c4 <ethernetif_init+0x11c>)
 800b01c:	f7fd ff6e 	bl	8008efc <HAL_ETH_DMARxDescListInit>
 800b020:	2306      	movs	r3, #6
 800b022:	2101      	movs	r1, #1
 800b024:	a803      	add	r0, sp, #12
 800b026:	f884 302c 	strb.w	r3, [r4, #44]	; 0x2c
 800b02a:	696b      	ldr	r3, [r5, #20]
 800b02c:	ad05      	add	r5, sp, #20
 800b02e:	4e2e      	ldr	r6, [pc, #184]	; (800b0e8 <ethernetif_init+0x140>)
 800b030:	781a      	ldrb	r2, [r3, #0]
 800b032:	f884 2026 	strb.w	r2, [r4, #38]	; 0x26
 800b036:	785a      	ldrb	r2, [r3, #1]
 800b038:	f884 2027 	strb.w	r2, [r4, #39]	; 0x27
 800b03c:	789a      	ldrb	r2, [r3, #2]
 800b03e:	f884 2028 	strb.w	r2, [r4, #40]	; 0x28
 800b042:	78da      	ldrb	r2, [r3, #3]
 800b044:	f884 2029 	strb.w	r2, [r4, #41]	; 0x29
 800b048:	791a      	ldrb	r2, [r3, #4]
 800b04a:	f884 202a 	strb.w	r2, [r4, #42]	; 0x2a
 800b04e:	795b      	ldrb	r3, [r3, #5]
 800b050:	f884 302b 	strb.w	r3, [r4, #43]	; 0x2b
 800b054:	f240 53dc 	movw	r3, #1500	; 0x5dc
 800b058:	84a3      	strh	r3, [r4, #36]	; 0x24
 800b05a:	f894 302d 	ldrb.w	r3, [r4, #45]	; 0x2d
 800b05e:	f043 030a 	orr.w	r3, r3, #10
 800b062:	f884 302d 	strb.w	r3, [r4, #45]	; 0x2d
 800b066:	e9cd 7703 	strd	r7, r7, [sp, #12]
 800b06a:	f000 f94d 	bl	800b308 <osSemaphoreCreate>
 800b06e:	4b1f      	ldr	r3, [pc, #124]	; (800b0ec <ethernetif_init+0x144>)
 800b070:	6018      	str	r0, [r3, #0]
 800b072:	ce0f      	ldmia	r6!, {r0, r1, r2, r3}
 800b074:	c50f      	stmia	r5!, {r0, r1, r2, r3}
 800b076:	e896 0007 	ldmia.w	r6, {r0, r1, r2}
 800b07a:	e885 0007 	stmia.w	r5, {r0, r1, r2}
 800b07e:	4621      	mov	r1, r4
 800b080:	a805      	add	r0, sp, #20
 800b082:	f000 f8bf 	bl	800b204 <osThreadCreate>
 800b086:	480f      	ldr	r0, [pc, #60]	; (800b0c4 <ethernetif_init+0x11c>)
 800b088:	f7fe f9ce 	bl	8009428 <HAL_ETH_Start>
 800b08c:	466a      	mov	r2, sp
 800b08e:	211d      	movs	r1, #29
 800b090:	480c      	ldr	r0, [pc, #48]	; (800b0c4 <ethernetif_init+0x11c>)
 800b092:	f7fe f85e 	bl	8009152 <HAL_ETH_ReadPHYRegister>
 800b096:	9a00      	ldr	r2, [sp, #0]
 800b098:	211d      	movs	r1, #29
 800b09a:	480a      	ldr	r0, [pc, #40]	; (800b0c4 <ethernetif_init+0x11c>)
 800b09c:	f042 020b 	orr.w	r2, r2, #11
 800b0a0:	9200      	str	r2, [sp, #0]
 800b0a2:	f7fe f890 	bl	80091c6 <HAL_ETH_WritePHYRegister>
 800b0a6:	466a      	mov	r2, sp
 800b0a8:	211d      	movs	r1, #29
 800b0aa:	4806      	ldr	r0, [pc, #24]	; (800b0c4 <ethernetif_init+0x11c>)
 800b0ac:	f7fe f851 	bl	8009152 <HAL_ETH_ReadPHYRegister>
 800b0b0:	4638      	mov	r0, r7
 800b0b2:	b00d      	add	sp, #52	; 0x34
 800b0b4:	bdf0      	pop	{r4, r5, r6, r7, pc}
 800b0b6:	bf00      	nop
 800b0b8:	08014a11 	.word	0x08014a11
 800b0bc:	08014a2d 	.word	0x08014a2d
 800b0c0:	08014a3b 	.word	0x08014a3b
 800b0c4:	20006410 	.word	0x20006410
 800b0c8:	40028000 	.word	0x40028000
 800b0cc:	08012a51 	.word	0x08012a51
 800b0d0:	0800ace5 	.word	0x0800ace5
 800b0d4:	00e18000 	.word	0x00e18000
 800b0d8:	20006458 	.word	0x20006458
 800b0dc:	20004b40 	.word	0x20004b40
 800b0e0:	20004bc0 	.word	0x20004bc0
 800b0e4:	20006390 	.word	0x20006390
 800b0e8:	080149b8 	.word	0x080149b8
 800b0ec:	20000334 	.word	0x20000334

0800b0f0 <sys_now>:
 800b0f0:	f7fd bdb8 	b.w	8008c64 <HAL_GetTick>

0800b0f4 <ethernetif_set_link>:
 800b0f4:	b573      	push	{r0, r1, r4, r5, r6, lr}
 800b0f6:	2300      	movs	r3, #0
 800b0f8:	ac02      	add	r4, sp, #8
 800b0fa:	4605      	mov	r5, r0
 800b0fc:	4e0f      	ldr	r6, [pc, #60]	; (800b13c <ethernetif_set_link+0x48>)
 800b0fe:	f844 3d04 	str.w	r3, [r4, #-4]!
 800b102:	4622      	mov	r2, r4
 800b104:	2101      	movs	r1, #1
 800b106:	4630      	mov	r0, r6
 800b108:	f7fe f823 	bl	8009152 <HAL_ETH_ReadPHYRegister>
 800b10c:	6828      	ldr	r0, [r5, #0]
 800b10e:	9b01      	ldr	r3, [sp, #4]
 800b110:	f890 202d 	ldrb.w	r2, [r0, #45]	; 0x2d
 800b114:	f003 0304 	and.w	r3, r3, #4
 800b118:	0751      	lsls	r1, r2, #29
 800b11a:	9301      	str	r3, [sp, #4]
 800b11c:	d406      	bmi.n	800b12c <ethernetif_set_link+0x38>
 800b11e:	b12b      	cbz	r3, 800b12c <ethernetif_set_link+0x38>
 800b120:	f002 ff4e 	bl	800dfc0 <netif_set_link_up>
 800b124:	20c8      	movs	r0, #200	; 0xc8
 800b126:	f000 f895 	bl	800b254 <osDelay>
 800b12a:	e7ea      	b.n	800b102 <ethernetif_set_link+0xe>
 800b12c:	0752      	lsls	r2, r2, #29
 800b12e:	d5f9      	bpl.n	800b124 <ethernetif_set_link+0x30>
 800b130:	2b00      	cmp	r3, #0
 800b132:	d1f7      	bne.n	800b124 <ethernetif_set_link+0x30>
 800b134:	f002 ff68 	bl	800e008 <netif_set_link_down>
 800b138:	e7f4      	b.n	800b124 <ethernetif_set_link+0x30>
 800b13a:	bf00      	nop
 800b13c:	20006410 	.word	0x20006410

0800b140 <ethernetif_notify_conn_changed>:
 800b140:	4770      	bx	lr
	...

0800b144 <ethernetif_update_config>:
 800b144:	b573      	push	{r0, r1, r4, r5, r6, lr}
 800b146:	f890 302d 	ldrb.w	r3, [r0, #45]	; 0x2d
 800b14a:	2100      	movs	r1, #0
 800b14c:	4605      	mov	r5, r0
 800b14e:	0758      	lsls	r0, r3, #29
 800b150:	9100      	str	r1, [sp, #0]
 800b152:	9101      	str	r1, [sp, #4]
 800b154:	d544      	bpl.n	800b1e0 <ethernetif_update_config+0x9c>
 800b156:	4c24      	ldr	r4, [pc, #144]	; (800b1e8 <ethernetif_update_config+0xa4>)
 800b158:	6863      	ldr	r3, [r4, #4]
 800b15a:	2b00      	cmp	r3, #0
 800b15c:	d035      	beq.n	800b1ca <ethernetif_update_config+0x86>
 800b15e:	4626      	mov	r6, r4
 800b160:	f44f 5280 	mov.w	r2, #4096	; 0x1000
 800b164:	4620      	mov	r0, r4
 800b166:	f7fe f82e 	bl	80091c6 <HAL_ETH_WritePHYRegister>
 800b16a:	f7fd fd7b 	bl	8008c64 <HAL_GetTick>
 800b16e:	9000      	str	r0, [sp, #0]
 800b170:	aa01      	add	r2, sp, #4
 800b172:	2101      	movs	r1, #1
 800b174:	4630      	mov	r0, r6
 800b176:	f7fd ffec 	bl	8009152 <HAL_ETH_ReadPHYRegister>
 800b17a:	f7fd fd73 	bl	8008c64 <HAL_GetTick>
 800b17e:	9b00      	ldr	r3, [sp, #0]
 800b180:	1ac0      	subs	r0, r0, r3
 800b182:	f5b0 7f7a 	cmp.w	r0, #1000	; 0x3e8
 800b186:	d820      	bhi.n	800b1ca <ethernetif_update_config+0x86>
 800b188:	9b01      	ldr	r3, [sp, #4]
 800b18a:	069a      	lsls	r2, r3, #26
 800b18c:	d5f0      	bpl.n	800b170 <ethernetif_update_config+0x2c>
 800b18e:	aa01      	add	r2, sp, #4
 800b190:	211f      	movs	r1, #31
 800b192:	4815      	ldr	r0, [pc, #84]	; (800b1e8 <ethernetif_update_config+0xa4>)
 800b194:	f7fd ffdd 	bl	8009152 <HAL_ETH_ReadPHYRegister>
 800b198:	9b01      	ldr	r3, [sp, #4]
 800b19a:	f013 0210 	ands.w	r2, r3, #16
 800b19e:	bf18      	it	ne
 800b1a0:	f44f 6200 	movne.w	r2, #2048	; 0x800
 800b1a4:	075b      	lsls	r3, r3, #29
 800b1a6:	bf4c      	ite	mi
 800b1a8:	2300      	movmi	r3, #0
 800b1aa:	f44f 4380 	movpl.w	r3, #16384	; 0x4000
 800b1ae:	60e2      	str	r2, [r4, #12]
 800b1b0:	60a3      	str	r3, [r4, #8]
 800b1b2:	2100      	movs	r1, #0
 800b1b4:	480c      	ldr	r0, [pc, #48]	; (800b1e8 <ethernetif_update_config+0xa4>)
 800b1b6:	f7fe f9b3 	bl	8009520 <HAL_ETH_ConfigMAC>
 800b1ba:	480b      	ldr	r0, [pc, #44]	; (800b1e8 <ethernetif_update_config+0xa4>)
 800b1bc:	f7fe f934 	bl	8009428 <HAL_ETH_Start>
 800b1c0:	4628      	mov	r0, r5
 800b1c2:	f7ff ffbd 	bl	800b140 <ethernetif_notify_conn_changed>
 800b1c6:	b002      	add	sp, #8
 800b1c8:	bd70      	pop	{r4, r5, r6, pc}
 800b1ca:	e9d4 2302 	ldrd	r2, r3, [r4, #8]
 800b1ce:	2100      	movs	r1, #0
 800b1d0:	4805      	ldr	r0, [pc, #20]	; (800b1e8 <ethernetif_update_config+0xa4>)
 800b1d2:	0852      	lsrs	r2, r2, #1
 800b1d4:	ea42 02d3 	orr.w	r2, r2, r3, lsr #3
 800b1d8:	b292      	uxth	r2, r2
 800b1da:	f7fd fff4 	bl	80091c6 <HAL_ETH_WritePHYRegister>
 800b1de:	e7e8      	b.n	800b1b2 <ethernetif_update_config+0x6e>
 800b1e0:	4801      	ldr	r0, [pc, #4]	; (800b1e8 <ethernetif_update_config+0xa4>)
 800b1e2:	f7fe f95f 	bl	80094a4 <HAL_ETH_Stop>
 800b1e6:	e7eb      	b.n	800b1c0 <ethernetif_update_config+0x7c>
 800b1e8:	20006410 	.word	0x20006410

0800b1ec <osKernelStart>:
 800b1ec:	b508      	push	{r3, lr}
 800b1ee:	f001 f81b 	bl	800c228 <vTaskStartScheduler>
 800b1f2:	2000      	movs	r0, #0
 800b1f4:	bd08      	pop	{r3, pc}

0800b1f6 <osKernelSysTick>:
 800b1f6:	f3ef 8305 	mrs	r3, IPSR
 800b1fa:	b10b      	cbz	r3, 800b200 <osKernelSysTick+0xa>
 800b1fc:	f001 b85a 	b.w	800c2b4 <xTaskGetTickCountFromISR>
 800b200:	f001 b852 	b.w	800c2a8 <xTaskGetTickCount>

0800b204 <osThreadCreate>:
 800b204:	b570      	push	{r4, r5, r6, lr}
 800b206:	4605      	mov	r5, r0
 800b208:	6946      	ldr	r6, [r0, #20]
 800b20a:	460b      	mov	r3, r1
 800b20c:	b086      	sub	sp, #24
 800b20e:	692a      	ldr	r2, [r5, #16]
 800b210:	f9b5 4008 	ldrsh.w	r4, [r5, #8]
 800b214:	e9d0 1000 	ldrd	r1, r0, [r0]
 800b218:	b176      	cbz	r6, 800b238 <osThreadCreate+0x34>
 800b21a:	69ad      	ldr	r5, [r5, #24]
 800b21c:	b165      	cbz	r5, 800b238 <osThreadCreate+0x34>
 800b21e:	2c84      	cmp	r4, #132	; 0x84
 800b220:	bf14      	ite	ne
 800b222:	3403      	addne	r4, #3
 800b224:	2400      	moveq	r4, #0
 800b226:	e9cd 6501 	strd	r6, r5, [sp, #4]
 800b22a:	9400      	str	r4, [sp, #0]
 800b22c:	f000 ff90 	bl	800c150 <xTaskCreateStatic>
 800b230:	9005      	str	r0, [sp, #20]
 800b232:	9805      	ldr	r0, [sp, #20]
 800b234:	b006      	add	sp, #24
 800b236:	bd70      	pop	{r4, r5, r6, pc}
 800b238:	2c84      	cmp	r4, #132	; 0x84
 800b23a:	ad05      	add	r5, sp, #20
 800b23c:	b292      	uxth	r2, r2
 800b23e:	bf14      	ite	ne
 800b240:	3403      	addne	r4, #3
 800b242:	2400      	moveq	r4, #0
 800b244:	e9cd 4500 	strd	r4, r5, [sp]
 800b248:	f000 ffc0 	bl	800c1cc <xTaskCreate>
 800b24c:	2801      	cmp	r0, #1
 800b24e:	d0f0      	beq.n	800b232 <osThreadCreate+0x2e>
 800b250:	2000      	movs	r0, #0
 800b252:	e7ef      	b.n	800b234 <osThreadCreate+0x30>

0800b254 <osDelay>:
 800b254:	2800      	cmp	r0, #0
 800b256:	bf08      	it	eq
 800b258:	2001      	moveq	r0, #1
 800b25a:	b508      	push	{r3, lr}
 800b25c:	f001 f93e 	bl	800c4dc <vTaskDelay>
 800b260:	2000      	movs	r0, #0
 800b262:	bd08      	pop	{r3, pc}

0800b264 <osMutexCreate>:
 800b264:	6841      	ldr	r1, [r0, #4]
 800b266:	2001      	movs	r0, #1
 800b268:	b109      	cbz	r1, 800b26e <osMutexCreate+0xa>
 800b26a:	f000 bb53 	b.w	800b914 <xQueueCreateMutexStatic>
 800b26e:	f000 bb66 	b.w	800b93e <xQueueCreateMutex>
	...

0800b274 <osMutexWait>:
 800b274:	b513      	push	{r0, r1, r4, lr}
 800b276:	2400      	movs	r4, #0
 800b278:	9401      	str	r4, [sp, #4]
 800b27a:	b1e0      	cbz	r0, 800b2b6 <osMutexWait+0x42>
 800b27c:	f3ef 8305 	mrs	r3, IPSR
 800b280:	b1a3      	cbz	r3, 800b2ac <osMutexWait+0x38>
 800b282:	aa01      	add	r2, sp, #4
 800b284:	4621      	mov	r1, r4
 800b286:	f000 fda1 	bl	800bdcc <xQueueReceiveFromISR>
 800b28a:	2801      	cmp	r0, #1
 800b28c:	d002      	beq.n	800b294 <osMutexWait+0x20>
 800b28e:	20ff      	movs	r0, #255	; 0xff
 800b290:	b002      	add	sp, #8
 800b292:	bd10      	pop	{r4, pc}
 800b294:	9b01      	ldr	r3, [sp, #4]
 800b296:	b13b      	cbz	r3, 800b2a8 <osMutexWait+0x34>
 800b298:	4b08      	ldr	r3, [pc, #32]	; (800b2bc <osMutexWait+0x48>)
 800b29a:	f04f 5280 	mov.w	r2, #268435456	; 0x10000000
 800b29e:	601a      	str	r2, [r3, #0]
 800b2a0:	f3bf 8f4f 	dsb	sy
 800b2a4:	f3bf 8f6f 	isb	sy
 800b2a8:	2000      	movs	r0, #0
 800b2aa:	e7f1      	b.n	800b290 <osMutexWait+0x1c>
 800b2ac:	f000 fcc4 	bl	800bc38 <xQueueSemaphoreTake>
 800b2b0:	2801      	cmp	r0, #1
 800b2b2:	d0f9      	beq.n	800b2a8 <osMutexWait+0x34>
 800b2b4:	e7eb      	b.n	800b28e <osMutexWait+0x1a>
 800b2b6:	2080      	movs	r0, #128	; 0x80
 800b2b8:	e7ea      	b.n	800b290 <osMutexWait+0x1c>
 800b2ba:	bf00      	nop
 800b2bc:	e000ed04 	.word	0xe000ed04

0800b2c0 <osMutexRelease>:
 800b2c0:	b513      	push	{r0, r1, r4, lr}
 800b2c2:	2400      	movs	r4, #0
 800b2c4:	9401      	str	r4, [sp, #4]
 800b2c6:	f3ef 8305 	mrs	r3, IPSR
 800b2ca:	b193      	cbz	r3, 800b2f2 <osMutexRelease+0x32>
 800b2cc:	a901      	add	r1, sp, #4
 800b2ce:	f000 fbb1 	bl	800ba34 <xQueueGiveFromISR>
 800b2d2:	2801      	cmp	r0, #1
 800b2d4:	d113      	bne.n	800b2fe <osMutexRelease+0x3e>
 800b2d6:	9b01      	ldr	r3, [sp, #4]
 800b2d8:	b913      	cbnz	r3, 800b2e0 <osMutexRelease+0x20>
 800b2da:	2000      	movs	r0, #0
 800b2dc:	b002      	add	sp, #8
 800b2de:	bd10      	pop	{r4, pc}
 800b2e0:	4b08      	ldr	r3, [pc, #32]	; (800b304 <osMutexRelease+0x44>)
 800b2e2:	f04f 5280 	mov.w	r2, #268435456	; 0x10000000
 800b2e6:	601a      	str	r2, [r3, #0]
 800b2e8:	f3bf 8f4f 	dsb	sy
 800b2ec:	f3bf 8f6f 	isb	sy
 800b2f0:	e7f3      	b.n	800b2da <osMutexRelease+0x1a>
 800b2f2:	461a      	mov	r2, r3
 800b2f4:	4619      	mov	r1, r3
 800b2f6:	f000 fa53 	bl	800b7a0 <xQueueGenericSend>
 800b2fa:	2801      	cmp	r0, #1
 800b2fc:	d0ed      	beq.n	800b2da <osMutexRelease+0x1a>
 800b2fe:	20ff      	movs	r0, #255	; 0xff
 800b300:	e7ec      	b.n	800b2dc <osMutexRelease+0x1c>
 800b302:	bf00      	nop
 800b304:	e000ed04 	.word	0xe000ed04

0800b308 <osSemaphoreCreate>:
 800b308:	b537      	push	{r0, r1, r2, r4, r5, lr}
 800b30a:	6844      	ldr	r4, [r0, #4]
 800b30c:	460d      	mov	r5, r1
 800b30e:	b16c      	cbz	r4, 800b32c <osSemaphoreCreate+0x24>
 800b310:	2901      	cmp	r1, #1
 800b312:	d11b      	bne.n	800b34c <osSemaphoreCreate+0x44>
 800b314:	2303      	movs	r3, #3
 800b316:	2200      	movs	r2, #0
 800b318:	4628      	mov	r0, r5
 800b31a:	9300      	str	r3, [sp, #0]
 800b31c:	4611      	mov	r1, r2
 800b31e:	4623      	mov	r3, r4
 800b320:	f000 f9c4 	bl	800b6ac <xQueueGenericCreateStatic>
 800b324:	4605      	mov	r5, r0
 800b326:	4628      	mov	r0, r5
 800b328:	b003      	add	sp, #12
 800b32a:	bd30      	pop	{r4, r5, pc}
 800b32c:	2901      	cmp	r1, #1
 800b32e:	d10f      	bne.n	800b350 <osSemaphoreCreate+0x48>
 800b330:	4628      	mov	r0, r5
 800b332:	2203      	movs	r2, #3
 800b334:	4621      	mov	r1, r4
 800b336:	f000 fa0d 	bl	800b754 <xQueueGenericCreate>
 800b33a:	4605      	mov	r5, r0
 800b33c:	2800      	cmp	r0, #0
 800b33e:	d0f2      	beq.n	800b326 <osSemaphoreCreate+0x1e>
 800b340:	4623      	mov	r3, r4
 800b342:	4622      	mov	r2, r4
 800b344:	4621      	mov	r1, r4
 800b346:	f000 fa2b 	bl	800b7a0 <xQueueGenericSend>
 800b34a:	e7ec      	b.n	800b326 <osSemaphoreCreate+0x1e>
 800b34c:	2500      	movs	r5, #0
 800b34e:	e7ea      	b.n	800b326 <osSemaphoreCreate+0x1e>
 800b350:	4625      	mov	r5, r4
 800b352:	e7e8      	b.n	800b326 <osSemaphoreCreate+0x1e>

0800b354 <osSemaphoreWait>:
 800b354:	b513      	push	{r0, r1, r4, lr}
 800b356:	2400      	movs	r4, #0
 800b358:	9401      	str	r4, [sp, #4]
 800b35a:	b1e0      	cbz	r0, 800b396 <osSemaphoreWait+0x42>
 800b35c:	f3ef 8305 	mrs	r3, IPSR
 800b360:	b1a3      	cbz	r3, 800b38c <osSemaphoreWait+0x38>
 800b362:	aa01      	add	r2, sp, #4
 800b364:	4621      	mov	r1, r4
 800b366:	f000 fd31 	bl	800bdcc <xQueueReceiveFromISR>
 800b36a:	2801      	cmp	r0, #1
 800b36c:	d002      	beq.n	800b374 <osSemaphoreWait+0x20>
 800b36e:	20ff      	movs	r0, #255	; 0xff
 800b370:	b002      	add	sp, #8
 800b372:	bd10      	pop	{r4, pc}
 800b374:	9b01      	ldr	r3, [sp, #4]
 800b376:	b13b      	cbz	r3, 800b388 <osSemaphoreWait+0x34>
 800b378:	4b08      	ldr	r3, [pc, #32]	; (800b39c <osSemaphoreWait+0x48>)
 800b37a:	f04f 5280 	mov.w	r2, #268435456	; 0x10000000
 800b37e:	601a      	str	r2, [r3, #0]
 800b380:	f3bf 8f4f 	dsb	sy
 800b384:	f3bf 8f6f 	isb	sy
 800b388:	2000      	movs	r0, #0
 800b38a:	e7f1      	b.n	800b370 <osSemaphoreWait+0x1c>
 800b38c:	f000 fc54 	bl	800bc38 <xQueueSemaphoreTake>
 800b390:	2801      	cmp	r0, #1
 800b392:	d0f9      	beq.n	800b388 <osSemaphoreWait+0x34>
 800b394:	e7eb      	b.n	800b36e <osSemaphoreWait+0x1a>
 800b396:	2080      	movs	r0, #128	; 0x80
 800b398:	e7ea      	b.n	800b370 <osSemaphoreWait+0x1c>
 800b39a:	bf00      	nop
 800b39c:	e000ed04 	.word	0xe000ed04

0800b3a0 <osSemaphoreRelease>:
 800b3a0:	f7ff bf8e 	b.w	800b2c0 <osMutexRelease>

0800b3a4 <osMessageCreate>:
 800b3a4:	b513      	push	{r0, r1, r4, lr}
 800b3a6:	4603      	mov	r3, r0
 800b3a8:	c807      	ldmia	r0, {r0, r1, r2}
 800b3aa:	b13a      	cbz	r2, 800b3bc <osMessageCreate+0x18>
 800b3ac:	68db      	ldr	r3, [r3, #12]
 800b3ae:	b12b      	cbz	r3, 800b3bc <osMessageCreate+0x18>
 800b3b0:	2400      	movs	r4, #0
 800b3b2:	9400      	str	r4, [sp, #0]
 800b3b4:	f000 f97a 	bl	800b6ac <xQueueGenericCreateStatic>
 800b3b8:	b002      	add	sp, #8
 800b3ba:	bd10      	pop	{r4, pc}
 800b3bc:	2200      	movs	r2, #0
 800b3be:	b002      	add	sp, #8
 800b3c0:	e8bd 4010 	ldmia.w	sp!, {r4, lr}
 800b3c4:	f000 b9c6 	b.w	800b754 <xQueueGenericCreate>

0800b3c8 <osMessagePut>:
 800b3c8:	b51f      	push	{r0, r1, r2, r3, r4, lr}
 800b3ca:	2400      	movs	r4, #0
 800b3cc:	9101      	str	r1, [sp, #4]
 800b3ce:	9403      	str	r4, [sp, #12]
 800b3d0:	42a2      	cmp	r2, r4
 800b3d2:	bf08      	it	eq
 800b3d4:	2201      	moveq	r2, #1
 800b3d6:	f3ef 8305 	mrs	r3, IPSR
 800b3da:	b1ab      	cbz	r3, 800b408 <osMessagePut+0x40>
 800b3dc:	4623      	mov	r3, r4
 800b3de:	aa03      	add	r2, sp, #12
 800b3e0:	a901      	add	r1, sp, #4
 800b3e2:	f000 fabe 	bl	800b962 <xQueueGenericSendFromISR>
 800b3e6:	2801      	cmp	r0, #1
 800b3e8:	d002      	beq.n	800b3f0 <osMessagePut+0x28>
 800b3ea:	20ff      	movs	r0, #255	; 0xff
 800b3ec:	b004      	add	sp, #16
 800b3ee:	bd10      	pop	{r4, pc}
 800b3f0:	9b03      	ldr	r3, [sp, #12]
 800b3f2:	b13b      	cbz	r3, 800b404 <osMessagePut+0x3c>
 800b3f4:	4b07      	ldr	r3, [pc, #28]	; (800b414 <osMessagePut+0x4c>)
 800b3f6:	f04f 5280 	mov.w	r2, #268435456	; 0x10000000
 800b3fa:	601a      	str	r2, [r3, #0]
 800b3fc:	f3bf 8f4f 	dsb	sy
 800b400:	f3bf 8f6f 	isb	sy
 800b404:	2000      	movs	r0, #0
 800b406:	e7f1      	b.n	800b3ec <osMessagePut+0x24>
 800b408:	a901      	add	r1, sp, #4
 800b40a:	f000 f9c9 	bl	800b7a0 <xQueueGenericSend>
 800b40e:	2801      	cmp	r0, #1
 800b410:	d0f8      	beq.n	800b404 <osMessagePut+0x3c>
 800b412:	e7ea      	b.n	800b3ea <osMessagePut+0x22>
 800b414:	e000ed04 	.word	0xe000ed04

0800b418 <osMessageGet>:
 800b418:	b5f0      	push	{r4, r5, r6, r7, lr}
 800b41a:	2600      	movs	r6, #0
 800b41c:	b085      	sub	sp, #20
 800b41e:	4604      	mov	r4, r0
 800b420:	4617      	mov	r7, r2
 800b422:	4608      	mov	r0, r1
 800b424:	9103      	str	r1, [sp, #12]
 800b426:	9602      	str	r6, [sp, #8]
 800b428:	ad01      	add	r5, sp, #4
 800b42a:	b911      	cbnz	r1, 800b432 <osMessageGet+0x1a>
 800b42c:	2380      	movs	r3, #128	; 0x80
 800b42e:	9301      	str	r3, [sp, #4]
 800b430:	e016      	b.n	800b460 <osMessageGet+0x48>
 800b432:	9600      	str	r6, [sp, #0]
 800b434:	f3ef 8305 	mrs	r3, IPSR
 800b438:	b1cb      	cbz	r3, 800b46e <osMessageGet+0x56>
 800b43a:	466a      	mov	r2, sp
 800b43c:	a902      	add	r1, sp, #8
 800b43e:	f000 fcc5 	bl	800bdcc <xQueueReceiveFromISR>
 800b442:	2801      	cmp	r0, #1
 800b444:	bf0a      	itet	eq
 800b446:	2310      	moveq	r3, #16
 800b448:	9601      	strne	r6, [sp, #4]
 800b44a:	9301      	streq	r3, [sp, #4]
 800b44c:	9b00      	ldr	r3, [sp, #0]
 800b44e:	b13b      	cbz	r3, 800b460 <osMessageGet+0x48>
 800b450:	4b0d      	ldr	r3, [pc, #52]	; (800b488 <osMessageGet+0x70>)
 800b452:	f04f 5280 	mov.w	r2, #268435456	; 0x10000000
 800b456:	601a      	str	r2, [r3, #0]
 800b458:	f3bf 8f4f 	dsb	sy
 800b45c:	f3bf 8f6f 	isb	sy
 800b460:	e895 0007 	ldmia.w	r5, {r0, r1, r2}
 800b464:	e884 0007 	stmia.w	r4, {r0, r1, r2}
 800b468:	4620      	mov	r0, r4
 800b46a:	b005      	add	sp, #20
 800b46c:	bdf0      	pop	{r4, r5, r6, r7, pc}
 800b46e:	a902      	add	r1, sp, #8
 800b470:	f000 fb3c 	bl	800baec <xQueueReceive>
 800b474:	2801      	cmp	r0, #1
 800b476:	d101      	bne.n	800b47c <osMessageGet+0x64>
 800b478:	2310      	movs	r3, #16
 800b47a:	e7d8      	b.n	800b42e <osMessageGet+0x16>
 800b47c:	2f00      	cmp	r7, #0
 800b47e:	bf0c      	ite	eq
 800b480:	2300      	moveq	r3, #0
 800b482:	2340      	movne	r3, #64	; 0x40
 800b484:	e7d3      	b.n	800b42e <osMessageGet+0x16>
 800b486:	bf00      	nop
 800b488:	e000ed04 	.word	0xe000ed04

0800b48c <vListInitialise>:
 800b48c:	f100 0308 	add.w	r3, r0, #8
 800b490:	f04f 32ff 	mov.w	r2, #4294967295	; 0xffffffff
 800b494:	6043      	str	r3, [r0, #4]
 800b496:	6103      	str	r3, [r0, #16]
 800b498:	e9c0 2302 	strd	r2, r3, [r0, #8]
 800b49c:	2300      	movs	r3, #0
 800b49e:	6003      	str	r3, [r0, #0]
 800b4a0:	4770      	bx	lr

0800b4a2 <vListInitialiseItem>:
 800b4a2:	2300      	movs	r3, #0
 800b4a4:	6103      	str	r3, [r0, #16]
 800b4a6:	4770      	bx	lr

0800b4a8 <vListInsertEnd>:
 800b4a8:	6843      	ldr	r3, [r0, #4]
 800b4aa:	689a      	ldr	r2, [r3, #8]
 800b4ac:	604b      	str	r3, [r1, #4]
 800b4ae:	608a      	str	r2, [r1, #8]
 800b4b0:	689a      	ldr	r2, [r3, #8]
 800b4b2:	6051      	str	r1, [r2, #4]
 800b4b4:	6099      	str	r1, [r3, #8]
 800b4b6:	6803      	ldr	r3, [r0, #0]
 800b4b8:	6108      	str	r0, [r1, #16]
 800b4ba:	3301      	adds	r3, #1
 800b4bc:	6003      	str	r3, [r0, #0]
 800b4be:	4770      	bx	lr

0800b4c0 <vListInsert>:
 800b4c0:	680a      	ldr	r2, [r1, #0]
 800b4c2:	1c53      	adds	r3, r2, #1
 800b4c4:	b530      	push	{r4, r5, lr}
 800b4c6:	d10a      	bne.n	800b4de <vListInsert+0x1e>
 800b4c8:	6903      	ldr	r3, [r0, #16]
 800b4ca:	685a      	ldr	r2, [r3, #4]
 800b4cc:	604a      	str	r2, [r1, #4]
 800b4ce:	6091      	str	r1, [r2, #8]
 800b4d0:	608b      	str	r3, [r1, #8]
 800b4d2:	6059      	str	r1, [r3, #4]
 800b4d4:	6803      	ldr	r3, [r0, #0]
 800b4d6:	6108      	str	r0, [r1, #16]
 800b4d8:	3301      	adds	r3, #1
 800b4da:	6003      	str	r3, [r0, #0]
 800b4dc:	bd30      	pop	{r4, r5, pc}
 800b4de:	f100 0308 	add.w	r3, r0, #8
 800b4e2:	685c      	ldr	r4, [r3, #4]
 800b4e4:	6825      	ldr	r5, [r4, #0]
 800b4e6:	4295      	cmp	r5, r2
 800b4e8:	d8ef      	bhi.n	800b4ca <vListInsert+0xa>
 800b4ea:	4623      	mov	r3, r4
 800b4ec:	e7f9      	b.n	800b4e2 <vListInsert+0x22>

0800b4ee <uxListRemove>:
 800b4ee:	e9d0 1201 	ldrd	r1, r2, [r0, #4]
 800b4f2:	6903      	ldr	r3, [r0, #16]
 800b4f4:	608a      	str	r2, [r1, #8]
 800b4f6:	6882      	ldr	r2, [r0, #8]
 800b4f8:	6051      	str	r1, [r2, #4]
 800b4fa:	6859      	ldr	r1, [r3, #4]
 800b4fc:	4281      	cmp	r1, r0
 800b4fe:	bf08      	it	eq
 800b500:	605a      	streq	r2, [r3, #4]
 800b502:	2200      	movs	r2, #0
 800b504:	6102      	str	r2, [r0, #16]
 800b506:	681a      	ldr	r2, [r3, #0]
 800b508:	3a01      	subs	r2, #1
 800b50a:	601a      	str	r2, [r3, #0]
 800b50c:	6818      	ldr	r0, [r3, #0]
 800b50e:	4770      	bx	lr

0800b510 <prvIsQueueEmpty>:
 800b510:	b510      	push	{r4, lr}
 800b512:	4604      	mov	r4, r0
 800b514:	f001 fa7e 	bl	800ca14 <vPortEnterCritical>
 800b518:	6ba4      	ldr	r4, [r4, #56]	; 0x38
 800b51a:	f001 faa1 	bl	800ca60 <vPortExitCritical>
 800b51e:	fab4 f084 	clz	r0, r4
 800b522:	0940      	lsrs	r0, r0, #5
 800b524:	bd10      	pop	{r4, pc}

0800b526 <prvCopyDataToQueue>:
 800b526:	b570      	push	{r4, r5, r6, lr}
 800b528:	4615      	mov	r5, r2
 800b52a:	6c02      	ldr	r2, [r0, #64]	; 0x40
 800b52c:	4604      	mov	r4, r0
 800b52e:	6b86      	ldr	r6, [r0, #56]	; 0x38
 800b530:	b942      	cbnz	r2, 800b544 <prvCopyDataToQueue+0x1e>
 800b532:	6805      	ldr	r5, [r0, #0]
 800b534:	b99d      	cbnz	r5, 800b55e <prvCopyDataToQueue+0x38>
 800b536:	6880      	ldr	r0, [r0, #8]
 800b538:	f001 f946 	bl	800c7c8 <xTaskPriorityDisinherit>
 800b53c:	60a5      	str	r5, [r4, #8]
 800b53e:	3601      	adds	r6, #1
 800b540:	63a6      	str	r6, [r4, #56]	; 0x38
 800b542:	bd70      	pop	{r4, r5, r6, pc}
 800b544:	b96d      	cbnz	r5, 800b562 <prvCopyDataToQueue+0x3c>
 800b546:	6840      	ldr	r0, [r0, #4]
 800b548:	f008 fabb 	bl	8013ac2 <memcpy>
 800b54c:	6863      	ldr	r3, [r4, #4]
 800b54e:	6c22      	ldr	r2, [r4, #64]	; 0x40
 800b550:	4413      	add	r3, r2
 800b552:	68a2      	ldr	r2, [r4, #8]
 800b554:	4293      	cmp	r3, r2
 800b556:	6063      	str	r3, [r4, #4]
 800b558:	d301      	bcc.n	800b55e <prvCopyDataToQueue+0x38>
 800b55a:	6823      	ldr	r3, [r4, #0]
 800b55c:	6063      	str	r3, [r4, #4]
 800b55e:	2000      	movs	r0, #0
 800b560:	e7ed      	b.n	800b53e <prvCopyDataToQueue+0x18>
 800b562:	68c0      	ldr	r0, [r0, #12]
 800b564:	f008 faad 	bl	8013ac2 <memcpy>
 800b568:	6c23      	ldr	r3, [r4, #64]	; 0x40
 800b56a:	68e2      	ldr	r2, [r4, #12]
 800b56c:	425b      	negs	r3, r3
 800b56e:	6821      	ldr	r1, [r4, #0]
 800b570:	441a      	add	r2, r3
 800b572:	428a      	cmp	r2, r1
 800b574:	60e2      	str	r2, [r4, #12]
 800b576:	bf3e      	ittt	cc
 800b578:	68a2      	ldrcc	r2, [r4, #8]
 800b57a:	189b      	addcc	r3, r3, r2
 800b57c:	60e3      	strcc	r3, [r4, #12]
 800b57e:	2d02      	cmp	r5, #2
 800b580:	d1ed      	bne.n	800b55e <prvCopyDataToQueue+0x38>
 800b582:	b10e      	cbz	r6, 800b588 <prvCopyDataToQueue+0x62>
 800b584:	3e01      	subs	r6, #1
 800b586:	e7ea      	b.n	800b55e <prvCopyDataToQueue+0x38>
 800b588:	4630      	mov	r0, r6
 800b58a:	e7d8      	b.n	800b53e <prvCopyDataToQueue+0x18>

0800b58c <prvCopyDataFromQueue>:
 800b58c:	4603      	mov	r3, r0
 800b58e:	4608      	mov	r0, r1
 800b590:	6c1a      	ldr	r2, [r3, #64]	; 0x40
 800b592:	b410      	push	{r4}
 800b594:	b162      	cbz	r2, 800b5b0 <prvCopyDataFromQueue+0x24>
 800b596:	68d9      	ldr	r1, [r3, #12]
 800b598:	689c      	ldr	r4, [r3, #8]
 800b59a:	4411      	add	r1, r2
 800b59c:	42a1      	cmp	r1, r4
 800b59e:	60d9      	str	r1, [r3, #12]
 800b5a0:	f85d 4b04 	ldr.w	r4, [sp], #4
 800b5a4:	bf24      	itt	cs
 800b5a6:	6819      	ldrcs	r1, [r3, #0]
 800b5a8:	60d9      	strcs	r1, [r3, #12]
 800b5aa:	68d9      	ldr	r1, [r3, #12]
 800b5ac:	f008 ba89 	b.w	8013ac2 <memcpy>
 800b5b0:	f85d 4b04 	ldr.w	r4, [sp], #4
 800b5b4:	4770      	bx	lr

0800b5b6 <prvUnlockQueue>:
 800b5b6:	b570      	push	{r4, r5, r6, lr}
 800b5b8:	4604      	mov	r4, r0
 800b5ba:	f001 fa2b 	bl	800ca14 <vPortEnterCritical>
 800b5be:	f894 5045 	ldrb.w	r5, [r4, #69]	; 0x45
 800b5c2:	f104 0624 	add.w	r6, r4, #36	; 0x24
 800b5c6:	b26d      	sxtb	r5, r5
 800b5c8:	2d00      	cmp	r5, #0
 800b5ca:	dc14      	bgt.n	800b5f6 <prvUnlockQueue+0x40>
 800b5cc:	23ff      	movs	r3, #255	; 0xff
 800b5ce:	f104 0610 	add.w	r6, r4, #16
 800b5d2:	f884 3045 	strb.w	r3, [r4, #69]	; 0x45
 800b5d6:	f001 fa43 	bl	800ca60 <vPortExitCritical>
 800b5da:	f001 fa1b 	bl	800ca14 <vPortEnterCritical>
 800b5de:	f894 5044 	ldrb.w	r5, [r4, #68]	; 0x44
 800b5e2:	b26d      	sxtb	r5, r5
 800b5e4:	2d00      	cmp	r5, #0
 800b5e6:	dc12      	bgt.n	800b60e <prvUnlockQueue+0x58>
 800b5e8:	23ff      	movs	r3, #255	; 0xff
 800b5ea:	f884 3044 	strb.w	r3, [r4, #68]	; 0x44
 800b5ee:	e8bd 4070 	ldmia.w	sp!, {r4, r5, r6, lr}
 800b5f2:	f001 ba35 	b.w	800ca60 <vPortExitCritical>
 800b5f6:	6a63      	ldr	r3, [r4, #36]	; 0x24
 800b5f8:	2b00      	cmp	r3, #0
 800b5fa:	d0e7      	beq.n	800b5cc <prvUnlockQueue+0x16>
 800b5fc:	4630      	mov	r0, r6
 800b5fe:	f000 ffeb 	bl	800c5d8 <xTaskRemoveFromEventList>
 800b602:	b108      	cbz	r0, 800b608 <prvUnlockQueue+0x52>
 800b604:	f001 f878 	bl	800c6f8 <vTaskMissedYield>
 800b608:	3d01      	subs	r5, #1
 800b60a:	b26d      	sxtb	r5, r5
 800b60c:	e7dc      	b.n	800b5c8 <prvUnlockQueue+0x12>
 800b60e:	6923      	ldr	r3, [r4, #16]
 800b610:	2b00      	cmp	r3, #0
 800b612:	d0e9      	beq.n	800b5e8 <prvUnlockQueue+0x32>
 800b614:	4630      	mov	r0, r6
 800b616:	f000 ffdf 	bl	800c5d8 <xTaskRemoveFromEventList>
 800b61a:	b108      	cbz	r0, 800b620 <prvUnlockQueue+0x6a>
 800b61c:	f001 f86c 	bl	800c6f8 <vTaskMissedYield>
 800b620:	3d01      	subs	r5, #1
 800b622:	b26d      	sxtb	r5, r5
 800b624:	e7de      	b.n	800b5e4 <prvUnlockQueue+0x2e>
	...

0800b628 <xQueueGenericReset>:
 800b628:	b538      	push	{r3, r4, r5, lr}
 800b62a:	460d      	mov	r5, r1
 800b62c:	4604      	mov	r4, r0
 800b62e:	b950      	cbnz	r0, 800b646 <xQueueGenericReset+0x1e>
 800b630:	f04f 0350 	mov.w	r3, #80	; 0x50
 800b634:	b672      	cpsid	i
 800b636:	f383 8811 	msr	BASEPRI, r3
 800b63a:	f3bf 8f6f 	isb	sy
 800b63e:	f3bf 8f4f 	dsb	sy
 800b642:	b662      	cpsie	i
 800b644:	e7fe      	b.n	800b644 <xQueueGenericReset+0x1c>
 800b646:	f001 f9e5 	bl	800ca14 <vPortEnterCritical>
 800b64a:	6822      	ldr	r2, [r4, #0]
 800b64c:	e9d4 300f 	ldrd	r3, r0, [r4, #60]	; 0x3c
 800b650:	6062      	str	r2, [r4, #4]
 800b652:	4343      	muls	r3, r0
 800b654:	18d1      	adds	r1, r2, r3
 800b656:	1a1b      	subs	r3, r3, r0
 800b658:	4413      	add	r3, r2
 800b65a:	60a1      	str	r1, [r4, #8]
 800b65c:	2100      	movs	r1, #0
 800b65e:	60e3      	str	r3, [r4, #12]
 800b660:	23ff      	movs	r3, #255	; 0xff
 800b662:	63a1      	str	r1, [r4, #56]	; 0x38
 800b664:	f884 3044 	strb.w	r3, [r4, #68]	; 0x44
 800b668:	f884 3045 	strb.w	r3, [r4, #69]	; 0x45
 800b66c:	b995      	cbnz	r5, 800b694 <xQueueGenericReset+0x6c>
 800b66e:	6923      	ldr	r3, [r4, #16]
 800b670:	b163      	cbz	r3, 800b68c <xQueueGenericReset+0x64>
 800b672:	f104 0010 	add.w	r0, r4, #16
 800b676:	f000 ffaf 	bl	800c5d8 <xTaskRemoveFromEventList>
 800b67a:	b138      	cbz	r0, 800b68c <xQueueGenericReset+0x64>
 800b67c:	4b0a      	ldr	r3, [pc, #40]	; (800b6a8 <xQueueGenericReset+0x80>)
 800b67e:	f04f 5280 	mov.w	r2, #268435456	; 0x10000000
 800b682:	601a      	str	r2, [r3, #0]
 800b684:	f3bf 8f4f 	dsb	sy
 800b688:	f3bf 8f6f 	isb	sy
 800b68c:	f001 f9e8 	bl	800ca60 <vPortExitCritical>
 800b690:	2001      	movs	r0, #1
 800b692:	bd38      	pop	{r3, r4, r5, pc}
 800b694:	f104 0010 	add.w	r0, r4, #16
 800b698:	f7ff fef8 	bl	800b48c <vListInitialise>
 800b69c:	f104 0024 	add.w	r0, r4, #36	; 0x24
 800b6a0:	f7ff fef4 	bl	800b48c <vListInitialise>
 800b6a4:	e7f2      	b.n	800b68c <xQueueGenericReset+0x64>
 800b6a6:	bf00      	nop
 800b6a8:	e000ed04 	.word	0xe000ed04

0800b6ac <xQueueGenericCreateStatic>:
 800b6ac:	b513      	push	{r0, r1, r4, lr}
 800b6ae:	461c      	mov	r4, r3
 800b6b0:	b950      	cbnz	r0, 800b6c8 <xQueueGenericCreateStatic+0x1c>
 800b6b2:	f04f 0350 	mov.w	r3, #80	; 0x50
 800b6b6:	b672      	cpsid	i
 800b6b8:	f383 8811 	msr	BASEPRI, r3
 800b6bc:	f3bf 8f6f 	isb	sy
 800b6c0:	f3bf 8f4f 	dsb	sy
 800b6c4:	b662      	cpsie	i
 800b6c6:	e7fe      	b.n	800b6c6 <xQueueGenericCreateStatic+0x1a>
 800b6c8:	b953      	cbnz	r3, 800b6e0 <xQueueGenericCreateStatic+0x34>
 800b6ca:	f04f 0350 	mov.w	r3, #80	; 0x50
 800b6ce:	b672      	cpsid	i
 800b6d0:	f383 8811 	msr	BASEPRI, r3
 800b6d4:	f3bf 8f6f 	isb	sy
 800b6d8:	f3bf 8f4f 	dsb	sy
 800b6dc:	b662      	cpsie	i
 800b6de:	e7fe      	b.n	800b6de <xQueueGenericCreateStatic+0x32>
 800b6e0:	b15a      	cbz	r2, 800b6fa <xQueueGenericCreateStatic+0x4e>
 800b6e2:	b9b1      	cbnz	r1, 800b712 <xQueueGenericCreateStatic+0x66>
 800b6e4:	f04f 0350 	mov.w	r3, #80	; 0x50
 800b6e8:	b672      	cpsid	i
 800b6ea:	f383 8811 	msr	BASEPRI, r3
 800b6ee:	f3bf 8f6f 	isb	sy
 800b6f2:	f3bf 8f4f 	dsb	sy
 800b6f6:	b662      	cpsie	i
 800b6f8:	e7fe      	b.n	800b6f8 <xQueueGenericCreateStatic+0x4c>
 800b6fa:	b151      	cbz	r1, 800b712 <xQueueGenericCreateStatic+0x66>
 800b6fc:	f04f 0350 	mov.w	r3, #80	; 0x50
 800b700:	b672      	cpsid	i
 800b702:	f383 8811 	msr	BASEPRI, r3
 800b706:	f3bf 8f6f 	isb	sy
 800b70a:	f3bf 8f4f 	dsb	sy
 800b70e:	b662      	cpsie	i
 800b710:	e7fe      	b.n	800b710 <xQueueGenericCreateStatic+0x64>
 800b712:	2348      	movs	r3, #72	; 0x48
 800b714:	9301      	str	r3, [sp, #4]
 800b716:	9b01      	ldr	r3, [sp, #4]
 800b718:	2b48      	cmp	r3, #72	; 0x48
 800b71a:	d00a      	beq.n	800b732 <xQueueGenericCreateStatic+0x86>
 800b71c:	f04f 0350 	mov.w	r3, #80	; 0x50
 800b720:	b672      	cpsid	i
 800b722:	f383 8811 	msr	BASEPRI, r3
 800b726:	f3bf 8f6f 	isb	sy
 800b72a:	f3bf 8f4f 	dsb	sy
 800b72e:	b662      	cpsie	i
 800b730:	e7fe      	b.n	800b730 <xQueueGenericCreateStatic+0x84>
 800b732:	2900      	cmp	r1, #0
 800b734:	bf08      	it	eq
 800b736:	4622      	moveq	r2, r4
 800b738:	9b01      	ldr	r3, [sp, #4]
 800b73a:	2301      	movs	r3, #1
 800b73c:	6022      	str	r2, [r4, #0]
 800b73e:	f884 3046 	strb.w	r3, [r4, #70]	; 0x46
 800b742:	e9c4 010f 	strd	r0, r1, [r4, #60]	; 0x3c
 800b746:	4619      	mov	r1, r3
 800b748:	4620      	mov	r0, r4
 800b74a:	f7ff ff6d 	bl	800b628 <xQueueGenericReset>
 800b74e:	4620      	mov	r0, r4
 800b750:	b002      	add	sp, #8
 800b752:	bd10      	pop	{r4, pc}

0800b754 <xQueueGenericCreate>:
 800b754:	b570      	push	{r4, r5, r6, lr}
 800b756:	460d      	mov	r5, r1
 800b758:	4606      	mov	r6, r0
 800b75a:	b950      	cbnz	r0, 800b772 <xQueueGenericCreate+0x1e>
 800b75c:	f04f 0350 	mov.w	r3, #80	; 0x50
 800b760:	b672      	cpsid	i
 800b762:	f383 8811 	msr	BASEPRI, r3
 800b766:	f3bf 8f6f 	isb	sy
 800b76a:	f3bf 8f4f 	dsb	sy
 800b76e:	b662      	cpsie	i
 800b770:	e7fe      	b.n	800b770 <xQueueGenericCreate+0x1c>
 800b772:	4348      	muls	r0, r1
 800b774:	3048      	adds	r0, #72	; 0x48
 800b776:	f001 faab 	bl	800ccd0 <pvPortMalloc>
 800b77a:	4604      	mov	r4, r0
 800b77c:	b150      	cbz	r0, 800b794 <xQueueGenericCreate+0x40>
 800b77e:	2300      	movs	r3, #0
 800b780:	f880 3046 	strb.w	r3, [r0, #70]	; 0x46
 800b784:	b945      	cbnz	r5, 800b798 <xQueueGenericCreate+0x44>
 800b786:	6020      	str	r0, [r4, #0]
 800b788:	2101      	movs	r1, #1
 800b78a:	4620      	mov	r0, r4
 800b78c:	e9c4 650f 	strd	r6, r5, [r4, #60]	; 0x3c
 800b790:	f7ff ff4a 	bl	800b628 <xQueueGenericReset>
 800b794:	4620      	mov	r0, r4
 800b796:	bd70      	pop	{r4, r5, r6, pc}
 800b798:	f100 0348 	add.w	r3, r0, #72	; 0x48
 800b79c:	6003      	str	r3, [r0, #0]
 800b79e:	e7f3      	b.n	800b788 <xQueueGenericCreate+0x34>

0800b7a0 <xQueueGenericSend>:
 800b7a0:	e92d 47ff 	stmdb	sp!, {r0, r1, r2, r3, r4, r5, r6, r7, r8, r9, sl, lr}
 800b7a4:	4688      	mov	r8, r1
 800b7a6:	9201      	str	r2, [sp, #4]
 800b7a8:	461f      	mov	r7, r3
 800b7aa:	4604      	mov	r4, r0
 800b7ac:	b950      	cbnz	r0, 800b7c4 <xQueueGenericSend+0x24>
 800b7ae:	f04f 0350 	mov.w	r3, #80	; 0x50
 800b7b2:	b672      	cpsid	i
 800b7b4:	f383 8811 	msr	BASEPRI, r3
 800b7b8:	f3bf 8f6f 	isb	sy
 800b7bc:	f3bf 8f4f 	dsb	sy
 800b7c0:	b662      	cpsie	i
 800b7c2:	e7fe      	b.n	800b7c2 <xQueueGenericSend+0x22>
 800b7c4:	b961      	cbnz	r1, 800b7e0 <xQueueGenericSend+0x40>
 800b7c6:	6c03      	ldr	r3, [r0, #64]	; 0x40
 800b7c8:	b153      	cbz	r3, 800b7e0 <xQueueGenericSend+0x40>
 800b7ca:	f04f 0350 	mov.w	r3, #80	; 0x50
 800b7ce:	b672      	cpsid	i
 800b7d0:	f383 8811 	msr	BASEPRI, r3
 800b7d4:	f3bf 8f6f 	isb	sy
 800b7d8:	f3bf 8f4f 	dsb	sy
 800b7dc:	b662      	cpsie	i
 800b7de:	e7fe      	b.n	800b7de <xQueueGenericSend+0x3e>
 800b7e0:	2f02      	cmp	r7, #2
 800b7e2:	d10d      	bne.n	800b800 <xQueueGenericSend+0x60>
 800b7e4:	6be3      	ldr	r3, [r4, #60]	; 0x3c
 800b7e6:	2b01      	cmp	r3, #1
 800b7e8:	d00a      	beq.n	800b800 <xQueueGenericSend+0x60>
 800b7ea:	f04f 0350 	mov.w	r3, #80	; 0x50
 800b7ee:	b672      	cpsid	i
 800b7f0:	f383 8811 	msr	BASEPRI, r3
 800b7f4:	f3bf 8f6f 	isb	sy
 800b7f8:	f3bf 8f4f 	dsb	sy
 800b7fc:	b662      	cpsie	i
 800b7fe:	e7fe      	b.n	800b7fe <xQueueGenericSend+0x5e>
 800b800:	f000 ff80 	bl	800c704 <xTaskGetSchedulerState>
 800b804:	b960      	cbnz	r0, 800b820 <xQueueGenericSend+0x80>
 800b806:	9e01      	ldr	r6, [sp, #4]
 800b808:	b15e      	cbz	r6, 800b822 <xQueueGenericSend+0x82>
 800b80a:	f04f 0350 	mov.w	r3, #80	; 0x50
 800b80e:	b672      	cpsid	i
 800b810:	f383 8811 	msr	BASEPRI, r3
 800b814:	f3bf 8f6f 	isb	sy
 800b818:	f3bf 8f4f 	dsb	sy
 800b81c:	b662      	cpsie	i
 800b81e:	e7fe      	b.n	800b81e <xQueueGenericSend+0x7e>
 800b820:	2600      	movs	r6, #0
 800b822:	f04f 0900 	mov.w	r9, #0
 800b826:	f8df a0e8 	ldr.w	sl, [pc, #232]	; 800b910 <xQueueGenericSend+0x170>
 800b82a:	e037      	b.n	800b89c <xQueueGenericSend+0xfc>
 800b82c:	9d01      	ldr	r5, [sp, #4]
 800b82e:	b91d      	cbnz	r5, 800b838 <xQueueGenericSend+0x98>
 800b830:	f001 f916 	bl	800ca60 <vPortExitCritical>
 800b834:	2000      	movs	r0, #0
 800b836:	e050      	b.n	800b8da <xQueueGenericSend+0x13a>
 800b838:	b916      	cbnz	r6, 800b840 <xQueueGenericSend+0xa0>
 800b83a:	a802      	add	r0, sp, #8
 800b83c:	f000 ff10 	bl	800c660 <vTaskInternalSetTimeOutState>
 800b840:	f001 f90e 	bl	800ca60 <vPortExitCritical>
 800b844:	f000 fd28 	bl	800c298 <vTaskSuspendAll>
 800b848:	f001 f8e4 	bl	800ca14 <vPortEnterCritical>
 800b84c:	f894 3044 	ldrb.w	r3, [r4, #68]	; 0x44
 800b850:	2bff      	cmp	r3, #255	; 0xff
 800b852:	d101      	bne.n	800b858 <xQueueGenericSend+0xb8>
 800b854:	f884 9044 	strb.w	r9, [r4, #68]	; 0x44
 800b858:	f894 3045 	ldrb.w	r3, [r4, #69]	; 0x45
 800b85c:	2bff      	cmp	r3, #255	; 0xff
 800b85e:	d101      	bne.n	800b864 <xQueueGenericSend+0xc4>
 800b860:	f884 9045 	strb.w	r9, [r4, #69]	; 0x45
 800b864:	f001 f8fc 	bl	800ca60 <vPortExitCritical>
 800b868:	a901      	add	r1, sp, #4
 800b86a:	a802      	add	r0, sp, #8
 800b86c:	f000 ff04 	bl	800c678 <xTaskCheckForTimeOut>
 800b870:	2800      	cmp	r0, #0
 800b872:	d146      	bne.n	800b902 <xQueueGenericSend+0x162>
 800b874:	f001 f8ce 	bl	800ca14 <vPortEnterCritical>
 800b878:	6ba2      	ldr	r2, [r4, #56]	; 0x38
 800b87a:	6be3      	ldr	r3, [r4, #60]	; 0x3c
 800b87c:	429a      	cmp	r2, r3
 800b87e:	d12f      	bne.n	800b8e0 <xQueueGenericSend+0x140>
 800b880:	f001 f8ee 	bl	800ca60 <vPortExitCritical>
 800b884:	9901      	ldr	r1, [sp, #4]
 800b886:	f104 0010 	add.w	r0, r4, #16
 800b88a:	f000 fe89 	bl	800c5a0 <vTaskPlaceOnEventList>
 800b88e:	4620      	mov	r0, r4
 800b890:	f7ff fe91 	bl	800b5b6 <prvUnlockQueue>
 800b894:	f000 fdaa 	bl	800c3ec <xTaskResumeAll>
 800b898:	b350      	cbz	r0, 800b8f0 <xQueueGenericSend+0x150>
 800b89a:	2601      	movs	r6, #1
 800b89c:	f001 f8ba 	bl	800ca14 <vPortEnterCritical>
 800b8a0:	6ba2      	ldr	r2, [r4, #56]	; 0x38
 800b8a2:	6be3      	ldr	r3, [r4, #60]	; 0x3c
 800b8a4:	429a      	cmp	r2, r3
 800b8a6:	d301      	bcc.n	800b8ac <xQueueGenericSend+0x10c>
 800b8a8:	2f02      	cmp	r7, #2
 800b8aa:	d1bf      	bne.n	800b82c <xQueueGenericSend+0x8c>
 800b8ac:	463a      	mov	r2, r7
 800b8ae:	4641      	mov	r1, r8
 800b8b0:	4620      	mov	r0, r4
 800b8b2:	f7ff fe38 	bl	800b526 <prvCopyDataToQueue>
 800b8b6:	6a63      	ldr	r3, [r4, #36]	; 0x24
 800b8b8:	b11b      	cbz	r3, 800b8c2 <xQueueGenericSend+0x122>
 800b8ba:	f104 0024 	add.w	r0, r4, #36	; 0x24
 800b8be:	f000 fe8b 	bl	800c5d8 <xTaskRemoveFromEventList>
 800b8c2:	b138      	cbz	r0, 800b8d4 <xQueueGenericSend+0x134>
 800b8c4:	4b12      	ldr	r3, [pc, #72]	; (800b910 <xQueueGenericSend+0x170>)
 800b8c6:	f04f 5280 	mov.w	r2, #268435456	; 0x10000000
 800b8ca:	601a      	str	r2, [r3, #0]
 800b8cc:	f3bf 8f4f 	dsb	sy
 800b8d0:	f3bf 8f6f 	isb	sy
 800b8d4:	f001 f8c4 	bl	800ca60 <vPortExitCritical>
 800b8d8:	2001      	movs	r0, #1
 800b8da:	b004      	add	sp, #16
 800b8dc:	e8bd 87f0 	ldmia.w	sp!, {r4, r5, r6, r7, r8, r9, sl, pc}
 800b8e0:	f001 f8be 	bl	800ca60 <vPortExitCritical>
 800b8e4:	4620      	mov	r0, r4
 800b8e6:	f7ff fe66 	bl	800b5b6 <prvUnlockQueue>
 800b8ea:	f000 fd7f 	bl	800c3ec <xTaskResumeAll>
 800b8ee:	e7d4      	b.n	800b89a <xQueueGenericSend+0xfa>
 800b8f0:	f04f 5380 	mov.w	r3, #268435456	; 0x10000000
 800b8f4:	f8ca 3000 	str.w	r3, [sl]
 800b8f8:	f3bf 8f4f 	dsb	sy
 800b8fc:	f3bf 8f6f 	isb	sy
 800b900:	e7cb      	b.n	800b89a <xQueueGenericSend+0xfa>
 800b902:	4620      	mov	r0, r4
 800b904:	f7ff fe57 	bl	800b5b6 <prvUnlockQueue>
 800b908:	f000 fd70 	bl	800c3ec <xTaskResumeAll>
 800b90c:	e792      	b.n	800b834 <xQueueGenericSend+0x94>
 800b90e:	bf00      	nop
 800b910:	e000ed04 	.word	0xe000ed04

0800b914 <xQueueCreateMutexStatic>:
 800b914:	2200      	movs	r2, #0
 800b916:	460b      	mov	r3, r1
 800b918:	b513      	push	{r0, r1, r4, lr}
 800b91a:	4611      	mov	r1, r2
 800b91c:	9000      	str	r0, [sp, #0]
 800b91e:	2001      	movs	r0, #1
 800b920:	f7ff fec4 	bl	800b6ac <xQueueGenericCreateStatic>
 800b924:	4604      	mov	r4, r0
 800b926:	b138      	cbz	r0, 800b938 <xQueueCreateMutexStatic+0x24>
 800b928:	2300      	movs	r3, #0
 800b92a:	6083      	str	r3, [r0, #8]
 800b92c:	461a      	mov	r2, r3
 800b92e:	6003      	str	r3, [r0, #0]
 800b930:	4619      	mov	r1, r3
 800b932:	60c3      	str	r3, [r0, #12]
 800b934:	f7ff ff34 	bl	800b7a0 <xQueueGenericSend>
 800b938:	4620      	mov	r0, r4
 800b93a:	b002      	add	sp, #8
 800b93c:	bd10      	pop	{r4, pc}

0800b93e <xQueueCreateMutex>:
 800b93e:	b510      	push	{r4, lr}
 800b940:	4602      	mov	r2, r0
 800b942:	2100      	movs	r1, #0
 800b944:	2001      	movs	r0, #1
 800b946:	f7ff ff05 	bl	800b754 <xQueueGenericCreate>
 800b94a:	4604      	mov	r4, r0
 800b94c:	b138      	cbz	r0, 800b95e <xQueueCreateMutex+0x20>
 800b94e:	2300      	movs	r3, #0
 800b950:	6083      	str	r3, [r0, #8]
 800b952:	461a      	mov	r2, r3
 800b954:	6003      	str	r3, [r0, #0]
 800b956:	4619      	mov	r1, r3
 800b958:	60c3      	str	r3, [r0, #12]
 800b95a:	f7ff ff21 	bl	800b7a0 <xQueueGenericSend>
 800b95e:	4620      	mov	r0, r4
 800b960:	bd10      	pop	{r4, pc}

0800b962 <xQueueGenericSendFromISR>:
 800b962:	e92d 43f8 	stmdb	sp!, {r3, r4, r5, r6, r7, r8, r9, lr}
 800b966:	4689      	mov	r9, r1
 800b968:	4690      	mov	r8, r2
 800b96a:	461f      	mov	r7, r3
 800b96c:	4604      	mov	r4, r0
 800b96e:	b950      	cbnz	r0, 800b986 <xQueueGenericSendFromISR+0x24>
 800b970:	f04f 0350 	mov.w	r3, #80	; 0x50
 800b974:	b672      	cpsid	i
 800b976:	f383 8811 	msr	BASEPRI, r3
 800b97a:	f3bf 8f6f 	isb	sy
 800b97e:	f3bf 8f4f 	dsb	sy
 800b982:	b662      	cpsie	i
 800b984:	e7fe      	b.n	800b984 <xQueueGenericSendFromISR+0x22>
 800b986:	b961      	cbnz	r1, 800b9a2 <xQueueGenericSendFromISR+0x40>
 800b988:	6c03      	ldr	r3, [r0, #64]	; 0x40
 800b98a:	b153      	cbz	r3, 800b9a2 <xQueueGenericSendFromISR+0x40>
 800b98c:	f04f 0350 	mov.w	r3, #80	; 0x50
 800b990:	b672      	cpsid	i
 800b992:	f383 8811 	msr	BASEPRI, r3
 800b996:	f3bf 8f6f 	isb	sy
 800b99a:	f3bf 8f4f 	dsb	sy
 800b99e:	b662      	cpsie	i
 800b9a0:	e7fe      	b.n	800b9a0 <xQueueGenericSendFromISR+0x3e>
 800b9a2:	2f02      	cmp	r7, #2
 800b9a4:	d10d      	bne.n	800b9c2 <xQueueGenericSendFromISR+0x60>
 800b9a6:	6be3      	ldr	r3, [r4, #60]	; 0x3c
 800b9a8:	2b01      	cmp	r3, #1
 800b9aa:	d00a      	beq.n	800b9c2 <xQueueGenericSendFromISR+0x60>
 800b9ac:	f04f 0350 	mov.w	r3, #80	; 0x50
 800b9b0:	b672      	cpsid	i
 800b9b2:	f383 8811 	msr	BASEPRI, r3
 800b9b6:	f3bf 8f6f 	isb	sy
 800b9ba:	f3bf 8f4f 	dsb	sy
 800b9be:	b662      	cpsie	i
 800b9c0:	e7fe      	b.n	800b9c0 <xQueueGenericSendFromISR+0x5e>
 800b9c2:	f001 f92f 	bl	800cc24 <vPortValidateInterruptPriority>
 800b9c6:	f3ef 8611 	mrs	r6, BASEPRI
 800b9ca:	f04f 0350 	mov.w	r3, #80	; 0x50
 800b9ce:	b672      	cpsid	i
 800b9d0:	f383 8811 	msr	BASEPRI, r3
 800b9d4:	f3bf 8f6f 	isb	sy
 800b9d8:	f3bf 8f4f 	dsb	sy
 800b9dc:	b662      	cpsie	i
 800b9de:	6ba2      	ldr	r2, [r4, #56]	; 0x38
 800b9e0:	6be3      	ldr	r3, [r4, #60]	; 0x3c
 800b9e2:	429a      	cmp	r2, r3
 800b9e4:	d301      	bcc.n	800b9ea <xQueueGenericSendFromISR+0x88>
 800b9e6:	2f02      	cmp	r7, #2
 800b9e8:	d122      	bne.n	800ba30 <xQueueGenericSendFromISR+0xce>
 800b9ea:	f894 5045 	ldrb.w	r5, [r4, #69]	; 0x45
 800b9ee:	463a      	mov	r2, r7
 800b9f0:	4649      	mov	r1, r9
 800b9f2:	4620      	mov	r0, r4
 800b9f4:	b26d      	sxtb	r5, r5
 800b9f6:	f7ff fd96 	bl	800b526 <prvCopyDataToQueue>
 800b9fa:	1c6b      	adds	r3, r5, #1
 800b9fc:	d113      	bne.n	800ba26 <xQueueGenericSendFromISR+0xc4>
 800b9fe:	6a63      	ldr	r3, [r4, #36]	; 0x24
 800ba00:	b90b      	cbnz	r3, 800ba06 <xQueueGenericSendFromISR+0xa4>
 800ba02:	2001      	movs	r0, #1
 800ba04:	e00b      	b.n	800ba1e <xQueueGenericSendFromISR+0xbc>
 800ba06:	f104 0024 	add.w	r0, r4, #36	; 0x24
 800ba0a:	f000 fde5 	bl	800c5d8 <xTaskRemoveFromEventList>
 800ba0e:	2800      	cmp	r0, #0
 800ba10:	d0f7      	beq.n	800ba02 <xQueueGenericSendFromISR+0xa0>
 800ba12:	f1b8 0f00 	cmp.w	r8, #0
 800ba16:	d0f4      	beq.n	800ba02 <xQueueGenericSendFromISR+0xa0>
 800ba18:	2001      	movs	r0, #1
 800ba1a:	f8c8 0000 	str.w	r0, [r8]
 800ba1e:	f386 8811 	msr	BASEPRI, r6
 800ba22:	e8bd 83f8 	ldmia.w	sp!, {r3, r4, r5, r6, r7, r8, r9, pc}
 800ba26:	3501      	adds	r5, #1
 800ba28:	b26d      	sxtb	r5, r5
 800ba2a:	f884 5045 	strb.w	r5, [r4, #69]	; 0x45
 800ba2e:	e7e8      	b.n	800ba02 <xQueueGenericSendFromISR+0xa0>
 800ba30:	2000      	movs	r0, #0
 800ba32:	e7f4      	b.n	800ba1e <xQueueGenericSendFromISR+0xbc>

0800ba34 <xQueueGiveFromISR>:
 800ba34:	b570      	push	{r4, r5, r6, lr}
 800ba36:	460d      	mov	r5, r1
 800ba38:	4604      	mov	r4, r0
 800ba3a:	b950      	cbnz	r0, 800ba52 <xQueueGiveFromISR+0x1e>
 800ba3c:	f04f 0350 	mov.w	r3, #80	; 0x50
 800ba40:	b672      	cpsid	i
 800ba42:	f383 8811 	msr	BASEPRI, r3
 800ba46:	f3bf 8f6f 	isb	sy
 800ba4a:	f3bf 8f4f 	dsb	sy
 800ba4e:	b662      	cpsie	i
 800ba50:	e7fe      	b.n	800ba50 <xQueueGiveFromISR+0x1c>
 800ba52:	6c03      	ldr	r3, [r0, #64]	; 0x40
 800ba54:	b153      	cbz	r3, 800ba6c <xQueueGiveFromISR+0x38>
 800ba56:	f04f 0350 	mov.w	r3, #80	; 0x50
 800ba5a:	b672      	cpsid	i
 800ba5c:	f383 8811 	msr	BASEPRI, r3
 800ba60:	f3bf 8f6f 	isb	sy
 800ba64:	f3bf 8f4f 	dsb	sy
 800ba68:	b662      	cpsie	i
 800ba6a:	e7fe      	b.n	800ba6a <xQueueGiveFromISR+0x36>
 800ba6c:	6803      	ldr	r3, [r0, #0]
 800ba6e:	b963      	cbnz	r3, 800ba8a <xQueueGiveFromISR+0x56>
 800ba70:	6883      	ldr	r3, [r0, #8]
 800ba72:	b153      	cbz	r3, 800ba8a <xQueueGiveFromISR+0x56>
 800ba74:	f04f 0350 	mov.w	r3, #80	; 0x50
 800ba78:	b672      	cpsid	i
 800ba7a:	f383 8811 	msr	BASEPRI, r3
 800ba7e:	f3bf 8f6f 	isb	sy
 800ba82:	f3bf 8f4f 	dsb	sy
 800ba86:	b662      	cpsie	i
 800ba88:	e7fe      	b.n	800ba88 <xQueueGiveFromISR+0x54>
 800ba8a:	f001 f8cb 	bl	800cc24 <vPortValidateInterruptPriority>
 800ba8e:	f3ef 8611 	mrs	r6, BASEPRI
 800ba92:	f04f 0350 	mov.w	r3, #80	; 0x50
 800ba96:	b672      	cpsid	i
 800ba98:	f383 8811 	msr	BASEPRI, r3
 800ba9c:	f3bf 8f6f 	isb	sy
 800baa0:	f3bf 8f4f 	dsb	sy
 800baa4:	b662      	cpsie	i
 800baa6:	6ba2      	ldr	r2, [r4, #56]	; 0x38
 800baa8:	6be3      	ldr	r3, [r4, #60]	; 0x3c
 800baaa:	4293      	cmp	r3, r2
 800baac:	d91c      	bls.n	800bae8 <xQueueGiveFromISR+0xb4>
 800baae:	f894 3045 	ldrb.w	r3, [r4, #69]	; 0x45
 800bab2:	3201      	adds	r2, #1
 800bab4:	b25b      	sxtb	r3, r3
 800bab6:	63a2      	str	r2, [r4, #56]	; 0x38
 800bab8:	1c5a      	adds	r2, r3, #1
 800baba:	d110      	bne.n	800bade <xQueueGiveFromISR+0xaa>
 800babc:	6a63      	ldr	r3, [r4, #36]	; 0x24
 800babe:	b90b      	cbnz	r3, 800bac4 <xQueueGiveFromISR+0x90>
 800bac0:	2001      	movs	r0, #1
 800bac2:	e009      	b.n	800bad8 <xQueueGiveFromISR+0xa4>
 800bac4:	f104 0024 	add.w	r0, r4, #36	; 0x24
 800bac8:	f000 fd86 	bl	800c5d8 <xTaskRemoveFromEventList>
 800bacc:	2800      	cmp	r0, #0
 800bace:	d0f7      	beq.n	800bac0 <xQueueGiveFromISR+0x8c>
 800bad0:	2d00      	cmp	r5, #0
 800bad2:	d0f5      	beq.n	800bac0 <xQueueGiveFromISR+0x8c>
 800bad4:	2001      	movs	r0, #1
 800bad6:	6028      	str	r0, [r5, #0]
 800bad8:	f386 8811 	msr	BASEPRI, r6
 800badc:	bd70      	pop	{r4, r5, r6, pc}
 800bade:	3301      	adds	r3, #1
 800bae0:	b25b      	sxtb	r3, r3
 800bae2:	f884 3045 	strb.w	r3, [r4, #69]	; 0x45
 800bae6:	e7eb      	b.n	800bac0 <xQueueGiveFromISR+0x8c>
 800bae8:	2000      	movs	r0, #0
 800baea:	e7f5      	b.n	800bad8 <xQueueGiveFromISR+0xa4>

0800baec <xQueueReceive>:
 800baec:	e92d 43f0 	stmdb	sp!, {r4, r5, r6, r7, r8, r9, lr}
 800baf0:	b085      	sub	sp, #20
 800baf2:	460f      	mov	r7, r1
 800baf4:	4604      	mov	r4, r0
 800baf6:	9201      	str	r2, [sp, #4]
 800baf8:	b950      	cbnz	r0, 800bb10 <xQueueReceive+0x24>
 800bafa:	f04f 0350 	mov.w	r3, #80	; 0x50
 800bafe:	b672      	cpsid	i
 800bb00:	f383 8811 	msr	BASEPRI, r3
 800bb04:	f3bf 8f6f 	isb	sy
 800bb08:	f3bf 8f4f 	dsb	sy
 800bb0c:	b662      	cpsie	i
 800bb0e:	e7fe      	b.n	800bb0e <xQueueReceive+0x22>
 800bb10:	b961      	cbnz	r1, 800bb2c <xQueueReceive+0x40>
 800bb12:	6c03      	ldr	r3, [r0, #64]	; 0x40
 800bb14:	b153      	cbz	r3, 800bb2c <xQueueReceive+0x40>
 800bb16:	f04f 0350 	mov.w	r3, #80	; 0x50
 800bb1a:	b672      	cpsid	i
 800bb1c:	f383 8811 	msr	BASEPRI, r3
 800bb20:	f3bf 8f6f 	isb	sy
 800bb24:	f3bf 8f4f 	dsb	sy
 800bb28:	b662      	cpsie	i
 800bb2a:	e7fe      	b.n	800bb2a <xQueueReceive+0x3e>
 800bb2c:	f000 fdea 	bl	800c704 <xTaskGetSchedulerState>
 800bb30:	b960      	cbnz	r0, 800bb4c <xQueueReceive+0x60>
 800bb32:	9e01      	ldr	r6, [sp, #4]
 800bb34:	b15e      	cbz	r6, 800bb4e <xQueueReceive+0x62>
 800bb36:	f04f 0350 	mov.w	r3, #80	; 0x50
 800bb3a:	b672      	cpsid	i
 800bb3c:	f383 8811 	msr	BASEPRI, r3
 800bb40:	f3bf 8f6f 	isb	sy
 800bb44:	f3bf 8f4f 	dsb	sy
 800bb48:	b662      	cpsie	i
 800bb4a:	e7fe      	b.n	800bb4a <xQueueReceive+0x5e>
 800bb4c:	2600      	movs	r6, #0
 800bb4e:	f04f 0800 	mov.w	r8, #0
 800bb52:	f8df 90e0 	ldr.w	r9, [pc, #224]	; 800bc34 <xQueueReceive+0x148>
 800bb56:	e03b      	b.n	800bbd0 <xQueueReceive+0xe4>
 800bb58:	9d01      	ldr	r5, [sp, #4]
 800bb5a:	b91d      	cbnz	r5, 800bb64 <xQueueReceive+0x78>
 800bb5c:	f000 ff80 	bl	800ca60 <vPortExitCritical>
 800bb60:	2000      	movs	r0, #0
 800bb62:	e052      	b.n	800bc0a <xQueueReceive+0x11e>
 800bb64:	b916      	cbnz	r6, 800bb6c <xQueueReceive+0x80>
 800bb66:	a802      	add	r0, sp, #8
 800bb68:	f000 fd7a 	bl	800c660 <vTaskInternalSetTimeOutState>
 800bb6c:	f000 ff78 	bl	800ca60 <vPortExitCritical>
 800bb70:	f000 fb92 	bl	800c298 <vTaskSuspendAll>
 800bb74:	f000 ff4e 	bl	800ca14 <vPortEnterCritical>
 800bb78:	f894 3044 	ldrb.w	r3, [r4, #68]	; 0x44
 800bb7c:	2bff      	cmp	r3, #255	; 0xff
 800bb7e:	d101      	bne.n	800bb84 <xQueueReceive+0x98>
 800bb80:	f884 8044 	strb.w	r8, [r4, #68]	; 0x44
 800bb84:	f894 3045 	ldrb.w	r3, [r4, #69]	; 0x45
 800bb88:	2bff      	cmp	r3, #255	; 0xff
 800bb8a:	d101      	bne.n	800bb90 <xQueueReceive+0xa4>
 800bb8c:	f884 8045 	strb.w	r8, [r4, #69]	; 0x45
 800bb90:	f000 ff66 	bl	800ca60 <vPortExitCritical>
 800bb94:	a901      	add	r1, sp, #4
 800bb96:	a802      	add	r0, sp, #8
 800bb98:	f000 fd6e 	bl	800c678 <xTaskCheckForTimeOut>
 800bb9c:	2800      	cmp	r0, #0
 800bb9e:	d13d      	bne.n	800bc1c <xQueueReceive+0x130>
 800bba0:	4620      	mov	r0, r4
 800bba2:	f7ff fcb5 	bl	800b510 <prvIsQueueEmpty>
 800bba6:	b398      	cbz	r0, 800bc10 <xQueueReceive+0x124>
 800bba8:	9901      	ldr	r1, [sp, #4]
 800bbaa:	f104 0024 	add.w	r0, r4, #36	; 0x24
 800bbae:	f000 fcf7 	bl	800c5a0 <vTaskPlaceOnEventList>
 800bbb2:	4620      	mov	r0, r4
 800bbb4:	f7ff fcff 	bl	800b5b6 <prvUnlockQueue>
 800bbb8:	f000 fc18 	bl	800c3ec <xTaskResumeAll>
 800bbbc:	b938      	cbnz	r0, 800bbce <xQueueReceive+0xe2>
 800bbbe:	f04f 5380 	mov.w	r3, #268435456	; 0x10000000
 800bbc2:	f8c9 3000 	str.w	r3, [r9]
 800bbc6:	f3bf 8f4f 	dsb	sy
 800bbca:	f3bf 8f6f 	isb	sy
 800bbce:	2601      	movs	r6, #1
 800bbd0:	f000 ff20 	bl	800ca14 <vPortEnterCritical>
 800bbd4:	6ba5      	ldr	r5, [r4, #56]	; 0x38
 800bbd6:	2d00      	cmp	r5, #0
 800bbd8:	d0be      	beq.n	800bb58 <xQueueReceive+0x6c>
 800bbda:	3d01      	subs	r5, #1
 800bbdc:	4639      	mov	r1, r7
 800bbde:	4620      	mov	r0, r4
 800bbe0:	f7ff fcd4 	bl	800b58c <prvCopyDataFromQueue>
 800bbe4:	63a5      	str	r5, [r4, #56]	; 0x38
 800bbe6:	6923      	ldr	r3, [r4, #16]
 800bbe8:	b163      	cbz	r3, 800bc04 <xQueueReceive+0x118>
 800bbea:	f104 0010 	add.w	r0, r4, #16
 800bbee:	f000 fcf3 	bl	800c5d8 <xTaskRemoveFromEventList>
 800bbf2:	b138      	cbz	r0, 800bc04 <xQueueReceive+0x118>
 800bbf4:	4b0f      	ldr	r3, [pc, #60]	; (800bc34 <xQueueReceive+0x148>)
 800bbf6:	f04f 5280 	mov.w	r2, #268435456	; 0x10000000
 800bbfa:	601a      	str	r2, [r3, #0]
 800bbfc:	f3bf 8f4f 	dsb	sy
 800bc00:	f3bf 8f6f 	isb	sy
 800bc04:	f000 ff2c 	bl	800ca60 <vPortExitCritical>
 800bc08:	2001      	movs	r0, #1
 800bc0a:	b005      	add	sp, #20
 800bc0c:	e8bd 83f0 	ldmia.w	sp!, {r4, r5, r6, r7, r8, r9, pc}
 800bc10:	4620      	mov	r0, r4
 800bc12:	f7ff fcd0 	bl	800b5b6 <prvUnlockQueue>
 800bc16:	f000 fbe9 	bl	800c3ec <xTaskResumeAll>
 800bc1a:	e7d8      	b.n	800bbce <xQueueReceive+0xe2>
 800bc1c:	4620      	mov	r0, r4
 800bc1e:	f7ff fcca 	bl	800b5b6 <prvUnlockQueue>
 800bc22:	f000 fbe3 	bl	800c3ec <xTaskResumeAll>
 800bc26:	4620      	mov	r0, r4
 800bc28:	f7ff fc72 	bl	800b510 <prvIsQueueEmpty>
 800bc2c:	2800      	cmp	r0, #0
 800bc2e:	d0ce      	beq.n	800bbce <xQueueReceive+0xe2>
 800bc30:	e796      	b.n	800bb60 <xQueueReceive+0x74>
 800bc32:	bf00      	nop
 800bc34:	e000ed04 	.word	0xe000ed04

0800bc38 <xQueueSemaphoreTake>:
 800bc38:	e92d 41ff 	stmdb	sp!, {r0, r1, r2, r3, r4, r5, r6, r7, r8, lr}
 800bc3c:	4604      	mov	r4, r0
 800bc3e:	9101      	str	r1, [sp, #4]
 800bc40:	b950      	cbnz	r0, 800bc58 <xQueueSemaphoreTake+0x20>
 800bc42:	f04f 0350 	mov.w	r3, #80	; 0x50
 800bc46:	b672      	cpsid	i
 800bc48:	f383 8811 	msr	BASEPRI, r3
 800bc4c:	f3bf 8f6f 	isb	sy
 800bc50:	f3bf 8f4f 	dsb	sy
 800bc54:	b662      	cpsie	i
 800bc56:	e7fe      	b.n	800bc56 <xQueueSemaphoreTake+0x1e>
 800bc58:	6c05      	ldr	r5, [r0, #64]	; 0x40
 800bc5a:	b155      	cbz	r5, 800bc72 <xQueueSemaphoreTake+0x3a>
 800bc5c:	f04f 0350 	mov.w	r3, #80	; 0x50
 800bc60:	b672      	cpsid	i
 800bc62:	f383 8811 	msr	BASEPRI, r3
 800bc66:	f3bf 8f6f 	isb	sy
 800bc6a:	f3bf 8f4f 	dsb	sy
 800bc6e:	b662      	cpsie	i
 800bc70:	e7fe      	b.n	800bc70 <xQueueSemaphoreTake+0x38>
 800bc72:	f000 fd47 	bl	800c704 <xTaskGetSchedulerState>
 800bc76:	b960      	cbnz	r0, 800bc92 <xQueueSemaphoreTake+0x5a>
 800bc78:	9d01      	ldr	r5, [sp, #4]
 800bc7a:	b155      	cbz	r5, 800bc92 <xQueueSemaphoreTake+0x5a>
 800bc7c:	f04f 0350 	mov.w	r3, #80	; 0x50
 800bc80:	b672      	cpsid	i
 800bc82:	f383 8811 	msr	BASEPRI, r3
 800bc86:	f3bf 8f6f 	isb	sy
 800bc8a:	f3bf 8f4f 	dsb	sy
 800bc8e:	b662      	cpsie	i
 800bc90:	e7fe      	b.n	800bc90 <xQueueSemaphoreTake+0x58>
 800bc92:	462e      	mov	r6, r5
 800bc94:	2700      	movs	r7, #0
 800bc96:	f8df 8130 	ldr.w	r8, [pc, #304]	; 800bdc8 <xQueueSemaphoreTake+0x190>
 800bc9a:	e051      	b.n	800bd40 <xQueueSemaphoreTake+0x108>
 800bc9c:	9b01      	ldr	r3, [sp, #4]
 800bc9e:	b973      	cbnz	r3, 800bcbe <xQueueSemaphoreTake+0x86>
 800bca0:	b155      	cbz	r5, 800bcb8 <xQueueSemaphoreTake+0x80>
 800bca2:	f04f 0350 	mov.w	r3, #80	; 0x50
 800bca6:	b672      	cpsid	i
 800bca8:	f383 8811 	msr	BASEPRI, r3
 800bcac:	f3bf 8f6f 	isb	sy
 800bcb0:	f3bf 8f4f 	dsb	sy
 800bcb4:	b662      	cpsie	i
 800bcb6:	e7fe      	b.n	800bcb6 <xQueueSemaphoreTake+0x7e>
 800bcb8:	f000 fed2 	bl	800ca60 <vPortExitCritical>
 800bcbc:	e05e      	b.n	800bd7c <xQueueSemaphoreTake+0x144>
 800bcbe:	b916      	cbnz	r6, 800bcc6 <xQueueSemaphoreTake+0x8e>
 800bcc0:	a802      	add	r0, sp, #8
 800bcc2:	f000 fccd 	bl	800c660 <vTaskInternalSetTimeOutState>
 800bcc6:	f000 fecb 	bl	800ca60 <vPortExitCritical>
 800bcca:	f000 fae5 	bl	800c298 <vTaskSuspendAll>
 800bcce:	f000 fea1 	bl	800ca14 <vPortEnterCritical>
 800bcd2:	f894 3044 	ldrb.w	r3, [r4, #68]	; 0x44
 800bcd6:	2bff      	cmp	r3, #255	; 0xff
 800bcd8:	d101      	bne.n	800bcde <xQueueSemaphoreTake+0xa6>
 800bcda:	f884 7044 	strb.w	r7, [r4, #68]	; 0x44
 800bcde:	f894 3045 	ldrb.w	r3, [r4, #69]	; 0x45
 800bce2:	2bff      	cmp	r3, #255	; 0xff
 800bce4:	d101      	bne.n	800bcea <xQueueSemaphoreTake+0xb2>
 800bce6:	f884 7045 	strb.w	r7, [r4, #69]	; 0x45
 800bcea:	f000 feb9 	bl	800ca60 <vPortExitCritical>
 800bcee:	a901      	add	r1, sp, #4
 800bcf0:	a802      	add	r0, sp, #8
 800bcf2:	f000 fcc1 	bl	800c678 <xTaskCheckForTimeOut>
 800bcf6:	2800      	cmp	r0, #0
 800bcf8:	d14a      	bne.n	800bd90 <xQueueSemaphoreTake+0x158>
 800bcfa:	4620      	mov	r0, r4
 800bcfc:	f7ff fc08 	bl	800b510 <prvIsQueueEmpty>
 800bd00:	2800      	cmp	r0, #0
 800bd02:	d03f      	beq.n	800bd84 <xQueueSemaphoreTake+0x14c>
 800bd04:	6823      	ldr	r3, [r4, #0]
 800bd06:	b93b      	cbnz	r3, 800bd18 <xQueueSemaphoreTake+0xe0>
 800bd08:	f000 fe84 	bl	800ca14 <vPortEnterCritical>
 800bd0c:	68a0      	ldr	r0, [r4, #8]
 800bd0e:	f000 fd09 	bl	800c724 <xTaskPriorityInherit>
 800bd12:	4605      	mov	r5, r0
 800bd14:	f000 fea4 	bl	800ca60 <vPortExitCritical>
 800bd18:	9901      	ldr	r1, [sp, #4]
 800bd1a:	f104 0024 	add.w	r0, r4, #36	; 0x24
 800bd1e:	f000 fc3f 	bl	800c5a0 <vTaskPlaceOnEventList>
 800bd22:	4620      	mov	r0, r4
 800bd24:	f7ff fc47 	bl	800b5b6 <prvUnlockQueue>
 800bd28:	f000 fb60 	bl	800c3ec <xTaskResumeAll>
 800bd2c:	b938      	cbnz	r0, 800bd3e <xQueueSemaphoreTake+0x106>
 800bd2e:	f04f 5380 	mov.w	r3, #268435456	; 0x10000000
 800bd32:	f8c8 3000 	str.w	r3, [r8]
 800bd36:	f3bf 8f4f 	dsb	sy
 800bd3a:	f3bf 8f6f 	isb	sy
 800bd3e:	2601      	movs	r6, #1
 800bd40:	f000 fe68 	bl	800ca14 <vPortEnterCritical>
 800bd44:	6ba3      	ldr	r3, [r4, #56]	; 0x38
 800bd46:	2b00      	cmp	r3, #0
 800bd48:	d0a8      	beq.n	800bc9c <xQueueSemaphoreTake+0x64>
 800bd4a:	3b01      	subs	r3, #1
 800bd4c:	63a3      	str	r3, [r4, #56]	; 0x38
 800bd4e:	6823      	ldr	r3, [r4, #0]
 800bd50:	b913      	cbnz	r3, 800bd58 <xQueueSemaphoreTake+0x120>
 800bd52:	f000 fde9 	bl	800c928 <pvTaskIncrementMutexHeldCount>
 800bd56:	60a0      	str	r0, [r4, #8]
 800bd58:	6923      	ldr	r3, [r4, #16]
 800bd5a:	b163      	cbz	r3, 800bd76 <xQueueSemaphoreTake+0x13e>
 800bd5c:	f104 0010 	add.w	r0, r4, #16
 800bd60:	f000 fc3a 	bl	800c5d8 <xTaskRemoveFromEventList>
 800bd64:	b138      	cbz	r0, 800bd76 <xQueueSemaphoreTake+0x13e>
 800bd66:	4b18      	ldr	r3, [pc, #96]	; (800bdc8 <xQueueSemaphoreTake+0x190>)
 800bd68:	f04f 5280 	mov.w	r2, #268435456	; 0x10000000
 800bd6c:	601a      	str	r2, [r3, #0]
 800bd6e:	f3bf 8f4f 	dsb	sy
 800bd72:	f3bf 8f6f 	isb	sy
 800bd76:	2501      	movs	r5, #1
 800bd78:	f000 fe72 	bl	800ca60 <vPortExitCritical>
 800bd7c:	4628      	mov	r0, r5
 800bd7e:	b004      	add	sp, #16
 800bd80:	e8bd 81f0 	ldmia.w	sp!, {r4, r5, r6, r7, r8, pc}
 800bd84:	4620      	mov	r0, r4
 800bd86:	f7ff fc16 	bl	800b5b6 <prvUnlockQueue>
 800bd8a:	f000 fb2f 	bl	800c3ec <xTaskResumeAll>
 800bd8e:	e7d6      	b.n	800bd3e <xQueueSemaphoreTake+0x106>
 800bd90:	4620      	mov	r0, r4
 800bd92:	f7ff fc10 	bl	800b5b6 <prvUnlockQueue>
 800bd96:	f000 fb29 	bl	800c3ec <xTaskResumeAll>
 800bd9a:	4620      	mov	r0, r4
 800bd9c:	f7ff fbb8 	bl	800b510 <prvIsQueueEmpty>
 800bda0:	2800      	cmp	r0, #0
 800bda2:	d0cc      	beq.n	800bd3e <xQueueSemaphoreTake+0x106>
 800bda4:	2d00      	cmp	r5, #0
 800bda6:	d0e9      	beq.n	800bd7c <xQueueSemaphoreTake+0x144>
 800bda8:	f000 fe34 	bl	800ca14 <vPortEnterCritical>
 800bdac:	6a61      	ldr	r1, [r4, #36]	; 0x24
 800bdae:	b119      	cbz	r1, 800bdb8 <xQueueSemaphoreTake+0x180>
 800bdb0:	6b23      	ldr	r3, [r4, #48]	; 0x30
 800bdb2:	6819      	ldr	r1, [r3, #0]
 800bdb4:	f1c1 0107 	rsb	r1, r1, #7
 800bdb8:	68a0      	ldr	r0, [r4, #8]
 800bdba:	2500      	movs	r5, #0
 800bdbc:	f000 fd58 	bl	800c870 <vTaskPriorityDisinheritAfterTimeout>
 800bdc0:	f000 fe4e 	bl	800ca60 <vPortExitCritical>
 800bdc4:	e7da      	b.n	800bd7c <xQueueSemaphoreTake+0x144>
 800bdc6:	bf00      	nop
 800bdc8:	e000ed04 	.word	0xe000ed04

0800bdcc <xQueueReceiveFromISR>:
 800bdcc:	e92d 43f8 	stmdb	sp!, {r3, r4, r5, r6, r7, r8, r9, lr}
 800bdd0:	4689      	mov	r9, r1
 800bdd2:	4690      	mov	r8, r2
 800bdd4:	4605      	mov	r5, r0
 800bdd6:	b950      	cbnz	r0, 800bdee <xQueueReceiveFromISR+0x22>
 800bdd8:	f04f 0350 	mov.w	r3, #80	; 0x50
 800bddc:	b672      	cpsid	i
 800bdde:	f383 8811 	msr	BASEPRI, r3
 800bde2:	f3bf 8f6f 	isb	sy
 800bde6:	f3bf 8f4f 	dsb	sy
 800bdea:	b662      	cpsie	i
 800bdec:	e7fe      	b.n	800bdec <xQueueReceiveFromISR+0x20>
 800bdee:	b961      	cbnz	r1, 800be0a <xQueueReceiveFromISR+0x3e>
 800bdf0:	6c03      	ldr	r3, [r0, #64]	; 0x40
 800bdf2:	b153      	cbz	r3, 800be0a <xQueueReceiveFromISR+0x3e>
 800bdf4:	f04f 0350 	mov.w	r3, #80	; 0x50
 800bdf8:	b672      	cpsid	i
 800bdfa:	f383 8811 	msr	BASEPRI, r3
 800bdfe:	f3bf 8f6f 	isb	sy
 800be02:	f3bf 8f4f 	dsb	sy
 800be06:	b662      	cpsie	i
 800be08:	e7fe      	b.n	800be08 <xQueueReceiveFromISR+0x3c>
 800be0a:	f000 ff0b 	bl	800cc24 <vPortValidateInterruptPriority>
 800be0e:	f3ef 8711 	mrs	r7, BASEPRI
 800be12:	f04f 0350 	mov.w	r3, #80	; 0x50
 800be16:	b672      	cpsid	i
 800be18:	f383 8811 	msr	BASEPRI, r3
 800be1c:	f3bf 8f6f 	isb	sy
 800be20:	f3bf 8f4f 	dsb	sy
 800be24:	b662      	cpsie	i
 800be26:	6bac      	ldr	r4, [r5, #56]	; 0x38
 800be28:	b31c      	cbz	r4, 800be72 <xQueueReceiveFromISR+0xa6>
 800be2a:	f895 6044 	ldrb.w	r6, [r5, #68]	; 0x44
 800be2e:	4649      	mov	r1, r9
 800be30:	4628      	mov	r0, r5
 800be32:	3c01      	subs	r4, #1
 800be34:	b276      	sxtb	r6, r6
 800be36:	f7ff fba9 	bl	800b58c <prvCopyDataFromQueue>
 800be3a:	63ac      	str	r4, [r5, #56]	; 0x38
 800be3c:	1c73      	adds	r3, r6, #1
 800be3e:	d113      	bne.n	800be68 <xQueueReceiveFromISR+0x9c>
 800be40:	692b      	ldr	r3, [r5, #16]
 800be42:	b90b      	cbnz	r3, 800be48 <xQueueReceiveFromISR+0x7c>
 800be44:	2001      	movs	r0, #1
 800be46:	e00b      	b.n	800be60 <xQueueReceiveFromISR+0x94>
 800be48:	f105 0010 	add.w	r0, r5, #16
 800be4c:	f000 fbc4 	bl	800c5d8 <xTaskRemoveFromEventList>
 800be50:	2800      	cmp	r0, #0
 800be52:	d0f7      	beq.n	800be44 <xQueueReceiveFromISR+0x78>
 800be54:	f1b8 0f00 	cmp.w	r8, #0
 800be58:	d0f4      	beq.n	800be44 <xQueueReceiveFromISR+0x78>
 800be5a:	2001      	movs	r0, #1
 800be5c:	f8c8 0000 	str.w	r0, [r8]
 800be60:	f387 8811 	msr	BASEPRI, r7
 800be64:	e8bd 83f8 	ldmia.w	sp!, {r3, r4, r5, r6, r7, r8, r9, pc}
 800be68:	3601      	adds	r6, #1
 800be6a:	b276      	sxtb	r6, r6
 800be6c:	f885 6044 	strb.w	r6, [r5, #68]	; 0x44
 800be70:	e7e8      	b.n	800be44 <xQueueReceiveFromISR+0x78>
 800be72:	4620      	mov	r0, r4
 800be74:	e7f4      	b.n	800be60 <xQueueReceiveFromISR+0x94>
	...

0800be78 <prvAddNewTaskToReadyList>:
 800be78:	e92d 41f0 	stmdb	sp!, {r4, r5, r6, r7, r8, lr}
 800be7c:	4606      	mov	r6, r0
 800be7e:	f000 fdc9 	bl	800ca14 <vPortEnterCritical>
 800be82:	4b2e      	ldr	r3, [pc, #184]	; (800bf3c <prvAddNewTaskToReadyList+0xc4>)
 800be84:	4c2e      	ldr	r4, [pc, #184]	; (800bf40 <prvAddNewTaskToReadyList+0xc8>)
 800be86:	681a      	ldr	r2, [r3, #0]
 800be88:	4f2e      	ldr	r7, [pc, #184]	; (800bf44 <prvAddNewTaskToReadyList+0xcc>)
 800be8a:	3201      	adds	r2, #1
 800be8c:	601a      	str	r2, [r3, #0]
 800be8e:	6825      	ldr	r5, [r4, #0]
 800be90:	2d00      	cmp	r5, #0
 800be92:	d148      	bne.n	800bf26 <prvAddNewTaskToReadyList+0xae>
 800be94:	6026      	str	r6, [r4, #0]
 800be96:	681b      	ldr	r3, [r3, #0]
 800be98:	2b01      	cmp	r3, #1
 800be9a:	d11f      	bne.n	800bedc <prvAddNewTaskToReadyList+0x64>
 800be9c:	f04f 0814 	mov.w	r8, #20
 800bea0:	fb08 7005 	mla	r0, r8, r5, r7
 800bea4:	3501      	adds	r5, #1
 800bea6:	f7ff faf1 	bl	800b48c <vListInitialise>
 800beaa:	2d07      	cmp	r5, #7
 800beac:	d1f8      	bne.n	800bea0 <prvAddNewTaskToReadyList+0x28>
 800beae:	f8df 80c0 	ldr.w	r8, [pc, #192]	; 800bf70 <prvAddNewTaskToReadyList+0xf8>
 800beb2:	4d25      	ldr	r5, [pc, #148]	; (800bf48 <prvAddNewTaskToReadyList+0xd0>)
 800beb4:	4640      	mov	r0, r8
 800beb6:	f7ff fae9 	bl	800b48c <vListInitialise>
 800beba:	4628      	mov	r0, r5
 800bebc:	f7ff fae6 	bl	800b48c <vListInitialise>
 800bec0:	4822      	ldr	r0, [pc, #136]	; (800bf4c <prvAddNewTaskToReadyList+0xd4>)
 800bec2:	f7ff fae3 	bl	800b48c <vListInitialise>
 800bec6:	4822      	ldr	r0, [pc, #136]	; (800bf50 <prvAddNewTaskToReadyList+0xd8>)
 800bec8:	f7ff fae0 	bl	800b48c <vListInitialise>
 800becc:	4821      	ldr	r0, [pc, #132]	; (800bf54 <prvAddNewTaskToReadyList+0xdc>)
 800bece:	f7ff fadd 	bl	800b48c <vListInitialise>
 800bed2:	4b21      	ldr	r3, [pc, #132]	; (800bf58 <prvAddNewTaskToReadyList+0xe0>)
 800bed4:	f8c3 8000 	str.w	r8, [r3]
 800bed8:	4b20      	ldr	r3, [pc, #128]	; (800bf5c <prvAddNewTaskToReadyList+0xe4>)
 800beda:	601d      	str	r5, [r3, #0]
 800bedc:	4a20      	ldr	r2, [pc, #128]	; (800bf60 <prvAddNewTaskToReadyList+0xe8>)
 800bede:	4921      	ldr	r1, [pc, #132]	; (800bf64 <prvAddNewTaskToReadyList+0xec>)
 800bee0:	6813      	ldr	r3, [r2, #0]
 800bee2:	6808      	ldr	r0, [r1, #0]
 800bee4:	3301      	adds	r3, #1
 800bee6:	6013      	str	r3, [r2, #0]
 800bee8:	2301      	movs	r3, #1
 800beea:	6af2      	ldr	r2, [r6, #44]	; 0x2c
 800beec:	4093      	lsls	r3, r2
 800beee:	4303      	orrs	r3, r0
 800bef0:	2014      	movs	r0, #20
 800bef2:	600b      	str	r3, [r1, #0]
 800bef4:	1d31      	adds	r1, r6, #4
 800bef6:	fb00 7002 	mla	r0, r0, r2, r7
 800befa:	f7ff fad5 	bl	800b4a8 <vListInsertEnd>
 800befe:	f000 fdaf 	bl	800ca60 <vPortExitCritical>
 800bf02:	4b19      	ldr	r3, [pc, #100]	; (800bf68 <prvAddNewTaskToReadyList+0xf0>)
 800bf04:	681b      	ldr	r3, [r3, #0]
 800bf06:	b163      	cbz	r3, 800bf22 <prvAddNewTaskToReadyList+0xaa>
 800bf08:	6823      	ldr	r3, [r4, #0]
 800bf0a:	6ada      	ldr	r2, [r3, #44]	; 0x2c
 800bf0c:	6af3      	ldr	r3, [r6, #44]	; 0x2c
 800bf0e:	429a      	cmp	r2, r3
 800bf10:	d207      	bcs.n	800bf22 <prvAddNewTaskToReadyList+0xaa>
 800bf12:	4b16      	ldr	r3, [pc, #88]	; (800bf6c <prvAddNewTaskToReadyList+0xf4>)
 800bf14:	f04f 5280 	mov.w	r2, #268435456	; 0x10000000
 800bf18:	601a      	str	r2, [r3, #0]
 800bf1a:	f3bf 8f4f 	dsb	sy
 800bf1e:	f3bf 8f6f 	isb	sy
 800bf22:	e8bd 81f0 	ldmia.w	sp!, {r4, r5, r6, r7, r8, pc}
 800bf26:	4b10      	ldr	r3, [pc, #64]	; (800bf68 <prvAddNewTaskToReadyList+0xf0>)
 800bf28:	681b      	ldr	r3, [r3, #0]
 800bf2a:	2b00      	cmp	r3, #0
 800bf2c:	d1d6      	bne.n	800bedc <prvAddNewTaskToReadyList+0x64>
 800bf2e:	6823      	ldr	r3, [r4, #0]
 800bf30:	6ada      	ldr	r2, [r3, #44]	; 0x2c
 800bf32:	6af3      	ldr	r3, [r6, #44]	; 0x2c
 800bf34:	429a      	cmp	r2, r3
 800bf36:	d8d1      	bhi.n	800bedc <prvAddNewTaskToReadyList+0x64>
 800bf38:	6026      	str	r6, [r4, #0]
 800bf3a:	e7cf      	b.n	800bedc <prvAddNewTaskToReadyList+0x64>
 800bf3c:	200003d0 	.word	0x200003d0
 800bf40:	20000338 	.word	0x20000338
 800bf44:	20000344 	.word	0x20000344
 800bf48:	200003fc 	.word	0x200003fc
 800bf4c:	20000418 	.word	0x20000418
 800bf50:	20000444 	.word	0x20000444
 800bf54:	20000430 	.word	0x20000430
 800bf58:	2000033c 	.word	0x2000033c
 800bf5c:	20000340 	.word	0x20000340
 800bf60:	200003e0 	.word	0x200003e0
 800bf64:	200003e4 	.word	0x200003e4
 800bf68:	2000042c 	.word	0x2000042c
 800bf6c:	e000ed04 	.word	0xe000ed04
 800bf70:	200003e8 	.word	0x200003e8

0800bf74 <prvDeleteTCB>:
 800bf74:	b510      	push	{r4, lr}
 800bf76:	f890 3051 	ldrb.w	r3, [r0, #81]	; 0x51
 800bf7a:	4604      	mov	r4, r0
 800bf7c:	b93b      	cbnz	r3, 800bf8e <prvDeleteTCB+0x1a>
 800bf7e:	6b00      	ldr	r0, [r0, #48]	; 0x30
 800bf80:	f000 ff36 	bl	800cdf0 <vPortFree>
 800bf84:	4620      	mov	r0, r4
 800bf86:	e8bd 4010 	ldmia.w	sp!, {r4, lr}
 800bf8a:	f000 bf31 	b.w	800cdf0 <vPortFree>
 800bf8e:	2b01      	cmp	r3, #1
 800bf90:	d0f9      	beq.n	800bf86 <prvDeleteTCB+0x12>
 800bf92:	2b02      	cmp	r3, #2
 800bf94:	d00a      	beq.n	800bfac <prvDeleteTCB+0x38>
 800bf96:	f04f 0350 	mov.w	r3, #80	; 0x50
 800bf9a:	b672      	cpsid	i
 800bf9c:	f383 8811 	msr	BASEPRI, r3
 800bfa0:	f3bf 8f6f 	isb	sy
 800bfa4:	f3bf 8f4f 	dsb	sy
 800bfa8:	b662      	cpsie	i
 800bfaa:	e7fe      	b.n	800bfaa <prvDeleteTCB+0x36>
 800bfac:	bd10      	pop	{r4, pc}
	...

0800bfb0 <prvIdleTask>:
 800bfb0:	b580      	push	{r7, lr}
 800bfb2:	f8df 805c 	ldr.w	r8, [pc, #92]	; 800c010 <prvIdleTask+0x60>
 800bfb6:	4f12      	ldr	r7, [pc, #72]	; (800c000 <prvIdleTask+0x50>)
 800bfb8:	4c12      	ldr	r4, [pc, #72]	; (800c004 <prvIdleTask+0x54>)
 800bfba:	4d13      	ldr	r5, [pc, #76]	; (800c008 <prvIdleTask+0x58>)
 800bfbc:	6823      	ldr	r3, [r4, #0]
 800bfbe:	b963      	cbnz	r3, 800bfda <prvIdleTask+0x2a>
 800bfc0:	4b12      	ldr	r3, [pc, #72]	; (800c00c <prvIdleTask+0x5c>)
 800bfc2:	681b      	ldr	r3, [r3, #0]
 800bfc4:	2b01      	cmp	r3, #1
 800bfc6:	d9f8      	bls.n	800bfba <prvIdleTask+0xa>
 800bfc8:	f04f 5380 	mov.w	r3, #268435456	; 0x10000000
 800bfcc:	f8c8 3000 	str.w	r3, [r8]
 800bfd0:	f3bf 8f4f 	dsb	sy
 800bfd4:	f3bf 8f6f 	isb	sy
 800bfd8:	e7ee      	b.n	800bfb8 <prvIdleTask+0x8>
 800bfda:	f000 fd1b 	bl	800ca14 <vPortEnterCritical>
 800bfde:	68fb      	ldr	r3, [r7, #12]
 800bfe0:	68de      	ldr	r6, [r3, #12]
 800bfe2:	1d30      	adds	r0, r6, #4
 800bfe4:	f7ff fa83 	bl	800b4ee <uxListRemove>
 800bfe8:	682b      	ldr	r3, [r5, #0]
 800bfea:	3b01      	subs	r3, #1
 800bfec:	602b      	str	r3, [r5, #0]
 800bfee:	6823      	ldr	r3, [r4, #0]
 800bff0:	3b01      	subs	r3, #1
 800bff2:	6023      	str	r3, [r4, #0]
 800bff4:	f000 fd34 	bl	800ca60 <vPortExitCritical>
 800bff8:	4630      	mov	r0, r6
 800bffa:	f7ff ffbb 	bl	800bf74 <prvDeleteTCB>
 800bffe:	e7dd      	b.n	800bfbc <prvIdleTask+0xc>
 800c000:	20000444 	.word	0x20000444
 800c004:	200003d4 	.word	0x200003d4
 800c008:	200003d0 	.word	0x200003d0
 800c00c:	20000344 	.word	0x20000344
 800c010:	e000ed04 	.word	0xe000ed04

0800c014 <prvResetNextTaskUnblockTime>:
 800c014:	4a06      	ldr	r2, [pc, #24]	; (800c030 <prvResetNextTaskUnblockTime+0x1c>)
 800c016:	6813      	ldr	r3, [r2, #0]
 800c018:	6819      	ldr	r1, [r3, #0]
 800c01a:	4b06      	ldr	r3, [pc, #24]	; (800c034 <prvResetNextTaskUnblockTime+0x20>)
 800c01c:	b919      	cbnz	r1, 800c026 <prvResetNextTaskUnblockTime+0x12>
 800c01e:	f04f 32ff 	mov.w	r2, #4294967295	; 0xffffffff
 800c022:	601a      	str	r2, [r3, #0]
 800c024:	4770      	bx	lr
 800c026:	6812      	ldr	r2, [r2, #0]
 800c028:	68d2      	ldr	r2, [r2, #12]
 800c02a:	68d2      	ldr	r2, [r2, #12]
 800c02c:	6852      	ldr	r2, [r2, #4]
 800c02e:	e7f8      	b.n	800c022 <prvResetNextTaskUnblockTime+0xe>
 800c030:	2000033c 	.word	0x2000033c
 800c034:	20000410 	.word	0x20000410

0800c038 <prvInitialiseNewTask.isra.2>:
 800c038:	e92d 47f0 	stmdb	sp!, {r4, r5, r6, r7, r8, r9, sl, lr}
 800c03c:	f102 4280 	add.w	r2, r2, #1073741824	; 0x40000000
 800c040:	4680      	mov	r8, r0
 800c042:	4699      	mov	r9, r3
 800c044:	3a01      	subs	r2, #1
 800c046:	e9dd 7409 	ldrd	r7, r4, [sp, #36]	; 0x24
 800c04a:	6b26      	ldr	r6, [r4, #48]	; 0x30
 800c04c:	eb06 0682 	add.w	r6, r6, r2, lsl #2
 800c050:	f026 0607 	bic.w	r6, r6, #7
 800c054:	b391      	cbz	r1, 800c0bc <prvInitialiseNewTask.isra.2+0x84>
 800c056:	1e4b      	subs	r3, r1, #1
 800c058:	f104 0234 	add.w	r2, r4, #52	; 0x34
 800c05c:	310f      	adds	r1, #15
 800c05e:	f813 0f01 	ldrb.w	r0, [r3, #1]!
 800c062:	f802 0b01 	strb.w	r0, [r2], #1
 800c066:	7818      	ldrb	r0, [r3, #0]
 800c068:	b108      	cbz	r0, 800c06e <prvInitialiseNewTask.isra.2+0x36>
 800c06a:	428b      	cmp	r3, r1
 800c06c:	d1f7      	bne.n	800c05e <prvInitialiseNewTask.isra.2+0x26>
 800c06e:	2300      	movs	r3, #0
 800c070:	f884 3043 	strb.w	r3, [r4, #67]	; 0x43
 800c074:	9d08      	ldr	r5, [sp, #32]
 800c076:	f04f 0a00 	mov.w	sl, #0
 800c07a:	1d20      	adds	r0, r4, #4
 800c07c:	2d06      	cmp	r5, #6
 800c07e:	f8c4 a048 	str.w	sl, [r4, #72]	; 0x48
 800c082:	bf28      	it	cs
 800c084:	2506      	movcs	r5, #6
 800c086:	62e5      	str	r5, [r4, #44]	; 0x2c
 800c088:	6465      	str	r5, [r4, #68]	; 0x44
 800c08a:	f1c5 0507 	rsb	r5, r5, #7
 800c08e:	f7ff fa08 	bl	800b4a2 <vListInitialiseItem>
 800c092:	f104 0018 	add.w	r0, r4, #24
 800c096:	f7ff fa04 	bl	800b4a2 <vListInitialiseItem>
 800c09a:	f8c4 a04c 	str.w	sl, [r4, #76]	; 0x4c
 800c09e:	6124      	str	r4, [r4, #16]
 800c0a0:	464a      	mov	r2, r9
 800c0a2:	61a5      	str	r5, [r4, #24]
 800c0a4:	4641      	mov	r1, r8
 800c0a6:	6264      	str	r4, [r4, #36]	; 0x24
 800c0a8:	4630      	mov	r0, r6
 800c0aa:	f884 a050 	strb.w	sl, [r4, #80]	; 0x50
 800c0ae:	f000 fc89 	bl	800c9c4 <pxPortInitialiseStack>
 800c0b2:	6020      	str	r0, [r4, #0]
 800c0b4:	b107      	cbz	r7, 800c0b8 <prvInitialiseNewTask.isra.2+0x80>
 800c0b6:	603c      	str	r4, [r7, #0]
 800c0b8:	e8bd 87f0 	ldmia.w	sp!, {r4, r5, r6, r7, r8, r9, sl, pc}
 800c0bc:	f884 1034 	strb.w	r1, [r4, #52]	; 0x34
 800c0c0:	e7d8      	b.n	800c074 <prvInitialiseNewTask.isra.2+0x3c>
	...

0800c0c4 <prvAddCurrentTaskToDelayedList>:
 800c0c4:	b5f8      	push	{r3, r4, r5, r6, r7, lr}
 800c0c6:	4b1b      	ldr	r3, [pc, #108]	; (800c134 <prvAddCurrentTaskToDelayedList+0x70>)
 800c0c8:	4605      	mov	r5, r0
 800c0ca:	4e1b      	ldr	r6, [pc, #108]	; (800c138 <prvAddCurrentTaskToDelayedList+0x74>)
 800c0cc:	460f      	mov	r7, r1
 800c0ce:	681c      	ldr	r4, [r3, #0]
 800c0d0:	6830      	ldr	r0, [r6, #0]
 800c0d2:	3004      	adds	r0, #4
 800c0d4:	f7ff fa0b 	bl	800b4ee <uxListRemove>
 800c0d8:	4633      	mov	r3, r6
 800c0da:	b940      	cbnz	r0, 800c0ee <prvAddCurrentTaskToDelayedList+0x2a>
 800c0dc:	6831      	ldr	r1, [r6, #0]
 800c0de:	2001      	movs	r0, #1
 800c0e0:	4e16      	ldr	r6, [pc, #88]	; (800c13c <prvAddCurrentTaskToDelayedList+0x78>)
 800c0e2:	6ac9      	ldr	r1, [r1, #44]	; 0x2c
 800c0e4:	6832      	ldr	r2, [r6, #0]
 800c0e6:	4088      	lsls	r0, r1
 800c0e8:	ea22 0200 	bic.w	r2, r2, r0
 800c0ec:	6032      	str	r2, [r6, #0]
 800c0ee:	1c6a      	adds	r2, r5, #1
 800c0f0:	d107      	bne.n	800c102 <prvAddCurrentTaskToDelayedList+0x3e>
 800c0f2:	b137      	cbz	r7, 800c102 <prvAddCurrentTaskToDelayedList+0x3e>
 800c0f4:	6819      	ldr	r1, [r3, #0]
 800c0f6:	4812      	ldr	r0, [pc, #72]	; (800c140 <prvAddCurrentTaskToDelayedList+0x7c>)
 800c0f8:	3104      	adds	r1, #4
 800c0fa:	e8bd 40f8 	ldmia.w	sp!, {r3, r4, r5, r6, r7, lr}
 800c0fe:	f7ff b9d3 	b.w	800b4a8 <vListInsertEnd>
 800c102:	1964      	adds	r4, r4, r5
 800c104:	681a      	ldr	r2, [r3, #0]
 800c106:	6054      	str	r4, [r2, #4]
 800c108:	d307      	bcc.n	800c11a <prvAddCurrentTaskToDelayedList+0x56>
 800c10a:	4a0e      	ldr	r2, [pc, #56]	; (800c144 <prvAddCurrentTaskToDelayedList+0x80>)
 800c10c:	6810      	ldr	r0, [r2, #0]
 800c10e:	6819      	ldr	r1, [r3, #0]
 800c110:	e8bd 40f8 	ldmia.w	sp!, {r3, r4, r5, r6, r7, lr}
 800c114:	3104      	adds	r1, #4
 800c116:	f7ff b9d3 	b.w	800b4c0 <vListInsert>
 800c11a:	4a0b      	ldr	r2, [pc, #44]	; (800c148 <prvAddCurrentTaskToDelayedList+0x84>)
 800c11c:	6810      	ldr	r0, [r2, #0]
 800c11e:	6819      	ldr	r1, [r3, #0]
 800c120:	3104      	adds	r1, #4
 800c122:	f7ff f9cd 	bl	800b4c0 <vListInsert>
 800c126:	4b09      	ldr	r3, [pc, #36]	; (800c14c <prvAddCurrentTaskToDelayedList+0x88>)
 800c128:	681a      	ldr	r2, [r3, #0]
 800c12a:	42a2      	cmp	r2, r4
 800c12c:	d900      	bls.n	800c130 <prvAddCurrentTaskToDelayedList+0x6c>
 800c12e:	601c      	str	r4, [r3, #0]
 800c130:	bdf8      	pop	{r3, r4, r5, r6, r7, pc}
 800c132:	bf00      	nop
 800c134:	20000458 	.word	0x20000458
 800c138:	20000338 	.word	0x20000338
 800c13c:	200003e4 	.word	0x200003e4
 800c140:	20000430 	.word	0x20000430
 800c144:	20000340 	.word	0x20000340
 800c148:	2000033c 	.word	0x2000033c
 800c14c:	20000410 	.word	0x20000410

0800c150 <xTaskCreateStatic>:
 800c150:	b570      	push	{r4, r5, r6, lr}
 800c152:	b086      	sub	sp, #24
 800c154:	e9dd 540b 	ldrd	r5, r4, [sp, #44]	; 0x2c
 800c158:	b955      	cbnz	r5, 800c170 <xTaskCreateStatic+0x20>
 800c15a:	f04f 0350 	mov.w	r3, #80	; 0x50
 800c15e:	b672      	cpsid	i
 800c160:	f383 8811 	msr	BASEPRI, r3
 800c164:	f3bf 8f6f 	isb	sy
 800c168:	f3bf 8f4f 	dsb	sy
 800c16c:	b662      	cpsie	i
 800c16e:	e7fe      	b.n	800c16e <xTaskCreateStatic+0x1e>
 800c170:	b954      	cbnz	r4, 800c188 <xTaskCreateStatic+0x38>
 800c172:	f04f 0350 	mov.w	r3, #80	; 0x50
 800c176:	b672      	cpsid	i
 800c178:	f383 8811 	msr	BASEPRI, r3
 800c17c:	f3bf 8f6f 	isb	sy
 800c180:	f3bf 8f4f 	dsb	sy
 800c184:	b662      	cpsie	i
 800c186:	e7fe      	b.n	800c186 <xTaskCreateStatic+0x36>
 800c188:	2654      	movs	r6, #84	; 0x54
 800c18a:	9605      	str	r6, [sp, #20]
 800c18c:	9e05      	ldr	r6, [sp, #20]
 800c18e:	2e54      	cmp	r6, #84	; 0x54
 800c190:	d00a      	beq.n	800c1a8 <xTaskCreateStatic+0x58>
 800c192:	f04f 0350 	mov.w	r3, #80	; 0x50
 800c196:	b672      	cpsid	i
 800c198:	f383 8811 	msr	BASEPRI, r3
 800c19c:	f3bf 8f6f 	isb	sy
 800c1a0:	f3bf 8f4f 	dsb	sy
 800c1a4:	b662      	cpsie	i
 800c1a6:	e7fe      	b.n	800c1a6 <xTaskCreateStatic+0x56>
 800c1a8:	6325      	str	r5, [r4, #48]	; 0x30
 800c1aa:	2502      	movs	r5, #2
 800c1ac:	9e05      	ldr	r6, [sp, #20]
 800c1ae:	f884 5051 	strb.w	r5, [r4, #81]	; 0x51
 800c1b2:	ad04      	add	r5, sp, #16
 800c1b4:	9402      	str	r4, [sp, #8]
 800c1b6:	9501      	str	r5, [sp, #4]
 800c1b8:	9d0a      	ldr	r5, [sp, #40]	; 0x28
 800c1ba:	9500      	str	r5, [sp, #0]
 800c1bc:	f7ff ff3c 	bl	800c038 <prvInitialiseNewTask.isra.2>
 800c1c0:	4620      	mov	r0, r4
 800c1c2:	f7ff fe59 	bl	800be78 <prvAddNewTaskToReadyList>
 800c1c6:	9804      	ldr	r0, [sp, #16]
 800c1c8:	b006      	add	sp, #24
 800c1ca:	bd70      	pop	{r4, r5, r6, pc}

0800c1cc <xTaskCreate>:
 800c1cc:	e92d 43f0 	stmdb	sp!, {r4, r5, r6, r7, r8, r9, lr}
 800c1d0:	4607      	mov	r7, r0
 800c1d2:	b085      	sub	sp, #20
 800c1d4:	0090      	lsls	r0, r2, #2
 800c1d6:	4688      	mov	r8, r1
 800c1d8:	4616      	mov	r6, r2
 800c1da:	4699      	mov	r9, r3
 800c1dc:	f000 fd78 	bl	800ccd0 <pvPortMalloc>
 800c1e0:	4605      	mov	r5, r0
 800c1e2:	b1e8      	cbz	r0, 800c220 <xTaskCreate+0x54>
 800c1e4:	2054      	movs	r0, #84	; 0x54
 800c1e6:	f000 fd73 	bl	800ccd0 <pvPortMalloc>
 800c1ea:	4604      	mov	r4, r0
 800c1ec:	b1a8      	cbz	r0, 800c21a <xTaskCreate+0x4e>
 800c1ee:	2300      	movs	r3, #0
 800c1f0:	6305      	str	r5, [r0, #48]	; 0x30
 800c1f2:	4632      	mov	r2, r6
 800c1f4:	4641      	mov	r1, r8
 800c1f6:	f880 3051 	strb.w	r3, [r0, #81]	; 0x51
 800c1fa:	9b0d      	ldr	r3, [sp, #52]	; 0x34
 800c1fc:	9002      	str	r0, [sp, #8]
 800c1fe:	4638      	mov	r0, r7
 800c200:	9301      	str	r3, [sp, #4]
 800c202:	9b0c      	ldr	r3, [sp, #48]	; 0x30
 800c204:	9300      	str	r3, [sp, #0]
 800c206:	464b      	mov	r3, r9
 800c208:	f7ff ff16 	bl	800c038 <prvInitialiseNewTask.isra.2>
 800c20c:	4620      	mov	r0, r4
 800c20e:	f7ff fe33 	bl	800be78 <prvAddNewTaskToReadyList>
 800c212:	2001      	movs	r0, #1
 800c214:	b005      	add	sp, #20
 800c216:	e8bd 83f0 	ldmia.w	sp!, {r4, r5, r6, r7, r8, r9, pc}
 800c21a:	4628      	mov	r0, r5
 800c21c:	f000 fde8 	bl	800cdf0 <vPortFree>
 800c220:	f04f 30ff 	mov.w	r0, #4294967295	; 0xffffffff
 800c224:	e7f6      	b.n	800c214 <xTaskCreate+0x48>
	...

0800c228 <vTaskStartScheduler>:
 800c228:	b510      	push	{r4, lr}
 800c22a:	b088      	sub	sp, #32
 800c22c:	2400      	movs	r4, #0
 800c22e:	aa07      	add	r2, sp, #28
 800c230:	a906      	add	r1, sp, #24
 800c232:	a805      	add	r0, sp, #20
 800c234:	e9cd 4405 	strd	r4, r4, [sp, #20]
 800c238:	f7fc fa00 	bl	800863c <vApplicationGetIdleTaskMemory>
 800c23c:	9b05      	ldr	r3, [sp, #20]
 800c23e:	9a07      	ldr	r2, [sp, #28]
 800c240:	9302      	str	r3, [sp, #8]
 800c242:	9b06      	ldr	r3, [sp, #24]
 800c244:	490f      	ldr	r1, [pc, #60]	; (800c284 <vTaskStartScheduler+0x5c>)
 800c246:	4810      	ldr	r0, [pc, #64]	; (800c288 <vTaskStartScheduler+0x60>)
 800c248:	e9cd 4300 	strd	r4, r3, [sp]
 800c24c:	4623      	mov	r3, r4
 800c24e:	f7ff ff7f 	bl	800c150 <xTaskCreateStatic>
 800c252:	b1a0      	cbz	r0, 800c27e <vTaskStartScheduler+0x56>
 800c254:	f04f 0350 	mov.w	r3, #80	; 0x50
 800c258:	b672      	cpsid	i
 800c25a:	f383 8811 	msr	BASEPRI, r3
 800c25e:	f3bf 8f6f 	isb	sy
 800c262:	f3bf 8f4f 	dsb	sy
 800c266:	b662      	cpsie	i
 800c268:	4b08      	ldr	r3, [pc, #32]	; (800c28c <vTaskStartScheduler+0x64>)
 800c26a:	f04f 32ff 	mov.w	r2, #4294967295	; 0xffffffff
 800c26e:	601a      	str	r2, [r3, #0]
 800c270:	2201      	movs	r2, #1
 800c272:	4b07      	ldr	r3, [pc, #28]	; (800c290 <vTaskStartScheduler+0x68>)
 800c274:	601a      	str	r2, [r3, #0]
 800c276:	4b07      	ldr	r3, [pc, #28]	; (800c294 <vTaskStartScheduler+0x6c>)
 800c278:	601c      	str	r4, [r3, #0]
 800c27a:	f000 fc6d 	bl	800cb58 <xPortStartScheduler>
 800c27e:	b008      	add	sp, #32
 800c280:	bd10      	pop	{r4, pc}
 800c282:	bf00      	nop
 800c284:	08014a69 	.word	0x08014a69
 800c288:	0800bfb1 	.word	0x0800bfb1
 800c28c:	20000410 	.word	0x20000410
 800c290:	2000042c 	.word	0x2000042c
 800c294:	20000458 	.word	0x20000458

0800c298 <vTaskSuspendAll>:
 800c298:	4a02      	ldr	r2, [pc, #8]	; (800c2a4 <vTaskSuspendAll+0xc>)
 800c29a:	6813      	ldr	r3, [r2, #0]
 800c29c:	3301      	adds	r3, #1
 800c29e:	6013      	str	r3, [r2, #0]
 800c2a0:	4770      	bx	lr
 800c2a2:	bf00      	nop
 800c2a4:	200003dc 	.word	0x200003dc

0800c2a8 <xTaskGetTickCount>:
 800c2a8:	4b01      	ldr	r3, [pc, #4]	; (800c2b0 <xTaskGetTickCount+0x8>)
 800c2aa:	6818      	ldr	r0, [r3, #0]
 800c2ac:	4770      	bx	lr
 800c2ae:	bf00      	nop
 800c2b0:	20000458 	.word	0x20000458

0800c2b4 <xTaskGetTickCountFromISR>:
 800c2b4:	b508      	push	{r3, lr}
 800c2b6:	f000 fcb5 	bl	800cc24 <vPortValidateInterruptPriority>
 800c2ba:	4b01      	ldr	r3, [pc, #4]	; (800c2c0 <xTaskGetTickCountFromISR+0xc>)
 800c2bc:	6818      	ldr	r0, [r3, #0]
 800c2be:	bd08      	pop	{r3, pc}
 800c2c0:	20000458 	.word	0x20000458

0800c2c4 <xTaskIncrementTick>:
 800c2c4:	e92d 4ff8 	stmdb	sp!, {r3, r4, r5, r6, r7, r8, r9, sl, fp, lr}
 800c2c8:	4b3d      	ldr	r3, [pc, #244]	; (800c3c0 <xTaskIncrementTick+0xfc>)
 800c2ca:	681b      	ldr	r3, [r3, #0]
 800c2cc:	2b00      	cmp	r3, #0
 800c2ce:	d170      	bne.n	800c3b2 <xTaskIncrementTick+0xee>
 800c2d0:	4b3c      	ldr	r3, [pc, #240]	; (800c3c4 <xTaskIncrementTick+0x100>)
 800c2d2:	681c      	ldr	r4, [r3, #0]
 800c2d4:	3401      	adds	r4, #1
 800c2d6:	601c      	str	r4, [r3, #0]
 800c2d8:	b9cc      	cbnz	r4, 800c30e <xTaskIncrementTick+0x4a>
 800c2da:	4b3b      	ldr	r3, [pc, #236]	; (800c3c8 <xTaskIncrementTick+0x104>)
 800c2dc:	681a      	ldr	r2, [r3, #0]
 800c2de:	6812      	ldr	r2, [r2, #0]
 800c2e0:	b152      	cbz	r2, 800c2f8 <xTaskIncrementTick+0x34>
 800c2e2:	f04f 0350 	mov.w	r3, #80	; 0x50
 800c2e6:	b672      	cpsid	i
 800c2e8:	f383 8811 	msr	BASEPRI, r3
 800c2ec:	f3bf 8f6f 	isb	sy
 800c2f0:	f3bf 8f4f 	dsb	sy
 800c2f4:	b662      	cpsie	i
 800c2f6:	e7fe      	b.n	800c2f6 <xTaskIncrementTick+0x32>
 800c2f8:	4a34      	ldr	r2, [pc, #208]	; (800c3cc <xTaskIncrementTick+0x108>)
 800c2fa:	6819      	ldr	r1, [r3, #0]
 800c2fc:	6810      	ldr	r0, [r2, #0]
 800c2fe:	6018      	str	r0, [r3, #0]
 800c300:	6011      	str	r1, [r2, #0]
 800c302:	4a33      	ldr	r2, [pc, #204]	; (800c3d0 <xTaskIncrementTick+0x10c>)
 800c304:	6813      	ldr	r3, [r2, #0]
 800c306:	3301      	adds	r3, #1
 800c308:	6013      	str	r3, [r2, #0]
 800c30a:	f7ff fe83 	bl	800c014 <prvResetNextTaskUnblockTime>
 800c30e:	4d31      	ldr	r5, [pc, #196]	; (800c3d4 <xTaskIncrementTick+0x110>)
 800c310:	f04f 0b00 	mov.w	fp, #0
 800c314:	4f30      	ldr	r7, [pc, #192]	; (800c3d8 <xTaskIncrementTick+0x114>)
 800c316:	682b      	ldr	r3, [r5, #0]
 800c318:	42a3      	cmp	r3, r4
 800c31a:	d911      	bls.n	800c340 <xTaskIncrementTick+0x7c>
 800c31c:	683a      	ldr	r2, [r7, #0]
 800c31e:	4b2f      	ldr	r3, [pc, #188]	; (800c3dc <xTaskIncrementTick+0x118>)
 800c320:	6ad1      	ldr	r1, [r2, #44]	; 0x2c
 800c322:	2214      	movs	r2, #20
 800c324:	434a      	muls	r2, r1
 800c326:	589a      	ldr	r2, [r3, r2]
 800c328:	2a02      	cmp	r2, #2
 800c32a:	bf28      	it	cs
 800c32c:	f04f 0b01 	movcs.w	fp, #1
 800c330:	4a2b      	ldr	r2, [pc, #172]	; (800c3e0 <xTaskIncrementTick+0x11c>)
 800c332:	6812      	ldr	r2, [r2, #0]
 800c334:	2a00      	cmp	r2, #0
 800c336:	bf0c      	ite	eq
 800c338:	4658      	moveq	r0, fp
 800c33a:	2001      	movne	r0, #1
 800c33c:	e8bd 8ff8 	ldmia.w	sp!, {r3, r4, r5, r6, r7, r8, r9, sl, fp, pc}
 800c340:	f8df a084 	ldr.w	sl, [pc, #132]	; 800c3c8 <xTaskIncrementTick+0x104>
 800c344:	f8df 90a0 	ldr.w	r9, [pc, #160]	; 800c3e8 <xTaskIncrementTick+0x124>
 800c348:	f8da 2000 	ldr.w	r2, [sl]
 800c34c:	6812      	ldr	r2, [r2, #0]
 800c34e:	b91a      	cbnz	r2, 800c358 <xTaskIncrementTick+0x94>
 800c350:	f04f 32ff 	mov.w	r2, #4294967295	; 0xffffffff
 800c354:	602a      	str	r2, [r5, #0]
 800c356:	e7e1      	b.n	800c31c <xTaskIncrementTick+0x58>
 800c358:	f8da 2000 	ldr.w	r2, [sl]
 800c35c:	68d2      	ldr	r2, [r2, #12]
 800c35e:	68d6      	ldr	r6, [r2, #12]
 800c360:	6871      	ldr	r1, [r6, #4]
 800c362:	428c      	cmp	r4, r1
 800c364:	d201      	bcs.n	800c36a <xTaskIncrementTick+0xa6>
 800c366:	6029      	str	r1, [r5, #0]
 800c368:	e7d8      	b.n	800c31c <xTaskIncrementTick+0x58>
 800c36a:	f106 0804 	add.w	r8, r6, #4
 800c36e:	4640      	mov	r0, r8
 800c370:	f7ff f8bd 	bl	800b4ee <uxListRemove>
 800c374:	6ab1      	ldr	r1, [r6, #40]	; 0x28
 800c376:	b119      	cbz	r1, 800c380 <xTaskIncrementTick+0xbc>
 800c378:	f106 0018 	add.w	r0, r6, #24
 800c37c:	f7ff f8b7 	bl	800b4ee <uxListRemove>
 800c380:	6af0      	ldr	r0, [r6, #44]	; 0x2c
 800c382:	2201      	movs	r2, #1
 800c384:	f8d9 3000 	ldr.w	r3, [r9]
 800c388:	f04f 0c14 	mov.w	ip, #20
 800c38c:	fa02 f100 	lsl.w	r1, r2, r0
 800c390:	4319      	orrs	r1, r3
 800c392:	4b12      	ldr	r3, [pc, #72]	; (800c3dc <xTaskIncrementTick+0x118>)
 800c394:	f8c9 1000 	str.w	r1, [r9]
 800c398:	4641      	mov	r1, r8
 800c39a:	fb0c 3000 	mla	r0, ip, r0, r3
 800c39e:	f7ff f883 	bl	800b4a8 <vListInsertEnd>
 800c3a2:	6838      	ldr	r0, [r7, #0]
 800c3a4:	6af1      	ldr	r1, [r6, #44]	; 0x2c
 800c3a6:	6ac2      	ldr	r2, [r0, #44]	; 0x2c
 800c3a8:	4291      	cmp	r1, r2
 800c3aa:	bf28      	it	cs
 800c3ac:	f04f 0b01 	movcs.w	fp, #1
 800c3b0:	e7ca      	b.n	800c348 <xTaskIncrementTick+0x84>
 800c3b2:	4a0c      	ldr	r2, [pc, #48]	; (800c3e4 <xTaskIncrementTick+0x120>)
 800c3b4:	f04f 0b00 	mov.w	fp, #0
 800c3b8:	6813      	ldr	r3, [r2, #0]
 800c3ba:	3301      	adds	r3, #1
 800c3bc:	6013      	str	r3, [r2, #0]
 800c3be:	e7b7      	b.n	800c330 <xTaskIncrementTick+0x6c>
 800c3c0:	200003dc 	.word	0x200003dc
 800c3c4:	20000458 	.word	0x20000458
 800c3c8:	2000033c 	.word	0x2000033c
 800c3cc:	20000340 	.word	0x20000340
 800c3d0:	20000414 	.word	0x20000414
 800c3d4:	20000410 	.word	0x20000410
 800c3d8:	20000338 	.word	0x20000338
 800c3dc:	20000344 	.word	0x20000344
 800c3e0:	2000045c 	.word	0x2000045c
 800c3e4:	200003d8 	.word	0x200003d8
 800c3e8:	200003e4 	.word	0x200003e4

0800c3ec <xTaskResumeAll>:
 800c3ec:	e92d 43f8 	stmdb	sp!, {r3, r4, r5, r6, r7, r8, r9, lr}
 800c3f0:	4c31      	ldr	r4, [pc, #196]	; (800c4b8 <xTaskResumeAll+0xcc>)
 800c3f2:	6823      	ldr	r3, [r4, #0]
 800c3f4:	b953      	cbnz	r3, 800c40c <xTaskResumeAll+0x20>
 800c3f6:	f04f 0350 	mov.w	r3, #80	; 0x50
 800c3fa:	b672      	cpsid	i
 800c3fc:	f383 8811 	msr	BASEPRI, r3
 800c400:	f3bf 8f6f 	isb	sy
 800c404:	f3bf 8f4f 	dsb	sy
 800c408:	b662      	cpsie	i
 800c40a:	e7fe      	b.n	800c40a <xTaskResumeAll+0x1e>
 800c40c:	f000 fb02 	bl	800ca14 <vPortEnterCritical>
 800c410:	6823      	ldr	r3, [r4, #0]
 800c412:	3b01      	subs	r3, #1
 800c414:	6023      	str	r3, [r4, #0]
 800c416:	6824      	ldr	r4, [r4, #0]
 800c418:	b12c      	cbz	r4, 800c426 <xTaskResumeAll+0x3a>
 800c41a:	2400      	movs	r4, #0
 800c41c:	f000 fb20 	bl	800ca60 <vPortExitCritical>
 800c420:	4620      	mov	r0, r4
 800c422:	e8bd 83f8 	ldmia.w	sp!, {r3, r4, r5, r6, r7, r8, r9, pc}
 800c426:	4b25      	ldr	r3, [pc, #148]	; (800c4bc <xTaskResumeAll+0xd0>)
 800c428:	681b      	ldr	r3, [r3, #0]
 800c42a:	2b00      	cmp	r3, #0
 800c42c:	d0f5      	beq.n	800c41a <xTaskResumeAll+0x2e>
 800c42e:	4d24      	ldr	r5, [pc, #144]	; (800c4c0 <xTaskResumeAll+0xd4>)
 800c430:	4e24      	ldr	r6, [pc, #144]	; (800c4c4 <xTaskResumeAll+0xd8>)
 800c432:	f8df 80a4 	ldr.w	r8, [pc, #164]	; 800c4d8 <xTaskResumeAll+0xec>
 800c436:	e01f      	b.n	800c478 <xTaskResumeAll+0x8c>
 800c438:	68eb      	ldr	r3, [r5, #12]
 800c43a:	2701      	movs	r7, #1
 800c43c:	68dc      	ldr	r4, [r3, #12]
 800c43e:	f104 0904 	add.w	r9, r4, #4
 800c442:	f104 0018 	add.w	r0, r4, #24
 800c446:	f7ff f852 	bl	800b4ee <uxListRemove>
 800c44a:	4648      	mov	r0, r9
 800c44c:	f7ff f84f 	bl	800b4ee <uxListRemove>
 800c450:	6ae2      	ldr	r2, [r4, #44]	; 0x2c
 800c452:	6831      	ldr	r1, [r6, #0]
 800c454:	2014      	movs	r0, #20
 800c456:	fa07 f302 	lsl.w	r3, r7, r2
 800c45a:	fb00 8002 	mla	r0, r0, r2, r8
 800c45e:	430b      	orrs	r3, r1
 800c460:	4649      	mov	r1, r9
 800c462:	6033      	str	r3, [r6, #0]
 800c464:	f7ff f820 	bl	800b4a8 <vListInsertEnd>
 800c468:	4b17      	ldr	r3, [pc, #92]	; (800c4c8 <xTaskResumeAll+0xdc>)
 800c46a:	6ae2      	ldr	r2, [r4, #44]	; 0x2c
 800c46c:	681b      	ldr	r3, [r3, #0]
 800c46e:	6adb      	ldr	r3, [r3, #44]	; 0x2c
 800c470:	429a      	cmp	r2, r3
 800c472:	d301      	bcc.n	800c478 <xTaskResumeAll+0x8c>
 800c474:	4b15      	ldr	r3, [pc, #84]	; (800c4cc <xTaskResumeAll+0xe0>)
 800c476:	601f      	str	r7, [r3, #0]
 800c478:	682b      	ldr	r3, [r5, #0]
 800c47a:	2b00      	cmp	r3, #0
 800c47c:	d1dc      	bne.n	800c438 <xTaskResumeAll+0x4c>
 800c47e:	b10c      	cbz	r4, 800c484 <xTaskResumeAll+0x98>
 800c480:	f7ff fdc8 	bl	800c014 <prvResetNextTaskUnblockTime>
 800c484:	4d12      	ldr	r5, [pc, #72]	; (800c4d0 <xTaskResumeAll+0xe4>)
 800c486:	682c      	ldr	r4, [r5, #0]
 800c488:	b144      	cbz	r4, 800c49c <xTaskResumeAll+0xb0>
 800c48a:	4e10      	ldr	r6, [pc, #64]	; (800c4cc <xTaskResumeAll+0xe0>)
 800c48c:	2701      	movs	r7, #1
 800c48e:	f7ff ff19 	bl	800c2c4 <xTaskIncrementTick>
 800c492:	b100      	cbz	r0, 800c496 <xTaskResumeAll+0xaa>
 800c494:	6037      	str	r7, [r6, #0]
 800c496:	3c01      	subs	r4, #1
 800c498:	d1f9      	bne.n	800c48e <xTaskResumeAll+0xa2>
 800c49a:	602c      	str	r4, [r5, #0]
 800c49c:	4b0b      	ldr	r3, [pc, #44]	; (800c4cc <xTaskResumeAll+0xe0>)
 800c49e:	681b      	ldr	r3, [r3, #0]
 800c4a0:	2b00      	cmp	r3, #0
 800c4a2:	d0ba      	beq.n	800c41a <xTaskResumeAll+0x2e>
 800c4a4:	4b0b      	ldr	r3, [pc, #44]	; (800c4d4 <xTaskResumeAll+0xe8>)
 800c4a6:	f04f 5280 	mov.w	r2, #268435456	; 0x10000000
 800c4aa:	601a      	str	r2, [r3, #0]
 800c4ac:	f3bf 8f4f 	dsb	sy
 800c4b0:	f3bf 8f6f 	isb	sy
 800c4b4:	2401      	movs	r4, #1
 800c4b6:	e7b1      	b.n	800c41c <xTaskResumeAll+0x30>
 800c4b8:	200003dc 	.word	0x200003dc
 800c4bc:	200003d0 	.word	0x200003d0
 800c4c0:	20000418 	.word	0x20000418
 800c4c4:	200003e4 	.word	0x200003e4
 800c4c8:	20000338 	.word	0x20000338
 800c4cc:	2000045c 	.word	0x2000045c
 800c4d0:	200003d8 	.word	0x200003d8
 800c4d4:	e000ed04 	.word	0xe000ed04
 800c4d8:	20000344 	.word	0x20000344

0800c4dc <vTaskDelay>:
 800c4dc:	b508      	push	{r3, lr}
 800c4de:	b940      	cbnz	r0, 800c4f2 <vTaskDelay+0x16>
 800c4e0:	4b0f      	ldr	r3, [pc, #60]	; (800c520 <vTaskDelay+0x44>)
 800c4e2:	f04f 5280 	mov.w	r2, #268435456	; 0x10000000
 800c4e6:	601a      	str	r2, [r3, #0]
 800c4e8:	f3bf 8f4f 	dsb	sy
 800c4ec:	f3bf 8f6f 	isb	sy
 800c4f0:	bd08      	pop	{r3, pc}
 800c4f2:	4b0c      	ldr	r3, [pc, #48]	; (800c524 <vTaskDelay+0x48>)
 800c4f4:	6819      	ldr	r1, [r3, #0]
 800c4f6:	b151      	cbz	r1, 800c50e <vTaskDelay+0x32>
 800c4f8:	f04f 0350 	mov.w	r3, #80	; 0x50
 800c4fc:	b672      	cpsid	i
 800c4fe:	f383 8811 	msr	BASEPRI, r3
 800c502:	f3bf 8f6f 	isb	sy
 800c506:	f3bf 8f4f 	dsb	sy
 800c50a:	b662      	cpsie	i
 800c50c:	e7fe      	b.n	800c50c <vTaskDelay+0x30>
 800c50e:	f7ff fec3 	bl	800c298 <vTaskSuspendAll>
 800c512:	f7ff fdd7 	bl	800c0c4 <prvAddCurrentTaskToDelayedList>
 800c516:	f7ff ff69 	bl	800c3ec <xTaskResumeAll>
 800c51a:	2800      	cmp	r0, #0
 800c51c:	d0e0      	beq.n	800c4e0 <vTaskDelay+0x4>
 800c51e:	e7e7      	b.n	800c4f0 <vTaskDelay+0x14>
 800c520:	e000ed04 	.word	0xe000ed04
 800c524:	200003dc 	.word	0x200003dc

0800c528 <vTaskSwitchContext>:
 800c528:	4b18      	ldr	r3, [pc, #96]	; (800c58c <vTaskSwitchContext+0x64>)
 800c52a:	681a      	ldr	r2, [r3, #0]
 800c52c:	4b18      	ldr	r3, [pc, #96]	; (800c590 <vTaskSwitchContext+0x68>)
 800c52e:	b510      	push	{r4, lr}
 800c530:	b112      	cbz	r2, 800c538 <vTaskSwitchContext+0x10>
 800c532:	2201      	movs	r2, #1
 800c534:	601a      	str	r2, [r3, #0]
 800c536:	bd10      	pop	{r4, pc}
 800c538:	601a      	str	r2, [r3, #0]
 800c53a:	4b16      	ldr	r3, [pc, #88]	; (800c594 <vTaskSwitchContext+0x6c>)
 800c53c:	681b      	ldr	r3, [r3, #0]
 800c53e:	fab3 f383 	clz	r3, r3
 800c542:	b2db      	uxtb	r3, r3
 800c544:	2214      	movs	r2, #20
 800c546:	4914      	ldr	r1, [pc, #80]	; (800c598 <vTaskSwitchContext+0x70>)
 800c548:	f1c3 031f 	rsb	r3, r3, #31
 800c54c:	435a      	muls	r2, r3
 800c54e:	588c      	ldr	r4, [r1, r2]
 800c550:	1888      	adds	r0, r1, r2
 800c552:	b954      	cbnz	r4, 800c56a <vTaskSwitchContext+0x42>
 800c554:	f04f 0350 	mov.w	r3, #80	; 0x50
 800c558:	b672      	cpsid	i
 800c55a:	f383 8811 	msr	BASEPRI, r3
 800c55e:	f3bf 8f6f 	isb	sy
 800c562:	f3bf 8f4f 	dsb	sy
 800c566:	b662      	cpsie	i
 800c568:	e7fe      	b.n	800c568 <vTaskSwitchContext+0x40>
 800c56a:	6844      	ldr	r4, [r0, #4]
 800c56c:	3208      	adds	r2, #8
 800c56e:	6864      	ldr	r4, [r4, #4]
 800c570:	440a      	add	r2, r1
 800c572:	4294      	cmp	r4, r2
 800c574:	6044      	str	r4, [r0, #4]
 800c576:	bf04      	itt	eq
 800c578:	6862      	ldreq	r2, [r4, #4]
 800c57a:	6042      	streq	r2, [r0, #4]
 800c57c:	2214      	movs	r2, #20
 800c57e:	fb02 1303 	mla	r3, r2, r3, r1
 800c582:	685b      	ldr	r3, [r3, #4]
 800c584:	68da      	ldr	r2, [r3, #12]
 800c586:	4b05      	ldr	r3, [pc, #20]	; (800c59c <vTaskSwitchContext+0x74>)
 800c588:	e7d4      	b.n	800c534 <vTaskSwitchContext+0xc>
 800c58a:	bf00      	nop
 800c58c:	200003dc 	.word	0x200003dc
 800c590:	2000045c 	.word	0x2000045c
 800c594:	200003e4 	.word	0x200003e4
 800c598:	20000344 	.word	0x20000344
 800c59c:	20000338 	.word	0x20000338

0800c5a0 <vTaskPlaceOnEventList>:
 800c5a0:	b510      	push	{r4, lr}
 800c5a2:	460c      	mov	r4, r1
 800c5a4:	b950      	cbnz	r0, 800c5bc <vTaskPlaceOnEventList+0x1c>
 800c5a6:	f04f 0350 	mov.w	r3, #80	; 0x50
 800c5aa:	b672      	cpsid	i
 800c5ac:	f383 8811 	msr	BASEPRI, r3
 800c5b0:	f3bf 8f6f 	isb	sy
 800c5b4:	f3bf 8f4f 	dsb	sy
 800c5b8:	b662      	cpsie	i
 800c5ba:	e7fe      	b.n	800c5ba <vTaskPlaceOnEventList+0x1a>
 800c5bc:	4b05      	ldr	r3, [pc, #20]	; (800c5d4 <vTaskPlaceOnEventList+0x34>)
 800c5be:	6819      	ldr	r1, [r3, #0]
 800c5c0:	3118      	adds	r1, #24
 800c5c2:	f7fe ff7d 	bl	800b4c0 <vListInsert>
 800c5c6:	4620      	mov	r0, r4
 800c5c8:	2101      	movs	r1, #1
 800c5ca:	e8bd 4010 	ldmia.w	sp!, {r4, lr}
 800c5ce:	f7ff bd79 	b.w	800c0c4 <prvAddCurrentTaskToDelayedList>
 800c5d2:	bf00      	nop
 800c5d4:	20000338 	.word	0x20000338

0800c5d8 <xTaskRemoveFromEventList>:
 800c5d8:	b538      	push	{r3, r4, r5, lr}
 800c5da:	68c3      	ldr	r3, [r0, #12]
 800c5dc:	68dc      	ldr	r4, [r3, #12]
 800c5de:	b954      	cbnz	r4, 800c5f6 <xTaskRemoveFromEventList+0x1e>
 800c5e0:	f04f 0350 	mov.w	r3, #80	; 0x50
 800c5e4:	b672      	cpsid	i
 800c5e6:	f383 8811 	msr	BASEPRI, r3
 800c5ea:	f3bf 8f6f 	isb	sy
 800c5ee:	f3bf 8f4f 	dsb	sy
 800c5f2:	b662      	cpsie	i
 800c5f4:	e7fe      	b.n	800c5f4 <xTaskRemoveFromEventList+0x1c>
 800c5f6:	f104 0518 	add.w	r5, r4, #24
 800c5fa:	4628      	mov	r0, r5
 800c5fc:	f7fe ff77 	bl	800b4ee <uxListRemove>
 800c600:	4b11      	ldr	r3, [pc, #68]	; (800c648 <xTaskRemoveFromEventList+0x70>)
 800c602:	681b      	ldr	r3, [r3, #0]
 800c604:	b9db      	cbnz	r3, 800c63e <xTaskRemoveFromEventList+0x66>
 800c606:	1d25      	adds	r5, r4, #4
 800c608:	4628      	mov	r0, r5
 800c60a:	f7fe ff70 	bl	800b4ee <uxListRemove>
 800c60e:	490f      	ldr	r1, [pc, #60]	; (800c64c <xTaskRemoveFromEventList+0x74>)
 800c610:	6ae2      	ldr	r2, [r4, #44]	; 0x2c
 800c612:	2301      	movs	r3, #1
 800c614:	6808      	ldr	r0, [r1, #0]
 800c616:	4093      	lsls	r3, r2
 800c618:	4303      	orrs	r3, r0
 800c61a:	2014      	movs	r0, #20
 800c61c:	600b      	str	r3, [r1, #0]
 800c61e:	4629      	mov	r1, r5
 800c620:	4b0b      	ldr	r3, [pc, #44]	; (800c650 <xTaskRemoveFromEventList+0x78>)
 800c622:	fb00 3002 	mla	r0, r0, r2, r3
 800c626:	f7fe ff3f 	bl	800b4a8 <vListInsertEnd>
 800c62a:	4b0a      	ldr	r3, [pc, #40]	; (800c654 <xTaskRemoveFromEventList+0x7c>)
 800c62c:	6ae2      	ldr	r2, [r4, #44]	; 0x2c
 800c62e:	681b      	ldr	r3, [r3, #0]
 800c630:	6adb      	ldr	r3, [r3, #44]	; 0x2c
 800c632:	429a      	cmp	r2, r3
 800c634:	d906      	bls.n	800c644 <xTaskRemoveFromEventList+0x6c>
 800c636:	2001      	movs	r0, #1
 800c638:	4b07      	ldr	r3, [pc, #28]	; (800c658 <xTaskRemoveFromEventList+0x80>)
 800c63a:	6018      	str	r0, [r3, #0]
 800c63c:	bd38      	pop	{r3, r4, r5, pc}
 800c63e:	4629      	mov	r1, r5
 800c640:	4806      	ldr	r0, [pc, #24]	; (800c65c <xTaskRemoveFromEventList+0x84>)
 800c642:	e7f0      	b.n	800c626 <xTaskRemoveFromEventList+0x4e>
 800c644:	2000      	movs	r0, #0
 800c646:	e7f9      	b.n	800c63c <xTaskRemoveFromEventList+0x64>
 800c648:	200003dc 	.word	0x200003dc
 800c64c:	200003e4 	.word	0x200003e4
 800c650:	20000344 	.word	0x20000344
 800c654:	20000338 	.word	0x20000338
 800c658:	2000045c 	.word	0x2000045c
 800c65c:	20000418 	.word	0x20000418

0800c660 <vTaskInternalSetTimeOutState>:
 800c660:	4b03      	ldr	r3, [pc, #12]	; (800c670 <vTaskInternalSetTimeOutState+0x10>)
 800c662:	681b      	ldr	r3, [r3, #0]
 800c664:	6003      	str	r3, [r0, #0]
 800c666:	4b03      	ldr	r3, [pc, #12]	; (800c674 <vTaskInternalSetTimeOutState+0x14>)
 800c668:	681b      	ldr	r3, [r3, #0]
 800c66a:	6043      	str	r3, [r0, #4]
 800c66c:	4770      	bx	lr
 800c66e:	bf00      	nop
 800c670:	20000414 	.word	0x20000414
 800c674:	20000458 	.word	0x20000458

0800c678 <xTaskCheckForTimeOut>:
 800c678:	b5f8      	push	{r3, r4, r5, r6, r7, lr}
 800c67a:	460c      	mov	r4, r1
 800c67c:	4605      	mov	r5, r0
 800c67e:	b950      	cbnz	r0, 800c696 <xTaskCheckForTimeOut+0x1e>
 800c680:	f04f 0350 	mov.w	r3, #80	; 0x50
 800c684:	b672      	cpsid	i
 800c686:	f383 8811 	msr	BASEPRI, r3
 800c68a:	f3bf 8f6f 	isb	sy
 800c68e:	f3bf 8f4f 	dsb	sy
 800c692:	b662      	cpsie	i
 800c694:	e7fe      	b.n	800c694 <xTaskCheckForTimeOut+0x1c>
 800c696:	b951      	cbnz	r1, 800c6ae <xTaskCheckForTimeOut+0x36>
 800c698:	f04f 0350 	mov.w	r3, #80	; 0x50
 800c69c:	b672      	cpsid	i
 800c69e:	f383 8811 	msr	BASEPRI, r3
 800c6a2:	f3bf 8f6f 	isb	sy
 800c6a6:	f3bf 8f4f 	dsb	sy
 800c6aa:	b662      	cpsie	i
 800c6ac:	e7fe      	b.n	800c6ac <xTaskCheckForTimeOut+0x34>
 800c6ae:	f000 f9b1 	bl	800ca14 <vPortEnterCritical>
 800c6b2:	4b0f      	ldr	r3, [pc, #60]	; (800c6f0 <xTaskCheckForTimeOut+0x78>)
 800c6b4:	6868      	ldr	r0, [r5, #4]
 800c6b6:	6819      	ldr	r1, [r3, #0]
 800c6b8:	6823      	ldr	r3, [r4, #0]
 800c6ba:	1a0a      	subs	r2, r1, r0
 800c6bc:	1c5e      	adds	r6, r3, #1
 800c6be:	d00d      	beq.n	800c6dc <xTaskCheckForTimeOut+0x64>
 800c6c0:	4e0c      	ldr	r6, [pc, #48]	; (800c6f4 <xTaskCheckForTimeOut+0x7c>)
 800c6c2:	682f      	ldr	r7, [r5, #0]
 800c6c4:	6836      	ldr	r6, [r6, #0]
 800c6c6:	42b7      	cmp	r7, r6
 800c6c8:	d001      	beq.n	800c6ce <xTaskCheckForTimeOut+0x56>
 800c6ca:	4288      	cmp	r0, r1
 800c6cc:	d90d      	bls.n	800c6ea <xTaskCheckForTimeOut+0x72>
 800c6ce:	4293      	cmp	r3, r2
 800c6d0:	d909      	bls.n	800c6e6 <xTaskCheckForTimeOut+0x6e>
 800c6d2:	1a9b      	subs	r3, r3, r2
 800c6d4:	4628      	mov	r0, r5
 800c6d6:	6023      	str	r3, [r4, #0]
 800c6d8:	f7ff ffc2 	bl	800c660 <vTaskInternalSetTimeOutState>
 800c6dc:	2400      	movs	r4, #0
 800c6de:	f000 f9bf 	bl	800ca60 <vPortExitCritical>
 800c6e2:	4620      	mov	r0, r4
 800c6e4:	bdf8      	pop	{r3, r4, r5, r6, r7, pc}
 800c6e6:	2300      	movs	r3, #0
 800c6e8:	6023      	str	r3, [r4, #0]
 800c6ea:	2401      	movs	r4, #1
 800c6ec:	e7f7      	b.n	800c6de <xTaskCheckForTimeOut+0x66>
 800c6ee:	bf00      	nop
 800c6f0:	20000458 	.word	0x20000458
 800c6f4:	20000414 	.word	0x20000414

0800c6f8 <vTaskMissedYield>:
 800c6f8:	4b01      	ldr	r3, [pc, #4]	; (800c700 <vTaskMissedYield+0x8>)
 800c6fa:	2201      	movs	r2, #1
 800c6fc:	601a      	str	r2, [r3, #0]
 800c6fe:	4770      	bx	lr
 800c700:	2000045c 	.word	0x2000045c

0800c704 <xTaskGetSchedulerState>:
 800c704:	4b05      	ldr	r3, [pc, #20]	; (800c71c <xTaskGetSchedulerState+0x18>)
 800c706:	681b      	ldr	r3, [r3, #0]
 800c708:	b133      	cbz	r3, 800c718 <xTaskGetSchedulerState+0x14>
 800c70a:	4b05      	ldr	r3, [pc, #20]	; (800c720 <xTaskGetSchedulerState+0x1c>)
 800c70c:	681b      	ldr	r3, [r3, #0]
 800c70e:	2b00      	cmp	r3, #0
 800c710:	bf0c      	ite	eq
 800c712:	2002      	moveq	r0, #2
 800c714:	2000      	movne	r0, #0
 800c716:	4770      	bx	lr
 800c718:	2001      	movs	r0, #1
 800c71a:	4770      	bx	lr
 800c71c:	2000042c 	.word	0x2000042c
 800c720:	200003dc 	.word	0x200003dc

0800c724 <xTaskPriorityInherit>:
 800c724:	e92d 41f0 	stmdb	sp!, {r4, r5, r6, r7, r8, lr}
 800c728:	4604      	mov	r4, r0
 800c72a:	2800      	cmp	r0, #0
 800c72c:	d035      	beq.n	800c79a <xTaskPriorityInherit+0x76>
 800c72e:	4a23      	ldr	r2, [pc, #140]	; (800c7bc <xTaskPriorityInherit+0x98>)
 800c730:	6ac3      	ldr	r3, [r0, #44]	; 0x2c
 800c732:	6811      	ldr	r1, [r2, #0]
 800c734:	4617      	mov	r7, r2
 800c736:	6ac9      	ldr	r1, [r1, #44]	; 0x2c
 800c738:	428b      	cmp	r3, r1
 800c73a:	d236      	bcs.n	800c7aa <xTaskPriorityInherit+0x86>
 800c73c:	6982      	ldr	r2, [r0, #24]
 800c73e:	2a00      	cmp	r2, #0
 800c740:	db04      	blt.n	800c74c <xTaskPriorityInherit+0x28>
 800c742:	683a      	ldr	r2, [r7, #0]
 800c744:	6ad2      	ldr	r2, [r2, #44]	; 0x2c
 800c746:	f1c2 0207 	rsb	r2, r2, #7
 800c74a:	6182      	str	r2, [r0, #24]
 800c74c:	4d1c      	ldr	r5, [pc, #112]	; (800c7c0 <xTaskPriorityInherit+0x9c>)
 800c74e:	2614      	movs	r6, #20
 800c750:	6962      	ldr	r2, [r4, #20]
 800c752:	fb06 5303 	mla	r3, r6, r3, r5
 800c756:	429a      	cmp	r2, r3
 800c758:	d121      	bne.n	800c79e <xTaskPriorityInherit+0x7a>
 800c75a:	f104 0804 	add.w	r8, r4, #4
 800c75e:	4640      	mov	r0, r8
 800c760:	f7fe fec5 	bl	800b4ee <uxListRemove>
 800c764:	4b17      	ldr	r3, [pc, #92]	; (800c7c4 <xTaskPriorityInherit+0xa0>)
 800c766:	b948      	cbnz	r0, 800c77c <xTaskPriorityInherit+0x58>
 800c768:	6ae0      	ldr	r0, [r4, #44]	; 0x2c
 800c76a:	4346      	muls	r6, r0
 800c76c:	59aa      	ldr	r2, [r5, r6]
 800c76e:	b92a      	cbnz	r2, 800c77c <xTaskPriorityInherit+0x58>
 800c770:	2101      	movs	r1, #1
 800c772:	681a      	ldr	r2, [r3, #0]
 800c774:	4081      	lsls	r1, r0
 800c776:	ea22 0201 	bic.w	r2, r2, r1
 800c77a:	601a      	str	r2, [r3, #0]
 800c77c:	683a      	ldr	r2, [r7, #0]
 800c77e:	6819      	ldr	r1, [r3, #0]
 800c780:	6ad2      	ldr	r2, [r2, #44]	; 0x2c
 800c782:	62e2      	str	r2, [r4, #44]	; 0x2c
 800c784:	2401      	movs	r4, #1
 800c786:	fa04 f002 	lsl.w	r0, r4, r2
 800c78a:	4308      	orrs	r0, r1
 800c78c:	4641      	mov	r1, r8
 800c78e:	6018      	str	r0, [r3, #0]
 800c790:	2014      	movs	r0, #20
 800c792:	fb00 5002 	mla	r0, r0, r2, r5
 800c796:	f7fe fe87 	bl	800b4a8 <vListInsertEnd>
 800c79a:	4620      	mov	r0, r4
 800c79c:	e003      	b.n	800c7a6 <xTaskPriorityInherit+0x82>
 800c79e:	683b      	ldr	r3, [r7, #0]
 800c7a0:	2001      	movs	r0, #1
 800c7a2:	6adb      	ldr	r3, [r3, #44]	; 0x2c
 800c7a4:	62e3      	str	r3, [r4, #44]	; 0x2c
 800c7a6:	e8bd 81f0 	ldmia.w	sp!, {r4, r5, r6, r7, r8, pc}
 800c7aa:	6813      	ldr	r3, [r2, #0]
 800c7ac:	6c40      	ldr	r0, [r0, #68]	; 0x44
 800c7ae:	6adc      	ldr	r4, [r3, #44]	; 0x2c
 800c7b0:	42a0      	cmp	r0, r4
 800c7b2:	bf2c      	ite	cs
 800c7b4:	2000      	movcs	r0, #0
 800c7b6:	2001      	movcc	r0, #1
 800c7b8:	e7f5      	b.n	800c7a6 <xTaskPriorityInherit+0x82>
 800c7ba:	bf00      	nop
 800c7bc:	20000338 	.word	0x20000338
 800c7c0:	20000344 	.word	0x20000344
 800c7c4:	200003e4 	.word	0x200003e4

0800c7c8 <xTaskPriorityDisinherit>:
 800c7c8:	b5f8      	push	{r3, r4, r5, r6, r7, lr}
 800c7ca:	4604      	mov	r4, r0
 800c7cc:	b908      	cbnz	r0, 800c7d2 <xTaskPriorityDisinherit+0xa>
 800c7ce:	2000      	movs	r0, #0
 800c7d0:	bdf8      	pop	{r3, r4, r5, r6, r7, pc}
 800c7d2:	4b24      	ldr	r3, [pc, #144]	; (800c864 <xTaskPriorityDisinherit+0x9c>)
 800c7d4:	681b      	ldr	r3, [r3, #0]
 800c7d6:	4283      	cmp	r3, r0
 800c7d8:	d00a      	beq.n	800c7f0 <xTaskPriorityDisinherit+0x28>
 800c7da:	f04f 0350 	mov.w	r3, #80	; 0x50
 800c7de:	b672      	cpsid	i
 800c7e0:	f383 8811 	msr	BASEPRI, r3
 800c7e4:	f3bf 8f6f 	isb	sy
 800c7e8:	f3bf 8f4f 	dsb	sy
 800c7ec:	b662      	cpsie	i
 800c7ee:	e7fe      	b.n	800c7ee <xTaskPriorityDisinherit+0x26>
 800c7f0:	6c9b      	ldr	r3, [r3, #72]	; 0x48
 800c7f2:	b953      	cbnz	r3, 800c80a <xTaskPriorityDisinherit+0x42>
 800c7f4:	f04f 0350 	mov.w	r3, #80	; 0x50
 800c7f8:	b672      	cpsid	i
 800c7fa:	f383 8811 	msr	BASEPRI, r3
 800c7fe:	f3bf 8f6f 	isb	sy
 800c802:	f3bf 8f4f 	dsb	sy
 800c806:	b662      	cpsie	i
 800c808:	e7fe      	b.n	800c808 <xTaskPriorityDisinherit+0x40>
 800c80a:	6ac1      	ldr	r1, [r0, #44]	; 0x2c
 800c80c:	3b01      	subs	r3, #1
 800c80e:	6c42      	ldr	r2, [r0, #68]	; 0x44
 800c810:	6483      	str	r3, [r0, #72]	; 0x48
 800c812:	4291      	cmp	r1, r2
 800c814:	d0db      	beq.n	800c7ce <xTaskPriorityDisinherit+0x6>
 800c816:	2b00      	cmp	r3, #0
 800c818:	d1d9      	bne.n	800c7ce <xTaskPriorityDisinherit+0x6>
 800c81a:	1d05      	adds	r5, r0, #4
 800c81c:	4e12      	ldr	r6, [pc, #72]	; (800c868 <xTaskPriorityDisinherit+0xa0>)
 800c81e:	4628      	mov	r0, r5
 800c820:	f7fe fe65 	bl	800b4ee <uxListRemove>
 800c824:	4a11      	ldr	r2, [pc, #68]	; (800c86c <xTaskPriorityDisinherit+0xa4>)
 800c826:	b950      	cbnz	r0, 800c83e <xTaskPriorityDisinherit+0x76>
 800c828:	6ae7      	ldr	r7, [r4, #44]	; 0x2c
 800c82a:	2114      	movs	r1, #20
 800c82c:	4379      	muls	r1, r7
 800c82e:	5873      	ldr	r3, [r6, r1]
 800c830:	b92b      	cbnz	r3, 800c83e <xTaskPriorityDisinherit+0x76>
 800c832:	2001      	movs	r0, #1
 800c834:	6813      	ldr	r3, [r2, #0]
 800c836:	40b8      	lsls	r0, r7
 800c838:	ea23 0300 	bic.w	r3, r3, r0
 800c83c:	6013      	str	r3, [r2, #0]
 800c83e:	6c63      	ldr	r3, [r4, #68]	; 0x44
 800c840:	f1c3 0107 	rsb	r1, r3, #7
 800c844:	62e3      	str	r3, [r4, #44]	; 0x2c
 800c846:	61a1      	str	r1, [r4, #24]
 800c848:	2401      	movs	r4, #1
 800c84a:	6811      	ldr	r1, [r2, #0]
 800c84c:	fa04 f003 	lsl.w	r0, r4, r3
 800c850:	4308      	orrs	r0, r1
 800c852:	4629      	mov	r1, r5
 800c854:	6010      	str	r0, [r2, #0]
 800c856:	2014      	movs	r0, #20
 800c858:	fb00 6003 	mla	r0, r0, r3, r6
 800c85c:	f7fe fe24 	bl	800b4a8 <vListInsertEnd>
 800c860:	4620      	mov	r0, r4
 800c862:	e7b5      	b.n	800c7d0 <xTaskPriorityDisinherit+0x8>
 800c864:	20000338 	.word	0x20000338
 800c868:	20000344 	.word	0x20000344
 800c86c:	200003e4 	.word	0x200003e4

0800c870 <vTaskPriorityDisinheritAfterTimeout>:
 800c870:	b5f8      	push	{r3, r4, r5, r6, r7, lr}
 800c872:	4604      	mov	r4, r0
 800c874:	2800      	cmp	r0, #0
 800c876:	d050      	beq.n	800c91a <vTaskPriorityDisinheritAfterTimeout+0xaa>
 800c878:	6c82      	ldr	r2, [r0, #72]	; 0x48
 800c87a:	b952      	cbnz	r2, 800c892 <vTaskPriorityDisinheritAfterTimeout+0x22>
 800c87c:	f04f 0350 	mov.w	r3, #80	; 0x50
 800c880:	b672      	cpsid	i
 800c882:	f383 8811 	msr	BASEPRI, r3
 800c886:	f3bf 8f6f 	isb	sy
 800c88a:	f3bf 8f4f 	dsb	sy
 800c88e:	b662      	cpsie	i
 800c890:	e7fe      	b.n	800c890 <vTaskPriorityDisinheritAfterTimeout+0x20>
 800c892:	6c43      	ldr	r3, [r0, #68]	; 0x44
 800c894:	4299      	cmp	r1, r3
 800c896:	bf38      	it	cc
 800c898:	4619      	movcc	r1, r3
 800c89a:	6ac3      	ldr	r3, [r0, #44]	; 0x2c
 800c89c:	428b      	cmp	r3, r1
 800c89e:	d03c      	beq.n	800c91a <vTaskPriorityDisinheritAfterTimeout+0xaa>
 800c8a0:	2a01      	cmp	r2, #1
 800c8a2:	d13a      	bne.n	800c91a <vTaskPriorityDisinheritAfterTimeout+0xaa>
 800c8a4:	4a1d      	ldr	r2, [pc, #116]	; (800c91c <vTaskPriorityDisinheritAfterTimeout+0xac>)
 800c8a6:	6812      	ldr	r2, [r2, #0]
 800c8a8:	4282      	cmp	r2, r0
 800c8aa:	d10a      	bne.n	800c8c2 <vTaskPriorityDisinheritAfterTimeout+0x52>
 800c8ac:	f04f 0350 	mov.w	r3, #80	; 0x50
 800c8b0:	b672      	cpsid	i
 800c8b2:	f383 8811 	msr	BASEPRI, r3
 800c8b6:	f3bf 8f6f 	isb	sy
 800c8ba:	f3bf 8f4f 	dsb	sy
 800c8be:	b662      	cpsie	i
 800c8c0:	e7fe      	b.n	800c8c0 <vTaskPriorityDisinheritAfterTimeout+0x50>
 800c8c2:	6982      	ldr	r2, [r0, #24]
 800c8c4:	2614      	movs	r6, #20
 800c8c6:	4d16      	ldr	r5, [pc, #88]	; (800c920 <vTaskPriorityDisinheritAfterTimeout+0xb0>)
 800c8c8:	2a00      	cmp	r2, #0
 800c8ca:	62c1      	str	r1, [r0, #44]	; 0x2c
 800c8cc:	fb06 5303 	mla	r3, r6, r3, r5
 800c8d0:	6942      	ldr	r2, [r0, #20]
 800c8d2:	bfa4      	itt	ge
 800c8d4:	f1c1 0107 	rsbge	r1, r1, #7
 800c8d8:	6181      	strge	r1, [r0, #24]
 800c8da:	429a      	cmp	r2, r3
 800c8dc:	d11d      	bne.n	800c91a <vTaskPriorityDisinheritAfterTimeout+0xaa>
 800c8de:	1d07      	adds	r7, r0, #4
 800c8e0:	4638      	mov	r0, r7
 800c8e2:	f7fe fe04 	bl	800b4ee <uxListRemove>
 800c8e6:	6ae2      	ldr	r2, [r4, #44]	; 0x2c
 800c8e8:	4c0e      	ldr	r4, [pc, #56]	; (800c924 <vTaskPriorityDisinheritAfterTimeout+0xb4>)
 800c8ea:	b948      	cbnz	r0, 800c900 <vTaskPriorityDisinheritAfterTimeout+0x90>
 800c8ec:	4356      	muls	r6, r2
 800c8ee:	2301      	movs	r3, #1
 800c8f0:	59a8      	ldr	r0, [r5, r6]
 800c8f2:	fa03 f102 	lsl.w	r1, r3, r2
 800c8f6:	b918      	cbnz	r0, 800c900 <vTaskPriorityDisinheritAfterTimeout+0x90>
 800c8f8:	6823      	ldr	r3, [r4, #0]
 800c8fa:	ea23 0301 	bic.w	r3, r3, r1
 800c8fe:	6023      	str	r3, [r4, #0]
 800c900:	2301      	movs	r3, #1
 800c902:	6821      	ldr	r1, [r4, #0]
 800c904:	2014      	movs	r0, #20
 800c906:	4093      	lsls	r3, r2
 800c908:	fb00 5002 	mla	r0, r0, r2, r5
 800c90c:	430b      	orrs	r3, r1
 800c90e:	4639      	mov	r1, r7
 800c910:	6023      	str	r3, [r4, #0]
 800c912:	e8bd 40f8 	ldmia.w	sp!, {r3, r4, r5, r6, r7, lr}
 800c916:	f7fe bdc7 	b.w	800b4a8 <vListInsertEnd>
 800c91a:	bdf8      	pop	{r3, r4, r5, r6, r7, pc}
 800c91c:	20000338 	.word	0x20000338
 800c920:	20000344 	.word	0x20000344
 800c924:	200003e4 	.word	0x200003e4

0800c928 <pvTaskIncrementMutexHeldCount>:
 800c928:	4b04      	ldr	r3, [pc, #16]	; (800c93c <pvTaskIncrementMutexHeldCount+0x14>)
 800c92a:	681a      	ldr	r2, [r3, #0]
 800c92c:	b11a      	cbz	r2, 800c936 <pvTaskIncrementMutexHeldCount+0xe>
 800c92e:	6819      	ldr	r1, [r3, #0]
 800c930:	6c8a      	ldr	r2, [r1, #72]	; 0x48
 800c932:	3201      	adds	r2, #1
 800c934:	648a      	str	r2, [r1, #72]	; 0x48
 800c936:	6818      	ldr	r0, [r3, #0]
 800c938:	4770      	bx	lr
 800c93a:	bf00      	nop
 800c93c:	20000338 	.word	0x20000338

0800c940 <prvTaskExitError>:
 800c940:	2300      	movs	r3, #0
 800c942:	b082      	sub	sp, #8
 800c944:	9301      	str	r3, [sp, #4]
 800c946:	4b0f      	ldr	r3, [pc, #60]	; (800c984 <prvTaskExitError+0x44>)
 800c948:	681b      	ldr	r3, [r3, #0]
 800c94a:	3301      	adds	r3, #1
 800c94c:	d00a      	beq.n	800c964 <prvTaskExitError+0x24>
 800c94e:	f04f 0350 	mov.w	r3, #80	; 0x50
 800c952:	b672      	cpsid	i
 800c954:	f383 8811 	msr	BASEPRI, r3
 800c958:	f3bf 8f6f 	isb	sy
 800c95c:	f3bf 8f4f 	dsb	sy
 800c960:	b662      	cpsie	i
 800c962:	e7fe      	b.n	800c962 <prvTaskExitError+0x22>
 800c964:	f04f 0350 	mov.w	r3, #80	; 0x50
 800c968:	b672      	cpsid	i
 800c96a:	f383 8811 	msr	BASEPRI, r3
 800c96e:	f3bf 8f6f 	isb	sy
 800c972:	f3bf 8f4f 	dsb	sy
 800c976:	b662      	cpsie	i
 800c978:	9b01      	ldr	r3, [sp, #4]
 800c97a:	2b00      	cmp	r3, #0
 800c97c:	d0fc      	beq.n	800c978 <prvTaskExitError+0x38>
 800c97e:	b002      	add	sp, #8
 800c980:	4770      	bx	lr
 800c982:	bf00      	nop
 800c984:	2000004c 	.word	0x2000004c

0800c988 <prvPortStartFirstTask>:
 800c988:	4808      	ldr	r0, [pc, #32]	; (800c9ac <prvPortStartFirstTask+0x24>)
 800c98a:	6800      	ldr	r0, [r0, #0]
 800c98c:	6800      	ldr	r0, [r0, #0]
 800c98e:	f380 8808 	msr	MSP, r0
 800c992:	f04f 0000 	mov.w	r0, #0
 800c996:	f380 8814 	msr	CONTROL, r0
 800c99a:	b662      	cpsie	i
 800c99c:	b661      	cpsie	f
 800c99e:	f3bf 8f4f 	dsb	sy
 800c9a2:	f3bf 8f6f 	isb	sy
 800c9a6:	df00      	svc	0
 800c9a8:	bf00      	nop
 800c9aa:	0000      	.short	0x0000
 800c9ac:	e000ed08 	.word	0xe000ed08

0800c9b0 <vPortEnableVFP>:
 800c9b0:	f8df 000c 	ldr.w	r0, [pc, #12]	; 800c9c0 <vPortEnableVFP+0x10>
 800c9b4:	6801      	ldr	r1, [r0, #0]
 800c9b6:	f441 0170 	orr.w	r1, r1, #15728640	; 0xf00000
 800c9ba:	6001      	str	r1, [r0, #0]
 800c9bc:	4770      	bx	lr
 800c9be:	0000      	.short	0x0000
 800c9c0:	e000ed88 	.word	0xe000ed88

0800c9c4 <pxPortInitialiseStack>:
 800c9c4:	f04f 7380 	mov.w	r3, #16777216	; 0x1000000
 800c9c8:	f021 0101 	bic.w	r1, r1, #1
 800c9cc:	f840 2c20 	str.w	r2, [r0, #-32]
 800c9d0:	3844      	subs	r0, #68	; 0x44
 800c9d2:	6403      	str	r3, [r0, #64]	; 0x40
 800c9d4:	4b03      	ldr	r3, [pc, #12]	; (800c9e4 <pxPortInitialiseStack+0x20>)
 800c9d6:	63c1      	str	r1, [r0, #60]	; 0x3c
 800c9d8:	6383      	str	r3, [r0, #56]	; 0x38
 800c9da:	f06f 0302 	mvn.w	r3, #2
 800c9de:	6203      	str	r3, [r0, #32]
 800c9e0:	4770      	bx	lr
 800c9e2:	bf00      	nop
 800c9e4:	0800c941 	.word	0x0800c941
	...

0800c9f0 <SVC_Handler>:
 800c9f0:	4b07      	ldr	r3, [pc, #28]	; (800ca10 <pxCurrentTCBConst2>)
 800c9f2:	6819      	ldr	r1, [r3, #0]
 800c9f4:	6808      	ldr	r0, [r1, #0]
 800c9f6:	e8b0 4ff0 	ldmia.w	r0!, {r4, r5, r6, r7, r8, r9, sl, fp, lr}
 800c9fa:	f380 8809 	msr	PSP, r0
 800c9fe:	f3bf 8f6f 	isb	sy
 800ca02:	f04f 0000 	mov.w	r0, #0
 800ca06:	f380 8811 	msr	BASEPRI, r0
 800ca0a:	4770      	bx	lr
 800ca0c:	f3af 8000 	nop.w

0800ca10 <pxCurrentTCBConst2>:
 800ca10:	20000338 	.word	0x20000338

0800ca14 <vPortEnterCritical>:
 800ca14:	f04f 0350 	mov.w	r3, #80	; 0x50
 800ca18:	b672      	cpsid	i
 800ca1a:	f383 8811 	msr	BASEPRI, r3
 800ca1e:	f3bf 8f6f 	isb	sy
 800ca22:	f3bf 8f4f 	dsb	sy
 800ca26:	b662      	cpsie	i
 800ca28:	4a0b      	ldr	r2, [pc, #44]	; (800ca58 <vPortEnterCritical+0x44>)
 800ca2a:	6813      	ldr	r3, [r2, #0]
 800ca2c:	3301      	adds	r3, #1
 800ca2e:	2b01      	cmp	r3, #1
 800ca30:	6013      	str	r3, [r2, #0]
 800ca32:	d10f      	bne.n	800ca54 <vPortEnterCritical+0x40>
 800ca34:	4b09      	ldr	r3, [pc, #36]	; (800ca5c <vPortEnterCritical+0x48>)
 800ca36:	681b      	ldr	r3, [r3, #0]
 800ca38:	f013 0fff 	tst.w	r3, #255	; 0xff
 800ca3c:	d00a      	beq.n	800ca54 <vPortEnterCritical+0x40>
 800ca3e:	f04f 0350 	mov.w	r3, #80	; 0x50
 800ca42:	b672      	cpsid	i
 800ca44:	f383 8811 	msr	BASEPRI, r3
 800ca48:	f3bf 8f6f 	isb	sy
 800ca4c:	f3bf 8f4f 	dsb	sy
 800ca50:	b662      	cpsie	i
 800ca52:	e7fe      	b.n	800ca52 <vPortEnterCritical+0x3e>
 800ca54:	4770      	bx	lr
 800ca56:	bf00      	nop
 800ca58:	2000004c 	.word	0x2000004c
 800ca5c:	e000ed04 	.word	0xe000ed04

0800ca60 <vPortExitCritical>:
 800ca60:	4a09      	ldr	r2, [pc, #36]	; (800ca88 <vPortExitCritical+0x28>)
 800ca62:	6813      	ldr	r3, [r2, #0]
 800ca64:	b953      	cbnz	r3, 800ca7c <vPortExitCritical+0x1c>
 800ca66:	f04f 0350 	mov.w	r3, #80	; 0x50
 800ca6a:	b672      	cpsid	i
 800ca6c:	f383 8811 	msr	BASEPRI, r3
 800ca70:	f3bf 8f6f 	isb	sy
 800ca74:	f3bf 8f4f 	dsb	sy
 800ca78:	b662      	cpsie	i
 800ca7a:	e7fe      	b.n	800ca7a <vPortExitCritical+0x1a>
 800ca7c:	3b01      	subs	r3, #1
 800ca7e:	6013      	str	r3, [r2, #0]
 800ca80:	b90b      	cbnz	r3, 800ca86 <vPortExitCritical+0x26>
 800ca82:	f383 8811 	msr	BASEPRI, r3
 800ca86:	4770      	bx	lr
 800ca88:	2000004c 	.word	0x2000004c
 800ca8c:	00000000 	.word	0x00000000

0800ca90 <PendSV_Handler>:
 800ca90:	f3ef 8009 	mrs	r0, PSP
 800ca94:	f3bf 8f6f 	isb	sy
 800ca98:	4b15      	ldr	r3, [pc, #84]	; (800caf0 <pxCurrentTCBConst>)
 800ca9a:	681a      	ldr	r2, [r3, #0]
 800ca9c:	f01e 0f10 	tst.w	lr, #16
 800caa0:	bf08      	it	eq
 800caa2:	ed20 8a10 	vstmdbeq	r0!, {s16-s31}
 800caa6:	e920 4ff0 	stmdb	r0!, {r4, r5, r6, r7, r8, r9, sl, fp, lr}
 800caaa:	6010      	str	r0, [r2, #0]
 800caac:	e92d 0009 	stmdb	sp!, {r0, r3}
 800cab0:	f04f 0050 	mov.w	r0, #80	; 0x50
 800cab4:	b672      	cpsid	i
 800cab6:	f380 8811 	msr	BASEPRI, r0
 800caba:	f3bf 8f4f 	dsb	sy
 800cabe:	f3bf 8f6f 	isb	sy
 800cac2:	b662      	cpsie	i
 800cac4:	f7ff fd30 	bl	800c528 <vTaskSwitchContext>
 800cac8:	f04f 0000 	mov.w	r0, #0
 800cacc:	f380 8811 	msr	BASEPRI, r0
 800cad0:	bc09      	pop	{r0, r3}
 800cad2:	6819      	ldr	r1, [r3, #0]
 800cad4:	6808      	ldr	r0, [r1, #0]
 800cad6:	e8b0 4ff0 	ldmia.w	r0!, {r4, r5, r6, r7, r8, r9, sl, fp, lr}
 800cada:	f01e 0f10 	tst.w	lr, #16
 800cade:	bf08      	it	eq
 800cae0:	ecb0 8a10 	vldmiaeq	r0!, {s16-s31}
 800cae4:	f380 8809 	msr	PSP, r0
 800cae8:	f3bf 8f6f 	isb	sy
 800caec:	4770      	bx	lr
 800caee:	bf00      	nop

0800caf0 <pxCurrentTCBConst>:
 800caf0:	20000338 	.word	0x20000338

0800caf4 <xPortSysTickHandler>:
 800caf4:	b508      	push	{r3, lr}
 800caf6:	f04f 0350 	mov.w	r3, #80	; 0x50
 800cafa:	b672      	cpsid	i
 800cafc:	f383 8811 	msr	BASEPRI, r3
 800cb00:	f3bf 8f6f 	isb	sy
 800cb04:	f3bf 8f4f 	dsb	sy
 800cb08:	b662      	cpsie	i
 800cb0a:	f7ff fbdb 	bl	800c2c4 <xTaskIncrementTick>
 800cb0e:	b118      	cbz	r0, 800cb18 <xPortSysTickHandler+0x24>
 800cb10:	4b03      	ldr	r3, [pc, #12]	; (800cb20 <xPortSysTickHandler+0x2c>)
 800cb12:	f04f 5280 	mov.w	r2, #268435456	; 0x10000000
 800cb16:	601a      	str	r2, [r3, #0]
 800cb18:	2300      	movs	r3, #0
 800cb1a:	f383 8811 	msr	BASEPRI, r3
 800cb1e:	bd08      	pop	{r3, pc}
 800cb20:	e000ed04 	.word	0xe000ed04

0800cb24 <vPortSetupTimerInterrupt>:
 800cb24:	2300      	movs	r3, #0
 800cb26:	4a08      	ldr	r2, [pc, #32]	; (800cb48 <vPortSetupTimerInterrupt+0x24>)
 800cb28:	4908      	ldr	r1, [pc, #32]	; (800cb4c <vPortSetupTimerInterrupt+0x28>)
 800cb2a:	6013      	str	r3, [r2, #0]
 800cb2c:	600b      	str	r3, [r1, #0]
 800cb2e:	f44f 717a 	mov.w	r1, #1000	; 0x3e8
 800cb32:	4b07      	ldr	r3, [pc, #28]	; (800cb50 <vPortSetupTimerInterrupt+0x2c>)
 800cb34:	681b      	ldr	r3, [r3, #0]
 800cb36:	fbb3 f3f1 	udiv	r3, r3, r1
 800cb3a:	4906      	ldr	r1, [pc, #24]	; (800cb54 <vPortSetupTimerInterrupt+0x30>)
 800cb3c:	3b01      	subs	r3, #1
 800cb3e:	600b      	str	r3, [r1, #0]
 800cb40:	2307      	movs	r3, #7
 800cb42:	6013      	str	r3, [r2, #0]
 800cb44:	4770      	bx	lr
 800cb46:	bf00      	nop
 800cb48:	e000e010 	.word	0xe000e010
 800cb4c:	e000e018 	.word	0xe000e018
 800cb50:	20000040 	.word	0x20000040
 800cb54:	e000e014 	.word	0xe000e014

0800cb58 <xPortStartScheduler>:
 800cb58:	4b2c      	ldr	r3, [pc, #176]	; (800cc0c <xPortStartScheduler+0xb4>)
 800cb5a:	b513      	push	{r0, r1, r4, lr}
 800cb5c:	781a      	ldrb	r2, [r3, #0]
 800cb5e:	2100      	movs	r1, #0
 800cb60:	b2d2      	uxtb	r2, r2
 800cb62:	9201      	str	r2, [sp, #4]
 800cb64:	22ff      	movs	r2, #255	; 0xff
 800cb66:	701a      	strb	r2, [r3, #0]
 800cb68:	781b      	ldrb	r3, [r3, #0]
 800cb6a:	4a29      	ldr	r2, [pc, #164]	; (800cc10 <xPortStartScheduler+0xb8>)
 800cb6c:	b2db      	uxtb	r3, r3
 800cb6e:	f88d 3003 	strb.w	r3, [sp, #3]
 800cb72:	f89d 3003 	ldrb.w	r3, [sp, #3]
 800cb76:	f003 0350 	and.w	r3, r3, #80	; 0x50
 800cb7a:	7013      	strb	r3, [r2, #0]
 800cb7c:	2207      	movs	r2, #7
 800cb7e:	4b25      	ldr	r3, [pc, #148]	; (800cc14 <xPortStartScheduler+0xbc>)
 800cb80:	601a      	str	r2, [r3, #0]
 800cb82:	f89d 0003 	ldrb.w	r0, [sp, #3]
 800cb86:	1e54      	subs	r4, r2, #1
 800cb88:	0600      	lsls	r0, r0, #24
 800cb8a:	d40f      	bmi.n	800cbac <xPortStartScheduler+0x54>
 800cb8c:	b101      	cbz	r1, 800cb90 <xPortStartScheduler+0x38>
 800cb8e:	601a      	str	r2, [r3, #0]
 800cb90:	681a      	ldr	r2, [r3, #0]
 800cb92:	2a03      	cmp	r2, #3
 800cb94:	d013      	beq.n	800cbbe <xPortStartScheduler+0x66>
 800cb96:	f04f 0350 	mov.w	r3, #80	; 0x50
 800cb9a:	b672      	cpsid	i
 800cb9c:	f383 8811 	msr	BASEPRI, r3
 800cba0:	f3bf 8f6f 	isb	sy
 800cba4:	f3bf 8f4f 	dsb	sy
 800cba8:	b662      	cpsie	i
 800cbaa:	e7fe      	b.n	800cbaa <xPortStartScheduler+0x52>
 800cbac:	f89d 2003 	ldrb.w	r2, [sp, #3]
 800cbb0:	2101      	movs	r1, #1
 800cbb2:	0052      	lsls	r2, r2, #1
 800cbb4:	b2d2      	uxtb	r2, r2
 800cbb6:	f88d 2003 	strb.w	r2, [sp, #3]
 800cbba:	4622      	mov	r2, r4
 800cbbc:	e7e1      	b.n	800cb82 <xPortStartScheduler+0x2a>
 800cbbe:	0212      	lsls	r2, r2, #8
 800cbc0:	2400      	movs	r4, #0
 800cbc2:	f402 62e0 	and.w	r2, r2, #1792	; 0x700
 800cbc6:	601a      	str	r2, [r3, #0]
 800cbc8:	9b01      	ldr	r3, [sp, #4]
 800cbca:	4a10      	ldr	r2, [pc, #64]	; (800cc0c <xPortStartScheduler+0xb4>)
 800cbcc:	b2db      	uxtb	r3, r3
 800cbce:	7013      	strb	r3, [r2, #0]
 800cbd0:	4b11      	ldr	r3, [pc, #68]	; (800cc18 <xPortStartScheduler+0xc0>)
 800cbd2:	681a      	ldr	r2, [r3, #0]
 800cbd4:	f442 0270 	orr.w	r2, r2, #15728640	; 0xf00000
 800cbd8:	601a      	str	r2, [r3, #0]
 800cbda:	681a      	ldr	r2, [r3, #0]
 800cbdc:	f042 4270 	orr.w	r2, r2, #4026531840	; 0xf0000000
 800cbe0:	601a      	str	r2, [r3, #0]
 800cbe2:	f7ff ff9f 	bl	800cb24 <vPortSetupTimerInterrupt>
 800cbe6:	4b0d      	ldr	r3, [pc, #52]	; (800cc1c <xPortStartScheduler+0xc4>)
 800cbe8:	601c      	str	r4, [r3, #0]
 800cbea:	f7ff fee1 	bl	800c9b0 <vPortEnableVFP>
 800cbee:	4a0c      	ldr	r2, [pc, #48]	; (800cc20 <xPortStartScheduler+0xc8>)
 800cbf0:	6813      	ldr	r3, [r2, #0]
 800cbf2:	f043 4340 	orr.w	r3, r3, #3221225472	; 0xc0000000
 800cbf6:	6013      	str	r3, [r2, #0]
 800cbf8:	f7ff fec6 	bl	800c988 <prvPortStartFirstTask>
 800cbfc:	f7ff fc94 	bl	800c528 <vTaskSwitchContext>
 800cc00:	f7ff fe9e 	bl	800c940 <prvTaskExitError>
 800cc04:	4620      	mov	r0, r4
 800cc06:	b002      	add	sp, #8
 800cc08:	bd10      	pop	{r4, pc}
 800cc0a:	bf00      	nop
 800cc0c:	e000e400 	.word	0xe000e400
 800cc10:	20000460 	.word	0x20000460
 800cc14:	20000464 	.word	0x20000464
 800cc18:	e000ed20 	.word	0xe000ed20
 800cc1c:	2000004c 	.word	0x2000004c
 800cc20:	e000ef34 	.word	0xe000ef34

0800cc24 <vPortValidateInterruptPriority>:
 800cc24:	f3ef 8305 	mrs	r3, IPSR
 800cc28:	2b0f      	cmp	r3, #15
 800cc2a:	d910      	bls.n	800cc4e <vPortValidateInterruptPriority+0x2a>
 800cc2c:	4a12      	ldr	r2, [pc, #72]	; (800cc78 <vPortValidateInterruptPriority+0x54>)
 800cc2e:	5c9b      	ldrb	r3, [r3, r2]
 800cc30:	4a12      	ldr	r2, [pc, #72]	; (800cc7c <vPortValidateInterruptPriority+0x58>)
 800cc32:	7812      	ldrb	r2, [r2, #0]
 800cc34:	429a      	cmp	r2, r3
 800cc36:	d90a      	bls.n	800cc4e <vPortValidateInterruptPriority+0x2a>
 800cc38:	f04f 0350 	mov.w	r3, #80	; 0x50
 800cc3c:	b672      	cpsid	i
 800cc3e:	f383 8811 	msr	BASEPRI, r3
 800cc42:	f3bf 8f6f 	isb	sy
 800cc46:	f3bf 8f4f 	dsb	sy
 800cc4a:	b662      	cpsie	i
 800cc4c:	e7fe      	b.n	800cc4c <vPortValidateInterruptPriority+0x28>
 800cc4e:	4b0c      	ldr	r3, [pc, #48]	; (800cc80 <vPortValidateInterruptPriority+0x5c>)
 800cc50:	4a0c      	ldr	r2, [pc, #48]	; (800cc84 <vPortValidateInterruptPriority+0x60>)
 800cc52:	681b      	ldr	r3, [r3, #0]
 800cc54:	6812      	ldr	r2, [r2, #0]
 800cc56:	f403 63e0 	and.w	r3, r3, #1792	; 0x700
 800cc5a:	4293      	cmp	r3, r2
 800cc5c:	d90a      	bls.n	800cc74 <vPortValidateInterruptPriority+0x50>
 800cc5e:	f04f 0350 	mov.w	r3, #80	; 0x50
 800cc62:	b672      	cpsid	i
 800cc64:	f383 8811 	msr	BASEPRI, r3
 800cc68:	f3bf 8f6f 	isb	sy
 800cc6c:	f3bf 8f4f 	dsb	sy
 800cc70:	b662      	cpsie	i
 800cc72:	e7fe      	b.n	800cc72 <vPortValidateInterruptPriority+0x4e>
 800cc74:	4770      	bx	lr
 800cc76:	bf00      	nop
 800cc78:	e000e3f0 	.word	0xe000e3f0
 800cc7c:	20000460 	.word	0x20000460
 800cc80:	e000ed0c 	.word	0xe000ed0c
 800cc84:	20000464 	.word	0x20000464

0800cc88 <prvInsertBlockIntoFreeList>:
 800cc88:	4b0f      	ldr	r3, [pc, #60]	; (800ccc8 <prvInsertBlockIntoFreeList+0x40>)
 800cc8a:	b510      	push	{r4, lr}
 800cc8c:	681a      	ldr	r2, [r3, #0]
 800cc8e:	4282      	cmp	r2, r0
 800cc90:	d318      	bcc.n	800ccc4 <prvInsertBlockIntoFreeList+0x3c>
 800cc92:	685c      	ldr	r4, [r3, #4]
 800cc94:	1919      	adds	r1, r3, r4
 800cc96:	4288      	cmp	r0, r1
 800cc98:	bf01      	itttt	eq
 800cc9a:	6841      	ldreq	r1, [r0, #4]
 800cc9c:	4618      	moveq	r0, r3
 800cc9e:	1909      	addeq	r1, r1, r4
 800cca0:	6059      	streq	r1, [r3, #4]
 800cca2:	6844      	ldr	r4, [r0, #4]
 800cca4:	1901      	adds	r1, r0, r4
 800cca6:	428a      	cmp	r2, r1
 800cca8:	d107      	bne.n	800ccba <prvInsertBlockIntoFreeList+0x32>
 800ccaa:	4908      	ldr	r1, [pc, #32]	; (800cccc <prvInsertBlockIntoFreeList+0x44>)
 800ccac:	6809      	ldr	r1, [r1, #0]
 800ccae:	428a      	cmp	r2, r1
 800ccb0:	bf1f      	itttt	ne
 800ccb2:	6851      	ldrne	r1, [r2, #4]
 800ccb4:	6812      	ldrne	r2, [r2, #0]
 800ccb6:	1909      	addne	r1, r1, r4
 800ccb8:	6041      	strne	r1, [r0, #4]
 800ccba:	4298      	cmp	r0, r3
 800ccbc:	6002      	str	r2, [r0, #0]
 800ccbe:	bf18      	it	ne
 800ccc0:	6018      	strne	r0, [r3, #0]
 800ccc2:	bd10      	pop	{r4, pc}
 800ccc4:	4613      	mov	r3, r2
 800ccc6:	e7e1      	b.n	800cc8c <prvInsertBlockIntoFreeList+0x4>
 800ccc8:	20004078 	.word	0x20004078
 800cccc:	20000468 	.word	0x20000468

0800ccd0 <pvPortMalloc>:
 800ccd0:	e92d 41f0 	stmdb	sp!, {r4, r5, r6, r7, r8, lr}
 800ccd4:	4604      	mov	r4, r0
 800ccd6:	f7ff fadf 	bl	800c298 <vTaskSuspendAll>
 800ccda:	493f      	ldr	r1, [pc, #252]	; (800cdd8 <pvPortMalloc+0x108>)
 800ccdc:	4d3f      	ldr	r5, [pc, #252]	; (800cddc <pvPortMalloc+0x10c>)
 800ccde:	680b      	ldr	r3, [r1, #0]
 800cce0:	bb03      	cbnz	r3, 800cd24 <pvPortMalloc+0x54>
 800cce2:	4a3f      	ldr	r2, [pc, #252]	; (800cde0 <pvPortMalloc+0x110>)
 800cce4:	2000      	movs	r0, #0
 800cce6:	0756      	lsls	r6, r2, #29
 800cce8:	f502 5370 	add.w	r3, r2, #15360	; 0x3c00
 800ccec:	4e3d      	ldr	r6, [pc, #244]	; (800cde4 <pvPortMalloc+0x114>)
 800ccee:	bf14      	ite	ne
 800ccf0:	3207      	addne	r2, #7
 800ccf2:	f44f 5370 	moveq.w	r3, #15360	; 0x3c00
 800ccf6:	6070      	str	r0, [r6, #4]
 800ccf8:	bf1c      	itt	ne
 800ccfa:	f022 0207 	bicne.w	r2, r2, #7
 800ccfe:	1a9b      	subne	r3, r3, r2
 800cd00:	6032      	str	r2, [r6, #0]
 800cd02:	4413      	add	r3, r2
 800cd04:	3b08      	subs	r3, #8
 800cd06:	f023 0307 	bic.w	r3, r3, #7
 800cd0a:	e9c3 0000 	strd	r0, r0, [r3]
 800cd0e:	1a98      	subs	r0, r3, r2
 800cd10:	600b      	str	r3, [r1, #0]
 800cd12:	e9c2 3000 	strd	r3, r0, [r2]
 800cd16:	4b34      	ldr	r3, [pc, #208]	; (800cde8 <pvPortMalloc+0x118>)
 800cd18:	6018      	str	r0, [r3, #0]
 800cd1a:	4b34      	ldr	r3, [pc, #208]	; (800cdec <pvPortMalloc+0x11c>)
 800cd1c:	6018      	str	r0, [r3, #0]
 800cd1e:	f04f 4300 	mov.w	r3, #2147483648	; 0x80000000
 800cd22:	602b      	str	r3, [r5, #0]
 800cd24:	682f      	ldr	r7, [r5, #0]
 800cd26:	4227      	tst	r7, r4
 800cd28:	d151      	bne.n	800cdce <pvPortMalloc+0xfe>
 800cd2a:	2c00      	cmp	r4, #0
 800cd2c:	d040      	beq.n	800cdb0 <pvPortMalloc+0xe0>
 800cd2e:	f104 0308 	add.w	r3, r4, #8
 800cd32:	0758      	lsls	r0, r3, #29
 800cd34:	bf1c      	itt	ne
 800cd36:	f023 0307 	bicne.w	r3, r3, #7
 800cd3a:	3308      	addne	r3, #8
 800cd3c:	2b00      	cmp	r3, #0
 800cd3e:	d046      	beq.n	800cdce <pvPortMalloc+0xfe>
 800cd40:	4a2a      	ldr	r2, [pc, #168]	; (800cdec <pvPortMalloc+0x11c>)
 800cd42:	6816      	ldr	r6, [r2, #0]
 800cd44:	4690      	mov	r8, r2
 800cd46:	429e      	cmp	r6, r3
 800cd48:	d341      	bcc.n	800cdce <pvPortMalloc+0xfe>
 800cd4a:	4a26      	ldr	r2, [pc, #152]	; (800cde4 <pvPortMalloc+0x114>)
 800cd4c:	6815      	ldr	r5, [r2, #0]
 800cd4e:	6868      	ldr	r0, [r5, #4]
 800cd50:	4298      	cmp	r0, r3
 800cd52:	d201      	bcs.n	800cd58 <pvPortMalloc+0x88>
 800cd54:	682c      	ldr	r4, [r5, #0]
 800cd56:	b9b4      	cbnz	r4, 800cd86 <pvPortMalloc+0xb6>
 800cd58:	6809      	ldr	r1, [r1, #0]
 800cd5a:	42a9      	cmp	r1, r5
 800cd5c:	d037      	beq.n	800cdce <pvPortMalloc+0xfe>
 800cd5e:	6829      	ldr	r1, [r5, #0]
 800cd60:	6814      	ldr	r4, [r2, #0]
 800cd62:	6011      	str	r1, [r2, #0]
 800cd64:	1ac2      	subs	r2, r0, r3
 800cd66:	2a10      	cmp	r2, #16
 800cd68:	d914      	bls.n	800cd94 <pvPortMalloc+0xc4>
 800cd6a:	18e8      	adds	r0, r5, r3
 800cd6c:	0741      	lsls	r1, r0, #29
 800cd6e:	d00d      	beq.n	800cd8c <pvPortMalloc+0xbc>
 800cd70:	f04f 0350 	mov.w	r3, #80	; 0x50
 800cd74:	b672      	cpsid	i
 800cd76:	f383 8811 	msr	BASEPRI, r3
 800cd7a:	f3bf 8f6f 	isb	sy
 800cd7e:	f3bf 8f4f 	dsb	sy
 800cd82:	b662      	cpsie	i
 800cd84:	e7fe      	b.n	800cd84 <pvPortMalloc+0xb4>
 800cd86:	462a      	mov	r2, r5
 800cd88:	4625      	mov	r5, r4
 800cd8a:	e7e0      	b.n	800cd4e <pvPortMalloc+0x7e>
 800cd8c:	6042      	str	r2, [r0, #4]
 800cd8e:	606b      	str	r3, [r5, #4]
 800cd90:	f7ff ff7a 	bl	800cc88 <prvInsertBlockIntoFreeList>
 800cd94:	686b      	ldr	r3, [r5, #4]
 800cd96:	3408      	adds	r4, #8
 800cd98:	4913      	ldr	r1, [pc, #76]	; (800cde8 <pvPortMalloc+0x118>)
 800cd9a:	1af6      	subs	r6, r6, r3
 800cd9c:	431f      	orrs	r7, r3
 800cd9e:	6808      	ldr	r0, [r1, #0]
 800cda0:	2300      	movs	r3, #0
 800cda2:	f8c8 6000 	str.w	r6, [r8]
 800cda6:	4286      	cmp	r6, r0
 800cda8:	606f      	str	r7, [r5, #4]
 800cdaa:	602b      	str	r3, [r5, #0]
 800cdac:	bf38      	it	cc
 800cdae:	600e      	strcc	r6, [r1, #0]
 800cdb0:	f7ff fb1c 	bl	800c3ec <xTaskResumeAll>
 800cdb4:	0763      	lsls	r3, r4, #29
 800cdb6:	d00c      	beq.n	800cdd2 <pvPortMalloc+0x102>
 800cdb8:	f04f 0350 	mov.w	r3, #80	; 0x50
 800cdbc:	b672      	cpsid	i
 800cdbe:	f383 8811 	msr	BASEPRI, r3
 800cdc2:	f3bf 8f6f 	isb	sy
 800cdc6:	f3bf 8f4f 	dsb	sy
 800cdca:	b662      	cpsie	i
 800cdcc:	e7fe      	b.n	800cdcc <pvPortMalloc+0xfc>
 800cdce:	2400      	movs	r4, #0
 800cdd0:	e7ee      	b.n	800cdb0 <pvPortMalloc+0xe0>
 800cdd2:	4620      	mov	r0, r4
 800cdd4:	e8bd 81f0 	ldmia.w	sp!, {r4, r5, r6, r7, r8, pc}
 800cdd8:	20000468 	.word	0x20000468
 800cddc:	2000406c 	.word	0x2000406c
 800cde0:	2000046c 	.word	0x2000046c
 800cde4:	20004078 	.word	0x20004078
 800cde8:	20004074 	.word	0x20004074
 800cdec:	20004070 	.word	0x20004070

0800cdf0 <vPortFree>:
 800cdf0:	b510      	push	{r4, lr}
 800cdf2:	4604      	mov	r4, r0
 800cdf4:	2800      	cmp	r0, #0
 800cdf6:	d032      	beq.n	800ce5e <vPortFree+0x6e>
 800cdf8:	4a19      	ldr	r2, [pc, #100]	; (800ce60 <vPortFree+0x70>)
 800cdfa:	f850 3c04 	ldr.w	r3, [r0, #-4]
 800cdfe:	6812      	ldr	r2, [r2, #0]
 800ce00:	4213      	tst	r3, r2
 800ce02:	d10a      	bne.n	800ce1a <vPortFree+0x2a>
 800ce04:	f04f 0350 	mov.w	r3, #80	; 0x50
 800ce08:	b672      	cpsid	i
 800ce0a:	f383 8811 	msr	BASEPRI, r3
 800ce0e:	f3bf 8f6f 	isb	sy
 800ce12:	f3bf 8f4f 	dsb	sy
 800ce16:	b662      	cpsie	i
 800ce18:	e7fe      	b.n	800ce18 <vPortFree+0x28>
 800ce1a:	f850 1c08 	ldr.w	r1, [r0, #-8]
 800ce1e:	b151      	cbz	r1, 800ce36 <vPortFree+0x46>
 800ce20:	f04f 0350 	mov.w	r3, #80	; 0x50
 800ce24:	b672      	cpsid	i
 800ce26:	f383 8811 	msr	BASEPRI, r3
 800ce2a:	f3bf 8f6f 	isb	sy
 800ce2e:	f3bf 8f4f 	dsb	sy
 800ce32:	b662      	cpsie	i
 800ce34:	e7fe      	b.n	800ce34 <vPortFree+0x44>
 800ce36:	ea23 0302 	bic.w	r3, r3, r2
 800ce3a:	f840 3c04 	str.w	r3, [r0, #-4]
 800ce3e:	f7ff fa2b 	bl	800c298 <vTaskSuspendAll>
 800ce42:	4a08      	ldr	r2, [pc, #32]	; (800ce64 <vPortFree+0x74>)
 800ce44:	f854 3c04 	ldr.w	r3, [r4, #-4]
 800ce48:	f1a4 0008 	sub.w	r0, r4, #8
 800ce4c:	6811      	ldr	r1, [r2, #0]
 800ce4e:	440b      	add	r3, r1
 800ce50:	6013      	str	r3, [r2, #0]
 800ce52:	f7ff ff19 	bl	800cc88 <prvInsertBlockIntoFreeList>
 800ce56:	e8bd 4010 	ldmia.w	sp!, {r4, lr}
 800ce5a:	f7ff bac7 	b.w	800c3ec <xTaskResumeAll>
 800ce5e:	bd10      	pop	{r4, pc}
 800ce60:	2000406c 	.word	0x2000406c
 800ce64:	20004070 	.word	0x20004070

0800ce68 <tcpip_thread>:
 800ce68:	b583      	push	{r0, r1, r7, lr}
 800ce6a:	482c      	ldr	r0, [pc, #176]	; (800cf1c <tcpip_thread+0xb4>)
 800ce6c:	f006 fdc3 	bl	80139f6 <sys_mutex_lock>
 800ce70:	4b2b      	ldr	r3, [pc, #172]	; (800cf20 <tcpip_thread+0xb8>)
 800ce72:	681b      	ldr	r3, [r3, #0]
 800ce74:	b113      	cbz	r3, 800ce7c <tcpip_thread+0x14>
 800ce76:	4a2b      	ldr	r2, [pc, #172]	; (800cf24 <tcpip_thread+0xbc>)
 800ce78:	6810      	ldr	r0, [r2, #0]
 800ce7a:	4798      	blx	r3
 800ce7c:	4d27      	ldr	r5, [pc, #156]	; (800cf1c <tcpip_thread+0xb4>)
 800ce7e:	4f2a      	ldr	r7, [pc, #168]	; (800cf28 <tcpip_thread+0xc0>)
 800ce80:	4e2a      	ldr	r6, [pc, #168]	; (800cf2c <tcpip_thread+0xc4>)
 800ce82:	f005 f9cf 	bl	8012224 <sys_timeouts_sleeptime>
 800ce86:	1c43      	adds	r3, r0, #1
 800ce88:	4604      	mov	r4, r0
 800ce8a:	d113      	bne.n	800ceb4 <tcpip_thread+0x4c>
 800ce8c:	4628      	mov	r0, r5
 800ce8e:	f006 fdb7 	bl	8013a00 <sys_mutex_unlock>
 800ce92:	2200      	movs	r2, #0
 800ce94:	a901      	add	r1, sp, #4
 800ce96:	4638      	mov	r0, r7
 800ce98:	f006 fd6a 	bl	8013970 <sys_arch_mbox_fetch>
 800ce9c:	4628      	mov	r0, r5
 800ce9e:	f006 fdaa 	bl	80139f6 <sys_mutex_lock>
 800cea2:	9c01      	ldr	r4, [sp, #4]
 800cea4:	b9cc      	cbnz	r4, 800ceda <tcpip_thread+0x72>
 800cea6:	4633      	mov	r3, r6
 800cea8:	2291      	movs	r2, #145	; 0x91
 800ceaa:	4921      	ldr	r1, [pc, #132]	; (800cf30 <tcpip_thread+0xc8>)
 800ceac:	4821      	ldr	r0, [pc, #132]	; (800cf34 <tcpip_thread+0xcc>)
 800ceae:	f006 fe1b 	bl	8013ae8 <iprintf>
 800ceb2:	e7e6      	b.n	800ce82 <tcpip_thread+0x1a>
 800ceb4:	b910      	cbnz	r0, 800cebc <tcpip_thread+0x54>
 800ceb6:	f005 f993 	bl	80121e0 <sys_check_timeouts>
 800ceba:	e7e2      	b.n	800ce82 <tcpip_thread+0x1a>
 800cebc:	4628      	mov	r0, r5
 800cebe:	f006 fd9f 	bl	8013a00 <sys_mutex_unlock>
 800cec2:	4622      	mov	r2, r4
 800cec4:	a901      	add	r1, sp, #4
 800cec6:	4638      	mov	r0, r7
 800cec8:	f006 fd52 	bl	8013970 <sys_arch_mbox_fetch>
 800cecc:	4604      	mov	r4, r0
 800cece:	4628      	mov	r0, r5
 800ced0:	f006 fd91 	bl	80139f6 <sys_mutex_lock>
 800ced4:	3401      	adds	r4, #1
 800ced6:	d0ee      	beq.n	800ceb6 <tcpip_thread+0x4e>
 800ced8:	e7e3      	b.n	800cea2 <tcpip_thread+0x3a>
 800ceda:	7823      	ldrb	r3, [r4, #0]
 800cedc:	2b01      	cmp	r3, #1
 800cede:	d012      	beq.n	800cf06 <tcpip_thread+0x9e>
 800cee0:	d304      	bcc.n	800ceec <tcpip_thread+0x84>
 800cee2:	2b02      	cmp	r3, #2
 800cee4:	d015      	beq.n	800cf12 <tcpip_thread+0xaa>
 800cee6:	4633      	mov	r3, r6
 800cee8:	22cf      	movs	r2, #207	; 0xcf
 800ceea:	e7de      	b.n	800ceaa <tcpip_thread+0x42>
 800ceec:	e9d4 1302 	ldrd	r1, r3, [r4, #8]
 800cef0:	6860      	ldr	r0, [r4, #4]
 800cef2:	4798      	blx	r3
 800cef4:	b110      	cbz	r0, 800cefc <tcpip_thread+0x94>
 800cef6:	6860      	ldr	r0, [r4, #4]
 800cef8:	f001 f974 	bl	800e1e4 <pbuf_free>
 800cefc:	4621      	mov	r1, r4
 800cefe:	2009      	movs	r0, #9
 800cf00:	f000 feec 	bl	800dcdc <memp_free>
 800cf04:	e7bd      	b.n	800ce82 <tcpip_thread+0x1a>
 800cf06:	e9d4 3001 	ldrd	r3, r0, [r4, #4]
 800cf0a:	4798      	blx	r3
 800cf0c:	4621      	mov	r1, r4
 800cf0e:	2008      	movs	r0, #8
 800cf10:	e7f6      	b.n	800cf00 <tcpip_thread+0x98>
 800cf12:	e9d4 3001 	ldrd	r3, r0, [r4, #4]
 800cf16:	4798      	blx	r3
 800cf18:	e7b3      	b.n	800ce82 <tcpip_thread+0x1a>
 800cf1a:	bf00      	nop
 800cf1c:	20007c28 	.word	0x20007c28
 800cf20:	20004080 	.word	0x20004080
 800cf24:	20004084 	.word	0x20004084
 800cf28:	20004088 	.word	0x20004088
 800cf2c:	08014acc 	.word	0x08014acc
 800cf30:	08014afc 	.word	0x08014afc
 800cf34:	08014a3b 	.word	0x08014a3b

0800cf38 <tcpip_inpkt>:
 800cf38:	b5f8      	push	{r3, r4, r5, r6, r7, lr}
 800cf3a:	4607      	mov	r7, r0
 800cf3c:	4810      	ldr	r0, [pc, #64]	; (800cf80 <tcpip_inpkt+0x48>)
 800cf3e:	460e      	mov	r6, r1
 800cf40:	4615      	mov	r5, r2
 800cf42:	f006 fd37 	bl	80139b4 <sys_mbox_valid>
 800cf46:	b928      	cbnz	r0, 800cf54 <tcpip_inpkt+0x1c>
 800cf48:	4b0e      	ldr	r3, [pc, #56]	; (800cf84 <tcpip_inpkt+0x4c>)
 800cf4a:	22fc      	movs	r2, #252	; 0xfc
 800cf4c:	490e      	ldr	r1, [pc, #56]	; (800cf88 <tcpip_inpkt+0x50>)
 800cf4e:	480f      	ldr	r0, [pc, #60]	; (800cf8c <tcpip_inpkt+0x54>)
 800cf50:	f006 fdca 	bl	8013ae8 <iprintf>
 800cf54:	2009      	movs	r0, #9
 800cf56:	f000 fea5 	bl	800dca4 <memp_malloc>
 800cf5a:	4604      	mov	r4, r0
 800cf5c:	b168      	cbz	r0, 800cf7a <tcpip_inpkt+0x42>
 800cf5e:	2300      	movs	r3, #0
 800cf60:	60c5      	str	r5, [r0, #12]
 800cf62:	4601      	mov	r1, r0
 800cf64:	7003      	strb	r3, [r0, #0]
 800cf66:	e9c0 7601 	strd	r7, r6, [r0, #4]
 800cf6a:	4805      	ldr	r0, [pc, #20]	; (800cf80 <tcpip_inpkt+0x48>)
 800cf6c:	f006 fcf6 	bl	801395c <sys_mbox_trypost>
 800cf70:	b128      	cbz	r0, 800cf7e <tcpip_inpkt+0x46>
 800cf72:	4621      	mov	r1, r4
 800cf74:	2009      	movs	r0, #9
 800cf76:	f000 feb1 	bl	800dcdc <memp_free>
 800cf7a:	f04f 30ff 	mov.w	r0, #4294967295	; 0xffffffff
 800cf7e:	bdf8      	pop	{r3, r4, r5, r6, r7, pc}
 800cf80:	20004088 	.word	0x20004088
 800cf84:	08014acc 	.word	0x08014acc
 800cf88:	08014abf 	.word	0x08014abf
 800cf8c:	08014a3b 	.word	0x08014a3b

0800cf90 <tcpip_input>:
 800cf90:	f891 302d 	ldrb.w	r3, [r1, #45]	; 0x2d
 800cf94:	f013 0f18 	tst.w	r3, #24
 800cf98:	bf14      	ite	ne
 800cf9a:	4a02      	ldrne	r2, [pc, #8]	; (800cfa4 <tcpip_input+0x14>)
 800cf9c:	4a02      	ldreq	r2, [pc, #8]	; (800cfa8 <tcpip_input+0x18>)
 800cf9e:	f7ff bfcb 	b.w	800cf38 <tcpip_inpkt>
 800cfa2:	bf00      	nop
 800cfa4:	08013829 	.word	0x08013829
 800cfa8:	08012ded 	.word	0x08012ded

0800cfac <tcpip_try_callback>:
 800cfac:	b570      	push	{r4, r5, r6, lr}
 800cfae:	4606      	mov	r6, r0
 800cfb0:	4810      	ldr	r0, [pc, #64]	; (800cff4 <tcpip_try_callback+0x48>)
 800cfb2:	460d      	mov	r5, r1
 800cfb4:	f006 fcfe 	bl	80139b4 <sys_mbox_valid>
 800cfb8:	b930      	cbnz	r0, 800cfc8 <tcpip_try_callback+0x1c>
 800cfba:	4b0f      	ldr	r3, [pc, #60]	; (800cff8 <tcpip_try_callback+0x4c>)
 800cfbc:	f240 125d 	movw	r2, #349	; 0x15d
 800cfc0:	490e      	ldr	r1, [pc, #56]	; (800cffc <tcpip_try_callback+0x50>)
 800cfc2:	480f      	ldr	r0, [pc, #60]	; (800d000 <tcpip_try_callback+0x54>)
 800cfc4:	f006 fd90 	bl	8013ae8 <iprintf>
 800cfc8:	2008      	movs	r0, #8
 800cfca:	f000 fe6b 	bl	800dca4 <memp_malloc>
 800cfce:	4604      	mov	r4, r0
 800cfd0:	b160      	cbz	r0, 800cfec <tcpip_try_callback+0x40>
 800cfd2:	2301      	movs	r3, #1
 800cfd4:	4601      	mov	r1, r0
 800cfd6:	7003      	strb	r3, [r0, #0]
 800cfd8:	e9c0 6501 	strd	r6, r5, [r0, #4]
 800cfdc:	4805      	ldr	r0, [pc, #20]	; (800cff4 <tcpip_try_callback+0x48>)
 800cfde:	f006 fcbd 	bl	801395c <sys_mbox_trypost>
 800cfe2:	b128      	cbz	r0, 800cff0 <tcpip_try_callback+0x44>
 800cfe4:	4621      	mov	r1, r4
 800cfe6:	2008      	movs	r0, #8
 800cfe8:	f000 fe78 	bl	800dcdc <memp_free>
 800cfec:	f04f 30ff 	mov.w	r0, #4294967295	; 0xffffffff
 800cff0:	bd70      	pop	{r4, r5, r6, pc}
 800cff2:	bf00      	nop
 800cff4:	20004088 	.word	0x20004088
 800cff8:	08014acc 	.word	0x08014acc
 800cffc:	08014abf 	.word	0x08014abf
 800d000:	08014a3b 	.word	0x08014a3b

0800d004 <tcpip_init>:
 800d004:	b537      	push	{r0, r1, r2, r4, r5, lr}
 800d006:	4605      	mov	r5, r0
 800d008:	460c      	mov	r4, r1
 800d00a:	f000 fb6e 	bl	800d6ea <lwip_init>
 800d00e:	4b12      	ldr	r3, [pc, #72]	; (800d058 <tcpip_init+0x54>)
 800d010:	2106      	movs	r1, #6
 800d012:	4812      	ldr	r0, [pc, #72]	; (800d05c <tcpip_init+0x58>)
 800d014:	601d      	str	r5, [r3, #0]
 800d016:	4b12      	ldr	r3, [pc, #72]	; (800d060 <tcpip_init+0x5c>)
 800d018:	601c      	str	r4, [r3, #0]
 800d01a:	f006 fc8d 	bl	8013938 <sys_mbox_new>
 800d01e:	b130      	cbz	r0, 800d02e <tcpip_init+0x2a>
 800d020:	4b10      	ldr	r3, [pc, #64]	; (800d064 <tcpip_init+0x60>)
 800d022:	f240 2261 	movw	r2, #609	; 0x261
 800d026:	4910      	ldr	r1, [pc, #64]	; (800d068 <tcpip_init+0x64>)
 800d028:	4810      	ldr	r0, [pc, #64]	; (800d06c <tcpip_init+0x68>)
 800d02a:	f006 fd5d 	bl	8013ae8 <iprintf>
 800d02e:	4810      	ldr	r0, [pc, #64]	; (800d070 <tcpip_init+0x6c>)
 800d030:	f006 fcd2 	bl	80139d8 <sys_mutex_new>
 800d034:	b130      	cbz	r0, 800d044 <tcpip_init+0x40>
 800d036:	4b0b      	ldr	r3, [pc, #44]	; (800d064 <tcpip_init+0x60>)
 800d038:	f240 2265 	movw	r2, #613	; 0x265
 800d03c:	490d      	ldr	r1, [pc, #52]	; (800d074 <tcpip_init+0x70>)
 800d03e:	480b      	ldr	r0, [pc, #44]	; (800d06c <tcpip_init+0x68>)
 800d040:	f006 fd52 	bl	8013ae8 <iprintf>
 800d044:	2200      	movs	r2, #0
 800d046:	f44f 6380 	mov.w	r3, #1024	; 0x400
 800d04a:	490b      	ldr	r1, [pc, #44]	; (800d078 <tcpip_init+0x74>)
 800d04c:	9200      	str	r2, [sp, #0]
 800d04e:	480b      	ldr	r0, [pc, #44]	; (800d07c <tcpip_init+0x78>)
 800d050:	f006 fcd9 	bl	8013a06 <sys_thread_new>
 800d054:	b003      	add	sp, #12
 800d056:	bd30      	pop	{r4, r5, pc}
 800d058:	20004080 	.word	0x20004080
 800d05c:	20004088 	.word	0x20004088
 800d060:	20004084 	.word	0x20004084
 800d064:	08014acc 	.word	0x08014acc
 800d068:	08014a6e 	.word	0x08014a6e
 800d06c:	08014a3b 	.word	0x08014a3b
 800d070:	20007c28 	.word	0x20007c28
 800d074:	08014a91 	.word	0x08014a91
 800d078:	0800ce69 	.word	0x0800ce69
 800d07c:	08014ab2 	.word	0x08014ab2

0800d080 <fs_open>:
 800d080:	b570      	push	{r4, r5, r6, lr}
 800d082:	460e      	mov	r6, r1
 800d084:	4605      	mov	r5, r0
 800d086:	b1a8      	cbz	r0, 800d0b4 <fs_open+0x34>
 800d088:	b1a1      	cbz	r1, 800d0b4 <fs_open+0x34>
 800d08a:	4c0c      	ldr	r4, [pc, #48]	; (800d0bc <fs_open+0x3c>)
 800d08c:	6861      	ldr	r1, [r4, #4]
 800d08e:	4630      	mov	r0, r6
 800d090:	f7fb f8d6 	bl	8008240 <strcmp>
 800d094:	b940      	cbnz	r0, 800d0a8 <fs_open+0x28>
 800d096:	68a3      	ldr	r3, [r4, #8]
 800d098:	602b      	str	r3, [r5, #0]
 800d09a:	68e3      	ldr	r3, [r4, #12]
 800d09c:	60e8      	str	r0, [r5, #12]
 800d09e:	e9c5 3301 	strd	r3, r3, [r5, #4]
 800d0a2:	7c23      	ldrb	r3, [r4, #16]
 800d0a4:	742b      	strb	r3, [r5, #16]
 800d0a6:	bd70      	pop	{r4, r5, r6, pc}
 800d0a8:	6824      	ldr	r4, [r4, #0]
 800d0aa:	2c00      	cmp	r4, #0
 800d0ac:	d1ee      	bne.n	800d08c <fs_open+0xc>
 800d0ae:	f06f 0005 	mvn.w	r0, #5
 800d0b2:	e7f8      	b.n	800d0a6 <fs_open+0x26>
 800d0b4:	f06f 000f 	mvn.w	r0, #15
 800d0b8:	e7f5      	b.n	800d0a6 <fs_open+0x26>
 800d0ba:	bf00      	nop
 800d0bc:	08025604 	.word	0x08025604

0800d0c0 <fs_close>:
 800d0c0:	4770      	bx	lr

0800d0c2 <fs_bytes_left>:
 800d0c2:	e9d0 2001 	ldrd	r2, r0, [r0, #4]
 800d0c6:	1a10      	subs	r0, r2, r0
 800d0c8:	4770      	bx	lr

0800d0ca <http_state_eof>:
 800d0ca:	b510      	push	{r4, lr}
 800d0cc:	4604      	mov	r4, r0
 800d0ce:	6940      	ldr	r0, [r0, #20]
 800d0d0:	b118      	cbz	r0, 800d0da <http_state_eof+0x10>
 800d0d2:	f7ff fff5 	bl	800d0c0 <fs_close>
 800d0d6:	2300      	movs	r3, #0
 800d0d8:	6163      	str	r3, [r4, #20]
 800d0da:	6a20      	ldr	r0, [r4, #32]
 800d0dc:	b118      	cbz	r0, 800d0e6 <http_state_eof+0x1c>
 800d0de:	f001 f881 	bl	800e1e4 <pbuf_free>
 800d0e2:	2300      	movs	r3, #0
 800d0e4:	6223      	str	r3, [r4, #32]
 800d0e6:	bd10      	pop	{r4, pc}

0800d0e8 <http_get_404_file>:
 800d0e8:	b538      	push	{r3, r4, r5, lr}
 800d0ea:	460d      	mov	r5, r1
 800d0ec:	490a      	ldr	r1, [pc, #40]	; (800d118 <http_get_404_file+0x30>)
 800d0ee:	4604      	mov	r4, r0
 800d0f0:	6029      	str	r1, [r5, #0]
 800d0f2:	f7ff ffc5 	bl	800d080 <fs_open>
 800d0f6:	b168      	cbz	r0, 800d114 <http_get_404_file+0x2c>
 800d0f8:	4908      	ldr	r1, [pc, #32]	; (800d11c <http_get_404_file+0x34>)
 800d0fa:	4620      	mov	r0, r4
 800d0fc:	6029      	str	r1, [r5, #0]
 800d0fe:	f7ff ffbf 	bl	800d080 <fs_open>
 800d102:	b138      	cbz	r0, 800d114 <http_get_404_file+0x2c>
 800d104:	4906      	ldr	r1, [pc, #24]	; (800d120 <http_get_404_file+0x38>)
 800d106:	4620      	mov	r0, r4
 800d108:	6029      	str	r1, [r5, #0]
 800d10a:	f7ff ffb9 	bl	800d080 <fs_open>
 800d10e:	b108      	cbz	r0, 800d114 <http_get_404_file+0x2c>
 800d110:	2400      	movs	r4, #0
 800d112:	602c      	str	r4, [r5, #0]
 800d114:	4620      	mov	r0, r4
 800d116:	bd38      	pop	{r3, r4, r5, pc}
 800d118:	0802562c 	.word	0x0802562c
 800d11c:	08025636 	.word	0x08025636
 800d120:	0802563f 	.word	0x0802563f

0800d124 <http_accept>:
 800d124:	b570      	push	{r4, r5, r6, lr}
 800d126:	460c      	mov	r4, r1
 800d128:	4615      	mov	r5, r2
 800d12a:	bb2a      	cbnz	r2, 800d178 <http_accept+0x54>
 800d12c:	b321      	cbz	r1, 800d178 <http_accept+0x54>
 800d12e:	2101      	movs	r1, #1
 800d130:	4620      	mov	r0, r4
 800d132:	f001 fcaf 	bl	800ea94 <tcp_setprio>
 800d136:	202c      	movs	r0, #44	; 0x2c
 800d138:	f000 fca8 	bl	800da8c <mem_malloc>
 800d13c:	4606      	mov	r6, r0
 800d13e:	b1f0      	cbz	r0, 800d17e <http_accept+0x5a>
 800d140:	222c      	movs	r2, #44	; 0x2c
 800d142:	4629      	mov	r1, r5
 800d144:	f006 fcc8 	bl	8013ad8 <memset>
 800d148:	4631      	mov	r1, r6
 800d14a:	4620      	mov	r0, r4
 800d14c:	61f4      	str	r4, [r6, #28]
 800d14e:	f001 fcd5 	bl	800eafc <tcp_arg>
 800d152:	490c      	ldr	r1, [pc, #48]	; (800d184 <http_accept+0x60>)
 800d154:	4620      	mov	r0, r4
 800d156:	f001 fcd5 	bl	800eb04 <tcp_recv>
 800d15a:	490b      	ldr	r1, [pc, #44]	; (800d188 <http_accept+0x64>)
 800d15c:	4620      	mov	r0, r4
 800d15e:	f001 fd01 	bl	800eb64 <tcp_err>
 800d162:	490a      	ldr	r1, [pc, #40]	; (800d18c <http_accept+0x68>)
 800d164:	4620      	mov	r0, r4
 800d166:	2204      	movs	r2, #4
 800d168:	f001 fd1a 	bl	800eba0 <tcp_poll>
 800d16c:	4908      	ldr	r1, [pc, #32]	; (800d190 <http_accept+0x6c>)
 800d16e:	4620      	mov	r0, r4
 800d170:	f001 fce0 	bl	800eb34 <tcp_sent>
 800d174:	4628      	mov	r0, r5
 800d176:	bd70      	pop	{r4, r5, r6, pc}
 800d178:	f06f 0505 	mvn.w	r5, #5
 800d17c:	e7fa      	b.n	800d174 <http_accept+0x50>
 800d17e:	f04f 35ff 	mov.w	r5, #4294967295	; 0xffffffff
 800d182:	e7f7      	b.n	800d174 <http_accept+0x50>
 800d184:	0800d2f9 	.word	0x0800d2f9
 800d188:	0800d609 	.word	0x0800d609
 800d18c:	0800d2bd 	.word	0x0800d2bd
 800d190:	0800d2a5 	.word	0x0800d2a5

0800d194 <http_close_conn>:
 800d194:	b538      	push	{r3, r4, r5, lr}
 800d196:	4604      	mov	r4, r0
 800d198:	460d      	mov	r5, r1
 800d19a:	2100      	movs	r1, #0
 800d19c:	f001 fcae 	bl	800eafc <tcp_arg>
 800d1a0:	2100      	movs	r1, #0
 800d1a2:	4620      	mov	r0, r4
 800d1a4:	f001 fcae 	bl	800eb04 <tcp_recv>
 800d1a8:	2100      	movs	r1, #0
 800d1aa:	4620      	mov	r0, r4
 800d1ac:	f001 fcda 	bl	800eb64 <tcp_err>
 800d1b0:	2200      	movs	r2, #0
 800d1b2:	4620      	mov	r0, r4
 800d1b4:	4611      	mov	r1, r2
 800d1b6:	f001 fcf3 	bl	800eba0 <tcp_poll>
 800d1ba:	2100      	movs	r1, #0
 800d1bc:	4620      	mov	r0, r4
 800d1be:	f001 fcb9 	bl	800eb34 <tcp_sent>
 800d1c2:	b12d      	cbz	r5, 800d1d0 <http_close_conn+0x3c>
 800d1c4:	4628      	mov	r0, r5
 800d1c6:	f7ff ff80 	bl	800d0ca <http_state_eof>
 800d1ca:	4628      	mov	r0, r5
 800d1cc:	f000 fad6 	bl	800d77c <mem_free>
 800d1d0:	4620      	mov	r0, r4
 800d1d2:	f002 f82d 	bl	800f230 <tcp_close>
 800d1d6:	4605      	mov	r5, r0
 800d1d8:	b120      	cbz	r0, 800d1e4 <http_close_conn+0x50>
 800d1da:	2204      	movs	r2, #4
 800d1dc:	4902      	ldr	r1, [pc, #8]	; (800d1e8 <http_close_conn+0x54>)
 800d1de:	4620      	mov	r0, r4
 800d1e0:	f001 fcde 	bl	800eba0 <tcp_poll>
 800d1e4:	4628      	mov	r0, r5
 800d1e6:	bd38      	pop	{r3, r4, r5, pc}
 800d1e8:	0800d2bd 	.word	0x0800d2bd

0800d1ec <http_send>:
 800d1ec:	b5f8      	push	{r3, r4, r5, r6, r7, lr}
 800d1ee:	4606      	mov	r6, r0
 800d1f0:	460d      	mov	r5, r1
 800d1f2:	b139      	cbz	r1, 800d204 <http_send+0x18>
 800d1f4:	6a4b      	ldr	r3, [r1, #36]	; 0x24
 800d1f6:	b99b      	cbnz	r3, 800d220 <http_send+0x34>
 800d1f8:	6948      	ldr	r0, [r1, #20]
 800d1fa:	b930      	cbnz	r0, 800d20a <http_send+0x1e>
 800d1fc:	4629      	mov	r1, r5
 800d1fe:	4630      	mov	r0, r6
 800d200:	f7ff ffc8 	bl	800d194 <http_close_conn>
 800d204:	2400      	movs	r4, #0
 800d206:	4620      	mov	r0, r4
 800d208:	bdf8      	pop	{r3, r4, r5, r6, r7, pc}
 800d20a:	f7ff ff5a 	bl	800d0c2 <fs_bytes_left>
 800d20e:	2800      	cmp	r0, #0
 800d210:	ddf4      	ble.n	800d1fc <http_send+0x10>
 800d212:	4b21      	ldr	r3, [pc, #132]	; (800d298 <http_send+0xac>)
 800d214:	f240 429d 	movw	r2, #1181	; 0x49d
 800d218:	4920      	ldr	r1, [pc, #128]	; (800d29c <http_send+0xb0>)
 800d21a:	4821      	ldr	r0, [pc, #132]	; (800d2a0 <http_send+0xb4>)
 800d21c:	f006 fc64 	bl	8013ae8 <iprintf>
 800d220:	6a6c      	ldr	r4, [r5, #36]	; 0x24
 800d222:	f64f 73fe 	movw	r3, #65534	; 0xfffe
 800d226:	429c      	cmp	r4, r3
 800d228:	d821      	bhi.n	800d26e <http_send+0x82>
 800d22a:	b2a3      	uxth	r3, r4
 800d22c:	b324      	cbz	r4, 800d278 <http_send+0x8c>
 800d22e:	8e74      	ldrh	r4, [r6, #50]	; 0x32
 800d230:	f8b6 2064 	ldrh.w	r2, [r6, #100]	; 0x64
 800d234:	0064      	lsls	r4, r4, #1
 800d236:	69af      	ldr	r7, [r5, #24]
 800d238:	b2a4      	uxth	r4, r4
 800d23a:	4294      	cmp	r4, r2
 800d23c:	bf28      	it	cs
 800d23e:	4614      	movcs	r4, r2
 800d240:	429c      	cmp	r4, r3
 800d242:	bf28      	it	cs
 800d244:	461c      	movcs	r4, r3
 800d246:	2300      	movs	r3, #0
 800d248:	4622      	mov	r2, r4
 800d24a:	4639      	mov	r1, r7
 800d24c:	4630      	mov	r0, r6
 800d24e:	f003 ff4b 	bl	80110e8 <tcp_write>
 800d252:	1c43      	adds	r3, r0, #1
 800d254:	d10e      	bne.n	800d274 <http_send+0x88>
 800d256:	f8b6 3064 	ldrh.w	r3, [r6, #100]	; 0x64
 800d25a:	b133      	cbz	r3, 800d26a <http_send+0x7e>
 800d25c:	f8b6 3066 	ldrh.w	r3, [r6, #102]	; 0x66
 800d260:	2b08      	cmp	r3, #8
 800d262:	d802      	bhi.n	800d26a <http_send+0x7e>
 800d264:	0864      	lsrs	r4, r4, #1
 800d266:	2c01      	cmp	r4, #1
 800d268:	d8ed      	bhi.n	800d246 <http_send+0x5a>
 800d26a:	2400      	movs	r4, #0
 800d26c:	e00b      	b.n	800d286 <http_send+0x9a>
 800d26e:	f64f 73ff 	movw	r3, #65535	; 0xffff
 800d272:	e7dc      	b.n	800d22e <http_send+0x42>
 800d274:	2800      	cmp	r0, #0
 800d276:	d1f8      	bne.n	800d26a <http_send+0x7e>
 800d278:	69ab      	ldr	r3, [r5, #24]
 800d27a:	4423      	add	r3, r4
 800d27c:	61ab      	str	r3, [r5, #24]
 800d27e:	6a6b      	ldr	r3, [r5, #36]	; 0x24
 800d280:	1b1c      	subs	r4, r3, r4
 800d282:	626c      	str	r4, [r5, #36]	; 0x24
 800d284:	2401      	movs	r4, #1
 800d286:	6a6b      	ldr	r3, [r5, #36]	; 0x24
 800d288:	2b00      	cmp	r3, #0
 800d28a:	d1bc      	bne.n	800d206 <http_send+0x1a>
 800d28c:	6968      	ldr	r0, [r5, #20]
 800d28e:	f7ff ff18 	bl	800d0c2 <fs_bytes_left>
 800d292:	2800      	cmp	r0, #0
 800d294:	dcb7      	bgt.n	800d206 <http_send+0x1a>
 800d296:	e7b1      	b.n	800d1fc <http_send+0x10>
 800d298:	080256ae 	.word	0x080256ae
 800d29c:	080256e4 	.word	0x080256e4
 800d2a0:	08014a3b 	.word	0x08014a3b

0800d2a4 <http_sent>:
 800d2a4:	b508      	push	{r3, lr}
 800d2a6:	460b      	mov	r3, r1
 800d2a8:	4601      	mov	r1, r0
 800d2aa:	b128      	cbz	r0, 800d2b8 <http_sent+0x14>
 800d2ac:	2200      	movs	r2, #0
 800d2ae:	f880 2028 	strb.w	r2, [r0, #40]	; 0x28
 800d2b2:	4618      	mov	r0, r3
 800d2b4:	f7ff ff9a 	bl	800d1ec <http_send>
 800d2b8:	2000      	movs	r0, #0
 800d2ba:	bd08      	pop	{r3, pc}

0800d2bc <http_poll>:
 800d2bc:	b510      	push	{r4, lr}
 800d2be:	460c      	mov	r4, r1
 800d2c0:	4601      	mov	r1, r0
 800d2c2:	b920      	cbnz	r0, 800d2ce <http_poll+0x12>
 800d2c4:	4620      	mov	r0, r4
 800d2c6:	f7ff ff65 	bl	800d194 <http_close_conn>
 800d2ca:	2000      	movs	r0, #0
 800d2cc:	bd10      	pop	{r4, pc}
 800d2ce:	f890 3028 	ldrb.w	r3, [r0, #40]	; 0x28
 800d2d2:	3301      	adds	r3, #1
 800d2d4:	b2db      	uxtb	r3, r3
 800d2d6:	2b04      	cmp	r3, #4
 800d2d8:	f880 3028 	strb.w	r3, [r0, #40]	; 0x28
 800d2dc:	d0f2      	beq.n	800d2c4 <http_poll+0x8>
 800d2de:	6943      	ldr	r3, [r0, #20]
 800d2e0:	2b00      	cmp	r3, #0
 800d2e2:	d0f2      	beq.n	800d2ca <http_poll+0xe>
 800d2e4:	4620      	mov	r0, r4
 800d2e6:	f7ff ff81 	bl	800d1ec <http_send>
 800d2ea:	2800      	cmp	r0, #0
 800d2ec:	d0ed      	beq.n	800d2ca <http_poll+0xe>
 800d2ee:	4620      	mov	r0, r4
 800d2f0:	f004 fc52 	bl	8011b98 <tcp_output>
 800d2f4:	e7e9      	b.n	800d2ca <http_poll+0xe>
	...

0800d2f8 <http_recv>:
 800d2f8:	e92d 4ff0 	stmdb	sp!, {r4, r5, r6, r7, r8, r9, sl, fp, lr}
 800d2fc:	4604      	mov	r4, r0
 800d2fe:	b087      	sub	sp, #28
 800d300:	468b      	mov	fp, r1
 800d302:	4615      	mov	r5, r2
 800d304:	4698      	mov	r8, r3
 800d306:	b94b      	cbnz	r3, 800d31c <http_recv+0x24>
 800d308:	b152      	cbz	r2, 800d320 <http_recv+0x28>
 800d30a:	b988      	cbnz	r0, 800d330 <http_recv+0x38>
 800d30c:	4658      	mov	r0, fp
 800d30e:	8929      	ldrh	r1, [r5, #8]
 800d310:	f001 fb6e 	bl	800e9f0 <tcp_recved>
 800d314:	4628      	mov	r0, r5
 800d316:	f000 ff65 	bl	800e1e4 <pbuf_free>
 800d31a:	e001      	b.n	800d320 <http_recv+0x28>
 800d31c:	2a00      	cmp	r2, #0
 800d31e:	d1f5      	bne.n	800d30c <http_recv+0x14>
 800d320:	4621      	mov	r1, r4
 800d322:	4658      	mov	r0, fp
 800d324:	f7ff ff36 	bl	800d194 <http_close_conn>
 800d328:	2000      	movs	r0, #0
 800d32a:	b007      	add	sp, #28
 800d32c:	e8bd 8ff0 	ldmia.w	sp!, {r4, r5, r6, r7, r8, r9, sl, fp, pc}
 800d330:	8911      	ldrh	r1, [r2, #8]
 800d332:	4658      	mov	r0, fp
 800d334:	f001 fb5c 	bl	800e9f0 <tcp_recved>
 800d338:	6963      	ldr	r3, [r4, #20]
 800d33a:	2b00      	cmp	r3, #0
 800d33c:	f040 8140 	bne.w	800d5c0 <http_recv+0x2c8>
 800d340:	69a3      	ldr	r3, [r4, #24]
 800d342:	6a20      	ldr	r0, [r4, #32]
 800d344:	2b00      	cmp	r3, #0
 800d346:	f040 813f 	bne.w	800d5c8 <http_recv+0x2d0>
 800d34a:	2800      	cmp	r0, #0
 800d34c:	f040 8096 	bne.w	800d47c <http_recv+0x184>
 800d350:	6225      	str	r5, [r4, #32]
 800d352:	4628      	mov	r0, r5
 800d354:	f001 f8a0 	bl	800e498 <pbuf_ref>
 800d358:	6a20      	ldr	r0, [r4, #32]
 800d35a:	6803      	ldr	r3, [r0, #0]
 800d35c:	2b00      	cmp	r3, #0
 800d35e:	f000 8091 	beq.w	800d484 <http_recv+0x18c>
 800d362:	f8b0 a008 	ldrh.w	sl, [r0, #8]
 800d366:	f240 33ff 	movw	r3, #1023	; 0x3ff
 800d36a:	f8df 926c 	ldr.w	r9, [pc, #620]	; 800d5d8 <http_recv+0x2e0>
 800d36e:	459a      	cmp	sl, r3
 800d370:	4999      	ldr	r1, [pc, #612]	; (800d5d8 <http_recv+0x2e0>)
 800d372:	bf28      	it	cs
 800d374:	469a      	movcs	sl, r3
 800d376:	2300      	movs	r3, #0
 800d378:	4652      	mov	r2, sl
 800d37a:	f001 f965 	bl	800e648 <pbuf_copy_partial>
 800d37e:	f1ba 0f06 	cmp.w	sl, #6
 800d382:	f240 8109 	bls.w	800d598 <http_recv+0x2a0>
 800d386:	4652      	mov	r2, sl
 800d388:	4994      	ldr	r1, [pc, #592]	; (800d5dc <http_recv+0x2e4>)
 800d38a:	4648      	mov	r0, r9
 800d38c:	f000 f98d 	bl	800d6aa <lwip_strnstr>
 800d390:	2800      	cmp	r0, #0
 800d392:	f000 8101 	beq.w	800d598 <http_recv+0x2a0>
 800d396:	2204      	movs	r2, #4
 800d398:	4991      	ldr	r1, [pc, #580]	; (800d5e0 <http_recv+0x2e8>)
 800d39a:	4648      	mov	r0, r9
 800d39c:	f006 fbfd 	bl	8013b9a <strncmp>
 800d3a0:	9001      	str	r0, [sp, #4]
 800d3a2:	2800      	cmp	r0, #0
 800d3a4:	d173      	bne.n	800d48e <http_recv+0x196>
 800d3a6:	f1aa 0304 	sub.w	r3, sl, #4
 800d3aa:	f109 0604 	add.w	r6, r9, #4
 800d3ae:	498d      	ldr	r1, [pc, #564]	; (800d5e4 <http_recv+0x2ec>)
 800d3b0:	b29b      	uxth	r3, r3
 800d3b2:	4630      	mov	r0, r6
 800d3b4:	461a      	mov	r2, r3
 800d3b6:	9302      	str	r3, [sp, #8]
 800d3b8:	f000 f977 	bl	800d6aa <lwip_strnstr>
 800d3bc:	9b02      	ldr	r3, [sp, #8]
 800d3be:	4607      	mov	r7, r0
 800d3c0:	b950      	cbnz	r0, 800d3d8 <http_recv+0xe0>
 800d3c2:	461a      	mov	r2, r3
 800d3c4:	4985      	ldr	r1, [pc, #532]	; (800d5dc <http_recv+0x2e4>)
 800d3c6:	4630      	mov	r0, r6
 800d3c8:	f000 f96f 	bl	800d6aa <lwip_strnstr>
 800d3cc:	4607      	mov	r7, r0
 800d3ce:	2800      	cmp	r0, #0
 800d3d0:	f000 80e2 	beq.w	800d598 <http_recv+0x2a0>
 800d3d4:	2301      	movs	r3, #1
 800d3d6:	9301      	str	r3, [sp, #4]
 800d3d8:	f109 0303 	add.w	r3, r9, #3
 800d3dc:	429f      	cmp	r7, r3
 800d3de:	f240 80db 	bls.w	800d598 <http_recv+0x2a0>
 800d3e2:	4652      	mov	r2, sl
 800d3e4:	4980      	ldr	r1, [pc, #512]	; (800d5e8 <http_recv+0x2f0>)
 800d3e6:	4648      	mov	r0, r9
 800d3e8:	f000 f95f 	bl	800d6aa <lwip_strnstr>
 800d3ec:	2800      	cmp	r0, #0
 800d3ee:	f000 80d3 	beq.w	800d598 <http_recv+0x2a0>
 800d3f2:	1bbf      	subs	r7, r7, r6
 800d3f4:	2300      	movs	r3, #0
 800d3f6:	4630      	mov	r0, r6
 800d3f8:	b2bf      	uxth	r7, r7
 800d3fa:	f889 3003 	strb.w	r3, [r9, #3]
 800d3fe:	55f3      	strb	r3, [r6, r7]
 800d400:	9605      	str	r6, [sp, #20]
 800d402:	f7fa ff27 	bl	8008254 <strlen>
 800d406:	4681      	mov	r9, r0
 800d408:	2800      	cmp	r0, #0
 800d40a:	f000 80a3 	beq.w	800d554 <http_recv+0x25c>
 800d40e:	1e47      	subs	r7, r0, #1
 800d410:	5df3      	ldrb	r3, [r6, r7]
 800d412:	2b2f      	cmp	r3, #47	; 0x2f
 800d414:	f040 809e 	bne.w	800d554 <http_recv+0x25c>
 800d418:	4b74      	ldr	r3, [pc, #464]	; (800d5ec <http_recv+0x2f4>)
 800d41a:	429e      	cmp	r6, r3
 800d41c:	9302      	str	r3, [sp, #8]
 800d41e:	d102      	bne.n	800d426 <http_recv+0x12e>
 800d420:	2801      	cmp	r0, #1
 800d422:	f040 8097 	bne.w	800d554 <http_recv+0x25c>
 800d426:	2f3f      	cmp	r7, #63	; 0x3f
 800d428:	bf28      	it	cs
 800d42a:	273f      	movcs	r7, #63	; 0x3f
 800d42c:	f1b9 0f01 	cmp.w	r9, #1
 800d430:	d007      	beq.n	800d442 <http_recv+0x14a>
 800d432:	463a      	mov	r2, r7
 800d434:	4631      	mov	r1, r6
 800d436:	486d      	ldr	r0, [pc, #436]	; (800d5ec <http_recv+0x2f4>)
 800d438:	f006 fb43 	bl	8013ac2 <memcpy>
 800d43c:	2300      	movs	r3, #0
 800d43e:	9a02      	ldr	r2, [sp, #8]
 800d440:	55d3      	strb	r3, [r2, r7]
 800d442:	f04f 0a00 	mov.w	sl, #0
 800d446:	f1b9 0f01 	cmp.w	r9, #1
 800d44a:	d026      	beq.n	800d49a <http_recv+0x1a2>
 800d44c:	f1d7 063f 	rsbs	r6, r7, #63	; 0x3f
 800d450:	d012      	beq.n	800d478 <http_recv+0x180>
 800d452:	4b67      	ldr	r3, [pc, #412]	; (800d5f0 <http_recv+0x2f8>)
 800d454:	f853 103a 	ldr.w	r1, [r3, sl, lsl #3]
 800d458:	4608      	mov	r0, r1
 800d45a:	9103      	str	r1, [sp, #12]
 800d45c:	f7fa fefa 	bl	8008254 <strlen>
 800d460:	9b02      	ldr	r3, [sp, #8]
 800d462:	4286      	cmp	r6, r0
 800d464:	9903      	ldr	r1, [sp, #12]
 800d466:	443b      	add	r3, r7
 800d468:	bf28      	it	cs
 800d46a:	4606      	movcs	r6, r0
 800d46c:	4618      	mov	r0, r3
 800d46e:	4632      	mov	r2, r6
 800d470:	f006 fb27 	bl	8013ac2 <memcpy>
 800d474:	2200      	movs	r2, #0
 800d476:	5582      	strb	r2, [r0, r6]
 800d478:	4b5c      	ldr	r3, [pc, #368]	; (800d5ec <http_recv+0x2f4>)
 800d47a:	e011      	b.n	800d4a0 <http_recv+0x1a8>
 800d47c:	4629      	mov	r1, r5
 800d47e:	f001 f827 	bl	800e4d0 <pbuf_cat>
 800d482:	e766      	b.n	800d352 <http_recv+0x5a>
 800d484:	f8d5 9004 	ldr.w	r9, [r5, #4]
 800d488:	f8b5 a00a 	ldrh.w	sl, [r5, #10]
 800d48c:	e777      	b.n	800d37e <http_recv+0x86>
 800d48e:	2300      	movs	r3, #0
 800d490:	f889 3004 	strb.w	r3, [r9, #4]
 800d494:	f06f 080f 	mvn.w	r8, #15
 800d498:	e045      	b.n	800d526 <http_recv+0x22e>
 800d49a:	4b55      	ldr	r3, [pc, #340]	; (800d5f0 <http_recv+0x2f8>)
 800d49c:	f853 303a 	ldr.w	r3, [r3, sl, lsl #3]
 800d4a0:	4619      	mov	r1, r3
 800d4a2:	4620      	mov	r0, r4
 800d4a4:	9303      	str	r3, [sp, #12]
 800d4a6:	4626      	mov	r6, r4
 800d4a8:	f7ff fdea 	bl	800d080 <fs_open>
 800d4ac:	9b03      	ldr	r3, [sp, #12]
 800d4ae:	2800      	cmp	r0, #0
 800d4b0:	d14a      	bne.n	800d548 <http_recv+0x250>
 800d4b2:	9305      	str	r3, [sp, #20]
 800d4b4:	6833      	ldr	r3, [r6, #0]
 800d4b6:	b933      	cbnz	r3, 800d4c6 <http_recv+0x1ce>
 800d4b8:	4b4e      	ldr	r3, [pc, #312]	; (800d5f4 <http_recv+0x2fc>)
 800d4ba:	f640 120b 	movw	r2, #2315	; 0x90b
 800d4be:	494e      	ldr	r1, [pc, #312]	; (800d5f8 <http_recv+0x300>)
 800d4c0:	484e      	ldr	r0, [pc, #312]	; (800d5fc <http_recv+0x304>)
 800d4c2:	f006 fb11 	bl	8013ae8 <iprintf>
 800d4c6:	6833      	ldr	r3, [r6, #0]
 800d4c8:	6166      	str	r6, [r4, #20]
 800d4ca:	61a3      	str	r3, [r4, #24]
 800d4cc:	6873      	ldr	r3, [r6, #4]
 800d4ce:	2b00      	cmp	r3, #0
 800d4d0:	da06      	bge.n	800d4e0 <http_recv+0x1e8>
 800d4d2:	4b48      	ldr	r3, [pc, #288]	; (800d5f4 <http_recv+0x2fc>)
 800d4d4:	f640 1234 	movw	r2, #2356	; 0x934
 800d4d8:	4949      	ldr	r1, [pc, #292]	; (800d600 <http_recv+0x308>)
 800d4da:	4848      	ldr	r0, [pc, #288]	; (800d5fc <http_recv+0x304>)
 800d4dc:	f006 fb04 	bl	8013ae8 <iprintf>
 800d4e0:	6873      	ldr	r3, [r6, #4]
 800d4e2:	6263      	str	r3, [r4, #36]	; 0x24
 800d4e4:	2300      	movs	r3, #0
 800d4e6:	f884 3028 	strb.w	r3, [r4, #40]	; 0x28
 800d4ea:	6963      	ldr	r3, [r4, #20]
 800d4ec:	7c1b      	ldrb	r3, [r3, #16]
 800d4ee:	07da      	lsls	r2, r3, #31
 800d4f0:	d46d      	bmi.n	800d5ce <http_recv+0x2d6>
 800d4f2:	4b40      	ldr	r3, [pc, #256]	; (800d5f4 <http_recv+0x2fc>)
 800d4f4:	f640 1244 	movw	r2, #2372	; 0x944
 800d4f8:	4942      	ldr	r1, [pc, #264]	; (800d604 <http_recv+0x30c>)
 800d4fa:	4840      	ldr	r0, [pc, #256]	; (800d5fc <http_recv+0x304>)
 800d4fc:	f006 faf4 	bl	8013ae8 <iprintf>
 800d500:	9b01      	ldr	r3, [sp, #4]
 800d502:	b183      	cbz	r3, 800d526 <http_recv+0x22e>
 800d504:	6963      	ldr	r3, [r4, #20]
 800d506:	7c1b      	ldrb	r3, [r3, #16]
 800d508:	07db      	lsls	r3, r3, #31
 800d50a:	d50c      	bpl.n	800d526 <http_recv+0x22e>
 800d50c:	6a62      	ldr	r2, [r4, #36]	; 0x24
 800d50e:	4936      	ldr	r1, [pc, #216]	; (800d5e8 <http_recv+0x2f0>)
 800d510:	69a0      	ldr	r0, [r4, #24]
 800d512:	f000 f8ca 	bl	800d6aa <lwip_strnstr>
 800d516:	b130      	cbz	r0, 800d526 <http_recv+0x22e>
 800d518:	69a3      	ldr	r3, [r4, #24]
 800d51a:	3004      	adds	r0, #4
 800d51c:	1ac2      	subs	r2, r0, r3
 800d51e:	6a63      	ldr	r3, [r4, #36]	; 0x24
 800d520:	61a0      	str	r0, [r4, #24]
 800d522:	1a9b      	subs	r3, r3, r2
 800d524:	6263      	str	r3, [r4, #36]	; 0x24
 800d526:	6a20      	ldr	r0, [r4, #32]
 800d528:	b118      	cbz	r0, 800d532 <http_recv+0x23a>
 800d52a:	f000 fe5b 	bl	800e1e4 <pbuf_free>
 800d52e:	2300      	movs	r3, #0
 800d530:	6223      	str	r3, [r4, #32]
 800d532:	4628      	mov	r0, r5
 800d534:	f000 fe56 	bl	800e1e4 <pbuf_free>
 800d538:	f1b8 0f00 	cmp.w	r8, #0
 800d53c:	d13b      	bne.n	800d5b6 <http_recv+0x2be>
 800d53e:	4621      	mov	r1, r4
 800d540:	4658      	mov	r0, fp
 800d542:	f7ff fe53 	bl	800d1ec <http_send>
 800d546:	e6ef      	b.n	800d328 <http_recv+0x30>
 800d548:	f10a 0a01 	add.w	sl, sl, #1
 800d54c:	f1ba 0f05 	cmp.w	sl, #5
 800d550:	f47f af79 	bne.w	800d446 <http_recv+0x14e>
 800d554:	213f      	movs	r1, #63	; 0x3f
 800d556:	9805      	ldr	r0, [sp, #20]
 800d558:	f006 fb12 	bl	8013b80 <strchr>
 800d55c:	b108      	cbz	r0, 800d562 <http_recv+0x26a>
 800d55e:	2300      	movs	r3, #0
 800d560:	7003      	strb	r3, [r0, #0]
 800d562:	9905      	ldr	r1, [sp, #20]
 800d564:	4620      	mov	r0, r4
 800d566:	4626      	mov	r6, r4
 800d568:	f7ff fd8a 	bl	800d080 <fs_open>
 800d56c:	2800      	cmp	r0, #0
 800d56e:	d0a1      	beq.n	800d4b4 <http_recv+0x1bc>
 800d570:	a905      	add	r1, sp, #20
 800d572:	4620      	mov	r0, r4
 800d574:	f7ff fdb8 	bl	800d0e8 <http_get_404_file>
 800d578:	4606      	mov	r6, r0
 800d57a:	2800      	cmp	r0, #0
 800d57c:	d19a      	bne.n	800d4b4 <http_recv+0x1bc>
 800d57e:	a905      	add	r1, sp, #20
 800d580:	4620      	mov	r0, r4
 800d582:	f7ff fdb1 	bl	800d0e8 <http_get_404_file>
 800d586:	4606      	mov	r6, r0
 800d588:	2800      	cmp	r0, #0
 800d58a:	d193      	bne.n	800d4b4 <http_recv+0x1bc>
 800d58c:	6260      	str	r0, [r4, #36]	; 0x24
 800d58e:	f884 0028 	strb.w	r0, [r4, #40]	; 0x28
 800d592:	e9c4 0005 	strd	r0, r0, [r4, #20]
 800d596:	e7c6      	b.n	800d526 <http_recv+0x22e>
 800d598:	6a20      	ldr	r0, [r4, #32]
 800d59a:	f000 ff75 	bl	800e488 <pbuf_clen>
 800d59e:	6a23      	ldr	r3, [r4, #32]
 800d5a0:	891b      	ldrh	r3, [r3, #8]
 800d5a2:	f5b3 6f80 	cmp.w	r3, #1024	; 0x400
 800d5a6:	f4bf af75 	bcs.w	800d494 <http_recv+0x19c>
 800d5aa:	2805      	cmp	r0, #5
 800d5ac:	f63f af72 	bhi.w	800d494 <http_recv+0x19c>
 800d5b0:	f06f 0804 	mvn.w	r8, #4
 800d5b4:	e7bd      	b.n	800d532 <http_recv+0x23a>
 800d5b6:	f118 0f10 	cmn.w	r8, #16
 800d5ba:	f47f aeb5 	bne.w	800d328 <http_recv+0x30>
 800d5be:	e6af      	b.n	800d320 <http_recv+0x28>
 800d5c0:	4628      	mov	r0, r5
 800d5c2:	f000 fe0f 	bl	800e1e4 <pbuf_free>
 800d5c6:	e6af      	b.n	800d328 <http_recv+0x30>
 800d5c8:	f06f 0807 	mvn.w	r8, #7
 800d5cc:	e7ab      	b.n	800d526 <http_recv+0x22e>
 800d5ce:	9b01      	ldr	r3, [sp, #4]
 800d5d0:	2b00      	cmp	r3, #0
 800d5d2:	d0a8      	beq.n	800d526 <http_recv+0x22e>
 800d5d4:	e79a      	b.n	800d50c <http_recv+0x214>
 800d5d6:	bf00      	nop
 800d5d8:	200040cc 	.word	0x200040cc
 800d5dc:	08025651 	.word	0x08025651
 800d5e0:	0802564a 	.word	0x0802564a
 800d5e4:	0802774c 	.word	0x0802774c
 800d5e8:	0802564f 	.word	0x0802564f
 800d5ec:	2000408c 	.word	0x2000408c
 800d5f0:	0802571c 	.word	0x0802571c
 800d5f4:	080256ae 	.word	0x080256ae
 800d5f8:	08025654 	.word	0x08025654
 800d5fc:	08014a3b 	.word	0x08014a3b
 800d600:	08025667 	.word	0x08025667
 800d604:	08025685 	.word	0x08025685

0800d608 <http_err>:
 800d608:	b510      	push	{r4, lr}
 800d60a:	4604      	mov	r4, r0
 800d60c:	b130      	cbz	r0, 800d61c <http_err+0x14>
 800d60e:	f7ff fd5c 	bl	800d0ca <http_state_eof>
 800d612:	4620      	mov	r0, r4
 800d614:	e8bd 4010 	ldmia.w	sp!, {r4, lr}
 800d618:	f000 b8b0 	b.w	800d77c <mem_free>
 800d61c:	bd10      	pop	{r4, pc}
	...

0800d620 <httpd_init>:
 800d620:	b510      	push	{r4, lr}
 800d622:	202e      	movs	r0, #46	; 0x2e
 800d624:	f001 fd50 	bl	800f0c8 <tcp_new_ip_type>
 800d628:	4604      	mov	r4, r0
 800d62a:	b940      	cbnz	r0, 800d63e <httpd_init+0x1e>
 800d62c:	4b15      	ldr	r3, [pc, #84]	; (800d684 <httpd_init+0x64>)
 800d62e:	f640 2272 	movw	r2, #2674	; 0xa72
 800d632:	4915      	ldr	r1, [pc, #84]	; (800d688 <httpd_init+0x68>)
 800d634:	4815      	ldr	r0, [pc, #84]	; (800d68c <httpd_init+0x6c>)
 800d636:	e8bd 4010 	ldmia.w	sp!, {r4, lr}
 800d63a:	f006 ba55 	b.w	8013ae8 <iprintf>
 800d63e:	2101      	movs	r1, #1
 800d640:	f001 fa28 	bl	800ea94 <tcp_setprio>
 800d644:	2250      	movs	r2, #80	; 0x50
 800d646:	4912      	ldr	r1, [pc, #72]	; (800d690 <httpd_init+0x70>)
 800d648:	4620      	mov	r0, r4
 800d64a:	f001 f8db 	bl	800e804 <tcp_bind>
 800d64e:	b130      	cbz	r0, 800d65e <httpd_init+0x3e>
 800d650:	4b0c      	ldr	r3, [pc, #48]	; (800d684 <httpd_init+0x64>)
 800d652:	f640 2257 	movw	r2, #2647	; 0xa57
 800d656:	490f      	ldr	r1, [pc, #60]	; (800d694 <httpd_init+0x74>)
 800d658:	480c      	ldr	r0, [pc, #48]	; (800d68c <httpd_init+0x6c>)
 800d65a:	f006 fa45 	bl	8013ae8 <iprintf>
 800d65e:	4620      	mov	r0, r4
 800d660:	21ff      	movs	r1, #255	; 0xff
 800d662:	f001 f98b 	bl	800e97c <tcp_listen_with_backlog>
 800d666:	4604      	mov	r4, r0
 800d668:	b930      	cbnz	r0, 800d678 <httpd_init+0x58>
 800d66a:	4b06      	ldr	r3, [pc, #24]	; (800d684 <httpd_init+0x64>)
 800d66c:	f640 2259 	movw	r2, #2649	; 0xa59
 800d670:	4909      	ldr	r1, [pc, #36]	; (800d698 <httpd_init+0x78>)
 800d672:	4806      	ldr	r0, [pc, #24]	; (800d68c <httpd_init+0x6c>)
 800d674:	f006 fa38 	bl	8013ae8 <iprintf>
 800d678:	4620      	mov	r0, r4
 800d67a:	4908      	ldr	r1, [pc, #32]	; (800d69c <httpd_init+0x7c>)
 800d67c:	e8bd 4010 	ldmia.w	sp!, {r4, lr}
 800d680:	f001 ba88 	b.w	800eb94 <tcp_accept>
 800d684:	080256ae 	.word	0x080256ae
 800d688:	08025744 	.word	0x08025744
 800d68c:	08014a3b 	.word	0x08014a3b
 800d690:	080274a0 	.word	0x080274a0
 800d694:	0802575f 	.word	0x0802575f
 800d698:	0802577b 	.word	0x0802577b
 800d69c:	0800d125 	.word	0x0800d125

0800d6a0 <lwip_htons>:
 800d6a0:	ba40      	rev16	r0, r0
 800d6a2:	b280      	uxth	r0, r0
 800d6a4:	4770      	bx	lr

0800d6a6 <lwip_htonl>:
 800d6a6:	ba00      	rev	r0, r0
 800d6a8:	4770      	bx	lr

0800d6aa <lwip_strnstr>:
 800d6aa:	b5f8      	push	{r3, r4, r5, r6, r7, lr}
 800d6ac:	4604      	mov	r4, r0
 800d6ae:	4608      	mov	r0, r1
 800d6b0:	460f      	mov	r7, r1
 800d6b2:	4615      	mov	r5, r2
 800d6b4:	f7fa fdce 	bl	8008254 <strlen>
 800d6b8:	4606      	mov	r6, r0
 800d6ba:	b130      	cbz	r0, 800d6ca <lwip_strnstr+0x20>
 800d6bc:	4425      	add	r5, r4
 800d6be:	7823      	ldrb	r3, [r4, #0]
 800d6c0:	b18b      	cbz	r3, 800d6e6 <lwip_strnstr+0x3c>
 800d6c2:	19a2      	adds	r2, r4, r6
 800d6c4:	4295      	cmp	r5, r2
 800d6c6:	d202      	bcs.n	800d6ce <lwip_strnstr+0x24>
 800d6c8:	2400      	movs	r4, #0
 800d6ca:	4620      	mov	r0, r4
 800d6cc:	bdf8      	pop	{r3, r4, r5, r6, r7, pc}
 800d6ce:	783a      	ldrb	r2, [r7, #0]
 800d6d0:	429a      	cmp	r2, r3
 800d6d2:	d106      	bne.n	800d6e2 <lwip_strnstr+0x38>
 800d6d4:	4632      	mov	r2, r6
 800d6d6:	4639      	mov	r1, r7
 800d6d8:	4620      	mov	r0, r4
 800d6da:	f006 fa5e 	bl	8013b9a <strncmp>
 800d6de:	2800      	cmp	r0, #0
 800d6e0:	d0f3      	beq.n	800d6ca <lwip_strnstr+0x20>
 800d6e2:	3401      	adds	r4, #1
 800d6e4:	e7eb      	b.n	800d6be <lwip_strnstr+0x14>
 800d6e6:	461c      	mov	r4, r3
 800d6e8:	e7ef      	b.n	800d6ca <lwip_strnstr+0x20>

0800d6ea <lwip_init>:
 800d6ea:	b508      	push	{r3, lr}
 800d6ec:	f006 f968 	bl	80139c0 <sys_init>
 800d6f0:	f000 f80c 	bl	800d70c <mem_init>
 800d6f4:	f000 fac8 	bl	800dc88 <memp_init>
 800d6f8:	f000 fb60 	bl	800ddbc <netif_init>
 800d6fc:	f004 fda4 	bl	8012248 <udp_init>
 800d700:	f001 f85c 	bl	800e7bc <tcp_init>
 800d704:	e8bd 4008 	ldmia.w	sp!, {r3, lr}
 800d708:	f004 bd52 	b.w	80121b0 <sys_timeouts_init>

0800d70c <mem_init>:
 800d70c:	4b12      	ldr	r3, [pc, #72]	; (800d758 <mem_init+0x4c>)
 800d70e:	4a13      	ldr	r2, [pc, #76]	; (800d75c <mem_init+0x50>)
 800d710:	f023 0303 	bic.w	r3, r3, #3
 800d714:	4812      	ldr	r0, [pc, #72]	; (800d760 <mem_init+0x54>)
 800d716:	b510      	push	{r4, lr}
 800d718:	6013      	str	r3, [r2, #0]
 800d71a:	f44f 62c8 	mov.w	r2, #1600	; 0x640
 800d71e:	f503 61c8 	add.w	r1, r3, #1600	; 0x640
 800d722:	601a      	str	r2, [r3, #0]
 800d724:	2200      	movs	r2, #0
 800d726:	711a      	strb	r2, [r3, #4]
 800d728:	4a0e      	ldr	r2, [pc, #56]	; (800d764 <mem_init+0x58>)
 800d72a:	6011      	str	r1, [r2, #0]
 800d72c:	4a0e      	ldr	r2, [pc, #56]	; (800d768 <mem_init+0x5c>)
 800d72e:	f8c3 2640 	str.w	r2, [r3, #1600]	; 0x640
 800d732:	2201      	movs	r2, #1
 800d734:	f883 2644 	strb.w	r2, [r3, #1604]	; 0x644
 800d738:	4a0c      	ldr	r2, [pc, #48]	; (800d76c <mem_init+0x60>)
 800d73a:	6013      	str	r3, [r2, #0]
 800d73c:	f006 f94c 	bl	80139d8 <sys_mutex_new>
 800d740:	b140      	cbz	r0, 800d754 <mem_init+0x48>
 800d742:	4b0b      	ldr	r3, [pc, #44]	; (800d770 <mem_init+0x64>)
 800d744:	f240 221f 	movw	r2, #543	; 0x21f
 800d748:	490a      	ldr	r1, [pc, #40]	; (800d774 <mem_init+0x68>)
 800d74a:	480b      	ldr	r0, [pc, #44]	; (800d778 <mem_init+0x6c>)
 800d74c:	e8bd 4010 	ldmia.w	sp!, {r4, lr}
 800d750:	f006 b9ca 	b.w	8013ae8 <iprintf>
 800d754:	bd10      	pop	{r4, pc}
 800d756:	bf00      	nop
 800d758:	20007c47 	.word	0x20007c47
 800d75c:	200044d4 	.word	0x200044d4
 800d760:	200044d0 	.word	0x200044d0
 800d764:	200044d8 	.word	0x200044d8
 800d768:	06400640 	.word	0x06400640
 800d76c:	200044cc 	.word	0x200044cc
 800d770:	080258dc 	.word	0x080258dc
 800d774:	0802590b 	.word	0x0802590b
 800d778:	08014a3b 	.word	0x08014a3b

0800d77c <mem_free>:
 800d77c:	e92d 41f0 	stmdb	sp!, {r4, r5, r6, r7, r8, lr}
 800d780:	4604      	mov	r4, r0
 800d782:	2800      	cmp	r0, #0
 800d784:	f000 80b7 	beq.w	800d8f6 <mem_free+0x17a>
 800d788:	0783      	lsls	r3, r0, #30
 800d78a:	d00c      	beq.n	800d7a6 <mem_free+0x2a>
 800d78c:	4b5b      	ldr	r3, [pc, #364]	; (800d8fc <mem_free+0x180>)
 800d78e:	f240 2273 	movw	r2, #627	; 0x273
 800d792:	495b      	ldr	r1, [pc, #364]	; (800d900 <mem_free+0x184>)
 800d794:	485b      	ldr	r0, [pc, #364]	; (800d904 <mem_free+0x188>)
 800d796:	f006 f9a7 	bl	8013ae8 <iprintf>
 800d79a:	f006 f94d 	bl	8013a38 <sys_arch_protect>
 800d79e:	e8bd 41f0 	ldmia.w	sp!, {r4, r5, r6, r7, r8, lr}
 800d7a2:	f006 b955 	b.w	8013a50 <sys_arch_unprotect>
 800d7a6:	4b58      	ldr	r3, [pc, #352]	; (800d908 <mem_free+0x18c>)
 800d7a8:	f1a0 0508 	sub.w	r5, r0, #8
 800d7ac:	681a      	ldr	r2, [r3, #0]
 800d7ae:	4698      	mov	r8, r3
 800d7b0:	42aa      	cmp	r2, r5
 800d7b2:	d805      	bhi.n	800d7c0 <mem_free+0x44>
 800d7b4:	4f55      	ldr	r7, [pc, #340]	; (800d90c <mem_free+0x190>)
 800d7b6:	f100 030c 	add.w	r3, r0, #12
 800d7ba:	683a      	ldr	r2, [r7, #0]
 800d7bc:	429a      	cmp	r2, r3
 800d7be:	d204      	bcs.n	800d7ca <mem_free+0x4e>
 800d7c0:	4b4e      	ldr	r3, [pc, #312]	; (800d8fc <mem_free+0x180>)
 800d7c2:	f240 227f 	movw	r2, #639	; 0x27f
 800d7c6:	4952      	ldr	r1, [pc, #328]	; (800d910 <mem_free+0x194>)
 800d7c8:	e7e4      	b.n	800d794 <mem_free+0x18>
 800d7ca:	4852      	ldr	r0, [pc, #328]	; (800d914 <mem_free+0x198>)
 800d7cc:	f006 f913 	bl	80139f6 <sys_mutex_lock>
 800d7d0:	f814 3c04 	ldrb.w	r3, [r4, #-4]
 800d7d4:	b953      	cbnz	r3, 800d7ec <mem_free+0x70>
 800d7d6:	4b49      	ldr	r3, [pc, #292]	; (800d8fc <mem_free+0x180>)
 800d7d8:	f44f 7223 	mov.w	r2, #652	; 0x28c
 800d7dc:	494e      	ldr	r1, [pc, #312]	; (800d918 <mem_free+0x19c>)
 800d7de:	4849      	ldr	r0, [pc, #292]	; (800d904 <mem_free+0x188>)
 800d7e0:	f006 f982 	bl	8013ae8 <iprintf>
 800d7e4:	484b      	ldr	r0, [pc, #300]	; (800d914 <mem_free+0x198>)
 800d7e6:	f006 f90b 	bl	8013a00 <sys_mutex_unlock>
 800d7ea:	e7d6      	b.n	800d79a <mem_free+0x1e>
 800d7ec:	f834 2c08 	ldrh.w	r2, [r4, #-8]
 800d7f0:	f5b2 6fc8 	cmp.w	r2, #1600	; 0x640
 800d7f4:	d878      	bhi.n	800d8e8 <mem_free+0x16c>
 800d7f6:	f834 0c06 	ldrh.w	r0, [r4, #-6]
 800d7fa:	f5b0 6fc8 	cmp.w	r0, #1600	; 0x640
 800d7fe:	d873      	bhi.n	800d8e8 <mem_free+0x16c>
 800d800:	f8d8 1000 	ldr.w	r1, [r8]
 800d804:	1a6b      	subs	r3, r5, r1
 800d806:	b29b      	uxth	r3, r3
 800d808:	4283      	cmp	r3, r0
 800d80a:	d002      	beq.n	800d812 <mem_free+0x96>
 800d80c:	5a08      	ldrh	r0, [r1, r0]
 800d80e:	4298      	cmp	r0, r3
 800d810:	d16a      	bne.n	800d8e8 <mem_free+0x16c>
 800d812:	440a      	add	r2, r1
 800d814:	6838      	ldr	r0, [r7, #0]
 800d816:	4282      	cmp	r2, r0
 800d818:	d002      	beq.n	800d820 <mem_free+0xa4>
 800d81a:	8852      	ldrh	r2, [r2, #2]
 800d81c:	429a      	cmp	r2, r3
 800d81e:	d163      	bne.n	800d8e8 <mem_free+0x16c>
 800d820:	2300      	movs	r3, #0
 800d822:	4e3e      	ldr	r6, [pc, #248]	; (800d91c <mem_free+0x1a0>)
 800d824:	f804 3c04 	strb.w	r3, [r4, #-4]
 800d828:	6833      	ldr	r3, [r6, #0]
 800d82a:	42ab      	cmp	r3, r5
 800d82c:	d861      	bhi.n	800d8f2 <mem_free+0x176>
 800d82e:	428d      	cmp	r5, r1
 800d830:	d206      	bcs.n	800d840 <mem_free+0xc4>
 800d832:	4b32      	ldr	r3, [pc, #200]	; (800d8fc <mem_free+0x180>)
 800d834:	f240 12df 	movw	r2, #479	; 0x1df
 800d838:	4939      	ldr	r1, [pc, #228]	; (800d920 <mem_free+0x1a4>)
 800d83a:	4832      	ldr	r0, [pc, #200]	; (800d904 <mem_free+0x188>)
 800d83c:	f006 f954 	bl	8013ae8 <iprintf>
 800d840:	683b      	ldr	r3, [r7, #0]
 800d842:	429d      	cmp	r5, r3
 800d844:	d306      	bcc.n	800d854 <mem_free+0xd8>
 800d846:	4b2d      	ldr	r3, [pc, #180]	; (800d8fc <mem_free+0x180>)
 800d848:	f44f 72f0 	mov.w	r2, #480	; 0x1e0
 800d84c:	4935      	ldr	r1, [pc, #212]	; (800d924 <mem_free+0x1a8>)
 800d84e:	482d      	ldr	r0, [pc, #180]	; (800d904 <mem_free+0x188>)
 800d850:	f006 f94a 	bl	8013ae8 <iprintf>
 800d854:	f814 3c04 	ldrb.w	r3, [r4, #-4]
 800d858:	b133      	cbz	r3, 800d868 <mem_free+0xec>
 800d85a:	4b28      	ldr	r3, [pc, #160]	; (800d8fc <mem_free+0x180>)
 800d85c:	f240 12e1 	movw	r2, #481	; 0x1e1
 800d860:	4931      	ldr	r1, [pc, #196]	; (800d928 <mem_free+0x1ac>)
 800d862:	4828      	ldr	r0, [pc, #160]	; (800d904 <mem_free+0x188>)
 800d864:	f006 f940 	bl	8013ae8 <iprintf>
 800d868:	f834 3c08 	ldrh.w	r3, [r4, #-8]
 800d86c:	f5b3 6fc8 	cmp.w	r3, #1600	; 0x640
 800d870:	d906      	bls.n	800d880 <mem_free+0x104>
 800d872:	4b22      	ldr	r3, [pc, #136]	; (800d8fc <mem_free+0x180>)
 800d874:	f44f 72f2 	mov.w	r2, #484	; 0x1e4
 800d878:	492c      	ldr	r1, [pc, #176]	; (800d92c <mem_free+0x1b0>)
 800d87a:	4822      	ldr	r0, [pc, #136]	; (800d904 <mem_free+0x188>)
 800d87c:	f006 f934 	bl	8013ae8 <iprintf>
 800d880:	f8d8 3000 	ldr.w	r3, [r8]
 800d884:	f834 1c08 	ldrh.w	r1, [r4, #-8]
 800d888:	185a      	adds	r2, r3, r1
 800d88a:	4295      	cmp	r5, r2
 800d88c:	d012      	beq.n	800d8b4 <mem_free+0x138>
 800d88e:	7910      	ldrb	r0, [r2, #4]
 800d890:	b980      	cbnz	r0, 800d8b4 <mem_free+0x138>
 800d892:	6838      	ldr	r0, [r7, #0]
 800d894:	4282      	cmp	r2, r0
 800d896:	d00d      	beq.n	800d8b4 <mem_free+0x138>
 800d898:	6830      	ldr	r0, [r6, #0]
 800d89a:	4282      	cmp	r2, r0
 800d89c:	5a5a      	ldrh	r2, [r3, r1]
 800d89e:	f824 2c08 	strh.w	r2, [r4, #-8]
 800d8a2:	5a5a      	ldrh	r2, [r3, r1]
 800d8a4:	bf08      	it	eq
 800d8a6:	6035      	streq	r5, [r6, #0]
 800d8a8:	f5b2 6fc8 	cmp.w	r2, #1600	; 0x640
 800d8ac:	bf1e      	ittt	ne
 800d8ae:	18d2      	addne	r2, r2, r3
 800d8b0:	1ae9      	subne	r1, r5, r3
 800d8b2:	8051      	strhne	r1, [r2, #2]
 800d8b4:	f834 2c06 	ldrh.w	r2, [r4, #-6]
 800d8b8:	1899      	adds	r1, r3, r2
 800d8ba:	428d      	cmp	r5, r1
 800d8bc:	d00f      	beq.n	800d8de <mem_free+0x162>
 800d8be:	7908      	ldrb	r0, [r1, #4]
 800d8c0:	b968      	cbnz	r0, 800d8de <mem_free+0x162>
 800d8c2:	6830      	ldr	r0, [r6, #0]
 800d8c4:	4285      	cmp	r5, r0
 800d8c6:	bf08      	it	eq
 800d8c8:	6031      	streq	r1, [r6, #0]
 800d8ca:	f834 1c08 	ldrh.w	r1, [r4, #-8]
 800d8ce:	5299      	strh	r1, [r3, r2]
 800d8d0:	f834 1c08 	ldrh.w	r1, [r4, #-8]
 800d8d4:	f5b1 6fc8 	cmp.w	r1, #1600	; 0x640
 800d8d8:	bf1c      	itt	ne
 800d8da:	185b      	addne	r3, r3, r1
 800d8dc:	805a      	strhne	r2, [r3, #2]
 800d8de:	480d      	ldr	r0, [pc, #52]	; (800d914 <mem_free+0x198>)
 800d8e0:	e8bd 41f0 	ldmia.w	sp!, {r4, r5, r6, r7, r8, lr}
 800d8e4:	f006 b88c 	b.w	8013a00 <sys_mutex_unlock>
 800d8e8:	4b04      	ldr	r3, [pc, #16]	; (800d8fc <mem_free+0x180>)
 800d8ea:	f240 2295 	movw	r2, #661	; 0x295
 800d8ee:	4910      	ldr	r1, [pc, #64]	; (800d930 <mem_free+0x1b4>)
 800d8f0:	e775      	b.n	800d7de <mem_free+0x62>
 800d8f2:	6035      	str	r5, [r6, #0]
 800d8f4:	e79b      	b.n	800d82e <mem_free+0xb2>
 800d8f6:	e8bd 81f0 	ldmia.w	sp!, {r4, r5, r6, r7, r8, pc}
 800d8fa:	bf00      	nop
 800d8fc:	080258dc 	.word	0x080258dc
 800d900:	080257d4 	.word	0x080257d4
 800d904:	08014a3b 	.word	0x08014a3b
 800d908:	200044d4 	.word	0x200044d4
 800d90c:	200044d8 	.word	0x200044d8
 800d910:	080257f5 	.word	0x080257f5
 800d914:	200044d0 	.word	0x200044d0
 800d918:	0802580e 	.word	0x0802580e
 800d91c:	200044cc 	.word	0x200044cc
 800d920:	08025866 	.word	0x08025866
 800d924:	0802587d 	.word	0x0802587d
 800d928:	08025897 	.word	0x08025897
 800d92c:	080258b2 	.word	0x080258b2
 800d930:	08025834 	.word	0x08025834

0800d934 <mem_trim>:
 800d934:	e92d 4ff8 	stmdb	sp!, {r3, r4, r5, r6, r7, r8, r9, sl, fp, lr}
 800d938:	1ccd      	adds	r5, r1, #3
 800d93a:	4604      	mov	r4, r0
 800d93c:	f025 0503 	bic.w	r5, r5, #3
 800d940:	b2ad      	uxth	r5, r5
 800d942:	2d0b      	cmp	r5, #11
 800d944:	d904      	bls.n	800d950 <mem_trim+0x1c>
 800d946:	f5b5 6fc8 	cmp.w	r5, #1600	; 0x640
 800d94a:	d902      	bls.n	800d952 <mem_trim+0x1e>
 800d94c:	2400      	movs	r4, #0
 800d94e:	e01c      	b.n	800d98a <mem_trim+0x56>
 800d950:	250c      	movs	r5, #12
 800d952:	42a9      	cmp	r1, r5
 800d954:	d8fa      	bhi.n	800d94c <mem_trim+0x18>
 800d956:	4f44      	ldr	r7, [pc, #272]	; (800da68 <mem_trim+0x134>)
 800d958:	683b      	ldr	r3, [r7, #0]
 800d95a:	42a3      	cmp	r3, r4
 800d95c:	d803      	bhi.n	800d966 <mem_trim+0x32>
 800d95e:	4b43      	ldr	r3, [pc, #268]	; (800da6c <mem_trim+0x138>)
 800d960:	681b      	ldr	r3, [r3, #0]
 800d962:	42a3      	cmp	r3, r4
 800d964:	d806      	bhi.n	800d974 <mem_trim+0x40>
 800d966:	4b42      	ldr	r3, [pc, #264]	; (800da70 <mem_trim+0x13c>)
 800d968:	f240 22d2 	movw	r2, #722	; 0x2d2
 800d96c:	4941      	ldr	r1, [pc, #260]	; (800da74 <mem_trim+0x140>)
 800d96e:	4842      	ldr	r0, [pc, #264]	; (800da78 <mem_trim+0x144>)
 800d970:	f006 f8ba 	bl	8013ae8 <iprintf>
 800d974:	683b      	ldr	r3, [r7, #0]
 800d976:	42a3      	cmp	r3, r4
 800d978:	d803      	bhi.n	800d982 <mem_trim+0x4e>
 800d97a:	4a3c      	ldr	r2, [pc, #240]	; (800da6c <mem_trim+0x138>)
 800d97c:	6812      	ldr	r2, [r2, #0]
 800d97e:	42a2      	cmp	r2, r4
 800d980:	d806      	bhi.n	800d990 <mem_trim+0x5c>
 800d982:	f006 f859 	bl	8013a38 <sys_arch_protect>
 800d986:	f006 f863 	bl	8013a50 <sys_arch_unprotect>
 800d98a:	4620      	mov	r0, r4
 800d98c:	e8bd 8ff8 	ldmia.w	sp!, {r3, r4, r5, r6, r7, r8, r9, sl, fp, pc}
 800d990:	f1a4 0608 	sub.w	r6, r4, #8
 800d994:	f834 9c08 	ldrh.w	r9, [r4, #-8]
 800d998:	1af6      	subs	r6, r6, r3
 800d99a:	f1a9 0908 	sub.w	r9, r9, #8
 800d99e:	b2b6      	uxth	r6, r6
 800d9a0:	eba9 0906 	sub.w	r9, r9, r6
 800d9a4:	fa1f f989 	uxth.w	r9, r9
 800d9a8:	45a9      	cmp	r9, r5
 800d9aa:	d226      	bcs.n	800d9fa <mem_trim+0xc6>
 800d9ac:	4b30      	ldr	r3, [pc, #192]	; (800da70 <mem_trim+0x13c>)
 800d9ae:	f44f 7239 	mov.w	r2, #740	; 0x2e4
 800d9b2:	4932      	ldr	r1, [pc, #200]	; (800da7c <mem_trim+0x148>)
 800d9b4:	4830      	ldr	r0, [pc, #192]	; (800da78 <mem_trim+0x144>)
 800d9b6:	f006 f897 	bl	8013ae8 <iprintf>
 800d9ba:	e7c7      	b.n	800d94c <mem_trim+0x18>
 800d9bc:	f105 0314 	add.w	r3, r5, #20
 800d9c0:	454b      	cmp	r3, r9
 800d9c2:	d84d      	bhi.n	800da60 <mem_trim+0x12c>
 800d9c4:	f106 0308 	add.w	r3, r6, #8
 800d9c8:	f5ba 6fc8 	cmp.w	sl, #1600	; 0x640
 800d9cc:	441d      	add	r5, r3
 800d9ce:	b2ad      	uxth	r5, r5
 800d9d0:	d106      	bne.n	800d9e0 <mem_trim+0xac>
 800d9d2:	4b27      	ldr	r3, [pc, #156]	; (800da70 <mem_trim+0x13c>)
 800d9d4:	f240 3216 	movw	r2, #790	; 0x316
 800d9d8:	4929      	ldr	r1, [pc, #164]	; (800da80 <mem_trim+0x14c>)
 800d9da:	4827      	ldr	r0, [pc, #156]	; (800da78 <mem_trim+0x144>)
 800d9dc:	f006 f884 	bl	8013ae8 <iprintf>
 800d9e0:	4928      	ldr	r1, [pc, #160]	; (800da84 <mem_trim+0x150>)
 800d9e2:	683b      	ldr	r3, [r7, #0]
 800d9e4:	6808      	ldr	r0, [r1, #0]
 800d9e6:	195a      	adds	r2, r3, r5
 800d9e8:	4290      	cmp	r0, r2
 800d9ea:	bf88      	it	hi
 800d9ec:	600a      	strhi	r2, [r1, #0]
 800d9ee:	2100      	movs	r1, #0
 800d9f0:	7111      	strb	r1, [r2, #4]
 800d9f2:	f834 1c08 	ldrh.w	r1, [r4, #-8]
 800d9f6:	5359      	strh	r1, [r3, r5]
 800d9f8:	e029      	b.n	800da4e <mem_trim+0x11a>
 800d9fa:	d0c6      	beq.n	800d98a <mem_trim+0x56>
 800d9fc:	4822      	ldr	r0, [pc, #136]	; (800da88 <mem_trim+0x154>)
 800d9fe:	f005 fffa 	bl	80139f6 <sys_mutex_lock>
 800da02:	f834 ac08 	ldrh.w	sl, [r4, #-8]
 800da06:	f8d7 b000 	ldr.w	fp, [r7]
 800da0a:	eb0b 080a 	add.w	r8, fp, sl
 800da0e:	f898 3004 	ldrb.w	r3, [r8, #4]
 800da12:	2b00      	cmp	r3, #0
 800da14:	d1d2      	bne.n	800d9bc <mem_trim+0x88>
 800da16:	f5ba 6fc8 	cmp.w	sl, #1600	; 0x640
 800da1a:	d106      	bne.n	800da2a <mem_trim+0xf6>
 800da1c:	4b14      	ldr	r3, [pc, #80]	; (800da70 <mem_trim+0x13c>)
 800da1e:	f240 22f5 	movw	r2, #757	; 0x2f5
 800da22:	4917      	ldr	r1, [pc, #92]	; (800da80 <mem_trim+0x14c>)
 800da24:	4814      	ldr	r0, [pc, #80]	; (800da78 <mem_trim+0x144>)
 800da26:	f006 f85f 	bl	8013ae8 <iprintf>
 800da2a:	f106 0308 	add.w	r3, r6, #8
 800da2e:	4915      	ldr	r1, [pc, #84]	; (800da84 <mem_trim+0x150>)
 800da30:	f83b c00a 	ldrh.w	ip, [fp, sl]
 800da34:	441d      	add	r5, r3
 800da36:	6808      	ldr	r0, [r1, #0]
 800da38:	683b      	ldr	r3, [r7, #0]
 800da3a:	b2ad      	uxth	r5, r5
 800da3c:	4540      	cmp	r0, r8
 800da3e:	eb03 0205 	add.w	r2, r3, r5
 800da42:	bf08      	it	eq
 800da44:	600a      	streq	r2, [r1, #0]
 800da46:	2100      	movs	r1, #0
 800da48:	7111      	strb	r1, [r2, #4]
 800da4a:	f823 c005 	strh.w	ip, [r3, r5]
 800da4e:	8056      	strh	r6, [r2, #2]
 800da50:	f824 5c08 	strh.w	r5, [r4, #-8]
 800da54:	5b5a      	ldrh	r2, [r3, r5]
 800da56:	f5b2 6fc8 	cmp.w	r2, #1600	; 0x640
 800da5a:	bf1c      	itt	ne
 800da5c:	189b      	addne	r3, r3, r2
 800da5e:	805d      	strhne	r5, [r3, #2]
 800da60:	4809      	ldr	r0, [pc, #36]	; (800da88 <mem_trim+0x154>)
 800da62:	f005 ffcd 	bl	8013a00 <sys_mutex_unlock>
 800da66:	e790      	b.n	800d98a <mem_trim+0x56>
 800da68:	200044d4 	.word	0x200044d4
 800da6c:	200044d8 	.word	0x200044d8
 800da70:	080258dc 	.word	0x080258dc
 800da74:	080259c1 	.word	0x080259c1
 800da78:	08014a3b 	.word	0x08014a3b
 800da7c:	080259d8 	.word	0x080259d8
 800da80:	080259f8 	.word	0x080259f8
 800da84:	200044cc 	.word	0x200044cc
 800da88:	200044d0 	.word	0x200044d0

0800da8c <mem_malloc>:
 800da8c:	e92d 43f8 	stmdb	sp!, {r3, r4, r5, r6, r7, r8, r9, lr}
 800da90:	2800      	cmp	r0, #0
 800da92:	f000 808a 	beq.w	800dbaa <mem_malloc+0x11e>
 800da96:	1cc5      	adds	r5, r0, #3
 800da98:	f025 0503 	bic.w	r5, r5, #3
 800da9c:	b2ad      	uxth	r5, r5
 800da9e:	2d0b      	cmp	r5, #11
 800daa0:	d904      	bls.n	800daac <mem_malloc+0x20>
 800daa2:	f5b5 6fc8 	cmp.w	r5, #1600	; 0x640
 800daa6:	d902      	bls.n	800daae <mem_malloc+0x22>
 800daa8:	2000      	movs	r0, #0
 800daaa:	e07e      	b.n	800dbaa <mem_malloc+0x11e>
 800daac:	250c      	movs	r5, #12
 800daae:	42a8      	cmp	r0, r5
 800dab0:	d8fa      	bhi.n	800daa8 <mem_malloc+0x1c>
 800dab2:	4843      	ldr	r0, [pc, #268]	; (800dbc0 <mem_malloc+0x134>)
 800dab4:	f06f 0707 	mvn.w	r7, #7
 800dab8:	f005 ff9d 	bl	80139f6 <sys_mutex_lock>
 800dabc:	4941      	ldr	r1, [pc, #260]	; (800dbc4 <mem_malloc+0x138>)
 800dabe:	4b42      	ldr	r3, [pc, #264]	; (800dbc8 <mem_malloc+0x13c>)
 800dac0:	f5c5 60c8 	rsb	r0, r5, #1600	; 0x640
 800dac4:	680a      	ldr	r2, [r1, #0]
 800dac6:	4689      	mov	r9, r1
 800dac8:	681e      	ldr	r6, [r3, #0]
 800daca:	4698      	mov	r8, r3
 800dacc:	1ab6      	subs	r6, r6, r2
 800dace:	b2b6      	uxth	r6, r6
 800dad0:	4286      	cmp	r6, r0
 800dad2:	d303      	bcc.n	800dadc <mem_malloc+0x50>
 800dad4:	483a      	ldr	r0, [pc, #232]	; (800dbc0 <mem_malloc+0x134>)
 800dad6:	f005 ff93 	bl	8013a00 <sys_mutex_unlock>
 800dada:	e7e5      	b.n	800daa8 <mem_malloc+0x1c>
 800dadc:	1994      	adds	r4, r2, r6
 800dade:	5b91      	ldrh	r1, [r2, r6]
 800dae0:	7923      	ldrb	r3, [r4, #4]
 800dae2:	2b00      	cmp	r3, #0
 800dae4:	d169      	bne.n	800dbba <mem_malloc+0x12e>
 800dae6:	1bbb      	subs	r3, r7, r6
 800dae8:	440b      	add	r3, r1
 800daea:	42ab      	cmp	r3, r5
 800daec:	d365      	bcc.n	800dbba <mem_malloc+0x12e>
 800daee:	f105 0214 	add.w	r2, r5, #20
 800daf2:	4293      	cmp	r3, r2
 800daf4:	d35b      	bcc.n	800dbae <mem_malloc+0x122>
 800daf6:	f105 0708 	add.w	r7, r5, #8
 800dafa:	4437      	add	r7, r6
 800dafc:	b2bf      	uxth	r7, r7
 800dafe:	f5b7 6fc8 	cmp.w	r7, #1600	; 0x640
 800db02:	d106      	bne.n	800db12 <mem_malloc+0x86>
 800db04:	4b31      	ldr	r3, [pc, #196]	; (800dbcc <mem_malloc+0x140>)
 800db06:	f240 3287 	movw	r2, #903	; 0x387
 800db0a:	4931      	ldr	r1, [pc, #196]	; (800dbd0 <mem_malloc+0x144>)
 800db0c:	4831      	ldr	r0, [pc, #196]	; (800dbd4 <mem_malloc+0x148>)
 800db0e:	f005 ffeb 	bl	8013ae8 <iprintf>
 800db12:	f8d9 3000 	ldr.w	r3, [r9]
 800db16:	2100      	movs	r1, #0
 800db18:	19da      	adds	r2, r3, r7
 800db1a:	7111      	strb	r1, [r2, #4]
 800db1c:	8821      	ldrh	r1, [r4, #0]
 800db1e:	53d9      	strh	r1, [r3, r7]
 800db20:	8056      	strh	r6, [r2, #2]
 800db22:	2201      	movs	r2, #1
 800db24:	8027      	strh	r7, [r4, #0]
 800db26:	7122      	strb	r2, [r4, #4]
 800db28:	5bda      	ldrh	r2, [r3, r7]
 800db2a:	f5b2 6fc8 	cmp.w	r2, #1600	; 0x640
 800db2e:	d001      	beq.n	800db34 <mem_malloc+0xa8>
 800db30:	4413      	add	r3, r2
 800db32:	805f      	strh	r7, [r3, #2]
 800db34:	f8d8 3000 	ldr.w	r3, [r8]
 800db38:	4e27      	ldr	r6, [pc, #156]	; (800dbd8 <mem_malloc+0x14c>)
 800db3a:	42a3      	cmp	r3, r4
 800db3c:	d114      	bne.n	800db68 <mem_malloc+0xdc>
 800db3e:	6832      	ldr	r2, [r6, #0]
 800db40:	4623      	mov	r3, r4
 800db42:	f8d9 0000 	ldr.w	r0, [r9]
 800db46:	7919      	ldrb	r1, [r3, #4]
 800db48:	b111      	cbz	r1, 800db50 <mem_malloc+0xc4>
 800db4a:	429a      	cmp	r2, r3
 800db4c:	d132      	bne.n	800dbb4 <mem_malloc+0x128>
 800db4e:	4613      	mov	r3, r2
 800db50:	429a      	cmp	r2, r3
 800db52:	f8c8 3000 	str.w	r3, [r8]
 800db56:	d007      	beq.n	800db68 <mem_malloc+0xdc>
 800db58:	b131      	cbz	r1, 800db68 <mem_malloc+0xdc>
 800db5a:	4b1c      	ldr	r3, [pc, #112]	; (800dbcc <mem_malloc+0x140>)
 800db5c:	f240 32b5 	movw	r2, #949	; 0x3b5
 800db60:	491e      	ldr	r1, [pc, #120]	; (800dbdc <mem_malloc+0x150>)
 800db62:	481c      	ldr	r0, [pc, #112]	; (800dbd4 <mem_malloc+0x148>)
 800db64:	f005 ffc0 	bl	8013ae8 <iprintf>
 800db68:	3508      	adds	r5, #8
 800db6a:	4815      	ldr	r0, [pc, #84]	; (800dbc0 <mem_malloc+0x134>)
 800db6c:	f005 ff48 	bl	8013a00 <sys_mutex_unlock>
 800db70:	6833      	ldr	r3, [r6, #0]
 800db72:	4425      	add	r5, r4
 800db74:	42ab      	cmp	r3, r5
 800db76:	d206      	bcs.n	800db86 <mem_malloc+0xfa>
 800db78:	4b14      	ldr	r3, [pc, #80]	; (800dbcc <mem_malloc+0x140>)
 800db7a:	f240 32ba 	movw	r2, #954	; 0x3ba
 800db7e:	4918      	ldr	r1, [pc, #96]	; (800dbe0 <mem_malloc+0x154>)
 800db80:	4814      	ldr	r0, [pc, #80]	; (800dbd4 <mem_malloc+0x148>)
 800db82:	f005 ffb1 	bl	8013ae8 <iprintf>
 800db86:	07a3      	lsls	r3, r4, #30
 800db88:	d00d      	beq.n	800dba6 <mem_malloc+0x11a>
 800db8a:	4b10      	ldr	r3, [pc, #64]	; (800dbcc <mem_malloc+0x140>)
 800db8c:	f44f 726f 	mov.w	r2, #956	; 0x3bc
 800db90:	4914      	ldr	r1, [pc, #80]	; (800dbe4 <mem_malloc+0x158>)
 800db92:	4810      	ldr	r0, [pc, #64]	; (800dbd4 <mem_malloc+0x148>)
 800db94:	f005 ffa8 	bl	8013ae8 <iprintf>
 800db98:	4b0c      	ldr	r3, [pc, #48]	; (800dbcc <mem_malloc+0x140>)
 800db9a:	f240 32be 	movw	r2, #958	; 0x3be
 800db9e:	4912      	ldr	r1, [pc, #72]	; (800dbe8 <mem_malloc+0x15c>)
 800dba0:	480c      	ldr	r0, [pc, #48]	; (800dbd4 <mem_malloc+0x148>)
 800dba2:	f005 ffa1 	bl	8013ae8 <iprintf>
 800dba6:	f104 0008 	add.w	r0, r4, #8
 800dbaa:	e8bd 83f8 	ldmia.w	sp!, {r3, r4, r5, r6, r7, r8, r9, pc}
 800dbae:	2301      	movs	r3, #1
 800dbb0:	7123      	strb	r3, [r4, #4]
 800dbb2:	e7bf      	b.n	800db34 <mem_malloc+0xa8>
 800dbb4:	881b      	ldrh	r3, [r3, #0]
 800dbb6:	4403      	add	r3, r0
 800dbb8:	e7c5      	b.n	800db46 <mem_malloc+0xba>
 800dbba:	460e      	mov	r6, r1
 800dbbc:	e788      	b.n	800dad0 <mem_malloc+0x44>
 800dbbe:	bf00      	nop
 800dbc0:	200044d0 	.word	0x200044d0
 800dbc4:	200044d4 	.word	0x200044d4
 800dbc8:	200044cc 	.word	0x200044cc
 800dbcc:	080258dc 	.word	0x080258dc
 800dbd0:	080259f8 	.word	0x080259f8
 800dbd4:	08014a3b 	.word	0x08014a3b
 800dbd8:	200044d8 	.word	0x200044d8
 800dbdc:	08025926 	.word	0x08025926
 800dbe0:	0802593f 	.word	0x0802593f
 800dbe4:	0802596f 	.word	0x0802596f
 800dbe8:	0802599e 	.word	0x0802599e

0800dbec <do_memp_malloc_pool.isra.0>:
 800dbec:	b538      	push	{r3, r4, r5, lr}
 800dbee:	4604      	mov	r4, r0
 800dbf0:	f005 ff22 	bl	8013a38 <sys_arch_protect>
 800dbf4:	4605      	mov	r5, r0
 800dbf6:	6823      	ldr	r3, [r4, #0]
 800dbf8:	681c      	ldr	r4, [r3, #0]
 800dbfa:	b15c      	cbz	r4, 800dc14 <do_memp_malloc_pool.isra.0+0x28>
 800dbfc:	6822      	ldr	r2, [r4, #0]
 800dbfe:	601a      	str	r2, [r3, #0]
 800dc00:	07a3      	lsls	r3, r4, #30
 800dc02:	d006      	beq.n	800dc12 <do_memp_malloc_pool.isra.0+0x26>
 800dc04:	4b05      	ldr	r3, [pc, #20]	; (800dc1c <do_memp_malloc_pool.isra.0+0x30>)
 800dc06:	f240 1219 	movw	r2, #281	; 0x119
 800dc0a:	4905      	ldr	r1, [pc, #20]	; (800dc20 <do_memp_malloc_pool.isra.0+0x34>)
 800dc0c:	4805      	ldr	r0, [pc, #20]	; (800dc24 <do_memp_malloc_pool.isra.0+0x38>)
 800dc0e:	f005 ff6b 	bl	8013ae8 <iprintf>
 800dc12:	4628      	mov	r0, r5
 800dc14:	f005 ff1c 	bl	8013a50 <sys_arch_unprotect>
 800dc18:	4620      	mov	r0, r4
 800dc1a:	bd38      	pop	{r3, r4, r5, pc}
 800dc1c:	08025a29 	.word	0x08025a29
 800dc20:	08025a59 	.word	0x08025a59
 800dc24:	08014a3b 	.word	0x08014a3b

0800dc28 <do_memp_free_pool.isra.1>:
 800dc28:	b538      	push	{r3, r4, r5, lr}
 800dc2a:	078b      	lsls	r3, r1, #30
 800dc2c:	4605      	mov	r5, r0
 800dc2e:	460c      	mov	r4, r1
 800dc30:	d006      	beq.n	800dc40 <do_memp_free_pool.isra.1+0x18>
 800dc32:	4b08      	ldr	r3, [pc, #32]	; (800dc54 <do_memp_free_pool.isra.1+0x2c>)
 800dc34:	f240 126d 	movw	r2, #365	; 0x16d
 800dc38:	4907      	ldr	r1, [pc, #28]	; (800dc58 <do_memp_free_pool.isra.1+0x30>)
 800dc3a:	4808      	ldr	r0, [pc, #32]	; (800dc5c <do_memp_free_pool.isra.1+0x34>)
 800dc3c:	f005 ff54 	bl	8013ae8 <iprintf>
 800dc40:	f005 fefa 	bl	8013a38 <sys_arch_protect>
 800dc44:	682b      	ldr	r3, [r5, #0]
 800dc46:	681a      	ldr	r2, [r3, #0]
 800dc48:	6022      	str	r2, [r4, #0]
 800dc4a:	601c      	str	r4, [r3, #0]
 800dc4c:	e8bd 4038 	ldmia.w	sp!, {r3, r4, r5, lr}
 800dc50:	f005 befe 	b.w	8013a50 <sys_arch_unprotect>
 800dc54:	08025a29 	.word	0x08025a29
 800dc58:	08025a09 	.word	0x08025a09
 800dc5c:	08014a3b 	.word	0x08014a3b

0800dc60 <memp_init_pool>:
 800dc60:	6843      	ldr	r3, [r0, #4]
 800dc62:	2200      	movs	r2, #0
 800dc64:	6881      	ldr	r1, [r0, #8]
 800dc66:	3303      	adds	r3, #3
 800dc68:	b530      	push	{r4, r5, lr}
 800dc6a:	f023 0303 	bic.w	r3, r3, #3
 800dc6e:	8844      	ldrh	r4, [r0, #2]
 800dc70:	600a      	str	r2, [r1, #0]
 800dc72:	4294      	cmp	r4, r2
 800dc74:	dc00      	bgt.n	800dc78 <memp_init_pool+0x18>
 800dc76:	bd30      	pop	{r4, r5, pc}
 800dc78:	680d      	ldr	r5, [r1, #0]
 800dc7a:	3201      	adds	r2, #1
 800dc7c:	601d      	str	r5, [r3, #0]
 800dc7e:	8805      	ldrh	r5, [r0, #0]
 800dc80:	600b      	str	r3, [r1, #0]
 800dc82:	442b      	add	r3, r5
 800dc84:	e7f5      	b.n	800dc72 <memp_init_pool+0x12>
	...

0800dc88 <memp_init>:
 800dc88:	b538      	push	{r3, r4, r5, lr}
 800dc8a:	2400      	movs	r4, #0
 800dc8c:	4d04      	ldr	r5, [pc, #16]	; (800dca0 <memp_init+0x18>)
 800dc8e:	f855 0024 	ldr.w	r0, [r5, r4, lsl #2]
 800dc92:	3401      	adds	r4, #1
 800dc94:	f7ff ffe4 	bl	800dc60 <memp_init_pool>
 800dc98:	2c0d      	cmp	r4, #13
 800dc9a:	d1f8      	bne.n	800dc8e <memp_init+0x6>
 800dc9c:	bd38      	pop	{r3, r4, r5, pc}
 800dc9e:	bf00      	nop
 800dca0:	08025b50 	.word	0x08025b50

0800dca4 <memp_malloc>:
 800dca4:	280c      	cmp	r0, #12
 800dca6:	b508      	push	{r3, lr}
 800dca8:	d807      	bhi.n	800dcba <memp_malloc+0x16>
 800dcaa:	4b08      	ldr	r3, [pc, #32]	; (800dccc <memp_malloc+0x28>)
 800dcac:	f853 0020 	ldr.w	r0, [r3, r0, lsl #2]
 800dcb0:	e8bd 4008 	ldmia.w	sp!, {r3, lr}
 800dcb4:	3008      	adds	r0, #8
 800dcb6:	f7ff bf99 	b.w	800dbec <do_memp_malloc_pool.isra.0>
 800dcba:	4b05      	ldr	r3, [pc, #20]	; (800dcd0 <memp_malloc+0x2c>)
 800dcbc:	f240 1257 	movw	r2, #343	; 0x157
 800dcc0:	4904      	ldr	r1, [pc, #16]	; (800dcd4 <memp_malloc+0x30>)
 800dcc2:	4805      	ldr	r0, [pc, #20]	; (800dcd8 <memp_malloc+0x34>)
 800dcc4:	f005 ff10 	bl	8013ae8 <iprintf>
 800dcc8:	2000      	movs	r0, #0
 800dcca:	bd08      	pop	{r3, pc}
 800dccc:	08025b50 	.word	0x08025b50
 800dcd0:	08025a29 	.word	0x08025a29
 800dcd4:	08025b33 	.word	0x08025b33
 800dcd8:	08014a3b 	.word	0x08014a3b

0800dcdc <memp_free>:
 800dcdc:	280c      	cmp	r0, #12
 800dcde:	d906      	bls.n	800dcee <memp_free+0x12>
 800dce0:	4b07      	ldr	r3, [pc, #28]	; (800dd00 <memp_free+0x24>)
 800dce2:	f44f 72d5 	mov.w	r2, #426	; 0x1aa
 800dce6:	4907      	ldr	r1, [pc, #28]	; (800dd04 <memp_free+0x28>)
 800dce8:	4807      	ldr	r0, [pc, #28]	; (800dd08 <memp_free+0x2c>)
 800dcea:	f005 befd 	b.w	8013ae8 <iprintf>
 800dcee:	b129      	cbz	r1, 800dcfc <memp_free+0x20>
 800dcf0:	4b06      	ldr	r3, [pc, #24]	; (800dd0c <memp_free+0x30>)
 800dcf2:	f853 0020 	ldr.w	r0, [r3, r0, lsl #2]
 800dcf6:	3008      	adds	r0, #8
 800dcf8:	f7ff bf96 	b.w	800dc28 <do_memp_free_pool.isra.1>
 800dcfc:	4770      	bx	lr
 800dcfe:	bf00      	nop
 800dd00:	08025a29 	.word	0x08025a29
 800dd04:	08025b18 	.word	0x08025b18
 800dd08:	08014a3b 	.word	0x08014a3b
 800dd0c:	08025b50 	.word	0x08025b50

0800dd10 <netif_null_output_ip4>:
 800dd10:	f06f 000b 	mvn.w	r0, #11
 800dd14:	4770      	bx	lr
	...

0800dd18 <netif_issue_reports>:
 800dd18:	b538      	push	{r3, r4, r5, lr}
 800dd1a:	460d      	mov	r5, r1
 800dd1c:	4604      	mov	r4, r0
 800dd1e:	b930      	cbnz	r0, 800dd2e <netif_issue_reports+0x16>
 800dd20:	4b0c      	ldr	r3, [pc, #48]	; (800dd54 <netif_issue_reports+0x3c>)
 800dd22:	f240 326d 	movw	r2, #877	; 0x36d
 800dd26:	490c      	ldr	r1, [pc, #48]	; (800dd58 <netif_issue_reports+0x40>)
 800dd28:	480c      	ldr	r0, [pc, #48]	; (800dd5c <netif_issue_reports+0x44>)
 800dd2a:	f005 fedd 	bl	8013ae8 <iprintf>
 800dd2e:	f894 302d 	ldrb.w	r3, [r4, #45]	; 0x2d
 800dd32:	f003 0205 	and.w	r2, r3, #5
 800dd36:	2a05      	cmp	r2, #5
 800dd38:	d10b      	bne.n	800dd52 <netif_issue_reports+0x3a>
 800dd3a:	07ea      	lsls	r2, r5, #31
 800dd3c:	d509      	bpl.n	800dd52 <netif_issue_reports+0x3a>
 800dd3e:	6862      	ldr	r2, [r4, #4]
 800dd40:	b13a      	cbz	r2, 800dd52 <netif_issue_reports+0x3a>
 800dd42:	071b      	lsls	r3, r3, #28
 800dd44:	d505      	bpl.n	800dd52 <netif_issue_reports+0x3a>
 800dd46:	1d21      	adds	r1, r4, #4
 800dd48:	4620      	mov	r0, r4
 800dd4a:	e8bd 4038 	ldmia.w	sp!, {r3, r4, r5, lr}
 800dd4e:	f004 bd33 	b.w	80127b8 <etharp_request>
 800dd52:	bd38      	pop	{r3, r4, r5, pc}
 800dd54:	08025c11 	.word	0x08025c11
 800dd58:	08025c42 	.word	0x08025c42
 800dd5c:	08014a3b 	.word	0x08014a3b

0800dd60 <netif_do_set_ipaddr>:
 800dd60:	b5f7      	push	{r0, r1, r2, r4, r5, r6, r7, lr}
 800dd62:	4606      	mov	r6, r0
 800dd64:	4617      	mov	r7, r2
 800dd66:	460d      	mov	r5, r1
 800dd68:	b931      	cbnz	r1, 800dd78 <netif_do_set_ipaddr+0x18>
 800dd6a:	4b11      	ldr	r3, [pc, #68]	; (800ddb0 <netif_do_set_ipaddr+0x50>)
 800dd6c:	f240 12cb 	movw	r2, #459	; 0x1cb
 800dd70:	4910      	ldr	r1, [pc, #64]	; (800ddb4 <netif_do_set_ipaddr+0x54>)
 800dd72:	4811      	ldr	r0, [pc, #68]	; (800ddb8 <netif_do_set_ipaddr+0x58>)
 800dd74:	f005 feb8 	bl	8013ae8 <iprintf>
 800dd78:	6873      	ldr	r3, [r6, #4]
 800dd7a:	682a      	ldr	r2, [r5, #0]
 800dd7c:	429a      	cmp	r2, r3
 800dd7e:	d101      	bne.n	800dd84 <netif_do_set_ipaddr+0x24>
 800dd80:	2000      	movs	r0, #0
 800dd82:	e012      	b.n	800ddaa <netif_do_set_ipaddr+0x4a>
 800dd84:	ac02      	add	r4, sp, #8
 800dd86:	603b      	str	r3, [r7, #0]
 800dd88:	4638      	mov	r0, r7
 800dd8a:	f844 2d04 	str.w	r2, [r4, #-4]!
 800dd8e:	4621      	mov	r1, r4
 800dd90:	f001 f8bc 	bl	800ef0c <tcp_netif_ip_addr_changed>
 800dd94:	4621      	mov	r1, r4
 800dd96:	4638      	mov	r0, r7
 800dd98:	f004 fb34 	bl	8012404 <udp_netif_ip_addr_changed>
 800dd9c:	682b      	ldr	r3, [r5, #0]
 800dd9e:	4630      	mov	r0, r6
 800dda0:	2101      	movs	r1, #1
 800dda2:	6073      	str	r3, [r6, #4]
 800dda4:	f7ff ffb8 	bl	800dd18 <netif_issue_reports>
 800dda8:	2001      	movs	r0, #1
 800ddaa:	b003      	add	sp, #12
 800ddac:	bdf0      	pop	{r4, r5, r6, r7, pc}
 800ddae:	bf00      	nop
 800ddb0:	08025c11 	.word	0x08025c11
 800ddb4:	08025c01 	.word	0x08025c01
 800ddb8:	08014a3b 	.word	0x08014a3b

0800ddbc <netif_init>:
 800ddbc:	4770      	bx	lr
	...

0800ddc0 <netif_set_addr>:
 800ddc0:	b5f7      	push	{r0, r1, r2, r4, r5, r6, r7, lr}
 800ddc2:	4d14      	ldr	r5, [pc, #80]	; (800de14 <netif_set_addr+0x54>)
 800ddc4:	4604      	mov	r4, r0
 800ddc6:	2900      	cmp	r1, #0
 800ddc8:	bf14      	ite	ne
 800ddca:	460e      	movne	r6, r1
 800ddcc:	462e      	moveq	r6, r5
 800ddce:	2a00      	cmp	r2, #0
 800ddd0:	bf14      	ite	ne
 800ddd2:	4617      	movne	r7, r2
 800ddd4:	462f      	moveq	r7, r5
 800ddd6:	2b00      	cmp	r3, #0
 800ddd8:	bf18      	it	ne
 800ddda:	461d      	movne	r5, r3
 800dddc:	6833      	ldr	r3, [r6, #0]
 800ddde:	b9b3      	cbnz	r3, 800de0e <netif_set_addr+0x4e>
 800dde0:	aa01      	add	r2, sp, #4
 800dde2:	4631      	mov	r1, r6
 800dde4:	f7ff ffbc 	bl	800dd60 <netif_do_set_ipaddr>
 800dde8:	2301      	movs	r3, #1
 800ddea:	683a      	ldr	r2, [r7, #0]
 800ddec:	68a1      	ldr	r1, [r4, #8]
 800ddee:	428a      	cmp	r2, r1
 800ddf0:	68e1      	ldr	r1, [r4, #12]
 800ddf2:	bf18      	it	ne
 800ddf4:	60a2      	strne	r2, [r4, #8]
 800ddf6:	682a      	ldr	r2, [r5, #0]
 800ddf8:	428a      	cmp	r2, r1
 800ddfa:	bf18      	it	ne
 800ddfc:	60e2      	strne	r2, [r4, #12]
 800ddfe:	b923      	cbnz	r3, 800de0a <netif_set_addr+0x4a>
 800de00:	aa01      	add	r2, sp, #4
 800de02:	4631      	mov	r1, r6
 800de04:	4620      	mov	r0, r4
 800de06:	f7ff ffab 	bl	800dd60 <netif_do_set_ipaddr>
 800de0a:	b003      	add	sp, #12
 800de0c:	bdf0      	pop	{r4, r5, r6, r7, pc}
 800de0e:	2300      	movs	r3, #0
 800de10:	e7eb      	b.n	800ddea <netif_set_addr+0x2a>
 800de12:	bf00      	nop
 800de14:	080274a0 	.word	0x080274a0

0800de18 <netif_add>:
 800de18:	e92d 4ff8 	stmdb	sp!, {r3, r4, r5, r6, r7, r8, r9, sl, fp, lr}
 800de1c:	9f0b      	ldr	r7, [sp, #44]	; 0x2c
 800de1e:	469e      	mov	lr, r3
 800de20:	4604      	mov	r4, r0
 800de22:	b948      	cbnz	r0, 800de38 <netif_add+0x20>
 800de24:	4b3e      	ldr	r3, [pc, #248]	; (800df20 <netif_add+0x108>)
 800de26:	f240 1227 	movw	r2, #295	; 0x127
 800de2a:	493e      	ldr	r1, [pc, #248]	; (800df24 <netif_add+0x10c>)
 800de2c:	483e      	ldr	r0, [pc, #248]	; (800df28 <netif_add+0x110>)
 800de2e:	f005 fe5b 	bl	8013ae8 <iprintf>
 800de32:	4620      	mov	r0, r4
 800de34:	e8bd 8ff8 	ldmia.w	sp!, {r3, r4, r5, r6, r7, r8, r9, sl, fp, pc}
 800de38:	b947      	cbnz	r7, 800de4c <netif_add+0x34>
 800de3a:	4b39      	ldr	r3, [pc, #228]	; (800df20 <netif_add+0x108>)
 800de3c:	f44f 7294 	mov.w	r2, #296	; 0x128
 800de40:	493a      	ldr	r1, [pc, #232]	; (800df2c <netif_add+0x114>)
 800de42:	463c      	mov	r4, r7
 800de44:	4838      	ldr	r0, [pc, #224]	; (800df28 <netif_add+0x110>)
 800de46:	f005 fe4f 	bl	8013ae8 <iprintf>
 800de4a:	e7f2      	b.n	800de32 <netif_add+0x1a>
 800de4c:	9b0a      	ldr	r3, [sp, #40]	; 0x28
 800de4e:	2500      	movs	r5, #0
 800de50:	f8df c0e8 	ldr.w	ip, [pc, #232]	; 800df3c <netif_add+0x124>
 800de54:	f8df 80e8 	ldr.w	r8, [pc, #232]	; 800df40 <netif_add+0x128>
 800de58:	4e35      	ldr	r6, [pc, #212]	; (800df30 <netif_add+0x118>)
 800de5a:	f8c0 c014 	str.w	ip, [r0, #20]
 800de5e:	6203      	str	r3, [r0, #32]
 800de60:	42aa      	cmp	r2, r5
 800de62:	bf08      	it	eq
 800de64:	4632      	moveq	r2, r6
 800de66:	f898 c000 	ldrb.w	ip, [r8]
 800de6a:	42a9      	cmp	r1, r5
 800de6c:	bf08      	it	eq
 800de6e:	4631      	moveq	r1, r6
 800de70:	9b0c      	ldr	r3, [sp, #48]	; 0x30
 800de72:	f880 c030 	strb.w	ip, [r0, #48]	; 0x30
 800de76:	6103      	str	r3, [r0, #16]
 800de78:	45ae      	cmp	lr, r5
 800de7a:	bf14      	ite	ne
 800de7c:	4673      	movne	r3, lr
 800de7e:	4633      	moveq	r3, r6
 800de80:	60c5      	str	r5, [r0, #12]
 800de82:	4646      	mov	r6, r8
 800de84:	8485      	strh	r5, [r0, #36]	; 0x24
 800de86:	f880 502d 	strb.w	r5, [r0, #45]	; 0x2d
 800de8a:	61c5      	str	r5, [r0, #28]
 800de8c:	e9c0 5501 	strd	r5, r5, [r0, #4]
 800de90:	f7ff ff96 	bl	800ddc0 <netif_set_addr>
 800de94:	4620      	mov	r0, r4
 800de96:	47b8      	blx	r7
 800de98:	2800      	cmp	r0, #0
 800de9a:	d13e      	bne.n	800df1a <netif_add+0x102>
 800de9c:	f8df 90a4 	ldr.w	r9, [pc, #164]	; 800df44 <netif_add+0x12c>
 800dea0:	f8df a07c 	ldr.w	sl, [pc, #124]	; 800df20 <netif_add+0x108>
 800dea4:	46c8      	mov	r8, r9
 800dea6:	f894 3030 	ldrb.w	r3, [r4, #48]	; 0x30
 800deaa:	2700      	movs	r7, #0
 800deac:	f8d9 5000 	ldr.w	r5, [r9]
 800deb0:	2bff      	cmp	r3, #255	; 0xff
 800deb2:	f8df b074 	ldr.w	fp, [pc, #116]	; 800df28 <netif_add+0x110>
 800deb6:	bf04      	itt	eq
 800deb8:	2300      	moveq	r3, #0
 800deba:	f884 3030 	strbeq.w	r3, [r4, #48]	; 0x30
 800debe:	b955      	cbnz	r5, 800ded6 <netif_add+0xbe>
 800dec0:	f894 3030 	ldrb.w	r3, [r4, #48]	; 0x30
 800dec4:	2bfe      	cmp	r3, #254	; 0xfe
 800dec6:	d125      	bne.n	800df14 <netif_add+0xfc>
 800dec8:	7035      	strb	r5, [r6, #0]
 800deca:	f8d8 3000 	ldr.w	r3, [r8]
 800dece:	6023      	str	r3, [r4, #0]
 800ded0:	f8c8 4000 	str.w	r4, [r8]
 800ded4:	e7ad      	b.n	800de32 <netif_add+0x1a>
 800ded6:	42a5      	cmp	r5, r4
 800ded8:	d106      	bne.n	800dee8 <netif_add+0xd0>
 800deda:	4653      	mov	r3, sl
 800dedc:	f240 128b 	movw	r2, #395	; 0x18b
 800dee0:	4914      	ldr	r1, [pc, #80]	; (800df34 <netif_add+0x11c>)
 800dee2:	4658      	mov	r0, fp
 800dee4:	f005 fe00 	bl	8013ae8 <iprintf>
 800dee8:	3701      	adds	r7, #1
 800deea:	2fff      	cmp	r7, #255	; 0xff
 800deec:	dd06      	ble.n	800defc <netif_add+0xe4>
 800deee:	4653      	mov	r3, sl
 800def0:	f240 128d 	movw	r2, #397	; 0x18d
 800def4:	4910      	ldr	r1, [pc, #64]	; (800df38 <netif_add+0x120>)
 800def6:	4658      	mov	r0, fp
 800def8:	f005 fdf6 	bl	8013ae8 <iprintf>
 800defc:	f895 2030 	ldrb.w	r2, [r5, #48]	; 0x30
 800df00:	f894 3030 	ldrb.w	r3, [r4, #48]	; 0x30
 800df04:	4293      	cmp	r3, r2
 800df06:	d103      	bne.n	800df10 <netif_add+0xf8>
 800df08:	3301      	adds	r3, #1
 800df0a:	f884 3030 	strb.w	r3, [r4, #48]	; 0x30
 800df0e:	e7ca      	b.n	800dea6 <netif_add+0x8e>
 800df10:	682d      	ldr	r5, [r5, #0]
 800df12:	e7d4      	b.n	800debe <netif_add+0xa6>
 800df14:	3301      	adds	r3, #1
 800df16:	7033      	strb	r3, [r6, #0]
 800df18:	e7d7      	b.n	800deca <netif_add+0xb2>
 800df1a:	462c      	mov	r4, r5
 800df1c:	e789      	b.n	800de32 <netif_add+0x1a>
 800df1e:	bf00      	nop
 800df20:	08025c11 	.word	0x08025c11
 800df24:	08025b84 	.word	0x08025b84
 800df28:	08014a3b 	.word	0x08014a3b
 800df2c:	08025b9d 	.word	0x08025b9d
 800df30:	080274a0 	.word	0x080274a0
 800df34:	08025bbf 	.word	0x08025bbf
 800df38:	08025bd3 	.word	0x08025bd3
 800df3c:	0800dd11 	.word	0x0800dd11
 800df40:	20004510 	.word	0x20004510
 800df44:	2000b324 	.word	0x2000b324

0800df48 <netif_set_default>:
 800df48:	4b01      	ldr	r3, [pc, #4]	; (800df50 <netif_set_default+0x8>)
 800df4a:	6018      	str	r0, [r3, #0]
 800df4c:	4770      	bx	lr
 800df4e:	bf00      	nop
 800df50:	2000b328 	.word	0x2000b328

0800df54 <netif_set_up>:
 800df54:	b930      	cbnz	r0, 800df64 <netif_set_up+0x10>
 800df56:	4b09      	ldr	r3, [pc, #36]	; (800df7c <netif_set_up+0x28>)
 800df58:	f44f 7254 	mov.w	r2, #848	; 0x350
 800df5c:	4908      	ldr	r1, [pc, #32]	; (800df80 <netif_set_up+0x2c>)
 800df5e:	4809      	ldr	r0, [pc, #36]	; (800df84 <netif_set_up+0x30>)
 800df60:	f005 bdc2 	b.w	8013ae8 <iprintf>
 800df64:	f890 302d 	ldrb.w	r3, [r0, #45]	; 0x2d
 800df68:	07d9      	lsls	r1, r3, #31
 800df6a:	d406      	bmi.n	800df7a <netif_set_up+0x26>
 800df6c:	f043 0301 	orr.w	r3, r3, #1
 800df70:	2103      	movs	r1, #3
 800df72:	f880 302d 	strb.w	r3, [r0, #45]	; 0x2d
 800df76:	f7ff becf 	b.w	800dd18 <netif_issue_reports>
 800df7a:	4770      	bx	lr
 800df7c:	08025c11 	.word	0x08025c11
 800df80:	08025cc7 	.word	0x08025cc7
 800df84:	08014a3b 	.word	0x08014a3b

0800df88 <netif_set_down>:
 800df88:	b930      	cbnz	r0, 800df98 <netif_set_down+0x10>
 800df8a:	4b0a      	ldr	r3, [pc, #40]	; (800dfb4 <netif_set_down+0x2c>)
 800df8c:	f240 329b 	movw	r2, #923	; 0x39b
 800df90:	4909      	ldr	r1, [pc, #36]	; (800dfb8 <netif_set_down+0x30>)
 800df92:	480a      	ldr	r0, [pc, #40]	; (800dfbc <netif_set_down+0x34>)
 800df94:	f005 bda8 	b.w	8013ae8 <iprintf>
 800df98:	f890 302d 	ldrb.w	r3, [r0, #45]	; 0x2d
 800df9c:	07d9      	lsls	r1, r3, #31
 800df9e:	d507      	bpl.n	800dfb0 <netif_set_down+0x28>
 800dfa0:	f023 0101 	bic.w	r1, r3, #1
 800dfa4:	071b      	lsls	r3, r3, #28
 800dfa6:	f880 102d 	strb.w	r1, [r0, #45]	; 0x2d
 800dfaa:	d501      	bpl.n	800dfb0 <netif_set_down+0x28>
 800dfac:	f004 bb50 	b.w	8012650 <etharp_cleanup_netif>
 800dfb0:	4770      	bx	lr
 800dfb2:	bf00      	nop
 800dfb4:	08025c11 	.word	0x08025c11
 800dfb8:	08025c65 	.word	0x08025c65
 800dfbc:	08014a3b 	.word	0x08014a3b

0800dfc0 <netif_set_link_up>:
 800dfc0:	b510      	push	{r4, lr}
 800dfc2:	4604      	mov	r4, r0
 800dfc4:	b940      	cbnz	r0, 800dfd8 <netif_set_link_up+0x18>
 800dfc6:	4b0d      	ldr	r3, [pc, #52]	; (800dffc <netif_set_link_up+0x3c>)
 800dfc8:	f44f 7278 	mov.w	r2, #992	; 0x3e0
 800dfcc:	490c      	ldr	r1, [pc, #48]	; (800e000 <netif_set_link_up+0x40>)
 800dfce:	480d      	ldr	r0, [pc, #52]	; (800e004 <netif_set_link_up+0x44>)
 800dfd0:	e8bd 4010 	ldmia.w	sp!, {r4, lr}
 800dfd4:	f005 bd88 	b.w	8013ae8 <iprintf>
 800dfd8:	f890 302d 	ldrb.w	r3, [r0, #45]	; 0x2d
 800dfdc:	075a      	lsls	r2, r3, #29
 800dfde:	d40c      	bmi.n	800dffa <netif_set_link_up+0x3a>
 800dfe0:	f043 0304 	orr.w	r3, r3, #4
 800dfe4:	2103      	movs	r1, #3
 800dfe6:	f880 302d 	strb.w	r3, [r0, #45]	; 0x2d
 800dfea:	f7ff fe95 	bl	800dd18 <netif_issue_reports>
 800dfee:	69e3      	ldr	r3, [r4, #28]
 800dff0:	b11b      	cbz	r3, 800dffa <netif_set_link_up+0x3a>
 800dff2:	4620      	mov	r0, r4
 800dff4:	e8bd 4010 	ldmia.w	sp!, {r4, lr}
 800dff8:	4718      	bx	r3
 800dffa:	bd10      	pop	{r4, pc}
 800dffc:	08025c11 	.word	0x08025c11
 800e000:	08025ca6 	.word	0x08025ca6
 800e004:	08014a3b 	.word	0x08014a3b

0800e008 <netif_set_link_down>:
 800e008:	b930      	cbnz	r0, 800e018 <netif_set_link_down+0x10>
 800e00a:	4b09      	ldr	r3, [pc, #36]	; (800e030 <netif_set_link_down+0x28>)
 800e00c:	f240 4206 	movw	r2, #1030	; 0x406
 800e010:	4908      	ldr	r1, [pc, #32]	; (800e034 <netif_set_link_down+0x2c>)
 800e012:	4809      	ldr	r0, [pc, #36]	; (800e038 <netif_set_link_down+0x30>)
 800e014:	f005 bd68 	b.w	8013ae8 <iprintf>
 800e018:	f890 302d 	ldrb.w	r3, [r0, #45]	; 0x2d
 800e01c:	0759      	lsls	r1, r3, #29
 800e01e:	d506      	bpl.n	800e02e <netif_set_link_down+0x26>
 800e020:	f023 0304 	bic.w	r3, r3, #4
 800e024:	f880 302d 	strb.w	r3, [r0, #45]	; 0x2d
 800e028:	69c3      	ldr	r3, [r0, #28]
 800e02a:	b103      	cbz	r3, 800e02e <netif_set_link_down+0x26>
 800e02c:	4718      	bx	r3
 800e02e:	4770      	bx	lr
 800e030:	08025c11 	.word	0x08025c11
 800e034:	08025c83 	.word	0x08025c83
 800e038:	08014a3b 	.word	0x08014a3b

0800e03c <netif_set_link_callback>:
 800e03c:	b100      	cbz	r0, 800e040 <netif_set_link_callback+0x4>
 800e03e:	61c1      	str	r1, [r0, #28]
 800e040:	4770      	bx	lr
	...

0800e044 <netif_get_by_index>:
 800e044:	b150      	cbz	r0, 800e05c <netif_get_by_index+0x18>
 800e046:	4b06      	ldr	r3, [pc, #24]	; (800e060 <netif_get_by_index+0x1c>)
 800e048:	681b      	ldr	r3, [r3, #0]
 800e04a:	b12b      	cbz	r3, 800e058 <netif_get_by_index+0x14>
 800e04c:	f893 2030 	ldrb.w	r2, [r3, #48]	; 0x30
 800e050:	3201      	adds	r2, #1
 800e052:	b2d2      	uxtb	r2, r2
 800e054:	4282      	cmp	r2, r0
 800e056:	d1f7      	bne.n	800e048 <netif_get_by_index+0x4>
 800e058:	4618      	mov	r0, r3
 800e05a:	4770      	bx	lr
 800e05c:	4603      	mov	r3, r0
 800e05e:	e7fb      	b.n	800e058 <netif_get_by_index+0x14>
 800e060:	2000b324 	.word	0x2000b324

0800e064 <pbuf_free_ooseq_callback>:
 800e064:	b508      	push	{r3, lr}
 800e066:	f005 fce7 	bl	8013a38 <sys_arch_protect>
 800e06a:	4b08      	ldr	r3, [pc, #32]	; (800e08c <pbuf_free_ooseq_callback+0x28>)
 800e06c:	2200      	movs	r2, #0
 800e06e:	701a      	strb	r2, [r3, #0]
 800e070:	f005 fcee 	bl	8013a50 <sys_arch_unprotect>
 800e074:	4b06      	ldr	r3, [pc, #24]	; (800e090 <pbuf_free_ooseq_callback+0x2c>)
 800e076:	6818      	ldr	r0, [r3, #0]
 800e078:	b900      	cbnz	r0, 800e07c <pbuf_free_ooseq_callback+0x18>
 800e07a:	bd08      	pop	{r3, pc}
 800e07c:	6f43      	ldr	r3, [r0, #116]	; 0x74
 800e07e:	b11b      	cbz	r3, 800e088 <pbuf_free_ooseq_callback+0x24>
 800e080:	e8bd 4008 	ldmia.w	sp!, {r3, lr}
 800e084:	f000 bde8 	b.w	800ec58 <tcp_free_ooseq>
 800e088:	68c0      	ldr	r0, [r0, #12]
 800e08a:	e7f5      	b.n	800e078 <pbuf_free_ooseq_callback+0x14>
 800e08c:	2000b32c 	.word	0x2000b32c
 800e090:	2000b334 	.word	0x2000b334

0800e094 <pbuf_add_header_impl>:
 800e094:	b538      	push	{r3, r4, r5, lr}
 800e096:	b968      	cbnz	r0, 800e0b4 <pbuf_add_header_impl+0x20>
 800e098:	4b14      	ldr	r3, [pc, #80]	; (800e0ec <pbuf_add_header_impl+0x58>)
 800e09a:	f240 12df 	movw	r2, #479	; 0x1df
 800e09e:	4914      	ldr	r1, [pc, #80]	; (800e0f0 <pbuf_add_header_impl+0x5c>)
 800e0a0:	4814      	ldr	r0, [pc, #80]	; (800e0f4 <pbuf_add_header_impl+0x60>)
 800e0a2:	f005 fd21 	bl	8013ae8 <iprintf>
 800e0a6:	2001      	movs	r0, #1
 800e0a8:	e01e      	b.n	800e0e8 <pbuf_add_header_impl+0x54>
 800e0aa:	2a00      	cmp	r2, #0
 800e0ac:	d0fb      	beq.n	800e0a6 <pbuf_add_header_impl+0x12>
 800e0ae:	6842      	ldr	r2, [r0, #4]
 800e0b0:	1a51      	subs	r1, r2, r1
 800e0b2:	e013      	b.n	800e0dc <pbuf_add_header_impl+0x48>
 800e0b4:	f5b1 3f80 	cmp.w	r1, #65536	; 0x10000
 800e0b8:	d2f5      	bcs.n	800e0a6 <pbuf_add_header_impl+0x12>
 800e0ba:	b1a1      	cbz	r1, 800e0e6 <pbuf_add_header_impl+0x52>
 800e0bc:	b28c      	uxth	r4, r1
 800e0be:	8903      	ldrh	r3, [r0, #8]
 800e0c0:	4423      	add	r3, r4
 800e0c2:	b29b      	uxth	r3, r3
 800e0c4:	429c      	cmp	r4, r3
 800e0c6:	d8ee      	bhi.n	800e0a6 <pbuf_add_header_impl+0x12>
 800e0c8:	f990 500c 	ldrsb.w	r5, [r0, #12]
 800e0cc:	2d00      	cmp	r5, #0
 800e0ce:	daec      	bge.n	800e0aa <pbuf_add_header_impl+0x16>
 800e0d0:	6842      	ldr	r2, [r0, #4]
 800e0d2:	1a51      	subs	r1, r2, r1
 800e0d4:	f100 0210 	add.w	r2, r0, #16
 800e0d8:	4291      	cmp	r1, r2
 800e0da:	d3e4      	bcc.n	800e0a6 <pbuf_add_header_impl+0x12>
 800e0dc:	8942      	ldrh	r2, [r0, #10]
 800e0de:	6041      	str	r1, [r0, #4]
 800e0e0:	4414      	add	r4, r2
 800e0e2:	8103      	strh	r3, [r0, #8]
 800e0e4:	8144      	strh	r4, [r0, #10]
 800e0e6:	2000      	movs	r0, #0
 800e0e8:	bd38      	pop	{r3, r4, r5, pc}
 800e0ea:	bf00      	nop
 800e0ec:	08025ce3 	.word	0x08025ce3
 800e0f0:	08025ef5 	.word	0x08025ef5
 800e0f4:	08014a3b 	.word	0x08014a3b

0800e0f8 <pbuf_alloc_reference>:
 800e0f8:	f022 0340 	bic.w	r3, r2, #64	; 0x40
 800e0fc:	2b01      	cmp	r3, #1
 800e0fe:	b570      	push	{r4, r5, r6, lr}
 800e100:	4606      	mov	r6, r0
 800e102:	460d      	mov	r5, r1
 800e104:	4614      	mov	r4, r2
 800e106:	d006      	beq.n	800e116 <pbuf_alloc_reference+0x1e>
 800e108:	4b0a      	ldr	r3, [pc, #40]	; (800e134 <pbuf_alloc_reference+0x3c>)
 800e10a:	f44f 72a5 	mov.w	r2, #330	; 0x14a
 800e10e:	490a      	ldr	r1, [pc, #40]	; (800e138 <pbuf_alloc_reference+0x40>)
 800e110:	480a      	ldr	r0, [pc, #40]	; (800e13c <pbuf_alloc_reference+0x44>)
 800e112:	f005 fce9 	bl	8013ae8 <iprintf>
 800e116:	200b      	movs	r0, #11
 800e118:	f7ff fdc4 	bl	800dca4 <memp_malloc>
 800e11c:	b148      	cbz	r0, 800e132 <pbuf_alloc_reference+0x3a>
 800e11e:	2300      	movs	r3, #0
 800e120:	2201      	movs	r2, #1
 800e122:	8105      	strh	r5, [r0, #8]
 800e124:	8145      	strh	r5, [r0, #10]
 800e126:	7304      	strb	r4, [r0, #12]
 800e128:	7343      	strb	r3, [r0, #13]
 800e12a:	7382      	strb	r2, [r0, #14]
 800e12c:	73c3      	strb	r3, [r0, #15]
 800e12e:	e9c0 3600 	strd	r3, r6, [r0]
 800e132:	bd70      	pop	{r4, r5, r6, pc}
 800e134:	08025ce3 	.word	0x08025ce3
 800e138:	08025d2e 	.word	0x08025d2e
 800e13c:	08014a3b 	.word	0x08014a3b

0800e140 <pbuf_alloced_custom>:
 800e140:	3003      	adds	r0, #3
 800e142:	f020 0003 	bic.w	r0, r0, #3
 800e146:	b570      	push	{r4, r5, r6, lr}
 800e148:	180e      	adds	r6, r1, r0
 800e14a:	f8bd 5014 	ldrh.w	r5, [sp, #20]
 800e14e:	9c04      	ldr	r4, [sp, #16]
 800e150:	42ae      	cmp	r6, r5
 800e152:	d80e      	bhi.n	800e172 <pbuf_alloced_custom+0x32>
 800e154:	b104      	cbz	r4, 800e158 <pbuf_alloced_custom+0x18>
 800e156:	4404      	add	r4, r0
 800e158:	4618      	mov	r0, r3
 800e15a:	2300      	movs	r3, #0
 800e15c:	7302      	strb	r2, [r0, #12]
 800e15e:	2202      	movs	r2, #2
 800e160:	8101      	strh	r1, [r0, #8]
 800e162:	7342      	strb	r2, [r0, #13]
 800e164:	2201      	movs	r2, #1
 800e166:	8141      	strh	r1, [r0, #10]
 800e168:	7382      	strb	r2, [r0, #14]
 800e16a:	73c3      	strb	r3, [r0, #15]
 800e16c:	e9c0 3400 	strd	r3, r4, [r0]
 800e170:	bd70      	pop	{r4, r5, r6, pc}
 800e172:	2000      	movs	r0, #0
 800e174:	e7fc      	b.n	800e170 <pbuf_alloced_custom+0x30>

0800e176 <pbuf_add_header>:
 800e176:	2200      	movs	r2, #0
 800e178:	f7ff bf8c 	b.w	800e094 <pbuf_add_header_impl>

0800e17c <pbuf_remove_header>:
 800e17c:	b510      	push	{r4, lr}
 800e17e:	b990      	cbnz	r0, 800e1a6 <pbuf_remove_header+0x2a>
 800e180:	4b10      	ldr	r3, [pc, #64]	; (800e1c4 <pbuf_remove_header+0x48>)
 800e182:	f240 224b 	movw	r2, #587	; 0x24b
 800e186:	4910      	ldr	r1, [pc, #64]	; (800e1c8 <pbuf_remove_header+0x4c>)
 800e188:	4810      	ldr	r0, [pc, #64]	; (800e1cc <pbuf_remove_header+0x50>)
 800e18a:	f005 fcad 	bl	8013ae8 <iprintf>
 800e18e:	2001      	movs	r0, #1
 800e190:	e008      	b.n	800e1a4 <pbuf_remove_header+0x28>
 800e192:	1a9b      	subs	r3, r3, r2
 800e194:	6844      	ldr	r4, [r0, #4]
 800e196:	8143      	strh	r3, [r0, #10]
 800e198:	4421      	add	r1, r4
 800e19a:	8903      	ldrh	r3, [r0, #8]
 800e19c:	6041      	str	r1, [r0, #4]
 800e19e:	1a9b      	subs	r3, r3, r2
 800e1a0:	8103      	strh	r3, [r0, #8]
 800e1a2:	2000      	movs	r0, #0
 800e1a4:	bd10      	pop	{r4, pc}
 800e1a6:	f5b1 3f80 	cmp.w	r1, #65536	; 0x10000
 800e1aa:	d2f0      	bcs.n	800e18e <pbuf_remove_header+0x12>
 800e1ac:	2900      	cmp	r1, #0
 800e1ae:	d0f8      	beq.n	800e1a2 <pbuf_remove_header+0x26>
 800e1b0:	b28a      	uxth	r2, r1
 800e1b2:	8943      	ldrh	r3, [r0, #10]
 800e1b4:	4293      	cmp	r3, r2
 800e1b6:	d2ec      	bcs.n	800e192 <pbuf_remove_header+0x16>
 800e1b8:	4b02      	ldr	r3, [pc, #8]	; (800e1c4 <pbuf_remove_header+0x48>)
 800e1ba:	f240 2255 	movw	r2, #597	; 0x255
 800e1be:	4904      	ldr	r1, [pc, #16]	; (800e1d0 <pbuf_remove_header+0x54>)
 800e1c0:	e7e2      	b.n	800e188 <pbuf_remove_header+0xc>
 800e1c2:	bf00      	nop
 800e1c4:	08025ce3 	.word	0x08025ce3
 800e1c8:	08025ef5 	.word	0x08025ef5
 800e1cc:	08014a3b 	.word	0x08014a3b
 800e1d0:	08025f45 	.word	0x08025f45

0800e1d4 <pbuf_header_force>:
 800e1d4:	1e0b      	subs	r3, r1, #0
 800e1d6:	da02      	bge.n	800e1de <pbuf_header_force+0xa>
 800e1d8:	4259      	negs	r1, r3
 800e1da:	f7ff bfcf 	b.w	800e17c <pbuf_remove_header>
 800e1de:	2201      	movs	r2, #1
 800e1e0:	f7ff bf58 	b.w	800e094 <pbuf_add_header_impl>

0800e1e4 <pbuf_free>:
 800e1e4:	e92d 47f0 	stmdb	sp!, {r4, r5, r6, r7, r8, r9, sl, lr}
 800e1e8:	4604      	mov	r4, r0
 800e1ea:	b950      	cbnz	r0, 800e202 <pbuf_free+0x1e>
 800e1ec:	4625      	mov	r5, r4
 800e1ee:	4b2b      	ldr	r3, [pc, #172]	; (800e29c <pbuf_free+0xb8>)
 800e1f0:	f44f 7237 	mov.w	r2, #732	; 0x2dc
 800e1f4:	492a      	ldr	r1, [pc, #168]	; (800e2a0 <pbuf_free+0xbc>)
 800e1f6:	482b      	ldr	r0, [pc, #172]	; (800e2a4 <pbuf_free+0xc0>)
 800e1f8:	f005 fc76 	bl	8013ae8 <iprintf>
 800e1fc:	4628      	mov	r0, r5
 800e1fe:	e8bd 87f0 	ldmia.w	sp!, {r4, r5, r6, r7, r8, r9, sl, pc}
 800e202:	2500      	movs	r5, #0
 800e204:	4f25      	ldr	r7, [pc, #148]	; (800e29c <pbuf_free+0xb8>)
 800e206:	f8df 90a8 	ldr.w	r9, [pc, #168]	; 800e2b0 <pbuf_free+0xcc>
 800e20a:	f8df 8098 	ldr.w	r8, [pc, #152]	; 800e2a4 <pbuf_free+0xc0>
 800e20e:	f005 fc13 	bl	8013a38 <sys_arch_protect>
 800e212:	7ba3      	ldrb	r3, [r4, #14]
 800e214:	4682      	mov	sl, r0
 800e216:	b933      	cbnz	r3, 800e226 <pbuf_free+0x42>
 800e218:	463b      	mov	r3, r7
 800e21a:	f240 22f1 	movw	r2, #753	; 0x2f1
 800e21e:	4649      	mov	r1, r9
 800e220:	4640      	mov	r0, r8
 800e222:	f005 fc61 	bl	8013ae8 <iprintf>
 800e226:	7ba6      	ldrb	r6, [r4, #14]
 800e228:	4650      	mov	r0, sl
 800e22a:	3e01      	subs	r6, #1
 800e22c:	b2f6      	uxtb	r6, r6
 800e22e:	73a6      	strb	r6, [r4, #14]
 800e230:	f005 fc0e 	bl	8013a50 <sys_arch_unprotect>
 800e234:	2e00      	cmp	r6, #0
 800e236:	d1e1      	bne.n	800e1fc <pbuf_free+0x18>
 800e238:	7b63      	ldrb	r3, [r4, #13]
 800e23a:	6826      	ldr	r6, [r4, #0]
 800e23c:	079b      	lsls	r3, r3, #30
 800e23e:	d511      	bpl.n	800e264 <pbuf_free+0x80>
 800e240:	6923      	ldr	r3, [r4, #16]
 800e242:	b933      	cbnz	r3, 800e252 <pbuf_free+0x6e>
 800e244:	463b      	mov	r3, r7
 800e246:	f240 22ff 	movw	r2, #767	; 0x2ff
 800e24a:	4917      	ldr	r1, [pc, #92]	; (800e2a8 <pbuf_free+0xc4>)
 800e24c:	4640      	mov	r0, r8
 800e24e:	f005 fc4b 	bl	8013ae8 <iprintf>
 800e252:	6923      	ldr	r3, [r4, #16]
 800e254:	4620      	mov	r0, r4
 800e256:	4798      	blx	r3
 800e258:	3501      	adds	r5, #1
 800e25a:	4634      	mov	r4, r6
 800e25c:	b2ed      	uxtb	r5, r5
 800e25e:	2e00      	cmp	r6, #0
 800e260:	d1d5      	bne.n	800e20e <pbuf_free+0x2a>
 800e262:	e7cb      	b.n	800e1fc <pbuf_free+0x18>
 800e264:	7b23      	ldrb	r3, [r4, #12]
 800e266:	f003 030f 	and.w	r3, r3, #15
 800e26a:	2b02      	cmp	r3, #2
 800e26c:	d104      	bne.n	800e278 <pbuf_free+0x94>
 800e26e:	4621      	mov	r1, r4
 800e270:	200c      	movs	r0, #12
 800e272:	f7ff fd33 	bl	800dcdc <memp_free>
 800e276:	e7ef      	b.n	800e258 <pbuf_free+0x74>
 800e278:	2b01      	cmp	r3, #1
 800e27a:	d102      	bne.n	800e282 <pbuf_free+0x9e>
 800e27c:	4621      	mov	r1, r4
 800e27e:	200b      	movs	r0, #11
 800e280:	e7f7      	b.n	800e272 <pbuf_free+0x8e>
 800e282:	b91b      	cbnz	r3, 800e28c <pbuf_free+0xa8>
 800e284:	4620      	mov	r0, r4
 800e286:	f7ff fa79 	bl	800d77c <mem_free>
 800e28a:	e7e5      	b.n	800e258 <pbuf_free+0x74>
 800e28c:	463b      	mov	r3, r7
 800e28e:	f240 320f 	movw	r2, #783	; 0x30f
 800e292:	4906      	ldr	r1, [pc, #24]	; (800e2ac <pbuf_free+0xc8>)
 800e294:	4640      	mov	r0, r8
 800e296:	f005 fc27 	bl	8013ae8 <iprintf>
 800e29a:	e7dd      	b.n	800e258 <pbuf_free+0x74>
 800e29c:	08025ce3 	.word	0x08025ce3
 800e2a0:	08025ef5 	.word	0x08025ef5
 800e2a4:	08014a3b 	.word	0x08014a3b
 800e2a8:	08025eb4 	.word	0x08025eb4
 800e2ac:	08025ed5 	.word	0x08025ed5
 800e2b0:	08025e9e 	.word	0x08025e9e

0800e2b4 <pbuf_alloc>:
 800e2b4:	2a41      	cmp	r2, #65	; 0x41
 800e2b6:	e92d 43f8 	stmdb	sp!, {r3, r4, r5, r6, r7, r8, r9, lr}
 800e2ba:	4607      	mov	r7, r0
 800e2bc:	460e      	mov	r6, r1
 800e2be:	b284      	uxth	r4, r0
 800e2c0:	d030      	beq.n	800e324 <pbuf_alloc+0x70>
 800e2c2:	d809      	bhi.n	800e2d8 <pbuf_alloc+0x24>
 800e2c4:	2a01      	cmp	r2, #1
 800e2c6:	d02d      	beq.n	800e324 <pbuf_alloc+0x70>
 800e2c8:	4b3c      	ldr	r3, [pc, #240]	; (800e3bc <pbuf_alloc+0x108>)
 800e2ca:	f240 1227 	movw	r2, #295	; 0x127
 800e2ce:	493c      	ldr	r1, [pc, #240]	; (800e3c0 <pbuf_alloc+0x10c>)
 800e2d0:	483c      	ldr	r0, [pc, #240]	; (800e3c4 <pbuf_alloc+0x110>)
 800e2d2:	f005 fc09 	bl	8013ae8 <iprintf>
 800e2d6:	e04a      	b.n	800e36e <pbuf_alloc+0xba>
 800e2d8:	f5b2 7fc1 	cmp.w	r2, #386	; 0x182
 800e2dc:	d028      	beq.n	800e330 <pbuf_alloc+0x7c>
 800e2de:	f5b2 7f20 	cmp.w	r2, #640	; 0x280
 800e2e2:	d1f1      	bne.n	800e2c8 <pbuf_alloc+0x14>
 800e2e4:	3403      	adds	r4, #3
 800e2e6:	1ccb      	adds	r3, r1, #3
 800e2e8:	f024 0403 	bic.w	r4, r4, #3
 800e2ec:	f023 0303 	bic.w	r3, r3, #3
 800e2f0:	441c      	add	r4, r3
 800e2f2:	b2a4      	uxth	r4, r4
 800e2f4:	f104 0010 	add.w	r0, r4, #16
 800e2f8:	429c      	cmp	r4, r3
 800e2fa:	b280      	uxth	r0, r0
 800e2fc:	d337      	bcc.n	800e36e <pbuf_alloc+0xba>
 800e2fe:	4283      	cmp	r3, r0
 800e300:	d835      	bhi.n	800e36e <pbuf_alloc+0xba>
 800e302:	f7ff fbc3 	bl	800da8c <mem_malloc>
 800e306:	4605      	mov	r5, r0
 800e308:	2800      	cmp	r0, #0
 800e30a:	d052      	beq.n	800e3b2 <pbuf_alloc+0xfe>
 800e30c:	4407      	add	r7, r0
 800e30e:	2300      	movs	r3, #0
 800e310:	8106      	strh	r6, [r0, #8]
 800e312:	3713      	adds	r7, #19
 800e314:	6003      	str	r3, [r0, #0]
 800e316:	4b2c      	ldr	r3, [pc, #176]	; (800e3c8 <pbuf_alloc+0x114>)
 800e318:	f027 0703 	bic.w	r7, r7, #3
 800e31c:	8146      	strh	r6, [r0, #10]
 800e31e:	60c3      	str	r3, [r0, #12]
 800e320:	6047      	str	r7, [r0, #4]
 800e322:	e046      	b.n	800e3b2 <pbuf_alloc+0xfe>
 800e324:	4631      	mov	r1, r6
 800e326:	2000      	movs	r0, #0
 800e328:	e8bd 43f8 	ldmia.w	sp!, {r3, r4, r5, r6, r7, r8, r9, lr}
 800e32c:	f7ff bee4 	b.w	800e0f8 <pbuf_alloc_reference>
 800e330:	f04f 0900 	mov.w	r9, #0
 800e334:	f8df 809c 	ldr.w	r8, [pc, #156]	; 800e3d4 <pbuf_alloc+0x120>
 800e338:	464d      	mov	r5, r9
 800e33a:	464f      	mov	r7, r9
 800e33c:	200c      	movs	r0, #12
 800e33e:	f7ff fcb1 	bl	800dca4 <memp_malloc>
 800e342:	b9d0      	cbnz	r0, 800e37a <pbuf_alloc+0xc6>
 800e344:	4e21      	ldr	r6, [pc, #132]	; (800e3cc <pbuf_alloc+0x118>)
 800e346:	f005 fb77 	bl	8013a38 <sys_arch_protect>
 800e34a:	2301      	movs	r3, #1
 800e34c:	7834      	ldrb	r4, [r6, #0]
 800e34e:	7033      	strb	r3, [r6, #0]
 800e350:	b2e4      	uxtb	r4, r4
 800e352:	f005 fb7d 	bl	8013a50 <sys_arch_unprotect>
 800e356:	b94c      	cbnz	r4, 800e36c <pbuf_alloc+0xb8>
 800e358:	4621      	mov	r1, r4
 800e35a:	481d      	ldr	r0, [pc, #116]	; (800e3d0 <pbuf_alloc+0x11c>)
 800e35c:	f7fe fe26 	bl	800cfac <tcpip_try_callback>
 800e360:	b120      	cbz	r0, 800e36c <pbuf_alloc+0xb8>
 800e362:	f005 fb69 	bl	8013a38 <sys_arch_protect>
 800e366:	7034      	strb	r4, [r6, #0]
 800e368:	f005 fb72 	bl	8013a50 <sys_arch_unprotect>
 800e36c:	b90d      	cbnz	r5, 800e372 <pbuf_alloc+0xbe>
 800e36e:	2500      	movs	r5, #0
 800e370:	e01f      	b.n	800e3b2 <pbuf_alloc+0xfe>
 800e372:	4628      	mov	r0, r5
 800e374:	f7ff ff36 	bl	800e1e4 <pbuf_free>
 800e378:	e7f9      	b.n	800e36e <pbuf_alloc+0xba>
 800e37a:	1ce3      	adds	r3, r4, #3
 800e37c:	4404      	add	r4, r0
 800e37e:	6007      	str	r7, [r0, #0]
 800e380:	f023 0303 	bic.w	r3, r3, #3
 800e384:	3413      	adds	r4, #19
 800e386:	8106      	strh	r6, [r0, #8]
 800e388:	f5c3 7314 	rsb	r3, r3, #592	; 0x250
 800e38c:	f024 0403 	bic.w	r4, r4, #3
 800e390:	f8c0 800c 	str.w	r8, [r0, #12]
 800e394:	b29b      	uxth	r3, r3
 800e396:	6044      	str	r4, [r0, #4]
 800e398:	42b3      	cmp	r3, r6
 800e39a:	bf28      	it	cs
 800e39c:	4633      	movcs	r3, r6
 800e39e:	8143      	strh	r3, [r0, #10]
 800e3a0:	b155      	cbz	r5, 800e3b8 <pbuf_alloc+0x104>
 800e3a2:	f8c9 0000 	str.w	r0, [r9]
 800e3a6:	1af3      	subs	r3, r6, r3
 800e3a8:	2400      	movs	r4, #0
 800e3aa:	4681      	mov	r9, r0
 800e3ac:	b29e      	uxth	r6, r3
 800e3ae:	2e00      	cmp	r6, #0
 800e3b0:	d1c4      	bne.n	800e33c <pbuf_alloc+0x88>
 800e3b2:	4628      	mov	r0, r5
 800e3b4:	e8bd 83f8 	ldmia.w	sp!, {r3, r4, r5, r6, r7, r8, r9, pc}
 800e3b8:	4605      	mov	r5, r0
 800e3ba:	e7f4      	b.n	800e3a6 <pbuf_alloc+0xf2>
 800e3bc:	08025ce3 	.word	0x08025ce3
 800e3c0:	08025d13 	.word	0x08025d13
 800e3c4:	08014a3b 	.word	0x08014a3b
 800e3c8:	00010080 	.word	0x00010080
 800e3cc:	2000b32c 	.word	0x2000b32c
 800e3d0:	0800e065 	.word	0x0800e065
 800e3d4:	00010082 	.word	0x00010082

0800e3d8 <pbuf_realloc>:
 800e3d8:	e92d 43f8 	stmdb	sp!, {r3, r4, r5, r6, r7, r8, r9, lr}
 800e3dc:	460d      	mov	r5, r1
 800e3de:	4604      	mov	r4, r0
 800e3e0:	b930      	cbnz	r0, 800e3f0 <pbuf_realloc+0x18>
 800e3e2:	4b24      	ldr	r3, [pc, #144]	; (800e474 <pbuf_realloc+0x9c>)
 800e3e4:	f44f 72cc 	mov.w	r2, #408	; 0x198
 800e3e8:	4923      	ldr	r1, [pc, #140]	; (800e478 <pbuf_realloc+0xa0>)
 800e3ea:	4824      	ldr	r0, [pc, #144]	; (800e47c <pbuf_realloc+0xa4>)
 800e3ec:	f005 fb7c 	bl	8013ae8 <iprintf>
 800e3f0:	8923      	ldrh	r3, [r4, #8]
 800e3f2:	42ab      	cmp	r3, r5
 800e3f4:	d93b      	bls.n	800e46e <pbuf_realloc+0x96>
 800e3f6:	1b5b      	subs	r3, r3, r5
 800e3f8:	4f1e      	ldr	r7, [pc, #120]	; (800e474 <pbuf_realloc+0x9c>)
 800e3fa:	f8df 8088 	ldr.w	r8, [pc, #136]	; 800e484 <pbuf_realloc+0xac>
 800e3fe:	b29e      	uxth	r6, r3
 800e400:	f8df 9078 	ldr.w	r9, [pc, #120]	; 800e47c <pbuf_realloc+0xa4>
 800e404:	8963      	ldrh	r3, [r4, #10]
 800e406:	42ab      	cmp	r3, r5
 800e408:	d319      	bcc.n	800e43e <pbuf_realloc+0x66>
 800e40a:	7b22      	ldrb	r2, [r4, #12]
 800e40c:	0712      	lsls	r2, r2, #28
 800e40e:	d126      	bne.n	800e45e <pbuf_realloc+0x86>
 800e410:	42ab      	cmp	r3, r5
 800e412:	d024      	beq.n	800e45e <pbuf_realloc+0x86>
 800e414:	7b63      	ldrb	r3, [r4, #13]
 800e416:	079b      	lsls	r3, r3, #30
 800e418:	d421      	bmi.n	800e45e <pbuf_realloc+0x86>
 800e41a:	6861      	ldr	r1, [r4, #4]
 800e41c:	4620      	mov	r0, r4
 800e41e:	1b09      	subs	r1, r1, r4
 800e420:	4429      	add	r1, r5
 800e422:	b289      	uxth	r1, r1
 800e424:	f7ff fa86 	bl	800d934 <mem_trim>
 800e428:	4604      	mov	r4, r0
 800e42a:	b9c0      	cbnz	r0, 800e45e <pbuf_realloc+0x86>
 800e42c:	4b11      	ldr	r3, [pc, #68]	; (800e474 <pbuf_realloc+0x9c>)
 800e42e:	f240 12bd 	movw	r2, #445	; 0x1bd
 800e432:	4913      	ldr	r1, [pc, #76]	; (800e480 <pbuf_realloc+0xa8>)
 800e434:	4811      	ldr	r0, [pc, #68]	; (800e47c <pbuf_realloc+0xa4>)
 800e436:	f005 fb57 	bl	8013ae8 <iprintf>
 800e43a:	8164      	strh	r4, [r4, #10]
 800e43c:	deff      	udf	#255	; 0xff
 800e43e:	1aed      	subs	r5, r5, r3
 800e440:	8923      	ldrh	r3, [r4, #8]
 800e442:	1b9b      	subs	r3, r3, r6
 800e444:	b2ad      	uxth	r5, r5
 800e446:	8123      	strh	r3, [r4, #8]
 800e448:	6824      	ldr	r4, [r4, #0]
 800e44a:	2c00      	cmp	r4, #0
 800e44c:	d1da      	bne.n	800e404 <pbuf_realloc+0x2c>
 800e44e:	463b      	mov	r3, r7
 800e450:	f240 12af 	movw	r2, #431	; 0x1af
 800e454:	4641      	mov	r1, r8
 800e456:	4648      	mov	r0, r9
 800e458:	f005 fb46 	bl	8013ae8 <iprintf>
 800e45c:	e7d2      	b.n	800e404 <pbuf_realloc+0x2c>
 800e45e:	6820      	ldr	r0, [r4, #0]
 800e460:	8165      	strh	r5, [r4, #10]
 800e462:	8125      	strh	r5, [r4, #8]
 800e464:	b108      	cbz	r0, 800e46a <pbuf_realloc+0x92>
 800e466:	f7ff febd 	bl	800e1e4 <pbuf_free>
 800e46a:	2300      	movs	r3, #0
 800e46c:	6023      	str	r3, [r4, #0]
 800e46e:	e8bd 83f8 	ldmia.w	sp!, {r3, r4, r5, r6, r7, r8, r9, pc}
 800e472:	bf00      	nop
 800e474:	08025ce3 	.word	0x08025ce3
 800e478:	08025ee7 	.word	0x08025ee7
 800e47c:	08014a3b 	.word	0x08014a3b
 800e480:	08025f17 	.word	0x08025f17
 800e484:	08025eff 	.word	0x08025eff

0800e488 <pbuf_clen>:
 800e488:	4603      	mov	r3, r0
 800e48a:	2200      	movs	r2, #0
 800e48c:	b290      	uxth	r0, r2
 800e48e:	3201      	adds	r2, #1
 800e490:	b903      	cbnz	r3, 800e494 <pbuf_clen+0xc>
 800e492:	4770      	bx	lr
 800e494:	681b      	ldr	r3, [r3, #0]
 800e496:	e7f9      	b.n	800e48c <pbuf_clen+0x4>

0800e498 <pbuf_ref>:
 800e498:	b510      	push	{r4, lr}
 800e49a:	4604      	mov	r4, r0
 800e49c:	b188      	cbz	r0, 800e4c2 <pbuf_ref+0x2a>
 800e49e:	f005 facb 	bl	8013a38 <sys_arch_protect>
 800e4a2:	7ba3      	ldrb	r3, [r4, #14]
 800e4a4:	3301      	adds	r3, #1
 800e4a6:	73a3      	strb	r3, [r4, #14]
 800e4a8:	f005 fad2 	bl	8013a50 <sys_arch_unprotect>
 800e4ac:	7ba3      	ldrb	r3, [r4, #14]
 800e4ae:	b943      	cbnz	r3, 800e4c2 <pbuf_ref+0x2a>
 800e4b0:	4b04      	ldr	r3, [pc, #16]	; (800e4c4 <pbuf_ref+0x2c>)
 800e4b2:	f240 3242 	movw	r2, #834	; 0x342
 800e4b6:	4904      	ldr	r1, [pc, #16]	; (800e4c8 <pbuf_ref+0x30>)
 800e4b8:	4804      	ldr	r0, [pc, #16]	; (800e4cc <pbuf_ref+0x34>)
 800e4ba:	e8bd 4010 	ldmia.w	sp!, {r4, lr}
 800e4be:	f005 bb13 	b.w	8013ae8 <iprintf>
 800e4c2:	bd10      	pop	{r4, pc}
 800e4c4:	08025ce3 	.word	0x08025ce3
 800e4c8:	08025f33 	.word	0x08025f33
 800e4cc:	08014a3b 	.word	0x08014a3b

0800e4d0 <pbuf_cat>:
 800e4d0:	b570      	push	{r4, r5, r6, lr}
 800e4d2:	460d      	mov	r5, r1
 800e4d4:	4604      	mov	r4, r0
 800e4d6:	b100      	cbz	r0, 800e4da <pbuf_cat+0xa>
 800e4d8:	b961      	cbnz	r1, 800e4f4 <pbuf_cat+0x24>
 800e4da:	4b15      	ldr	r3, [pc, #84]	; (800e530 <pbuf_cat+0x60>)
 800e4dc:	f240 325a 	movw	r2, #858	; 0x35a
 800e4e0:	4914      	ldr	r1, [pc, #80]	; (800e534 <pbuf_cat+0x64>)
 800e4e2:	4815      	ldr	r0, [pc, #84]	; (800e538 <pbuf_cat+0x68>)
 800e4e4:	e8bd 4070 	ldmia.w	sp!, {r4, r5, r6, lr}
 800e4e8:	f005 bafe 	b.w	8013ae8 <iprintf>
 800e4ec:	8929      	ldrh	r1, [r5, #8]
 800e4ee:	440b      	add	r3, r1
 800e4f0:	8123      	strh	r3, [r4, #8]
 800e4f2:	4614      	mov	r4, r2
 800e4f4:	6822      	ldr	r2, [r4, #0]
 800e4f6:	8923      	ldrh	r3, [r4, #8]
 800e4f8:	2a00      	cmp	r2, #0
 800e4fa:	d1f7      	bne.n	800e4ec <pbuf_cat+0x1c>
 800e4fc:	8962      	ldrh	r2, [r4, #10]
 800e4fe:	429a      	cmp	r2, r3
 800e500:	d006      	beq.n	800e510 <pbuf_cat+0x40>
 800e502:	4b0b      	ldr	r3, [pc, #44]	; (800e530 <pbuf_cat+0x60>)
 800e504:	f240 3262 	movw	r2, #866	; 0x362
 800e508:	490c      	ldr	r1, [pc, #48]	; (800e53c <pbuf_cat+0x6c>)
 800e50a:	480b      	ldr	r0, [pc, #44]	; (800e538 <pbuf_cat+0x68>)
 800e50c:	f005 faec 	bl	8013ae8 <iprintf>
 800e510:	6823      	ldr	r3, [r4, #0]
 800e512:	b133      	cbz	r3, 800e522 <pbuf_cat+0x52>
 800e514:	4b06      	ldr	r3, [pc, #24]	; (800e530 <pbuf_cat+0x60>)
 800e516:	f240 3263 	movw	r2, #867	; 0x363
 800e51a:	4909      	ldr	r1, [pc, #36]	; (800e540 <pbuf_cat+0x70>)
 800e51c:	4806      	ldr	r0, [pc, #24]	; (800e538 <pbuf_cat+0x68>)
 800e51e:	f005 fae3 	bl	8013ae8 <iprintf>
 800e522:	892a      	ldrh	r2, [r5, #8]
 800e524:	8923      	ldrh	r3, [r4, #8]
 800e526:	6025      	str	r5, [r4, #0]
 800e528:	4413      	add	r3, r2
 800e52a:	8123      	strh	r3, [r4, #8]
 800e52c:	bd70      	pop	{r4, r5, r6, pc}
 800e52e:	bf00      	nop
 800e530:	08025ce3 	.word	0x08025ce3
 800e534:	08025d40 	.word	0x08025d40
 800e538:	08014a3b 	.word	0x08014a3b
 800e53c:	08025d75 	.word	0x08025d75
 800e540:	08025da2 	.word	0x08025da2

0800e544 <pbuf_copy>:
 800e544:	e92d 4ff8 	stmdb	sp!, {r3, r4, r5, r6, r7, r8, r9, sl, fp, lr}
 800e548:	460c      	mov	r4, r1
 800e54a:	4605      	mov	r5, r0
 800e54c:	b120      	cbz	r0, 800e558 <pbuf_copy+0x14>
 800e54e:	b119      	cbz	r1, 800e558 <pbuf_copy+0x14>
 800e550:	8902      	ldrh	r2, [r0, #8]
 800e552:	890b      	ldrh	r3, [r1, #8]
 800e554:	429a      	cmp	r2, r3
 800e556:	d20a      	bcs.n	800e56e <pbuf_copy+0x2a>
 800e558:	4b34      	ldr	r3, [pc, #208]	; (800e62c <pbuf_copy+0xe8>)
 800e55a:	f240 32ca 	movw	r2, #970	; 0x3ca
 800e55e:	4934      	ldr	r1, [pc, #208]	; (800e630 <pbuf_copy+0xec>)
 800e560:	4834      	ldr	r0, [pc, #208]	; (800e634 <pbuf_copy+0xf0>)
 800e562:	f005 fac1 	bl	8013ae8 <iprintf>
 800e566:	f06f 000f 	mvn.w	r0, #15
 800e56a:	e8bd 8ff8 	ldmia.w	sp!, {r3, r4, r5, r6, r7, r8, r9, sl, fp, pc}
 800e56e:	2600      	movs	r6, #0
 800e570:	f8df 90b8 	ldr.w	r9, [pc, #184]	; 800e62c <pbuf_copy+0xe8>
 800e574:	f8df b0cc 	ldr.w	fp, [pc, #204]	; 800e644 <pbuf_copy+0x100>
 800e578:	4637      	mov	r7, r6
 800e57a:	f8df a0b8 	ldr.w	sl, [pc, #184]	; 800e634 <pbuf_copy+0xf0>
 800e57e:	f8b5 800a 	ldrh.w	r8, [r5, #10]
 800e582:	8963      	ldrh	r3, [r4, #10]
 800e584:	eba8 0807 	sub.w	r8, r8, r7
 800e588:	6868      	ldr	r0, [r5, #4]
 800e58a:	1b9b      	subs	r3, r3, r6
 800e58c:	6861      	ldr	r1, [r4, #4]
 800e58e:	4438      	add	r0, r7
 800e590:	4598      	cmp	r8, r3
 800e592:	4431      	add	r1, r6
 800e594:	bf28      	it	cs
 800e596:	4698      	movcs	r8, r3
 800e598:	4642      	mov	r2, r8
 800e59a:	4447      	add	r7, r8
 800e59c:	f005 fa91 	bl	8013ac2 <memcpy>
 800e5a0:	896b      	ldrh	r3, [r5, #10]
 800e5a2:	4446      	add	r6, r8
 800e5a4:	429f      	cmp	r7, r3
 800e5a6:	d906      	bls.n	800e5b6 <pbuf_copy+0x72>
 800e5a8:	464b      	mov	r3, r9
 800e5aa:	f240 32d9 	movw	r2, #985	; 0x3d9
 800e5ae:	4659      	mov	r1, fp
 800e5b0:	4650      	mov	r0, sl
 800e5b2:	f005 fa99 	bl	8013ae8 <iprintf>
 800e5b6:	8963      	ldrh	r3, [r4, #10]
 800e5b8:	429e      	cmp	r6, r3
 800e5ba:	d906      	bls.n	800e5ca <pbuf_copy+0x86>
 800e5bc:	464b      	mov	r3, r9
 800e5be:	f240 32da 	movw	r2, #986	; 0x3da
 800e5c2:	491d      	ldr	r1, [pc, #116]	; (800e638 <pbuf_copy+0xf4>)
 800e5c4:	4650      	mov	r0, sl
 800e5c6:	f005 fa8f 	bl	8013ae8 <iprintf>
 800e5ca:	8963      	ldrh	r3, [r4, #10]
 800e5cc:	429e      	cmp	r6, r3
 800e5ce:	896b      	ldrh	r3, [r5, #10]
 800e5d0:	bf24      	itt	cs
 800e5d2:	6824      	ldrcs	r4, [r4, #0]
 800e5d4:	2600      	movcs	r6, #0
 800e5d6:	429f      	cmp	r7, r3
 800e5d8:	d108      	bne.n	800e5ec <pbuf_copy+0xa8>
 800e5da:	682d      	ldr	r5, [r5, #0]
 800e5dc:	b92d      	cbnz	r5, 800e5ea <pbuf_copy+0xa6>
 800e5de:	b314      	cbz	r4, 800e626 <pbuf_copy+0xe2>
 800e5e0:	4b12      	ldr	r3, [pc, #72]	; (800e62c <pbuf_copy+0xe8>)
 800e5e2:	f44f 7279 	mov.w	r2, #996	; 0x3e4
 800e5e6:	4915      	ldr	r1, [pc, #84]	; (800e63c <pbuf_copy+0xf8>)
 800e5e8:	e7ba      	b.n	800e560 <pbuf_copy+0x1c>
 800e5ea:	2700      	movs	r7, #0
 800e5ec:	b17c      	cbz	r4, 800e60e <pbuf_copy+0xca>
 800e5ee:	8962      	ldrh	r2, [r4, #10]
 800e5f0:	8923      	ldrh	r3, [r4, #8]
 800e5f2:	429a      	cmp	r2, r3
 800e5f4:	d10b      	bne.n	800e60e <pbuf_copy+0xca>
 800e5f6:	6823      	ldr	r3, [r4, #0]
 800e5f8:	b14b      	cbz	r3, 800e60e <pbuf_copy+0xca>
 800e5fa:	4b0c      	ldr	r3, [pc, #48]	; (800e62c <pbuf_copy+0xe8>)
 800e5fc:	f240 32ea 	movw	r2, #1002	; 0x3ea
 800e600:	490f      	ldr	r1, [pc, #60]	; (800e640 <pbuf_copy+0xfc>)
 800e602:	480c      	ldr	r0, [pc, #48]	; (800e634 <pbuf_copy+0xf0>)
 800e604:	f005 fa70 	bl	8013ae8 <iprintf>
 800e608:	f06f 0005 	mvn.w	r0, #5
 800e60c:	e7ad      	b.n	800e56a <pbuf_copy+0x26>
 800e60e:	896a      	ldrh	r2, [r5, #10]
 800e610:	892b      	ldrh	r3, [r5, #8]
 800e612:	429a      	cmp	r2, r3
 800e614:	d105      	bne.n	800e622 <pbuf_copy+0xde>
 800e616:	682b      	ldr	r3, [r5, #0]
 800e618:	b11b      	cbz	r3, 800e622 <pbuf_copy+0xde>
 800e61a:	4b04      	ldr	r3, [pc, #16]	; (800e62c <pbuf_copy+0xe8>)
 800e61c:	f240 32ef 	movw	r2, #1007	; 0x3ef
 800e620:	e7ee      	b.n	800e600 <pbuf_copy+0xbc>
 800e622:	2c00      	cmp	r4, #0
 800e624:	d1ab      	bne.n	800e57e <pbuf_copy+0x3a>
 800e626:	4620      	mov	r0, r4
 800e628:	e79f      	b.n	800e56a <pbuf_copy+0x26>
 800e62a:	bf00      	nop
 800e62c:	08025ce3 	.word	0x08025ce3
 800e630:	08025dc3 	.word	0x08025dc3
 800e634:	08014a3b 	.word	0x08014a3b
 800e638:	08025e0a 	.word	0x08025e0a
 800e63c:	08025e25 	.word	0x08025e25
 800e640:	08025e32 	.word	0x08025e32
 800e644:	08025df3 	.word	0x08025df3

0800e648 <pbuf_copy_partial>:
 800e648:	e92d 41f0 	stmdb	sp!, {r4, r5, r6, r7, r8, lr}
 800e64c:	460f      	mov	r7, r1
 800e64e:	4690      	mov	r8, r2
 800e650:	4606      	mov	r6, r0
 800e652:	b950      	cbnz	r0, 800e66a <pbuf_copy_partial+0x22>
 800e654:	4635      	mov	r5, r6
 800e656:	4b1b      	ldr	r3, [pc, #108]	; (800e6c4 <pbuf_copy_partial+0x7c>)
 800e658:	f240 420a 	movw	r2, #1034	; 0x40a
 800e65c:	491a      	ldr	r1, [pc, #104]	; (800e6c8 <pbuf_copy_partial+0x80>)
 800e65e:	481b      	ldr	r0, [pc, #108]	; (800e6cc <pbuf_copy_partial+0x84>)
 800e660:	f005 fa42 	bl	8013ae8 <iprintf>
 800e664:	4628      	mov	r0, r5
 800e666:	e8bd 81f0 	ldmia.w	sp!, {r4, r5, r6, r7, r8, pc}
 800e66a:	bb41      	cbnz	r1, 800e6be <pbuf_copy_partial+0x76>
 800e66c:	4b15      	ldr	r3, [pc, #84]	; (800e6c4 <pbuf_copy_partial+0x7c>)
 800e66e:	f240 420b 	movw	r2, #1035	; 0x40b
 800e672:	4917      	ldr	r1, [pc, #92]	; (800e6d0 <pbuf_copy_partial+0x88>)
 800e674:	463d      	mov	r5, r7
 800e676:	4815      	ldr	r0, [pc, #84]	; (800e6cc <pbuf_copy_partial+0x84>)
 800e678:	f005 fa36 	bl	8013ae8 <iprintf>
 800e67c:	e7f2      	b.n	800e664 <pbuf_copy_partial+0x1c>
 800e67e:	8972      	ldrh	r2, [r6, #10]
 800e680:	b153      	cbz	r3, 800e698 <pbuf_copy_partial+0x50>
 800e682:	4293      	cmp	r3, r2
 800e684:	d308      	bcc.n	800e698 <pbuf_copy_partial+0x50>
 800e686:	1a9b      	subs	r3, r3, r2
 800e688:	b29b      	uxth	r3, r3
 800e68a:	6836      	ldr	r6, [r6, #0]
 800e68c:	f1b8 0f00 	cmp.w	r8, #0
 800e690:	d0e8      	beq.n	800e664 <pbuf_copy_partial+0x1c>
 800e692:	2e00      	cmp	r6, #0
 800e694:	d1f3      	bne.n	800e67e <pbuf_copy_partial+0x36>
 800e696:	e7e5      	b.n	800e664 <pbuf_copy_partial+0x1c>
 800e698:	1ad2      	subs	r2, r2, r3
 800e69a:	6871      	ldr	r1, [r6, #4]
 800e69c:	1978      	adds	r0, r7, r5
 800e69e:	b294      	uxth	r4, r2
 800e6a0:	4419      	add	r1, r3
 800e6a2:	4544      	cmp	r4, r8
 800e6a4:	bf28      	it	cs
 800e6a6:	4644      	movcs	r4, r8
 800e6a8:	4622      	mov	r2, r4
 800e6aa:	4425      	add	r5, r4
 800e6ac:	eba8 0404 	sub.w	r4, r8, r4
 800e6b0:	f005 fa07 	bl	8013ac2 <memcpy>
 800e6b4:	b2ad      	uxth	r5, r5
 800e6b6:	2300      	movs	r3, #0
 800e6b8:	fa1f f884 	uxth.w	r8, r4
 800e6bc:	e7e5      	b.n	800e68a <pbuf_copy_partial+0x42>
 800e6be:	2500      	movs	r5, #0
 800e6c0:	e7e4      	b.n	800e68c <pbuf_copy_partial+0x44>
 800e6c2:	bf00      	nop
 800e6c4:	08025ce3 	.word	0x08025ce3
 800e6c8:	08025e5c 	.word	0x08025e5c
 800e6cc:	08014a3b 	.word	0x08014a3b
 800e6d0:	08025e7b 	.word	0x08025e7b

0800e6d4 <pbuf_clone>:
 800e6d4:	b538      	push	{r3, r4, r5, lr}
 800e6d6:	4614      	mov	r4, r2
 800e6d8:	460a      	mov	r2, r1
 800e6da:	8921      	ldrh	r1, [r4, #8]
 800e6dc:	f7ff fdea 	bl	800e2b4 <pbuf_alloc>
 800e6e0:	4605      	mov	r5, r0
 800e6e2:	b150      	cbz	r0, 800e6fa <pbuf_clone+0x26>
 800e6e4:	4621      	mov	r1, r4
 800e6e6:	f7ff ff2d 	bl	800e544 <pbuf_copy>
 800e6ea:	b130      	cbz	r0, 800e6fa <pbuf_clone+0x26>
 800e6ec:	4b04      	ldr	r3, [pc, #16]	; (800e700 <pbuf_clone+0x2c>)
 800e6ee:	f240 5224 	movw	r2, #1316	; 0x524
 800e6f2:	4904      	ldr	r1, [pc, #16]	; (800e704 <pbuf_clone+0x30>)
 800e6f4:	4804      	ldr	r0, [pc, #16]	; (800e708 <pbuf_clone+0x34>)
 800e6f6:	f005 f9f7 	bl	8013ae8 <iprintf>
 800e6fa:	4628      	mov	r0, r5
 800e6fc:	bd38      	pop	{r3, r4, r5, pc}
 800e6fe:	bf00      	nop
 800e700:	08025ce3 	.word	0x08025ce3
 800e704:	08025db2 	.word	0x08025db2
 800e708:	08014a3b 	.word	0x08014a3b

0800e70c <tcp_new_port>:
 800e70c:	4a11      	ldr	r2, [pc, #68]	; (800e754 <tcp_new_port+0x48>)
 800e70e:	f44f 4380 	mov.w	r3, #16384	; 0x4000
 800e712:	b5f0      	push	{r4, r5, r6, r7, lr}
 800e714:	8811      	ldrh	r1, [r2, #0]
 800e716:	f64f 76ff 	movw	r6, #65535	; 0xffff
 800e71a:	4f0f      	ldr	r7, [pc, #60]	; (800e758 <tcp_new_port+0x4c>)
 800e71c:	1c48      	adds	r0, r1, #1
 800e71e:	2400      	movs	r4, #0
 800e720:	b280      	uxth	r0, r0
 800e722:	42b0      	cmp	r0, r6
 800e724:	bf08      	it	eq
 800e726:	f44f 4040 	moveq.w	r0, #49152	; 0xc000
 800e72a:	f857 1024 	ldr.w	r1, [r7, r4, lsl #2]
 800e72e:	680d      	ldr	r5, [r1, #0]
 800e730:	b925      	cbnz	r5, 800e73c <tcp_new_port+0x30>
 800e732:	3401      	adds	r4, #1
 800e734:	2c04      	cmp	r4, #4
 800e736:	d1f8      	bne.n	800e72a <tcp_new_port+0x1e>
 800e738:	8010      	strh	r0, [r2, #0]
 800e73a:	e008      	b.n	800e74e <tcp_new_port+0x42>
 800e73c:	8ae9      	ldrh	r1, [r5, #22]
 800e73e:	4281      	cmp	r1, r0
 800e740:	d106      	bne.n	800e750 <tcp_new_port+0x44>
 800e742:	3b01      	subs	r3, #1
 800e744:	b29b      	uxth	r3, r3
 800e746:	2b00      	cmp	r3, #0
 800e748:	d1e8      	bne.n	800e71c <tcp_new_port+0x10>
 800e74a:	8010      	strh	r0, [r2, #0]
 800e74c:	4618      	mov	r0, r3
 800e74e:	bdf0      	pop	{r4, r5, r6, r7, pc}
 800e750:	68ed      	ldr	r5, [r5, #12]
 800e752:	e7ed      	b.n	800e730 <tcp_new_port+0x24>
 800e754:	20000054 	.word	0x20000054
 800e758:	080261cc 	.word	0x080261cc

0800e75c <tcp_close_shutdown_fin>:
 800e75c:	b510      	push	{r4, lr}
 800e75e:	4604      	mov	r4, r0
 800e760:	b930      	cbnz	r0, 800e770 <tcp_close_shutdown_fin+0x14>
 800e762:	4b13      	ldr	r3, [pc, #76]	; (800e7b0 <tcp_close_shutdown_fin+0x54>)
 800e764:	f44f 72ce 	mov.w	r2, #412	; 0x19c
 800e768:	4912      	ldr	r1, [pc, #72]	; (800e7b4 <tcp_close_shutdown_fin+0x58>)
 800e76a:	4813      	ldr	r0, [pc, #76]	; (800e7b8 <tcp_close_shutdown_fin+0x5c>)
 800e76c:	f005 f9bc 	bl	8013ae8 <iprintf>
 800e770:	7d23      	ldrb	r3, [r4, #20]
 800e772:	2b04      	cmp	r3, #4
 800e774:	d003      	beq.n	800e77e <tcp_close_shutdown_fin+0x22>
 800e776:	2b07      	cmp	r3, #7
 800e778:	d00c      	beq.n	800e794 <tcp_close_shutdown_fin+0x38>
 800e77a:	2b03      	cmp	r3, #3
 800e77c:	d108      	bne.n	800e790 <tcp_close_shutdown_fin+0x34>
 800e77e:	4620      	mov	r0, r4
 800e780:	f003 f8a6 	bl	80118d0 <tcp_send_fin>
 800e784:	b960      	cbnz	r0, 800e7a0 <tcp_close_shutdown_fin+0x44>
 800e786:	2305      	movs	r3, #5
 800e788:	7523      	strb	r3, [r4, #20]
 800e78a:	4620      	mov	r0, r4
 800e78c:	f003 fa04 	bl	8011b98 <tcp_output>
 800e790:	2000      	movs	r0, #0
 800e792:	bd10      	pop	{r4, pc}
 800e794:	4620      	mov	r0, r4
 800e796:	f003 f89b 	bl	80118d0 <tcp_send_fin>
 800e79a:	b908      	cbnz	r0, 800e7a0 <tcp_close_shutdown_fin+0x44>
 800e79c:	2309      	movs	r3, #9
 800e79e:	e7f3      	b.n	800e788 <tcp_close_shutdown_fin+0x2c>
 800e7a0:	1c43      	adds	r3, r0, #1
 800e7a2:	d1f6      	bne.n	800e792 <tcp_close_shutdown_fin+0x36>
 800e7a4:	8b63      	ldrh	r3, [r4, #26]
 800e7a6:	f043 0308 	orr.w	r3, r3, #8
 800e7aa:	8363      	strh	r3, [r4, #26]
 800e7ac:	e7f0      	b.n	800e790 <tcp_close_shutdown_fin+0x34>
 800e7ae:	bf00      	nop
 800e7b0:	0802607e 	.word	0x0802607e
 800e7b4:	080260ad 	.word	0x080260ad
 800e7b8:	08014a3b 	.word	0x08014a3b

0800e7bc <tcp_init>:
 800e7bc:	b508      	push	{r3, lr}
 800e7be:	f005 f9ab 	bl	8013b18 <rand>
 800e7c2:	ea6f 4080 	mvn.w	r0, r0, lsl #18
 800e7c6:	4b02      	ldr	r3, [pc, #8]	; (800e7d0 <tcp_init+0x14>)
 800e7c8:	ea6f 4090 	mvn.w	r0, r0, lsr #18
 800e7cc:	8018      	strh	r0, [r3, #0]
 800e7ce:	bd08      	pop	{r3, pc}
 800e7d0:	20000054 	.word	0x20000054

0800e7d4 <tcp_free>:
 800e7d4:	7d03      	ldrb	r3, [r0, #20]
 800e7d6:	2b01      	cmp	r3, #1
 800e7d8:	b510      	push	{r4, lr}
 800e7da:	4604      	mov	r4, r0
 800e7dc:	d105      	bne.n	800e7ea <tcp_free+0x16>
 800e7de:	4b06      	ldr	r3, [pc, #24]	; (800e7f8 <tcp_free+0x24>)
 800e7e0:	22d4      	movs	r2, #212	; 0xd4
 800e7e2:	4906      	ldr	r1, [pc, #24]	; (800e7fc <tcp_free+0x28>)
 800e7e4:	4806      	ldr	r0, [pc, #24]	; (800e800 <tcp_free+0x2c>)
 800e7e6:	f005 f97f 	bl	8013ae8 <iprintf>
 800e7ea:	4621      	mov	r1, r4
 800e7ec:	2001      	movs	r0, #1
 800e7ee:	e8bd 4010 	ldmia.w	sp!, {r4, lr}
 800e7f2:	f7ff ba73 	b.w	800dcdc <memp_free>
 800e7f6:	bf00      	nop
 800e7f8:	0802607e 	.word	0x0802607e
 800e7fc:	08026106 	.word	0x08026106
 800e800:	08014a3b 	.word	0x08014a3b

0800e804 <tcp_bind>:
 800e804:	b5f8      	push	{r3, r4, r5, r6, r7, lr}
 800e806:	4d23      	ldr	r5, [pc, #140]	; (800e894 <tcp_bind+0x90>)
 800e808:	4604      	mov	r4, r0
 800e80a:	2900      	cmp	r1, #0
 800e80c:	bf18      	it	ne
 800e80e:	460d      	movne	r5, r1
 800e810:	b948      	cbnz	r0, 800e826 <tcp_bind+0x22>
 800e812:	4b21      	ldr	r3, [pc, #132]	; (800e898 <tcp_bind+0x94>)
 800e814:	f240 22a9 	movw	r2, #681	; 0x2a9
 800e818:	4920      	ldr	r1, [pc, #128]	; (800e89c <tcp_bind+0x98>)
 800e81a:	4821      	ldr	r0, [pc, #132]	; (800e8a0 <tcp_bind+0x9c>)
 800e81c:	f005 f964 	bl	8013ae8 <iprintf>
 800e820:	f06f 000f 	mvn.w	r0, #15
 800e824:	bdf8      	pop	{r3, r4, r5, r6, r7, pc}
 800e826:	7d03      	ldrb	r3, [r0, #20]
 800e828:	b14b      	cbz	r3, 800e83e <tcp_bind+0x3a>
 800e82a:	4b1b      	ldr	r3, [pc, #108]	; (800e898 <tcp_bind+0x94>)
 800e82c:	f240 22ab 	movw	r2, #683	; 0x2ab
 800e830:	491c      	ldr	r1, [pc, #112]	; (800e8a4 <tcp_bind+0xa0>)
 800e832:	481b      	ldr	r0, [pc, #108]	; (800e8a0 <tcp_bind+0x9c>)
 800e834:	f005 f958 	bl	8013ae8 <iprintf>
 800e838:	f06f 0005 	mvn.w	r0, #5
 800e83c:	e7f2      	b.n	800e824 <tcp_bind+0x20>
 800e83e:	b932      	cbnz	r2, 800e84e <tcp_bind+0x4a>
 800e840:	f7ff ff64 	bl	800e70c <tcp_new_port>
 800e844:	4602      	mov	r2, r0
 800e846:	b950      	cbnz	r0, 800e85e <tcp_bind+0x5a>
 800e848:	f06f 0001 	mvn.w	r0, #1
 800e84c:	e7ea      	b.n	800e824 <tcp_bind+0x20>
 800e84e:	4f16      	ldr	r7, [pc, #88]	; (800e8a8 <tcp_bind+0xa4>)
 800e850:	f857 1023 	ldr.w	r1, [r7, r3, lsl #2]
 800e854:	6808      	ldr	r0, [r1, #0]
 800e856:	b970      	cbnz	r0, 800e876 <tcp_bind+0x72>
 800e858:	3301      	adds	r3, #1
 800e85a:	2b04      	cmp	r3, #4
 800e85c:	d1f8      	bne.n	800e850 <tcp_bind+0x4c>
 800e85e:	682b      	ldr	r3, [r5, #0]
 800e860:	b103      	cbz	r3, 800e864 <tcp_bind+0x60>
 800e862:	6023      	str	r3, [r4, #0]
 800e864:	4b11      	ldr	r3, [pc, #68]	; (800e8ac <tcp_bind+0xa8>)
 800e866:	82e2      	strh	r2, [r4, #22]
 800e868:	681a      	ldr	r2, [r3, #0]
 800e86a:	601c      	str	r4, [r3, #0]
 800e86c:	60e2      	str	r2, [r4, #12]
 800e86e:	f003 fc69 	bl	8012144 <tcp_timer_needed>
 800e872:	2000      	movs	r0, #0
 800e874:	e7d6      	b.n	800e824 <tcp_bind+0x20>
 800e876:	8ac1      	ldrh	r1, [r0, #22]
 800e878:	4291      	cmp	r1, r2
 800e87a:	d105      	bne.n	800e888 <tcp_bind+0x84>
 800e87c:	6806      	ldr	r6, [r0, #0]
 800e87e:	b12e      	cbz	r6, 800e88c <tcp_bind+0x88>
 800e880:	6829      	ldr	r1, [r5, #0]
 800e882:	b119      	cbz	r1, 800e88c <tcp_bind+0x88>
 800e884:	428e      	cmp	r6, r1
 800e886:	d001      	beq.n	800e88c <tcp_bind+0x88>
 800e888:	68c0      	ldr	r0, [r0, #12]
 800e88a:	e7e4      	b.n	800e856 <tcp_bind+0x52>
 800e88c:	f06f 0007 	mvn.w	r0, #7
 800e890:	e7c8      	b.n	800e824 <tcp_bind+0x20>
 800e892:	bf00      	nop
 800e894:	080274a0 	.word	0x080274a0
 800e898:	0802607e 	.word	0x0802607e
 800e89c:	08025fd7 	.word	0x08025fd7
 800e8a0:	08014a3b 	.word	0x08014a3b
 800e8a4:	08025fed 	.word	0x08025fed
 800e8a8:	080261cc 	.word	0x080261cc
 800e8ac:	2000b340 	.word	0x2000b340

0800e8b0 <tcp_listen_with_backlog_and_err>:
 800e8b0:	b5f8      	push	{r3, r4, r5, r6, r7, lr}
 800e8b2:	4616      	mov	r6, r2
 800e8b4:	4605      	mov	r5, r0
 800e8b6:	b968      	cbnz	r0, 800e8d4 <tcp_listen_with_backlog_and_err+0x24>
 800e8b8:	4b29      	ldr	r3, [pc, #164]	; (800e960 <tcp_listen_with_backlog_and_err+0xb0>)
 800e8ba:	f240 3259 	movw	r2, #857	; 0x359
 800e8be:	4929      	ldr	r1, [pc, #164]	; (800e964 <tcp_listen_with_backlog_and_err+0xb4>)
 800e8c0:	4829      	ldr	r0, [pc, #164]	; (800e968 <tcp_listen_with_backlog_and_err+0xb8>)
 800e8c2:	f005 f911 	bl	8013ae8 <iprintf>
 800e8c6:	f06f 030f 	mvn.w	r3, #15
 800e8ca:	2400      	movs	r4, #0
 800e8cc:	b106      	cbz	r6, 800e8d0 <tcp_listen_with_backlog_and_err+0x20>
 800e8ce:	7033      	strb	r3, [r6, #0]
 800e8d0:	4620      	mov	r0, r4
 800e8d2:	bdf8      	pop	{r3, r4, r5, r6, r7, pc}
 800e8d4:	7d07      	ldrb	r7, [r0, #20]
 800e8d6:	b14f      	cbz	r7, 800e8ec <tcp_listen_with_backlog_and_err+0x3c>
 800e8d8:	4b21      	ldr	r3, [pc, #132]	; (800e960 <tcp_listen_with_backlog_and_err+0xb0>)
 800e8da:	f240 325a 	movw	r2, #858	; 0x35a
 800e8de:	4923      	ldr	r1, [pc, #140]	; (800e96c <tcp_listen_with_backlog_and_err+0xbc>)
 800e8e0:	4821      	ldr	r0, [pc, #132]	; (800e968 <tcp_listen_with_backlog_and_err+0xb8>)
 800e8e2:	f005 f901 	bl	8013ae8 <iprintf>
 800e8e6:	f06f 030e 	mvn.w	r3, #14
 800e8ea:	e7ee      	b.n	800e8ca <tcp_listen_with_backlog_and_err+0x1a>
 800e8ec:	2002      	movs	r0, #2
 800e8ee:	f7ff f9d9 	bl	800dca4 <memp_malloc>
 800e8f2:	4604      	mov	r4, r0
 800e8f4:	2800      	cmp	r0, #0
 800e8f6:	d02f      	beq.n	800e958 <tcp_listen_with_backlog_and_err+0xa8>
 800e8f8:	692b      	ldr	r3, [r5, #16]
 800e8fa:	2201      	movs	r2, #1
 800e8fc:	6103      	str	r3, [r0, #16]
 800e8fe:	8aeb      	ldrh	r3, [r5, #22]
 800e900:	7502      	strb	r2, [r0, #20]
 800e902:	82c3      	strh	r3, [r0, #22]
 800e904:	7d6a      	ldrb	r2, [r5, #21]
 800e906:	7542      	strb	r2, [r0, #21]
 800e908:	7a6a      	ldrb	r2, [r5, #9]
 800e90a:	7207      	strb	r7, [r0, #8]
 800e90c:	7242      	strb	r2, [r0, #9]
 800e90e:	7aea      	ldrb	r2, [r5, #11]
 800e910:	72c2      	strb	r2, [r0, #11]
 800e912:	7aaa      	ldrb	r2, [r5, #10]
 800e914:	7282      	strb	r2, [r0, #10]
 800e916:	682a      	ldr	r2, [r5, #0]
 800e918:	6002      	str	r2, [r0, #0]
 800e91a:	b13b      	cbz	r3, 800e92c <tcp_listen_with_backlog_and_err+0x7c>
 800e91c:	4a14      	ldr	r2, [pc, #80]	; (800e970 <tcp_listen_with_backlog_and_err+0xc0>)
 800e91e:	6813      	ldr	r3, [r2, #0]
 800e920:	42ab      	cmp	r3, r5
 800e922:	d111      	bne.n	800e948 <tcp_listen_with_backlog_and_err+0x98>
 800e924:	68eb      	ldr	r3, [r5, #12]
 800e926:	6013      	str	r3, [r2, #0]
 800e928:	2300      	movs	r3, #0
 800e92a:	60eb      	str	r3, [r5, #12]
 800e92c:	4628      	mov	r0, r5
 800e92e:	f7ff ff51 	bl	800e7d4 <tcp_free>
 800e932:	4b10      	ldr	r3, [pc, #64]	; (800e974 <tcp_listen_with_backlog_and_err+0xc4>)
 800e934:	61a3      	str	r3, [r4, #24]
 800e936:	4b10      	ldr	r3, [pc, #64]	; (800e978 <tcp_listen_with_backlog_and_err+0xc8>)
 800e938:	681a      	ldr	r2, [r3, #0]
 800e93a:	601c      	str	r4, [r3, #0]
 800e93c:	60e2      	str	r2, [r4, #12]
 800e93e:	f003 fc01 	bl	8012144 <tcp_timer_needed>
 800e942:	2300      	movs	r3, #0
 800e944:	e7c2      	b.n	800e8cc <tcp_listen_with_backlog_and_err+0x1c>
 800e946:	4613      	mov	r3, r2
 800e948:	2b00      	cmp	r3, #0
 800e94a:	d0ed      	beq.n	800e928 <tcp_listen_with_backlog_and_err+0x78>
 800e94c:	68da      	ldr	r2, [r3, #12]
 800e94e:	42aa      	cmp	r2, r5
 800e950:	d1f9      	bne.n	800e946 <tcp_listen_with_backlog_and_err+0x96>
 800e952:	68ea      	ldr	r2, [r5, #12]
 800e954:	60da      	str	r2, [r3, #12]
 800e956:	e7e7      	b.n	800e928 <tcp_listen_with_backlog_and_err+0x78>
 800e958:	f04f 33ff 	mov.w	r3, #4294967295	; 0xffffffff
 800e95c:	e7b6      	b.n	800e8cc <tcp_listen_with_backlog_and_err+0x1c>
 800e95e:	bf00      	nop
 800e960:	0802607e 	.word	0x0802607e
 800e964:	08026117 	.word	0x08026117
 800e968:	08014a3b 	.word	0x08014a3b
 800e96c:	08026144 	.word	0x08026144
 800e970:	2000b340 	.word	0x2000b340
 800e974:	0800eea5 	.word	0x0800eea5
 800e978:	2000b33c 	.word	0x2000b33c

0800e97c <tcp_listen_with_backlog>:
 800e97c:	2200      	movs	r2, #0
 800e97e:	f7ff bf97 	b.w	800e8b0 <tcp_listen_with_backlog_and_err>
	...

0800e984 <tcp_update_rcv_ann_wnd>:
 800e984:	b538      	push	{r3, r4, r5, lr}
 800e986:	4604      	mov	r4, r0
 800e988:	b930      	cbnz	r0, 800e998 <tcp_update_rcv_ann_wnd+0x14>
 800e98a:	4b15      	ldr	r3, [pc, #84]	; (800e9e0 <tcp_update_rcv_ann_wnd+0x5c>)
 800e98c:	f240 32a6 	movw	r2, #934	; 0x3a6
 800e990:	4914      	ldr	r1, [pc, #80]	; (800e9e4 <tcp_update_rcv_ann_wnd+0x60>)
 800e992:	4815      	ldr	r0, [pc, #84]	; (800e9e8 <tcp_update_rcv_ann_wnd+0x64>)
 800e994:	f005 f8a8 	bl	8013ae8 <iprintf>
 800e998:	8d21      	ldrh	r1, [r4, #40]	; 0x28
 800e99a:	6ae3      	ldr	r3, [r4, #44]	; 0x2c
 800e99c:	8e62      	ldrh	r2, [r4, #50]	; 0x32
 800e99e:	6a65      	ldr	r5, [r4, #36]	; 0x24
 800e9a0:	1ac8      	subs	r0, r1, r3
 800e9a2:	f5b2 6f86 	cmp.w	r2, #1072	; 0x430
 800e9a6:	4428      	add	r0, r5
 800e9a8:	bf94      	ite	ls
 800e9aa:	1a82      	subls	r2, r0, r2
 800e9ac:	f5a0 6286 	subhi.w	r2, r0, #1072	; 0x430
 800e9b0:	2a00      	cmp	r2, #0
 800e9b2:	db01      	blt.n	800e9b8 <tcp_update_rcv_ann_wnd+0x34>
 800e9b4:	8561      	strh	r1, [r4, #42]	; 0x2a
 800e9b6:	bd38      	pop	{r3, r4, r5, pc}
 800e9b8:	1aea      	subs	r2, r5, r3
 800e9ba:	2a00      	cmp	r2, #0
 800e9bc:	dd02      	ble.n	800e9c4 <tcp_update_rcv_ann_wnd+0x40>
 800e9be:	2000      	movs	r0, #0
 800e9c0:	8560      	strh	r0, [r4, #42]	; 0x2a
 800e9c2:	e7f8      	b.n	800e9b6 <tcp_update_rcv_ann_wnd+0x32>
 800e9c4:	1b5d      	subs	r5, r3, r5
 800e9c6:	f5b5 3f80 	cmp.w	r5, #65536	; 0x10000
 800e9ca:	d306      	bcc.n	800e9da <tcp_update_rcv_ann_wnd+0x56>
 800e9cc:	4b04      	ldr	r3, [pc, #16]	; (800e9e0 <tcp_update_rcv_ann_wnd+0x5c>)
 800e9ce:	f240 32b6 	movw	r2, #950	; 0x3b6
 800e9d2:	4906      	ldr	r1, [pc, #24]	; (800e9ec <tcp_update_rcv_ann_wnd+0x68>)
 800e9d4:	4804      	ldr	r0, [pc, #16]	; (800e9e8 <tcp_update_rcv_ann_wnd+0x64>)
 800e9d6:	f005 f887 	bl	8013ae8 <iprintf>
 800e9da:	8565      	strh	r5, [r4, #42]	; 0x2a
 800e9dc:	2000      	movs	r0, #0
 800e9de:	e7ea      	b.n	800e9b6 <tcp_update_rcv_ann_wnd+0x32>
 800e9e0:	0802607e 	.word	0x0802607e
 800e9e4:	0802656f 	.word	0x0802656f
 800e9e8:	08014a3b 	.word	0x08014a3b
 800e9ec:	08026593 	.word	0x08026593

0800e9f0 <tcp_recved>:
 800e9f0:	b570      	push	{r4, r5, r6, lr}
 800e9f2:	460d      	mov	r5, r1
 800e9f4:	4604      	mov	r4, r0
 800e9f6:	b940      	cbnz	r0, 800ea0a <tcp_recved+0x1a>
 800e9f8:	4b17      	ldr	r3, [pc, #92]	; (800ea58 <tcp_recved+0x68>)
 800e9fa:	f240 32cf 	movw	r2, #975	; 0x3cf
 800e9fe:	4917      	ldr	r1, [pc, #92]	; (800ea5c <tcp_recved+0x6c>)
 800ea00:	4817      	ldr	r0, [pc, #92]	; (800ea60 <tcp_recved+0x70>)
 800ea02:	e8bd 4070 	ldmia.w	sp!, {r4, r5, r6, lr}
 800ea06:	f005 b86f 	b.w	8013ae8 <iprintf>
 800ea0a:	7d03      	ldrb	r3, [r0, #20]
 800ea0c:	2b01      	cmp	r3, #1
 800ea0e:	d106      	bne.n	800ea1e <tcp_recved+0x2e>
 800ea10:	4b11      	ldr	r3, [pc, #68]	; (800ea58 <tcp_recved+0x68>)
 800ea12:	f240 32d3 	movw	r2, #979	; 0x3d3
 800ea16:	4913      	ldr	r1, [pc, #76]	; (800ea64 <tcp_recved+0x74>)
 800ea18:	4811      	ldr	r0, [pc, #68]	; (800ea60 <tcp_recved+0x70>)
 800ea1a:	f005 f865 	bl	8013ae8 <iprintf>
 800ea1e:	8d23      	ldrh	r3, [r4, #40]	; 0x28
 800ea20:	1959      	adds	r1, r3, r5
 800ea22:	b289      	uxth	r1, r1
 800ea24:	f5b1 6f06 	cmp.w	r1, #2144	; 0x860
 800ea28:	d801      	bhi.n	800ea2e <tcp_recved+0x3e>
 800ea2a:	428b      	cmp	r3, r1
 800ea2c:	d911      	bls.n	800ea52 <tcp_recved+0x62>
 800ea2e:	f44f 6306 	mov.w	r3, #2144	; 0x860
 800ea32:	8523      	strh	r3, [r4, #40]	; 0x28
 800ea34:	4620      	mov	r0, r4
 800ea36:	f7ff ffa5 	bl	800e984 <tcp_update_rcv_ann_wnd>
 800ea3a:	f5b0 7f06 	cmp.w	r0, #536	; 0x218
 800ea3e:	d30a      	bcc.n	800ea56 <tcp_recved+0x66>
 800ea40:	8b63      	ldrh	r3, [r4, #26]
 800ea42:	4620      	mov	r0, r4
 800ea44:	f043 0302 	orr.w	r3, r3, #2
 800ea48:	8363      	strh	r3, [r4, #26]
 800ea4a:	e8bd 4070 	ldmia.w	sp!, {r4, r5, r6, lr}
 800ea4e:	f003 b8a3 	b.w	8011b98 <tcp_output>
 800ea52:	8521      	strh	r1, [r4, #40]	; 0x28
 800ea54:	e7ee      	b.n	800ea34 <tcp_recved+0x44>
 800ea56:	bd70      	pop	{r4, r5, r6, pc}
 800ea58:	0802607e 	.word	0x0802607e
 800ea5c:	0802631e 	.word	0x0802631e
 800ea60:	08014a3b 	.word	0x08014a3b
 800ea64:	08026336 	.word	0x08026336

0800ea68 <tcp_seg_free>:
 800ea68:	b510      	push	{r4, lr}
 800ea6a:	4604      	mov	r4, r0
 800ea6c:	b148      	cbz	r0, 800ea82 <tcp_seg_free+0x1a>
 800ea6e:	6840      	ldr	r0, [r0, #4]
 800ea70:	b108      	cbz	r0, 800ea76 <tcp_seg_free+0xe>
 800ea72:	f7ff fbb7 	bl	800e1e4 <pbuf_free>
 800ea76:	4621      	mov	r1, r4
 800ea78:	2003      	movs	r0, #3
 800ea7a:	e8bd 4010 	ldmia.w	sp!, {r4, lr}
 800ea7e:	f7ff b92d 	b.w	800dcdc <memp_free>
 800ea82:	bd10      	pop	{r4, pc}

0800ea84 <tcp_segs_free>:
 800ea84:	b510      	push	{r4, lr}
 800ea86:	b900      	cbnz	r0, 800ea8a <tcp_segs_free+0x6>
 800ea88:	bd10      	pop	{r4, pc}
 800ea8a:	6804      	ldr	r4, [r0, #0]
 800ea8c:	f7ff ffec 	bl	800ea68 <tcp_seg_free>
 800ea90:	4620      	mov	r0, r4
 800ea92:	e7f8      	b.n	800ea86 <tcp_segs_free+0x2>

0800ea94 <tcp_setprio>:
 800ea94:	b930      	cbnz	r0, 800eaa4 <tcp_setprio+0x10>
 800ea96:	4b04      	ldr	r3, [pc, #16]	; (800eaa8 <tcp_setprio+0x14>)
 800ea98:	f44f 62ce 	mov.w	r2, #1648	; 0x670
 800ea9c:	4903      	ldr	r1, [pc, #12]	; (800eaac <tcp_setprio+0x18>)
 800ea9e:	4804      	ldr	r0, [pc, #16]	; (800eab0 <tcp_setprio+0x1c>)
 800eaa0:	f005 b822 	b.w	8013ae8 <iprintf>
 800eaa4:	7541      	strb	r1, [r0, #21]
 800eaa6:	4770      	bx	lr
 800eaa8:	0802607e 	.word	0x0802607e
 800eaac:	0802639d 	.word	0x0802639d
 800eab0:	08014a3b 	.word	0x08014a3b

0800eab4 <tcp_seg_copy>:
 800eab4:	b538      	push	{r3, r4, r5, lr}
 800eab6:	4604      	mov	r4, r0
 800eab8:	b930      	cbnz	r0, 800eac8 <tcp_seg_copy+0x14>
 800eaba:	4b0d      	ldr	r3, [pc, #52]	; (800eaf0 <tcp_seg_copy+0x3c>)
 800eabc:	f240 6282 	movw	r2, #1666	; 0x682
 800eac0:	490c      	ldr	r1, [pc, #48]	; (800eaf4 <tcp_seg_copy+0x40>)
 800eac2:	480d      	ldr	r0, [pc, #52]	; (800eaf8 <tcp_seg_copy+0x44>)
 800eac4:	f005 f810 	bl	8013ae8 <iprintf>
 800eac8:	2003      	movs	r0, #3
 800eaca:	f7ff f8eb 	bl	800dca4 <memp_malloc>
 800eace:	4605      	mov	r5, r0
 800ead0:	b160      	cbz	r0, 800eaec <tcp_seg_copy+0x38>
 800ead2:	4620      	mov	r0, r4
 800ead4:	462b      	mov	r3, r5
 800ead6:	f104 0210 	add.w	r2, r4, #16
 800eada:	f850 1b04 	ldr.w	r1, [r0], #4
 800eade:	4290      	cmp	r0, r2
 800eae0:	f843 1b04 	str.w	r1, [r3], #4
 800eae4:	d1f9      	bne.n	800eada <tcp_seg_copy+0x26>
 800eae6:	6868      	ldr	r0, [r5, #4]
 800eae8:	f7ff fcd6 	bl	800e498 <pbuf_ref>
 800eaec:	4628      	mov	r0, r5
 800eaee:	bd38      	pop	{r3, r4, r5, pc}
 800eaf0:	0802607e 	.word	0x0802607e
 800eaf4:	0802635c 	.word	0x0802635c
 800eaf8:	08014a3b 	.word	0x08014a3b

0800eafc <tcp_arg>:
 800eafc:	b100      	cbz	r0, 800eb00 <tcp_arg+0x4>
 800eafe:	6101      	str	r1, [r0, #16]
 800eb00:	4770      	bx	lr
	...

0800eb04 <tcp_recv>:
 800eb04:	b538      	push	{r3, r4, r5, lr}
 800eb06:	460d      	mov	r5, r1
 800eb08:	4604      	mov	r4, r0
 800eb0a:	b158      	cbz	r0, 800eb24 <tcp_recv+0x20>
 800eb0c:	7d03      	ldrb	r3, [r0, #20]
 800eb0e:	2b01      	cmp	r3, #1
 800eb10:	d106      	bne.n	800eb20 <tcp_recv+0x1c>
 800eb12:	4b05      	ldr	r3, [pc, #20]	; (800eb28 <tcp_recv+0x24>)
 800eb14:	f240 72df 	movw	r2, #2015	; 0x7df
 800eb18:	4904      	ldr	r1, [pc, #16]	; (800eb2c <tcp_recv+0x28>)
 800eb1a:	4805      	ldr	r0, [pc, #20]	; (800eb30 <tcp_recv+0x2c>)
 800eb1c:	f004 ffe4 	bl	8013ae8 <iprintf>
 800eb20:	f8c4 5084 	str.w	r5, [r4, #132]	; 0x84
 800eb24:	bd38      	pop	{r3, r4, r5, pc}
 800eb26:	bf00      	nop
 800eb28:	0802607e 	.word	0x0802607e
 800eb2c:	080262dc 	.word	0x080262dc
 800eb30:	08014a3b 	.word	0x08014a3b

0800eb34 <tcp_sent>:
 800eb34:	b538      	push	{r3, r4, r5, lr}
 800eb36:	460d      	mov	r5, r1
 800eb38:	4604      	mov	r4, r0
 800eb3a:	b158      	cbz	r0, 800eb54 <tcp_sent+0x20>
 800eb3c:	7d03      	ldrb	r3, [r0, #20]
 800eb3e:	2b01      	cmp	r3, #1
 800eb40:	d106      	bne.n	800eb50 <tcp_sent+0x1c>
 800eb42:	4b05      	ldr	r3, [pc, #20]	; (800eb58 <tcp_sent+0x24>)
 800eb44:	f240 72f3 	movw	r2, #2035	; 0x7f3
 800eb48:	4904      	ldr	r1, [pc, #16]	; (800eb5c <tcp_sent+0x28>)
 800eb4a:	4805      	ldr	r0, [pc, #20]	; (800eb60 <tcp_sent+0x2c>)
 800eb4c:	f004 ffcc 	bl	8013ae8 <iprintf>
 800eb50:	f8c4 5080 	str.w	r5, [r4, #128]	; 0x80
 800eb54:	bd38      	pop	{r3, r4, r5, pc}
 800eb56:	bf00      	nop
 800eb58:	0802607e 	.word	0x0802607e
 800eb5c:	08026376 	.word	0x08026376
 800eb60:	08014a3b 	.word	0x08014a3b

0800eb64 <tcp_err>:
 800eb64:	b538      	push	{r3, r4, r5, lr}
 800eb66:	460d      	mov	r5, r1
 800eb68:	4604      	mov	r4, r0
 800eb6a:	b158      	cbz	r0, 800eb84 <tcp_err+0x20>
 800eb6c:	7d03      	ldrb	r3, [r0, #20]
 800eb6e:	2b01      	cmp	r3, #1
 800eb70:	d106      	bne.n	800eb80 <tcp_err+0x1c>
 800eb72:	4b05      	ldr	r3, [pc, #20]	; (800eb88 <tcp_err+0x24>)
 800eb74:	f640 020d 	movw	r2, #2061	; 0x80d
 800eb78:	4904      	ldr	r1, [pc, #16]	; (800eb8c <tcp_err+0x28>)
 800eb7a:	4805      	ldr	r0, [pc, #20]	; (800eb90 <tcp_err+0x2c>)
 800eb7c:	f004 ffb4 	bl	8013ae8 <iprintf>
 800eb80:	f8c4 5090 	str.w	r5, [r4, #144]	; 0x90
 800eb84:	bd38      	pop	{r3, r4, r5, pc}
 800eb86:	bf00      	nop
 800eb88:	0802607e 	.word	0x0802607e
 800eb8c:	080260e0 	.word	0x080260e0
 800eb90:	08014a3b 	.word	0x08014a3b

0800eb94 <tcp_accept>:
 800eb94:	b118      	cbz	r0, 800eb9e <tcp_accept+0xa>
 800eb96:	7d03      	ldrb	r3, [r0, #20]
 800eb98:	2b01      	cmp	r3, #1
 800eb9a:	bf08      	it	eq
 800eb9c:	6181      	streq	r1, [r0, #24]
 800eb9e:	4770      	bx	lr

0800eba0 <tcp_poll>:
 800eba0:	b570      	push	{r4, r5, r6, lr}
 800eba2:	460e      	mov	r6, r1
 800eba4:	4615      	mov	r5, r2
 800eba6:	4604      	mov	r4, r0
 800eba8:	b940      	cbnz	r0, 800ebbc <tcp_poll+0x1c>
 800ebaa:	4b0b      	ldr	r3, [pc, #44]	; (800ebd8 <tcp_poll+0x38>)
 800ebac:	f640 023d 	movw	r2, #2109	; 0x83d
 800ebb0:	490a      	ldr	r1, [pc, #40]	; (800ebdc <tcp_poll+0x3c>)
 800ebb2:	480b      	ldr	r0, [pc, #44]	; (800ebe0 <tcp_poll+0x40>)
 800ebb4:	e8bd 4070 	ldmia.w	sp!, {r4, r5, r6, lr}
 800ebb8:	f004 bf96 	b.w	8013ae8 <iprintf>
 800ebbc:	7d03      	ldrb	r3, [r0, #20]
 800ebbe:	2b01      	cmp	r3, #1
 800ebc0:	d106      	bne.n	800ebd0 <tcp_poll+0x30>
 800ebc2:	4b05      	ldr	r3, [pc, #20]	; (800ebd8 <tcp_poll+0x38>)
 800ebc4:	f640 023e 	movw	r2, #2110	; 0x83e
 800ebc8:	4906      	ldr	r1, [pc, #24]	; (800ebe4 <tcp_poll+0x44>)
 800ebca:	4805      	ldr	r0, [pc, #20]	; (800ebe0 <tcp_poll+0x40>)
 800ebcc:	f004 ff8c 	bl	8013ae8 <iprintf>
 800ebd0:	f8c4 608c 	str.w	r6, [r4, #140]	; 0x8c
 800ebd4:	7765      	strb	r5, [r4, #29]
 800ebd6:	bd70      	pop	{r4, r5, r6, pc}
 800ebd8:	0802607e 	.word	0x0802607e
 800ebdc:	08026282 	.word	0x08026282
 800ebe0:	08014a3b 	.word	0x08014a3b
 800ebe4:	08026298 	.word	0x08026298

0800ebe8 <tcp_next_iss>:
 800ebe8:	b508      	push	{r3, lr}
 800ebea:	b930      	cbnz	r0, 800ebfa <tcp_next_iss+0x12>
 800ebec:	4b06      	ldr	r3, [pc, #24]	; (800ec08 <tcp_next_iss+0x20>)
 800ebee:	f640 02af 	movw	r2, #2223	; 0x8af
 800ebf2:	4906      	ldr	r1, [pc, #24]	; (800ec0c <tcp_next_iss+0x24>)
 800ebf4:	4806      	ldr	r0, [pc, #24]	; (800ec10 <tcp_next_iss+0x28>)
 800ebf6:	f004 ff77 	bl	8013ae8 <iprintf>
 800ebfa:	4b06      	ldr	r3, [pc, #24]	; (800ec14 <tcp_next_iss+0x2c>)
 800ebfc:	4a06      	ldr	r2, [pc, #24]	; (800ec18 <tcp_next_iss+0x30>)
 800ebfe:	6818      	ldr	r0, [r3, #0]
 800ec00:	6812      	ldr	r2, [r2, #0]
 800ec02:	4410      	add	r0, r2
 800ec04:	6018      	str	r0, [r3, #0]
 800ec06:	bd08      	pop	{r3, pc}
 800ec08:	0802607e 	.word	0x0802607e
 800ec0c:	080261af 	.word	0x080261af
 800ec10:	08014a3b 	.word	0x08014a3b
 800ec14:	20000050 	.word	0x20000050
 800ec18:	2000b338 	.word	0x2000b338

0800ec1c <tcp_eff_send_mss_netif>:
 800ec1c:	b538      	push	{r3, r4, r5, lr}
 800ec1e:	4604      	mov	r4, r0
 800ec20:	460d      	mov	r5, r1
 800ec22:	b932      	cbnz	r2, 800ec32 <tcp_eff_send_mss_netif+0x16>
 800ec24:	4b09      	ldr	r3, [pc, #36]	; (800ec4c <tcp_eff_send_mss_netif+0x30>)
 800ec26:	f640 02c5 	movw	r2, #2245	; 0x8c5
 800ec2a:	4909      	ldr	r1, [pc, #36]	; (800ec50 <tcp_eff_send_mss_netif+0x34>)
 800ec2c:	4809      	ldr	r0, [pc, #36]	; (800ec54 <tcp_eff_send_mss_netif+0x38>)
 800ec2e:	f004 ff5b 	bl	8013ae8 <iprintf>
 800ec32:	b14d      	cbz	r5, 800ec48 <tcp_eff_send_mss_netif+0x2c>
 800ec34:	8cab      	ldrh	r3, [r5, #36]	; 0x24
 800ec36:	b13b      	cbz	r3, 800ec48 <tcp_eff_send_mss_netif+0x2c>
 800ec38:	2b28      	cmp	r3, #40	; 0x28
 800ec3a:	bf8a      	itet	hi
 800ec3c:	3b28      	subhi	r3, #40	; 0x28
 800ec3e:	2300      	movls	r3, #0
 800ec40:	b29b      	uxthhi	r3, r3
 800ec42:	429c      	cmp	r4, r3
 800ec44:	bf28      	it	cs
 800ec46:	461c      	movcs	r4, r3
 800ec48:	4620      	mov	r0, r4
 800ec4a:	bd38      	pop	{r3, r4, r5, pc}
 800ec4c:	0802607e 	.word	0x0802607e
 800ec50:	080260b9 	.word	0x080260b9
 800ec54:	08014a3b 	.word	0x08014a3b

0800ec58 <tcp_free_ooseq>:
 800ec58:	b510      	push	{r4, lr}
 800ec5a:	4604      	mov	r4, r0
 800ec5c:	6f40      	ldr	r0, [r0, #116]	; 0x74
 800ec5e:	b118      	cbz	r0, 800ec68 <tcp_free_ooseq+0x10>
 800ec60:	f7ff ff10 	bl	800ea84 <tcp_segs_free>
 800ec64:	2300      	movs	r3, #0
 800ec66:	6763      	str	r3, [r4, #116]	; 0x74
 800ec68:	bd10      	pop	{r4, pc}
	...

0800ec6c <tcp_pcb_purge>:
 800ec6c:	b510      	push	{r4, lr}
 800ec6e:	4604      	mov	r4, r0
 800ec70:	b940      	cbnz	r0, 800ec84 <tcp_pcb_purge+0x18>
 800ec72:	4b14      	ldr	r3, [pc, #80]	; (800ecc4 <tcp_pcb_purge+0x58>)
 800ec74:	f640 0251 	movw	r2, #2129	; 0x851
 800ec78:	4913      	ldr	r1, [pc, #76]	; (800ecc8 <tcp_pcb_purge+0x5c>)
 800ec7a:	4814      	ldr	r0, [pc, #80]	; (800eccc <tcp_pcb_purge+0x60>)
 800ec7c:	e8bd 4010 	ldmia.w	sp!, {r4, lr}
 800ec80:	f004 bf32 	b.w	8013ae8 <iprintf>
 800ec84:	7d03      	ldrb	r3, [r0, #20]
 800ec86:	2b01      	cmp	r3, #1
 800ec88:	d91a      	bls.n	800ecc0 <tcp_pcb_purge+0x54>
 800ec8a:	2b0a      	cmp	r3, #10
 800ec8c:	d018      	beq.n	800ecc0 <tcp_pcb_purge+0x54>
 800ec8e:	6f80      	ldr	r0, [r0, #120]	; 0x78
 800ec90:	b118      	cbz	r0, 800ec9a <tcp_pcb_purge+0x2e>
 800ec92:	f7ff faa7 	bl	800e1e4 <pbuf_free>
 800ec96:	2300      	movs	r3, #0
 800ec98:	67a3      	str	r3, [r4, #120]	; 0x78
 800ec9a:	6f63      	ldr	r3, [r4, #116]	; 0x74
 800ec9c:	b113      	cbz	r3, 800eca4 <tcp_pcb_purge+0x38>
 800ec9e:	4620      	mov	r0, r4
 800eca0:	f7ff ffda 	bl	800ec58 <tcp_free_ooseq>
 800eca4:	f64f 73ff 	movw	r3, #65535	; 0xffff
 800eca8:	6ee0      	ldr	r0, [r4, #108]	; 0x6c
 800ecaa:	8623      	strh	r3, [r4, #48]	; 0x30
 800ecac:	f7ff feea 	bl	800ea84 <tcp_segs_free>
 800ecb0:	6f20      	ldr	r0, [r4, #112]	; 0x70
 800ecb2:	f7ff fee7 	bl	800ea84 <tcp_segs_free>
 800ecb6:	2300      	movs	r3, #0
 800ecb8:	e9c4 331b 	strd	r3, r3, [r4, #108]	; 0x6c
 800ecbc:	f8a4 3068 	strh.w	r3, [r4, #104]	; 0x68
 800ecc0:	bd10      	pop	{r4, pc}
 800ecc2:	bf00      	nop
 800ecc4:	0802607e 	.word	0x0802607e
 800ecc8:	080261dc 	.word	0x080261dc
 800eccc:	08014a3b 	.word	0x08014a3b

0800ecd0 <tcp_pcb_remove>:
 800ecd0:	b538      	push	{r3, r4, r5, lr}
 800ecd2:	4605      	mov	r5, r0
 800ecd4:	460c      	mov	r4, r1
 800ecd6:	b931      	cbnz	r1, 800ece6 <tcp_pcb_remove+0x16>
 800ecd8:	4b28      	ldr	r3, [pc, #160]	; (800ed7c <tcp_pcb_remove+0xac>)
 800ecda:	f640 0283 	movw	r2, #2179	; 0x883
 800ecde:	4928      	ldr	r1, [pc, #160]	; (800ed80 <tcp_pcb_remove+0xb0>)
 800ece0:	4828      	ldr	r0, [pc, #160]	; (800ed84 <tcp_pcb_remove+0xb4>)
 800ece2:	f004 ff01 	bl	8013ae8 <iprintf>
 800ece6:	b935      	cbnz	r5, 800ecf6 <tcp_pcb_remove+0x26>
 800ece8:	4b24      	ldr	r3, [pc, #144]	; (800ed7c <tcp_pcb_remove+0xac>)
 800ecea:	f640 0284 	movw	r2, #2180	; 0x884
 800ecee:	4926      	ldr	r1, [pc, #152]	; (800ed88 <tcp_pcb_remove+0xb8>)
 800ecf0:	4824      	ldr	r0, [pc, #144]	; (800ed84 <tcp_pcb_remove+0xb4>)
 800ecf2:	f004 fef9 	bl	8013ae8 <iprintf>
 800ecf6:	682b      	ldr	r3, [r5, #0]
 800ecf8:	42a3      	cmp	r3, r4
 800ecfa:	d137      	bne.n	800ed6c <tcp_pcb_remove+0x9c>
 800ecfc:	68e3      	ldr	r3, [r4, #12]
 800ecfe:	602b      	str	r3, [r5, #0]
 800ed00:	2300      	movs	r3, #0
 800ed02:	4620      	mov	r0, r4
 800ed04:	60e3      	str	r3, [r4, #12]
 800ed06:	f7ff ffb1 	bl	800ec6c <tcp_pcb_purge>
 800ed0a:	7d23      	ldrb	r3, [r4, #20]
 800ed0c:	2b0a      	cmp	r3, #10
 800ed0e:	d00a      	beq.n	800ed26 <tcp_pcb_remove+0x56>
 800ed10:	2b01      	cmp	r3, #1
 800ed12:	d008      	beq.n	800ed26 <tcp_pcb_remove+0x56>
 800ed14:	8b63      	ldrh	r3, [r4, #26]
 800ed16:	07da      	lsls	r2, r3, #31
 800ed18:	d505      	bpl.n	800ed26 <tcp_pcb_remove+0x56>
 800ed1a:	f043 0302 	orr.w	r3, r3, #2
 800ed1e:	4620      	mov	r0, r4
 800ed20:	8363      	strh	r3, [r4, #26]
 800ed22:	f002 ff39 	bl	8011b98 <tcp_output>
 800ed26:	7d23      	ldrb	r3, [r4, #20]
 800ed28:	2b01      	cmp	r3, #1
 800ed2a:	d01a      	beq.n	800ed62 <tcp_pcb_remove+0x92>
 800ed2c:	6ee3      	ldr	r3, [r4, #108]	; 0x6c
 800ed2e:	b133      	cbz	r3, 800ed3e <tcp_pcb_remove+0x6e>
 800ed30:	4b12      	ldr	r3, [pc, #72]	; (800ed7c <tcp_pcb_remove+0xac>)
 800ed32:	f640 0293 	movw	r2, #2195	; 0x893
 800ed36:	4915      	ldr	r1, [pc, #84]	; (800ed8c <tcp_pcb_remove+0xbc>)
 800ed38:	4812      	ldr	r0, [pc, #72]	; (800ed84 <tcp_pcb_remove+0xb4>)
 800ed3a:	f004 fed5 	bl	8013ae8 <iprintf>
 800ed3e:	6f23      	ldr	r3, [r4, #112]	; 0x70
 800ed40:	b133      	cbz	r3, 800ed50 <tcp_pcb_remove+0x80>
 800ed42:	4b0e      	ldr	r3, [pc, #56]	; (800ed7c <tcp_pcb_remove+0xac>)
 800ed44:	f640 0294 	movw	r2, #2196	; 0x894
 800ed48:	4911      	ldr	r1, [pc, #68]	; (800ed90 <tcp_pcb_remove+0xc0>)
 800ed4a:	480e      	ldr	r0, [pc, #56]	; (800ed84 <tcp_pcb_remove+0xb4>)
 800ed4c:	f004 fecc 	bl	8013ae8 <iprintf>
 800ed50:	6f63      	ldr	r3, [r4, #116]	; 0x74
 800ed52:	b133      	cbz	r3, 800ed62 <tcp_pcb_remove+0x92>
 800ed54:	4b09      	ldr	r3, [pc, #36]	; (800ed7c <tcp_pcb_remove+0xac>)
 800ed56:	f640 0296 	movw	r2, #2198	; 0x896
 800ed5a:	490e      	ldr	r1, [pc, #56]	; (800ed94 <tcp_pcb_remove+0xc4>)
 800ed5c:	4809      	ldr	r0, [pc, #36]	; (800ed84 <tcp_pcb_remove+0xb4>)
 800ed5e:	f004 fec3 	bl	8013ae8 <iprintf>
 800ed62:	2300      	movs	r3, #0
 800ed64:	7523      	strb	r3, [r4, #20]
 800ed66:	82e3      	strh	r3, [r4, #22]
 800ed68:	bd38      	pop	{r3, r4, r5, pc}
 800ed6a:	4613      	mov	r3, r2
 800ed6c:	2b00      	cmp	r3, #0
 800ed6e:	d0c7      	beq.n	800ed00 <tcp_pcb_remove+0x30>
 800ed70:	68da      	ldr	r2, [r3, #12]
 800ed72:	42a2      	cmp	r2, r4
 800ed74:	d1f9      	bne.n	800ed6a <tcp_pcb_remove+0x9a>
 800ed76:	68e2      	ldr	r2, [r4, #12]
 800ed78:	60da      	str	r2, [r3, #12]
 800ed7a:	e7c1      	b.n	800ed00 <tcp_pcb_remove+0x30>
 800ed7c:	0802607e 	.word	0x0802607e
 800ed80:	080261f7 	.word	0x080261f7
 800ed84:	08014a3b 	.word	0x08014a3b
 800ed88:	08026213 	.word	0x08026213
 800ed8c:	08026233 	.word	0x08026233
 800ed90:	0802624b 	.word	0x0802624b
 800ed94:	08026264 	.word	0x08026264

0800ed98 <tcp_abandon>:
 800ed98:	e92d 47ff 	stmdb	sp!, {r0, r1, r2, r3, r4, r5, r6, r7, r8, r9, sl, lr}
 800ed9c:	460e      	mov	r6, r1
 800ed9e:	4604      	mov	r4, r0
 800eda0:	b948      	cbnz	r0, 800edb6 <tcp_abandon+0x1e>
 800eda2:	4b36      	ldr	r3, [pc, #216]	; (800ee7c <tcp_abandon+0xe4>)
 800eda4:	f240 223d 	movw	r2, #573	; 0x23d
 800eda8:	4935      	ldr	r1, [pc, #212]	; (800ee80 <tcp_abandon+0xe8>)
 800edaa:	4836      	ldr	r0, [pc, #216]	; (800ee84 <tcp_abandon+0xec>)
 800edac:	b004      	add	sp, #16
 800edae:	e8bd 47f0 	ldmia.w	sp!, {r4, r5, r6, r7, r8, r9, sl, lr}
 800edb2:	f004 be99 	b.w	8013ae8 <iprintf>
 800edb6:	7d03      	ldrb	r3, [r0, #20]
 800edb8:	2b01      	cmp	r3, #1
 800edba:	d106      	bne.n	800edca <tcp_abandon+0x32>
 800edbc:	4b2f      	ldr	r3, [pc, #188]	; (800ee7c <tcp_abandon+0xe4>)
 800edbe:	f240 2241 	movw	r2, #577	; 0x241
 800edc2:	4931      	ldr	r1, [pc, #196]	; (800ee88 <tcp_abandon+0xf0>)
 800edc4:	482f      	ldr	r0, [pc, #188]	; (800ee84 <tcp_abandon+0xec>)
 800edc6:	f004 fe8f 	bl	8013ae8 <iprintf>
 800edca:	7d23      	ldrb	r3, [r4, #20]
 800edcc:	2b0a      	cmp	r3, #10
 800edce:	d109      	bne.n	800ede4 <tcp_abandon+0x4c>
 800edd0:	4621      	mov	r1, r4
 800edd2:	482e      	ldr	r0, [pc, #184]	; (800ee8c <tcp_abandon+0xf4>)
 800edd4:	f7ff ff7c 	bl	800ecd0 <tcp_pcb_remove>
 800edd8:	4620      	mov	r0, r4
 800edda:	b004      	add	sp, #16
 800eddc:	e8bd 47f0 	ldmia.w	sp!, {r4, r5, r6, r7, r8, r9, sl, lr}
 800ede0:	f7ff bcf8 	b.w	800e7d4 <tcp_free>
 800ede4:	f8d4 9050 	ldr.w	r9, [r4, #80]	; 0x50
 800ede8:	f8d4 a024 	ldr.w	sl, [r4, #36]	; 0x24
 800edec:	f8d4 7090 	ldr.w	r7, [r4, #144]	; 0x90
 800edf0:	f8d4 8010 	ldr.w	r8, [r4, #16]
 800edf4:	8ae5      	ldrh	r5, [r4, #22]
 800edf6:	b99b      	cbnz	r3, 800ee20 <tcp_abandon+0x88>
 800edf8:	b13d      	cbz	r5, 800ee0a <tcp_abandon+0x72>
 800edfa:	4a25      	ldr	r2, [pc, #148]	; (800ee90 <tcp_abandon+0xf8>)
 800edfc:	6813      	ldr	r3, [r2, #0]
 800edfe:	42a3      	cmp	r3, r4
 800ee00:	d106      	bne.n	800ee10 <tcp_abandon+0x78>
 800ee02:	68e3      	ldr	r3, [r4, #12]
 800ee04:	6013      	str	r3, [r2, #0]
 800ee06:	2500      	movs	r5, #0
 800ee08:	60e5      	str	r5, [r4, #12]
 800ee0a:	462e      	mov	r6, r5
 800ee0c:	e00f      	b.n	800ee2e <tcp_abandon+0x96>
 800ee0e:	4613      	mov	r3, r2
 800ee10:	2b00      	cmp	r3, #0
 800ee12:	d0f8      	beq.n	800ee06 <tcp_abandon+0x6e>
 800ee14:	68da      	ldr	r2, [r3, #12]
 800ee16:	42a2      	cmp	r2, r4
 800ee18:	d1f9      	bne.n	800ee0e <tcp_abandon+0x76>
 800ee1a:	68e2      	ldr	r2, [r4, #12]
 800ee1c:	60da      	str	r2, [r3, #12]
 800ee1e:	e7f2      	b.n	800ee06 <tcp_abandon+0x6e>
 800ee20:	4621      	mov	r1, r4
 800ee22:	481c      	ldr	r0, [pc, #112]	; (800ee94 <tcp_abandon+0xfc>)
 800ee24:	f7ff ff54 	bl	800ecd0 <tcp_pcb_remove>
 800ee28:	4b1b      	ldr	r3, [pc, #108]	; (800ee98 <tcp_abandon+0x100>)
 800ee2a:	2201      	movs	r2, #1
 800ee2c:	701a      	strb	r2, [r3, #0]
 800ee2e:	6f20      	ldr	r0, [r4, #112]	; 0x70
 800ee30:	b108      	cbz	r0, 800ee36 <tcp_abandon+0x9e>
 800ee32:	f7ff fe27 	bl	800ea84 <tcp_segs_free>
 800ee36:	6ee0      	ldr	r0, [r4, #108]	; 0x6c
 800ee38:	b108      	cbz	r0, 800ee3e <tcp_abandon+0xa6>
 800ee3a:	f7ff fe23 	bl	800ea84 <tcp_segs_free>
 800ee3e:	6f60      	ldr	r0, [r4, #116]	; 0x74
 800ee40:	b108      	cbz	r0, 800ee46 <tcp_abandon+0xae>
 800ee42:	f7ff fe1f 	bl	800ea84 <tcp_segs_free>
 800ee46:	b156      	cbz	r6, 800ee5e <tcp_abandon+0xc6>
 800ee48:	8b23      	ldrh	r3, [r4, #24]
 800ee4a:	4652      	mov	r2, sl
 800ee4c:	4649      	mov	r1, r9
 800ee4e:	4620      	mov	r0, r4
 800ee50:	e9cd 5301 	strd	r5, r3, [sp, #4]
 800ee54:	1d23      	adds	r3, r4, #4
 800ee56:	9300      	str	r3, [sp, #0]
 800ee58:	4623      	mov	r3, r4
 800ee5a:	f002 fe27 	bl	8011aac <tcp_rst>
 800ee5e:	4620      	mov	r0, r4
 800ee60:	f7ff fcb8 	bl	800e7d4 <tcp_free>
 800ee64:	b13f      	cbz	r7, 800ee76 <tcp_abandon+0xde>
 800ee66:	f06f 010c 	mvn.w	r1, #12
 800ee6a:	4640      	mov	r0, r8
 800ee6c:	463b      	mov	r3, r7
 800ee6e:	b004      	add	sp, #16
 800ee70:	e8bd 47f0 	ldmia.w	sp!, {r4, r5, r6, r7, r8, r9, sl, lr}
 800ee74:	4718      	bx	r3
 800ee76:	b004      	add	sp, #16
 800ee78:	e8bd 87f0 	ldmia.w	sp!, {r4, r5, r6, r7, r8, r9, sl, pc}
 800ee7c:	0802607e 	.word	0x0802607e
 800ee80:	08025f63 	.word	0x08025f63
 800ee84:	08014a3b 	.word	0x08014a3b
 800ee88:	08025f7c 	.word	0x08025f7c
 800ee8c:	2000b344 	.word	0x2000b344
 800ee90:	2000b340 	.word	0x2000b340
 800ee94:	2000b334 	.word	0x2000b334
 800ee98:	2000b330 	.word	0x2000b330

0800ee9c <tcp_abort>:
 800ee9c:	2101      	movs	r1, #1
 800ee9e:	f7ff bf7b 	b.w	800ed98 <tcp_abandon>
	...

0800eea4 <tcp_accept_null>:
 800eea4:	b510      	push	{r4, lr}
 800eea6:	460c      	mov	r4, r1
 800eea8:	b931      	cbnz	r1, 800eeb8 <tcp_accept_null+0x14>
 800eeaa:	4b06      	ldr	r3, [pc, #24]	; (800eec4 <tcp_accept_null+0x20>)
 800eeac:	f240 320f 	movw	r2, #783	; 0x30f
 800eeb0:	4905      	ldr	r1, [pc, #20]	; (800eec8 <tcp_accept_null+0x24>)
 800eeb2:	4806      	ldr	r0, [pc, #24]	; (800eecc <tcp_accept_null+0x28>)
 800eeb4:	f004 fe18 	bl	8013ae8 <iprintf>
 800eeb8:	4620      	mov	r0, r4
 800eeba:	f7ff ffef 	bl	800ee9c <tcp_abort>
 800eebe:	f06f 000c 	mvn.w	r0, #12
 800eec2:	bd10      	pop	{r4, pc}
 800eec4:	0802607e 	.word	0x0802607e
 800eec8:	08025fad 	.word	0x08025fad
 800eecc:	08014a3b 	.word	0x08014a3b

0800eed0 <tcp_netif_ip_addr_changed_pcblist>:
 800eed0:	b570      	push	{r4, r5, r6, lr}
 800eed2:	460c      	mov	r4, r1
 800eed4:	4605      	mov	r5, r0
 800eed6:	b930      	cbnz	r0, 800eee6 <tcp_netif_ip_addr_changed_pcblist+0x16>
 800eed8:	4b09      	ldr	r3, [pc, #36]	; (800ef00 <tcp_netif_ip_addr_changed_pcblist+0x30>)
 800eeda:	f44f 6210 	mov.w	r2, #2304	; 0x900
 800eede:	4909      	ldr	r1, [pc, #36]	; (800ef04 <tcp_netif_ip_addr_changed_pcblist+0x34>)
 800eee0:	4809      	ldr	r0, [pc, #36]	; (800ef08 <tcp_netif_ip_addr_changed_pcblist+0x38>)
 800eee2:	f004 fe01 	bl	8013ae8 <iprintf>
 800eee6:	b904      	cbnz	r4, 800eeea <tcp_netif_ip_addr_changed_pcblist+0x1a>
 800eee8:	bd70      	pop	{r4, r5, r6, pc}
 800eeea:	6822      	ldr	r2, [r4, #0]
 800eeec:	682b      	ldr	r3, [r5, #0]
 800eeee:	68e6      	ldr	r6, [r4, #12]
 800eef0:	429a      	cmp	r2, r3
 800eef2:	d102      	bne.n	800eefa <tcp_netif_ip_addr_changed_pcblist+0x2a>
 800eef4:	4620      	mov	r0, r4
 800eef6:	f7ff ffd1 	bl	800ee9c <tcp_abort>
 800eefa:	4634      	mov	r4, r6
 800eefc:	e7f3      	b.n	800eee6 <tcp_netif_ip_addr_changed_pcblist+0x16>
 800eefe:	bf00      	nop
 800ef00:	0802607e 	.word	0x0802607e
 800ef04:	0802617b 	.word	0x0802617b
 800ef08:	08014a3b 	.word	0x08014a3b

0800ef0c <tcp_netif_ip_addr_changed>:
 800ef0c:	b538      	push	{r3, r4, r5, lr}
 800ef0e:	460d      	mov	r5, r1
 800ef10:	4604      	mov	r4, r0
 800ef12:	b180      	cbz	r0, 800ef36 <tcp_netif_ip_addr_changed+0x2a>
 800ef14:	6803      	ldr	r3, [r0, #0]
 800ef16:	b173      	cbz	r3, 800ef36 <tcp_netif_ip_addr_changed+0x2a>
 800ef18:	4b0b      	ldr	r3, [pc, #44]	; (800ef48 <tcp_netif_ip_addr_changed+0x3c>)
 800ef1a:	6819      	ldr	r1, [r3, #0]
 800ef1c:	f7ff ffd8 	bl	800eed0 <tcp_netif_ip_addr_changed_pcblist>
 800ef20:	4b0a      	ldr	r3, [pc, #40]	; (800ef4c <tcp_netif_ip_addr_changed+0x40>)
 800ef22:	4620      	mov	r0, r4
 800ef24:	6819      	ldr	r1, [r3, #0]
 800ef26:	f7ff ffd3 	bl	800eed0 <tcp_netif_ip_addr_changed_pcblist>
 800ef2a:	b125      	cbz	r5, 800ef36 <tcp_netif_ip_addr_changed+0x2a>
 800ef2c:	682b      	ldr	r3, [r5, #0]
 800ef2e:	b113      	cbz	r3, 800ef36 <tcp_netif_ip_addr_changed+0x2a>
 800ef30:	4b07      	ldr	r3, [pc, #28]	; (800ef50 <tcp_netif_ip_addr_changed+0x44>)
 800ef32:	681b      	ldr	r3, [r3, #0]
 800ef34:	b903      	cbnz	r3, 800ef38 <tcp_netif_ip_addr_changed+0x2c>
 800ef36:	bd38      	pop	{r3, r4, r5, pc}
 800ef38:	6819      	ldr	r1, [r3, #0]
 800ef3a:	6822      	ldr	r2, [r4, #0]
 800ef3c:	4291      	cmp	r1, r2
 800ef3e:	bf04      	itt	eq
 800ef40:	682a      	ldreq	r2, [r5, #0]
 800ef42:	601a      	streq	r2, [r3, #0]
 800ef44:	68db      	ldr	r3, [r3, #12]
 800ef46:	e7f5      	b.n	800ef34 <tcp_netif_ip_addr_changed+0x28>
 800ef48:	2000b334 	.word	0x2000b334
 800ef4c:	2000b340 	.word	0x2000b340
 800ef50:	2000b33c 	.word	0x2000b33c

0800ef54 <tcp_kill_state>:
 800ef54:	4b0c      	ldr	r3, [pc, #48]	; (800ef88 <tcp_kill_state+0x34>)
 800ef56:	b430      	push	{r4, r5}
 800ef58:	6819      	ldr	r1, [r3, #0]
 800ef5a:	2400      	movs	r4, #0
 800ef5c:	4b0b      	ldr	r3, [pc, #44]	; (800ef8c <tcp_kill_state+0x38>)
 800ef5e:	4622      	mov	r2, r4
 800ef60:	681d      	ldr	r5, [r3, #0]
 800ef62:	b921      	cbnz	r1, 800ef6e <tcp_kill_state+0x1a>
 800ef64:	b172      	cbz	r2, 800ef84 <tcp_kill_state+0x30>
 800ef66:	4610      	mov	r0, r2
 800ef68:	bc30      	pop	{r4, r5}
 800ef6a:	f7ff bf15 	b.w	800ed98 <tcp_abandon>
 800ef6e:	7d0b      	ldrb	r3, [r1, #20]
 800ef70:	4283      	cmp	r3, r0
 800ef72:	d105      	bne.n	800ef80 <tcp_kill_state+0x2c>
 800ef74:	6a0b      	ldr	r3, [r1, #32]
 800ef76:	1aeb      	subs	r3, r5, r3
 800ef78:	42a3      	cmp	r3, r4
 800ef7a:	bf24      	itt	cs
 800ef7c:	461c      	movcs	r4, r3
 800ef7e:	460a      	movcs	r2, r1
 800ef80:	68c9      	ldr	r1, [r1, #12]
 800ef82:	e7ee      	b.n	800ef62 <tcp_kill_state+0xe>
 800ef84:	bc30      	pop	{r4, r5}
 800ef86:	4770      	bx	lr
 800ef88:	2000b334 	.word	0x2000b334
 800ef8c:	2000b338 	.word	0x2000b338

0800ef90 <tcp_alloc>:
 800ef90:	b5f8      	push	{r3, r4, r5, r6, r7, lr}
 800ef92:	4604      	mov	r4, r0
 800ef94:	2001      	movs	r0, #1
 800ef96:	f7fe fe85 	bl	800dca4 <memp_malloc>
 800ef9a:	4603      	mov	r3, r0
 800ef9c:	2800      	cmp	r0, #0
 800ef9e:	d136      	bne.n	800f00e <tcp_alloc+0x7e>
 800efa0:	4e41      	ldr	r6, [pc, #260]	; (800f0a8 <tcp_alloc+0x118>)
 800efa2:	6830      	ldr	r0, [r6, #0]
 800efa4:	2800      	cmp	r0, #0
 800efa6:	d15a      	bne.n	800f05e <tcp_alloc+0xce>
 800efa8:	4b40      	ldr	r3, [pc, #256]	; (800f0ac <tcp_alloc+0x11c>)
 800efaa:	4601      	mov	r1, r0
 800efac:	4d40      	ldr	r5, [pc, #256]	; (800f0b0 <tcp_alloc+0x120>)
 800efae:	681b      	ldr	r3, [r3, #0]
 800efb0:	682f      	ldr	r7, [r5, #0]
 800efb2:	2b00      	cmp	r3, #0
 800efb4:	d15e      	bne.n	800f074 <tcp_alloc+0xe4>
 800efb6:	b108      	cbz	r0, 800efbc <tcp_alloc+0x2c>
 800efb8:	f7ff ff70 	bl	800ee9c <tcp_abort>
 800efbc:	2001      	movs	r0, #1
 800efbe:	f7fe fe71 	bl	800dca4 <memp_malloc>
 800efc2:	4603      	mov	r3, r0
 800efc4:	bb18      	cbnz	r0, 800f00e <tcp_alloc+0x7e>
 800efc6:	2009      	movs	r0, #9
 800efc8:	f7ff ffc4 	bl	800ef54 <tcp_kill_state>
 800efcc:	2001      	movs	r0, #1
 800efce:	f7fe fe69 	bl	800dca4 <memp_malloc>
 800efd2:	4603      	mov	r3, r0
 800efd4:	b9d8      	cbnz	r0, 800f00e <tcp_alloc+0x7e>
 800efd6:	2008      	movs	r0, #8
 800efd8:	f7ff ffbc 	bl	800ef54 <tcp_kill_state>
 800efdc:	2001      	movs	r0, #1
 800efde:	f7fe fe61 	bl	800dca4 <memp_malloc>
 800efe2:	4603      	mov	r3, r0
 800efe4:	b998      	cbnz	r0, 800f00e <tcp_alloc+0x7e>
 800efe6:	0622      	lsls	r2, r4, #24
 800efe8:	d44d      	bmi.n	800f086 <tcp_alloc+0xf6>
 800efea:	b15c      	cbz	r4, 800f004 <tcp_alloc+0x74>
 800efec:	4621      	mov	r1, r4
 800efee:	3901      	subs	r1, #1
 800eff0:	6832      	ldr	r2, [r6, #0]
 800eff2:	2000      	movs	r0, #0
 800eff4:	682e      	ldr	r6, [r5, #0]
 800eff6:	b2c9      	uxtb	r1, r1
 800eff8:	2a00      	cmp	r2, #0
 800effa:	d146      	bne.n	800f08a <tcp_alloc+0xfa>
 800effc:	b113      	cbz	r3, 800f004 <tcp_alloc+0x74>
 800effe:	4618      	mov	r0, r3
 800f000:	f7ff ff4c 	bl	800ee9c <tcp_abort>
 800f004:	2001      	movs	r0, #1
 800f006:	f7fe fe4d 	bl	800dca4 <memp_malloc>
 800f00a:	4603      	mov	r3, r0
 800f00c:	b328      	cbz	r0, 800f05a <tcp_alloc+0xca>
 800f00e:	229c      	movs	r2, #156	; 0x9c
 800f010:	2100      	movs	r1, #0
 800f012:	4618      	mov	r0, r3
 800f014:	f004 fd60 	bl	8013ad8 <memset>
 800f018:	4926      	ldr	r1, [pc, #152]	; (800f0b4 <tcp_alloc+0x124>)
 800f01a:	f44f 6286 	mov.w	r2, #1072	; 0x430
 800f01e:	4603      	mov	r3, r0
 800f020:	6281      	str	r1, [r0, #40]	; 0x28
 800f022:	21ff      	movs	r1, #255	; 0xff
 800f024:	f8a0 2064 	strh.w	r2, [r0, #100]	; 0x64
 800f028:	72c1      	strb	r1, [r0, #11]
 800f02a:	2106      	movs	r1, #6
 800f02c:	f8a0 204a 	strh.w	r2, [r0, #74]	; 0x4a
 800f030:	f8a0 1040 	strh.w	r1, [r0, #64]	; 0x40
 800f034:	87c1      	strh	r1, [r0, #62]	; 0x3e
 800f036:	4920      	ldr	r1, [pc, #128]	; (800f0b8 <tcp_alloc+0x128>)
 800f038:	4a20      	ldr	r2, [pc, #128]	; (800f0bc <tcp_alloc+0x12c>)
 800f03a:	6301      	str	r1, [r0, #48]	; 0x30
 800f03c:	2101      	movs	r1, #1
 800f03e:	f8c0 2084 	str.w	r2, [r0, #132]	; 0x84
 800f042:	f8a0 1048 	strh.w	r1, [r0, #72]	; 0x48
 800f046:	491a      	ldr	r1, [pc, #104]	; (800f0b0 <tcp_alloc+0x120>)
 800f048:	4a1d      	ldr	r2, [pc, #116]	; (800f0c0 <tcp_alloc+0x130>)
 800f04a:	6809      	ldr	r1, [r1, #0]
 800f04c:	7544      	strb	r4, [r0, #21]
 800f04e:	6201      	str	r1, [r0, #32]
 800f050:	491c      	ldr	r1, [pc, #112]	; (800f0c4 <tcp_alloc+0x134>)
 800f052:	f8c0 2094 	str.w	r2, [r0, #148]	; 0x94
 800f056:	7809      	ldrb	r1, [r1, #0]
 800f058:	7781      	strb	r1, [r0, #30]
 800f05a:	4618      	mov	r0, r3
 800f05c:	bdf8      	pop	{r3, r4, r5, r6, r7, pc}
 800f05e:	8b43      	ldrh	r3, [r0, #26]
 800f060:	68c5      	ldr	r5, [r0, #12]
 800f062:	0719      	lsls	r1, r3, #28
 800f064:	d504      	bpl.n	800f070 <tcp_alloc+0xe0>
 800f066:	f023 0308 	bic.w	r3, r3, #8
 800f06a:	8343      	strh	r3, [r0, #26]
 800f06c:	f7ff fb76 	bl	800e75c <tcp_close_shutdown_fin>
 800f070:	4628      	mov	r0, r5
 800f072:	e797      	b.n	800efa4 <tcp_alloc+0x14>
 800f074:	6a1a      	ldr	r2, [r3, #32]
 800f076:	1aba      	subs	r2, r7, r2
 800f078:	428a      	cmp	r2, r1
 800f07a:	bf34      	ite	cc
 800f07c:	460a      	movcc	r2, r1
 800f07e:	4618      	movcs	r0, r3
 800f080:	68db      	ldr	r3, [r3, #12]
 800f082:	4611      	mov	r1, r2
 800f084:	e795      	b.n	800efb2 <tcp_alloc+0x22>
 800f086:	217f      	movs	r1, #127	; 0x7f
 800f088:	e7b1      	b.n	800efee <tcp_alloc+0x5e>
 800f08a:	7d57      	ldrb	r7, [r2, #21]
 800f08c:	428f      	cmp	r7, r1
 800f08e:	d304      	bcc.n	800f09a <tcp_alloc+0x10a>
 800f090:	d107      	bne.n	800f0a2 <tcp_alloc+0x112>
 800f092:	6a15      	ldr	r5, [r2, #32]
 800f094:	1b75      	subs	r5, r6, r5
 800f096:	4285      	cmp	r5, r0
 800f098:	d303      	bcc.n	800f0a2 <tcp_alloc+0x112>
 800f09a:	6a10      	ldr	r0, [r2, #32]
 800f09c:	4639      	mov	r1, r7
 800f09e:	4613      	mov	r3, r2
 800f0a0:	1a30      	subs	r0, r6, r0
 800f0a2:	68d2      	ldr	r2, [r2, #12]
 800f0a4:	e7a8      	b.n	800eff8 <tcp_alloc+0x68>
 800f0a6:	bf00      	nop
 800f0a8:	2000b334 	.word	0x2000b334
 800f0ac:	2000b344 	.word	0x2000b344
 800f0b0:	2000b338 	.word	0x2000b338
 800f0b4:	08600860 	.word	0x08600860
 800f0b8:	0218ffff 	.word	0x0218ffff
 800f0bc:	0800f26d 	.word	0x0800f26d
 800f0c0:	006ddd00 	.word	0x006ddd00
 800f0c4:	20004512 	.word	0x20004512

0800f0c8 <tcp_new_ip_type>:
 800f0c8:	2040      	movs	r0, #64	; 0x40
 800f0ca:	f7ff bf61 	b.w	800ef90 <tcp_alloc>
	...

0800f0d0 <tcp_close_shutdown>:
 800f0d0:	b530      	push	{r4, r5, lr}
 800f0d2:	460d      	mov	r5, r1
 800f0d4:	b085      	sub	sp, #20
 800f0d6:	4604      	mov	r4, r0
 800f0d8:	b930      	cbnz	r0, 800f0e8 <tcp_close_shutdown+0x18>
 800f0da:	4b4a      	ldr	r3, [pc, #296]	; (800f204 <tcp_close_shutdown+0x134>)
 800f0dc:	f44f 72af 	mov.w	r2, #350	; 0x15e
 800f0e0:	4949      	ldr	r1, [pc, #292]	; (800f208 <tcp_close_shutdown+0x138>)
 800f0e2:	484a      	ldr	r0, [pc, #296]	; (800f20c <tcp_close_shutdown+0x13c>)
 800f0e4:	f004 fd00 	bl	8013ae8 <iprintf>
 800f0e8:	7d23      	ldrb	r3, [r4, #20]
 800f0ea:	2d00      	cmp	r5, #0
 800f0ec:	d03f      	beq.n	800f16e <tcp_close_shutdown+0x9e>
 800f0ee:	2b04      	cmp	r3, #4
 800f0f0:	d001      	beq.n	800f0f6 <tcp_close_shutdown+0x26>
 800f0f2:	2b07      	cmp	r3, #7
 800f0f4:	d13b      	bne.n	800f16e <tcp_close_shutdown+0x9e>
 800f0f6:	6fa2      	ldr	r2, [r4, #120]	; 0x78
 800f0f8:	b91a      	cbnz	r2, 800f102 <tcp_close_shutdown+0x32>
 800f0fa:	8d22      	ldrh	r2, [r4, #40]	; 0x28
 800f0fc:	f5b2 6f06 	cmp.w	r2, #2144	; 0x860
 800f100:	d035      	beq.n	800f16e <tcp_close_shutdown+0x9e>
 800f102:	8b63      	ldrh	r3, [r4, #26]
 800f104:	06db      	lsls	r3, r3, #27
 800f106:	d406      	bmi.n	800f116 <tcp_close_shutdown+0x46>
 800f108:	4b3e      	ldr	r3, [pc, #248]	; (800f204 <tcp_close_shutdown+0x134>)
 800f10a:	f44f 72b2 	mov.w	r2, #356	; 0x164
 800f10e:	4940      	ldr	r1, [pc, #256]	; (800f210 <tcp_close_shutdown+0x140>)
 800f110:	483e      	ldr	r0, [pc, #248]	; (800f20c <tcp_close_shutdown+0x13c>)
 800f112:	f004 fce9 	bl	8013ae8 <iprintf>
 800f116:	8b23      	ldrh	r3, [r4, #24]
 800f118:	4620      	mov	r0, r4
 800f11a:	9302      	str	r3, [sp, #8]
 800f11c:	8ae3      	ldrh	r3, [r4, #22]
 800f11e:	9301      	str	r3, [sp, #4]
 800f120:	1d23      	adds	r3, r4, #4
 800f122:	9300      	str	r3, [sp, #0]
 800f124:	4623      	mov	r3, r4
 800f126:	6a62      	ldr	r2, [r4, #36]	; 0x24
 800f128:	6d21      	ldr	r1, [r4, #80]	; 0x50
 800f12a:	f002 fcbf 	bl	8011aac <tcp_rst>
 800f12e:	4620      	mov	r0, r4
 800f130:	f7ff fd9c 	bl	800ec6c <tcp_pcb_purge>
 800f134:	4a37      	ldr	r2, [pc, #220]	; (800f214 <tcp_close_shutdown+0x144>)
 800f136:	6813      	ldr	r3, [r2, #0]
 800f138:	42a3      	cmp	r3, r4
 800f13a:	d110      	bne.n	800f15e <tcp_close_shutdown+0x8e>
 800f13c:	68e3      	ldr	r3, [r4, #12]
 800f13e:	6013      	str	r3, [r2, #0]
 800f140:	2300      	movs	r3, #0
 800f142:	2201      	movs	r2, #1
 800f144:	60e3      	str	r3, [r4, #12]
 800f146:	4b34      	ldr	r3, [pc, #208]	; (800f218 <tcp_close_shutdown+0x148>)
 800f148:	701a      	strb	r2, [r3, #0]
 800f14a:	4b34      	ldr	r3, [pc, #208]	; (800f21c <tcp_close_shutdown+0x14c>)
 800f14c:	681b      	ldr	r3, [r3, #0]
 800f14e:	42a3      	cmp	r3, r4
 800f150:	d122      	bne.n	800f198 <tcp_close_shutdown+0xc8>
 800f152:	f001 fe3f 	bl	8010dd4 <tcp_trigger_input_pcb_close>
 800f156:	2000      	movs	r0, #0
 800f158:	b005      	add	sp, #20
 800f15a:	bd30      	pop	{r4, r5, pc}
 800f15c:	4613      	mov	r3, r2
 800f15e:	2b00      	cmp	r3, #0
 800f160:	d0ee      	beq.n	800f140 <tcp_close_shutdown+0x70>
 800f162:	68da      	ldr	r2, [r3, #12]
 800f164:	42a2      	cmp	r2, r4
 800f166:	d1f9      	bne.n	800f15c <tcp_close_shutdown+0x8c>
 800f168:	68e2      	ldr	r2, [r4, #12]
 800f16a:	60da      	str	r2, [r3, #12]
 800f16c:	e7e8      	b.n	800f140 <tcp_close_shutdown+0x70>
 800f16e:	2b01      	cmp	r3, #1
 800f170:	d01f      	beq.n	800f1b2 <tcp_close_shutdown+0xe2>
 800f172:	d307      	bcc.n	800f184 <tcp_close_shutdown+0xb4>
 800f174:	2b02      	cmp	r3, #2
 800f176:	d03d      	beq.n	800f1f4 <tcp_close_shutdown+0x124>
 800f178:	4620      	mov	r0, r4
 800f17a:	b005      	add	sp, #20
 800f17c:	e8bd 4030 	ldmia.w	sp!, {r4, r5, lr}
 800f180:	f7ff baec 	b.w	800e75c <tcp_close_shutdown_fin>
 800f184:	8ae3      	ldrh	r3, [r4, #22]
 800f186:	b13b      	cbz	r3, 800f198 <tcp_close_shutdown+0xc8>
 800f188:	4a25      	ldr	r2, [pc, #148]	; (800f220 <tcp_close_shutdown+0x150>)
 800f18a:	6813      	ldr	r3, [r2, #0]
 800f18c:	42a3      	cmp	r3, r4
 800f18e:	d108      	bne.n	800f1a2 <tcp_close_shutdown+0xd2>
 800f190:	68e3      	ldr	r3, [r4, #12]
 800f192:	6013      	str	r3, [r2, #0]
 800f194:	2300      	movs	r3, #0
 800f196:	60e3      	str	r3, [r4, #12]
 800f198:	4620      	mov	r0, r4
 800f19a:	f7ff fb1b 	bl	800e7d4 <tcp_free>
 800f19e:	e7da      	b.n	800f156 <tcp_close_shutdown+0x86>
 800f1a0:	4613      	mov	r3, r2
 800f1a2:	2b00      	cmp	r3, #0
 800f1a4:	d0f6      	beq.n	800f194 <tcp_close_shutdown+0xc4>
 800f1a6:	68da      	ldr	r2, [r3, #12]
 800f1a8:	42a2      	cmp	r2, r4
 800f1aa:	d1f9      	bne.n	800f1a0 <tcp_close_shutdown+0xd0>
 800f1ac:	68e2      	ldr	r2, [r4, #12]
 800f1ae:	60da      	str	r2, [r3, #12]
 800f1b0:	e7f0      	b.n	800f194 <tcp_close_shutdown+0xc4>
 800f1b2:	491c      	ldr	r1, [pc, #112]	; (800f224 <tcp_close_shutdown+0x154>)
 800f1b4:	2000      	movs	r0, #0
 800f1b6:	f851 2023 	ldr.w	r2, [r1, r3, lsl #2]
 800f1ba:	6812      	ldr	r2, [r2, #0]
 800f1bc:	b9a2      	cbnz	r2, 800f1e8 <tcp_close_shutdown+0x118>
 800f1be:	3301      	adds	r3, #1
 800f1c0:	2b04      	cmp	r3, #4
 800f1c2:	d1f8      	bne.n	800f1b6 <tcp_close_shutdown+0xe6>
 800f1c4:	4621      	mov	r1, r4
 800f1c6:	4818      	ldr	r0, [pc, #96]	; (800f228 <tcp_close_shutdown+0x158>)
 800f1c8:	f7ff fd82 	bl	800ecd0 <tcp_pcb_remove>
 800f1cc:	7d23      	ldrb	r3, [r4, #20]
 800f1ce:	2b01      	cmp	r3, #1
 800f1d0:	d105      	bne.n	800f1de <tcp_close_shutdown+0x10e>
 800f1d2:	4b0c      	ldr	r3, [pc, #48]	; (800f204 <tcp_close_shutdown+0x134>)
 800f1d4:	22df      	movs	r2, #223	; 0xdf
 800f1d6:	4915      	ldr	r1, [pc, #84]	; (800f22c <tcp_close_shutdown+0x15c>)
 800f1d8:	480c      	ldr	r0, [pc, #48]	; (800f20c <tcp_close_shutdown+0x13c>)
 800f1da:	f004 fc85 	bl	8013ae8 <iprintf>
 800f1de:	4621      	mov	r1, r4
 800f1e0:	2002      	movs	r0, #2
 800f1e2:	f7fe fd7b 	bl	800dcdc <memp_free>
 800f1e6:	e7b6      	b.n	800f156 <tcp_close_shutdown+0x86>
 800f1e8:	6fd5      	ldr	r5, [r2, #124]	; 0x7c
 800f1ea:	42ac      	cmp	r4, r5
 800f1ec:	bf08      	it	eq
 800f1ee:	67d0      	streq	r0, [r2, #124]	; 0x7c
 800f1f0:	68d2      	ldr	r2, [r2, #12]
 800f1f2:	e7e3      	b.n	800f1bc <tcp_close_shutdown+0xec>
 800f1f4:	4621      	mov	r1, r4
 800f1f6:	4807      	ldr	r0, [pc, #28]	; (800f214 <tcp_close_shutdown+0x144>)
 800f1f8:	f7ff fd6a 	bl	800ecd0 <tcp_pcb_remove>
 800f1fc:	4b06      	ldr	r3, [pc, #24]	; (800f218 <tcp_close_shutdown+0x148>)
 800f1fe:	2201      	movs	r2, #1
 800f200:	701a      	strb	r2, [r3, #0]
 800f202:	e7c9      	b.n	800f198 <tcp_close_shutdown+0xc8>
 800f204:	0802607e 	.word	0x0802607e
 800f208:	0802602c 	.word	0x0802602c
 800f20c:	08014a3b 	.word	0x08014a3b
 800f210:	0802604c 	.word	0x0802604c
 800f214:	2000b334 	.word	0x2000b334
 800f218:	2000b330 	.word	0x2000b330
 800f21c:	2000b348 	.word	0x2000b348
 800f220:	2000b340 	.word	0x2000b340
 800f224:	080261cc 	.word	0x080261cc
 800f228:	2000b33c 	.word	0x2000b33c
 800f22c:	08026065 	.word	0x08026065

0800f230 <tcp_close>:
 800f230:	b508      	push	{r3, lr}
 800f232:	b158      	cbz	r0, 800f24c <tcp_close+0x1c>
 800f234:	7d03      	ldrb	r3, [r0, #20]
 800f236:	2101      	movs	r1, #1
 800f238:	2b01      	cmp	r3, #1
 800f23a:	bf1e      	ittt	ne
 800f23c:	8b43      	ldrhne	r3, [r0, #26]
 800f23e:	f043 0310 	orrne.w	r3, r3, #16
 800f242:	8343      	strhne	r3, [r0, #26]
 800f244:	e8bd 4008 	ldmia.w	sp!, {r3, lr}
 800f248:	f7ff bf42 	b.w	800f0d0 <tcp_close_shutdown>
 800f24c:	4b04      	ldr	r3, [pc, #16]	; (800f260 <tcp_close+0x30>)
 800f24e:	f44f 72f4 	mov.w	r2, #488	; 0x1e8
 800f252:	4904      	ldr	r1, [pc, #16]	; (800f264 <tcp_close+0x34>)
 800f254:	4804      	ldr	r0, [pc, #16]	; (800f268 <tcp_close+0x38>)
 800f256:	f004 fc47 	bl	8013ae8 <iprintf>
 800f25a:	f06f 000f 	mvn.w	r0, #15
 800f25e:	bd08      	pop	{r3, pc}
 800f260:	0802607e 	.word	0x0802607e
 800f264:	08026015 	.word	0x08026015
 800f268:	08014a3b 	.word	0x08014a3b

0800f26c <tcp_recv_null>:
 800f26c:	b510      	push	{r4, lr}
 800f26e:	4608      	mov	r0, r1
 800f270:	4614      	mov	r4, r2
 800f272:	b949      	cbnz	r1, 800f288 <tcp_recv_null+0x1c>
 800f274:	4b0c      	ldr	r3, [pc, #48]	; (800f2a8 <tcp_recv_null+0x3c>)
 800f276:	f44f 62d3 	mov.w	r2, #1688	; 0x698
 800f27a:	490c      	ldr	r1, [pc, #48]	; (800f2ac <tcp_recv_null+0x40>)
 800f27c:	480c      	ldr	r0, [pc, #48]	; (800f2b0 <tcp_recv_null+0x44>)
 800f27e:	f004 fc33 	bl	8013ae8 <iprintf>
 800f282:	f06f 000f 	mvn.w	r0, #15
 800f286:	bd10      	pop	{r4, pc}
 800f288:	b13a      	cbz	r2, 800f29a <tcp_recv_null+0x2e>
 800f28a:	8911      	ldrh	r1, [r2, #8]
 800f28c:	f7ff fbb0 	bl	800e9f0 <tcp_recved>
 800f290:	4620      	mov	r0, r4
 800f292:	f7fe ffa7 	bl	800e1e4 <pbuf_free>
 800f296:	2000      	movs	r0, #0
 800f298:	e7f5      	b.n	800f286 <tcp_recv_null+0x1a>
 800f29a:	b91b      	cbnz	r3, 800f2a4 <tcp_recv_null+0x38>
 800f29c:	e8bd 4010 	ldmia.w	sp!, {r4, lr}
 800f2a0:	f7ff bfc6 	b.w	800f230 <tcp_close>
 800f2a4:	4610      	mov	r0, r2
 800f2a6:	e7ee      	b.n	800f286 <tcp_recv_null+0x1a>
 800f2a8:	0802607e 	.word	0x0802607e
 800f2ac:	08026303 	.word	0x08026303
 800f2b0:	08014a3b 	.word	0x08014a3b

0800f2b4 <tcp_process_refused_data>:
 800f2b4:	b5f8      	push	{r3, r4, r5, r6, r7, lr}
 800f2b6:	4604      	mov	r4, r0
 800f2b8:	b950      	cbnz	r0, 800f2d0 <tcp_process_refused_data+0x1c>
 800f2ba:	f06f 050f 	mvn.w	r5, #15
 800f2be:	4b1d      	ldr	r3, [pc, #116]	; (800f334 <tcp_process_refused_data+0x80>)
 800f2c0:	f240 6209 	movw	r2, #1545	; 0x609
 800f2c4:	491c      	ldr	r1, [pc, #112]	; (800f338 <tcp_process_refused_data+0x84>)
 800f2c6:	481d      	ldr	r0, [pc, #116]	; (800f33c <tcp_process_refused_data+0x88>)
 800f2c8:	f004 fc0e 	bl	8013ae8 <iprintf>
 800f2cc:	4628      	mov	r0, r5
 800f2ce:	bdf8      	pop	{r3, r4, r5, r6, r7, pc}
 800f2d0:	6f86      	ldr	r6, [r0, #120]	; 0x78
 800f2d2:	2300      	movs	r3, #0
 800f2d4:	f8d0 5084 	ldr.w	r5, [r0, #132]	; 0x84
 800f2d8:	7b77      	ldrb	r7, [r6, #13]
 800f2da:	6783      	str	r3, [r0, #120]	; 0x78
 800f2dc:	b1dd      	cbz	r5, 800f316 <tcp_process_refused_data+0x62>
 800f2de:	4601      	mov	r1, r0
 800f2e0:	4632      	mov	r2, r6
 800f2e2:	6900      	ldr	r0, [r0, #16]
 800f2e4:	47a8      	blx	r5
 800f2e6:	4605      	mov	r5, r0
 800f2e8:	b9e0      	cbnz	r0, 800f324 <tcp_process_refused_data+0x70>
 800f2ea:	06bb      	lsls	r3, r7, #26
 800f2ec:	d5ee      	bpl.n	800f2cc <tcp_process_refused_data+0x18>
 800f2ee:	8d23      	ldrh	r3, [r4, #40]	; 0x28
 800f2f0:	f8d4 6084 	ldr.w	r6, [r4, #132]	; 0x84
 800f2f4:	f5b3 6f06 	cmp.w	r3, #2144	; 0x860
 800f2f8:	bf1c      	itt	ne
 800f2fa:	3301      	addne	r3, #1
 800f2fc:	8523      	strhne	r3, [r4, #40]	; 0x28
 800f2fe:	2e00      	cmp	r6, #0
 800f300:	d0e4      	beq.n	800f2cc <tcp_process_refused_data+0x18>
 800f302:	2300      	movs	r3, #0
 800f304:	4621      	mov	r1, r4
 800f306:	6920      	ldr	r0, [r4, #16]
 800f308:	461a      	mov	r2, r3
 800f30a:	47b0      	blx	r6
 800f30c:	300d      	adds	r0, #13
 800f30e:	d1dd      	bne.n	800f2cc <tcp_process_refused_data+0x18>
 800f310:	f06f 050c 	mvn.w	r5, #12
 800f314:	e7da      	b.n	800f2cc <tcp_process_refused_data+0x18>
 800f316:	4601      	mov	r1, r0
 800f318:	462b      	mov	r3, r5
 800f31a:	4632      	mov	r2, r6
 800f31c:	4628      	mov	r0, r5
 800f31e:	f7ff ffa5 	bl	800f26c <tcp_recv_null>
 800f322:	e7e0      	b.n	800f2e6 <tcp_process_refused_data+0x32>
 800f324:	f110 050d 	adds.w	r5, r0, #13
 800f328:	d0f2      	beq.n	800f310 <tcp_process_refused_data+0x5c>
 800f32a:	67a6      	str	r6, [r4, #120]	; 0x78
 800f32c:	f06f 0504 	mvn.w	r5, #4
 800f330:	e7cc      	b.n	800f2cc <tcp_process_refused_data+0x18>
 800f332:	bf00      	nop
 800f334:	0802607e 	.word	0x0802607e
 800f338:	080262b6 	.word	0x080262b6
 800f33c:	08014a3b 	.word	0x08014a3b

0800f340 <tcp_fasttmr>:
 800f340:	e92d 43f8 	stmdb	sp!, {r3, r4, r5, r6, r7, r8, r9, lr}
 800f344:	4d1b      	ldr	r5, [pc, #108]	; (800f3b4 <tcp_fasttmr+0x74>)
 800f346:	4f1c      	ldr	r7, [pc, #112]	; (800f3b8 <tcp_fasttmr+0x78>)
 800f348:	782b      	ldrb	r3, [r5, #0]
 800f34a:	4e1c      	ldr	r6, [pc, #112]	; (800f3bc <tcp_fasttmr+0x7c>)
 800f34c:	3301      	adds	r3, #1
 800f34e:	702b      	strb	r3, [r5, #0]
 800f350:	683c      	ldr	r4, [r7, #0]
 800f352:	f04f 0800 	mov.w	r8, #0
 800f356:	b90c      	cbnz	r4, 800f35c <tcp_fasttmr+0x1c>
 800f358:	e8bd 83f8 	ldmia.w	sp!, {r3, r4, r5, r6, r7, r8, r9, pc}
 800f35c:	782b      	ldrb	r3, [r5, #0]
 800f35e:	7fa2      	ldrb	r2, [r4, #30]
 800f360:	429a      	cmp	r2, r3
 800f362:	d024      	beq.n	800f3ae <tcp_fasttmr+0x6e>
 800f364:	77a3      	strb	r3, [r4, #30]
 800f366:	8b63      	ldrh	r3, [r4, #26]
 800f368:	07d9      	lsls	r1, r3, #31
 800f36a:	d509      	bpl.n	800f380 <tcp_fasttmr+0x40>
 800f36c:	f043 0302 	orr.w	r3, r3, #2
 800f370:	4620      	mov	r0, r4
 800f372:	8363      	strh	r3, [r4, #26]
 800f374:	f002 fc10 	bl	8011b98 <tcp_output>
 800f378:	8b63      	ldrh	r3, [r4, #26]
 800f37a:	f023 0303 	bic.w	r3, r3, #3
 800f37e:	8363      	strh	r3, [r4, #26]
 800f380:	8b63      	ldrh	r3, [r4, #26]
 800f382:	071a      	lsls	r2, r3, #28
 800f384:	d505      	bpl.n	800f392 <tcp_fasttmr+0x52>
 800f386:	f023 0308 	bic.w	r3, r3, #8
 800f38a:	4620      	mov	r0, r4
 800f38c:	8363      	strh	r3, [r4, #26]
 800f38e:	f7ff f9e5 	bl	800e75c <tcp_close_shutdown_fin>
 800f392:	6fa3      	ldr	r3, [r4, #120]	; 0x78
 800f394:	f8d4 900c 	ldr.w	r9, [r4, #12]
 800f398:	b13b      	cbz	r3, 800f3aa <tcp_fasttmr+0x6a>
 800f39a:	4620      	mov	r0, r4
 800f39c:	f886 8000 	strb.w	r8, [r6]
 800f3a0:	f7ff ff88 	bl	800f2b4 <tcp_process_refused_data>
 800f3a4:	7833      	ldrb	r3, [r6, #0]
 800f3a6:	2b00      	cmp	r3, #0
 800f3a8:	d1d2      	bne.n	800f350 <tcp_fasttmr+0x10>
 800f3aa:	464c      	mov	r4, r9
 800f3ac:	e7d3      	b.n	800f356 <tcp_fasttmr+0x16>
 800f3ae:	f8d4 900c 	ldr.w	r9, [r4, #12]
 800f3b2:	e7fa      	b.n	800f3aa <tcp_fasttmr+0x6a>
 800f3b4:	20004512 	.word	0x20004512
 800f3b8:	2000b334 	.word	0x2000b334
 800f3bc:	2000b330 	.word	0x2000b330

0800f3c0 <tcp_slowtmr>:
 800f3c0:	e92d 4ff0 	stmdb	sp!, {r4, r5, r6, r7, r8, r9, sl, fp, lr}
 800f3c4:	4e95      	ldr	r6, [pc, #596]	; (800f61c <tcp_slowtmr+0x25c>)
 800f3c6:	b087      	sub	sp, #28
 800f3c8:	f8df a284 	ldr.w	sl, [pc, #644]	; 800f650 <tcp_slowtmr+0x290>
 800f3cc:	6833      	ldr	r3, [r6, #0]
 800f3ce:	3301      	adds	r3, #1
 800f3d0:	6033      	str	r3, [r6, #0]
 800f3d2:	4b93      	ldr	r3, [pc, #588]	; (800f620 <tcp_slowtmr+0x260>)
 800f3d4:	781a      	ldrb	r2, [r3, #0]
 800f3d6:	9304      	str	r3, [sp, #16]
 800f3d8:	3201      	adds	r2, #1
 800f3da:	701a      	strb	r2, [r3, #0]
 800f3dc:	4b91      	ldr	r3, [pc, #580]	; (800f624 <tcp_slowtmr+0x264>)
 800f3de:	f04f 0900 	mov.w	r9, #0
 800f3e2:	4f91      	ldr	r7, [pc, #580]	; (800f628 <tcp_slowtmr+0x268>)
 800f3e4:	681c      	ldr	r4, [r3, #0]
 800f3e6:	4698      	mov	r8, r3
 800f3e8:	b96c      	cbnz	r4, 800f406 <tcp_slowtmr+0x46>
 800f3ea:	4f90      	ldr	r7, [pc, #576]	; (800f62c <tcp_slowtmr+0x26c>)
 800f3ec:	f8df 8238 	ldr.w	r8, [pc, #568]	; 800f628 <tcp_slowtmr+0x268>
 800f3f0:	683d      	ldr	r5, [r7, #0]
 800f3f2:	f8df a260 	ldr.w	sl, [pc, #608]	; 800f654 <tcp_slowtmr+0x294>
 800f3f6:	f8df 923c 	ldr.w	r9, [pc, #572]	; 800f634 <tcp_slowtmr+0x274>
 800f3fa:	2d00      	cmp	r5, #0
 800f3fc:	f040 81c6 	bne.w	800f78c <tcp_slowtmr+0x3cc>
 800f400:	b007      	add	sp, #28
 800f402:	e8bd 8ff0 	ldmia.w	sp!, {r4, r5, r6, r7, r8, r9, sl, fp, pc}
 800f406:	7d23      	ldrb	r3, [r4, #20]
 800f408:	b933      	cbnz	r3, 800f418 <tcp_slowtmr+0x58>
 800f40a:	463b      	mov	r3, r7
 800f40c:	f240 42be 	movw	r2, #1214	; 0x4be
 800f410:	4987      	ldr	r1, [pc, #540]	; (800f630 <tcp_slowtmr+0x270>)
 800f412:	4888      	ldr	r0, [pc, #544]	; (800f634 <tcp_slowtmr+0x274>)
 800f414:	f004 fb68 	bl	8013ae8 <iprintf>
 800f418:	7d23      	ldrb	r3, [r4, #20]
 800f41a:	2b01      	cmp	r3, #1
 800f41c:	d106      	bne.n	800f42c <tcp_slowtmr+0x6c>
 800f41e:	463b      	mov	r3, r7
 800f420:	f240 42bf 	movw	r2, #1215	; 0x4bf
 800f424:	4984      	ldr	r1, [pc, #528]	; (800f638 <tcp_slowtmr+0x278>)
 800f426:	4883      	ldr	r0, [pc, #524]	; (800f634 <tcp_slowtmr+0x274>)
 800f428:	f004 fb5e 	bl	8013ae8 <iprintf>
 800f42c:	7d23      	ldrb	r3, [r4, #20]
 800f42e:	2b0a      	cmp	r3, #10
 800f430:	d106      	bne.n	800f440 <tcp_slowtmr+0x80>
 800f432:	463b      	mov	r3, r7
 800f434:	f44f 6298 	mov.w	r2, #1216	; 0x4c0
 800f438:	4980      	ldr	r1, [pc, #512]	; (800f63c <tcp_slowtmr+0x27c>)
 800f43a:	487e      	ldr	r0, [pc, #504]	; (800f634 <tcp_slowtmr+0x274>)
 800f43c:	f004 fb54 	bl	8013ae8 <iprintf>
 800f440:	9b04      	ldr	r3, [sp, #16]
 800f442:	7fa2      	ldrb	r2, [r4, #30]
 800f444:	781b      	ldrb	r3, [r3, #0]
 800f446:	429a      	cmp	r2, r3
 800f448:	d103      	bne.n	800f452 <tcp_slowtmr+0x92>
 800f44a:	68e5      	ldr	r5, [r4, #12]
 800f44c:	46a1      	mov	r9, r4
 800f44e:	462c      	mov	r4, r5
 800f450:	e7ca      	b.n	800f3e8 <tcp_slowtmr+0x28>
 800f452:	77a3      	strb	r3, [r4, #30]
 800f454:	7d23      	ldrb	r3, [r4, #20]
 800f456:	f894 2042 	ldrb.w	r2, [r4, #66]	; 0x42
 800f45a:	2b02      	cmp	r3, #2
 800f45c:	d133      	bne.n	800f4c6 <tcp_slowtmr+0x106>
 800f45e:	2a05      	cmp	r2, #5
 800f460:	f200 81ca 	bhi.w	800f7f8 <tcp_slowtmr+0x438>
 800f464:	f894 b099 	ldrb.w	fp, [r4, #153]	; 0x99
 800f468:	f1bb 0f00 	cmp.w	fp, #0
 800f46c:	f000 80f4 	beq.w	800f658 <tcp_slowtmr+0x298>
 800f470:	6f23      	ldr	r3, [r4, #112]	; 0x70
 800f472:	b133      	cbz	r3, 800f482 <tcp_slowtmr+0xc2>
 800f474:	463b      	mov	r3, r7
 800f476:	f240 42d4 	movw	r2, #1236	; 0x4d4
 800f47a:	4971      	ldr	r1, [pc, #452]	; (800f640 <tcp_slowtmr+0x280>)
 800f47c:	486d      	ldr	r0, [pc, #436]	; (800f634 <tcp_slowtmr+0x274>)
 800f47e:	f004 fb33 	bl	8013ae8 <iprintf>
 800f482:	6ee3      	ldr	r3, [r4, #108]	; 0x6c
 800f484:	b933      	cbnz	r3, 800f494 <tcp_slowtmr+0xd4>
 800f486:	463b      	mov	r3, r7
 800f488:	f240 42d5 	movw	r2, #1237	; 0x4d5
 800f48c:	496d      	ldr	r1, [pc, #436]	; (800f644 <tcp_slowtmr+0x284>)
 800f48e:	4869      	ldr	r0, [pc, #420]	; (800f634 <tcp_slowtmr+0x274>)
 800f490:	f004 fb2a 	bl	8013ae8 <iprintf>
 800f494:	f894 309a 	ldrb.w	r3, [r4, #154]	; 0x9a
 800f498:	2b0b      	cmp	r3, #11
 800f49a:	d816      	bhi.n	800f4ca <tcp_slowtmr+0x10a>
 800f49c:	f894 2099 	ldrb.w	r2, [r4, #153]	; 0x99
 800f4a0:	4b69      	ldr	r3, [pc, #420]	; (800f648 <tcp_slowtmr+0x288>)
 800f4a2:	4413      	add	r3, r2
 800f4a4:	f813 2c01 	ldrb.w	r2, [r3, #-1]
 800f4a8:	f894 3098 	ldrb.w	r3, [r4, #152]	; 0x98
 800f4ac:	4293      	cmp	r3, r2
 800f4ae:	bf3c      	itt	cc
 800f4b0:	3301      	addcc	r3, #1
 800f4b2:	f884 3098 	strbcc.w	r3, [r4, #152]	; 0x98
 800f4b6:	f894 3098 	ldrb.w	r3, [r4, #152]	; 0x98
 800f4ba:	4293      	cmp	r3, r2
 800f4bc:	f080 808c 	bcs.w	800f5d8 <tcp_slowtmr+0x218>
 800f4c0:	f04f 0b00 	mov.w	fp, #0
 800f4c4:	e003      	b.n	800f4ce <tcp_slowtmr+0x10e>
 800f4c6:	2a0b      	cmp	r2, #11
 800f4c8:	d9cc      	bls.n	800f464 <tcp_slowtmr+0xa4>
 800f4ca:	f04f 0b01 	mov.w	fp, #1
 800f4ce:	7d23      	ldrb	r3, [r4, #20]
 800f4d0:	2b06      	cmp	r3, #6
 800f4d2:	d10b      	bne.n	800f4ec <tcp_slowtmr+0x12c>
 800f4d4:	8b62      	ldrh	r2, [r4, #26]
 800f4d6:	06d2      	lsls	r2, r2, #27
 800f4d8:	d508      	bpl.n	800f4ec <tcp_slowtmr+0x12c>
 800f4da:	6832      	ldr	r2, [r6, #0]
 800f4dc:	6a21      	ldr	r1, [r4, #32]
 800f4de:	1a52      	subs	r2, r2, r1
 800f4e0:	2a28      	cmp	r2, #40	; 0x28
 800f4e2:	bf84      	itt	hi
 800f4e4:	f10b 0b01 	addhi.w	fp, fp, #1
 800f4e8:	fa5f fb8b 	uxtbhi.w	fp, fp
 800f4ec:	7a65      	ldrb	r5, [r4, #9]
 800f4ee:	f015 0508 	ands.w	r5, r5, #8
 800f4f2:	d019      	beq.n	800f528 <tcp_slowtmr+0x168>
 800f4f4:	2b04      	cmp	r3, #4
 800f4f6:	d002      	beq.n	800f4fe <tcp_slowtmr+0x13e>
 800f4f8:	2b07      	cmp	r3, #7
 800f4fa:	f040 810f 	bne.w	800f71c <tcp_slowtmr+0x35c>
 800f4fe:	f8d4 5094 	ldr.w	r5, [r4, #148]	; 0x94
 800f502:	f44f 70fa 	mov.w	r0, #500	; 0x1f4
 800f506:	6831      	ldr	r1, [r6, #0]
 800f508:	f505 2224 	add.w	r2, r5, #671744	; 0xa4000
 800f50c:	6a23      	ldr	r3, [r4, #32]
 800f50e:	f602 42b8 	addw	r2, r2, #3256	; 0xcb8
 800f512:	1ac9      	subs	r1, r1, r3
 800f514:	fbb2 f2f0 	udiv	r2, r2, r0
 800f518:	4291      	cmp	r1, r2
 800f51a:	f240 80ed 	bls.w	800f6f8 <tcp_slowtmr+0x338>
 800f51e:	f10b 0b01 	add.w	fp, fp, #1
 800f522:	2501      	movs	r5, #1
 800f524:	fa5f fb8b 	uxtb.w	fp, fp
 800f528:	6f63      	ldr	r3, [r4, #116]	; 0x74
 800f52a:	b163      	cbz	r3, 800f546 <tcp_slowtmr+0x186>
 800f52c:	6833      	ldr	r3, [r6, #0]
 800f52e:	6a22      	ldr	r2, [r4, #32]
 800f530:	1a9a      	subs	r2, r3, r2
 800f532:	f9b4 3040 	ldrsh.w	r3, [r4, #64]	; 0x40
 800f536:	eb03 0343 	add.w	r3, r3, r3, lsl #1
 800f53a:	ebb2 0f43 	cmp.w	r2, r3, lsl #1
 800f53e:	d302      	bcc.n	800f546 <tcp_slowtmr+0x186>
 800f540:	4620      	mov	r0, r4
 800f542:	f7ff fb89 	bl	800ec58 <tcp_free_ooseq>
 800f546:	7d23      	ldrb	r3, [r4, #20]
 800f548:	2b03      	cmp	r3, #3
 800f54a:	f040 80e9 	bne.w	800f720 <tcp_slowtmr+0x360>
 800f54e:	6833      	ldr	r3, [r6, #0]
 800f550:	6a22      	ldr	r2, [r4, #32]
 800f552:	1a9b      	subs	r3, r3, r2
 800f554:	2b28      	cmp	r3, #40	; 0x28
 800f556:	d803      	bhi.n	800f560 <tcp_slowtmr+0x1a0>
 800f558:	f1bb 0f00 	cmp.w	fp, #0
 800f55c:	f000 80f5 	beq.w	800f74a <tcp_slowtmr+0x38a>
 800f560:	4620      	mov	r0, r4
 800f562:	f8d4 b090 	ldr.w	fp, [r4, #144]	; 0x90
 800f566:	f7ff fb81 	bl	800ec6c <tcp_pcb_purge>
 800f56a:	f8d8 3000 	ldr.w	r3, [r8]
 800f56e:	f1b9 0f00 	cmp.w	r9, #0
 800f572:	f000 80dd 	beq.w	800f730 <tcp_slowtmr+0x370>
 800f576:	42a3      	cmp	r3, r4
 800f578:	d106      	bne.n	800f588 <tcp_slowtmr+0x1c8>
 800f57a:	463b      	mov	r3, r7
 800f57c:	f240 526d 	movw	r2, #1389	; 0x56d
 800f580:	4932      	ldr	r1, [pc, #200]	; (800f64c <tcp_slowtmr+0x28c>)
 800f582:	482c      	ldr	r0, [pc, #176]	; (800f634 <tcp_slowtmr+0x274>)
 800f584:	f004 fab0 	bl	8013ae8 <iprintf>
 800f588:	68e3      	ldr	r3, [r4, #12]
 800f58a:	f8c9 300c 	str.w	r3, [r9, #12]
 800f58e:	b15d      	cbz	r5, 800f5a8 <tcp_slowtmr+0x1e8>
 800f590:	8b23      	ldrh	r3, [r4, #24]
 800f592:	4620      	mov	r0, r4
 800f594:	9302      	str	r3, [sp, #8]
 800f596:	8ae3      	ldrh	r3, [r4, #22]
 800f598:	9301      	str	r3, [sp, #4]
 800f59a:	1d23      	adds	r3, r4, #4
 800f59c:	9300      	str	r3, [sp, #0]
 800f59e:	4623      	mov	r3, r4
 800f5a0:	6a62      	ldr	r2, [r4, #36]	; 0x24
 800f5a2:	6d21      	ldr	r1, [r4, #80]	; 0x50
 800f5a4:	f002 fa82 	bl	8011aac <tcp_rst>
 800f5a8:	6923      	ldr	r3, [r4, #16]
 800f5aa:	4620      	mov	r0, r4
 800f5ac:	68e5      	ldr	r5, [r4, #12]
 800f5ae:	9305      	str	r3, [sp, #20]
 800f5b0:	f7ff f910 	bl	800e7d4 <tcp_free>
 800f5b4:	2200      	movs	r2, #0
 800f5b6:	f88a 2000 	strb.w	r2, [sl]
 800f5ba:	f1bb 0f00 	cmp.w	fp, #0
 800f5be:	d004      	beq.n	800f5ca <tcp_slowtmr+0x20a>
 800f5c0:	9b05      	ldr	r3, [sp, #20]
 800f5c2:	f06f 010c 	mvn.w	r1, #12
 800f5c6:	4618      	mov	r0, r3
 800f5c8:	47d8      	blx	fp
 800f5ca:	f89a 3000 	ldrb.w	r3, [sl]
 800f5ce:	2b00      	cmp	r3, #0
 800f5d0:	f47f af04 	bne.w	800f3dc <tcp_slowtmr+0x1c>
 800f5d4:	464c      	mov	r4, r9
 800f5d6:	e739      	b.n	800f44c <tcp_slowtmr+0x8c>
 800f5d8:	f8b4 1060 	ldrh.w	r1, [r4, #96]	; 0x60
 800f5dc:	4620      	mov	r0, r4
 800f5de:	b989      	cbnz	r1, 800f604 <tcp_slowtmr+0x244>
 800f5e0:	f002 fce2 	bl	8011fa8 <tcp_zero_window_probe>
 800f5e4:	2800      	cmp	r0, #0
 800f5e6:	f47f af6b 	bne.w	800f4c0 <tcp_slowtmr+0x100>
 800f5ea:	f894 3099 	ldrb.w	r3, [r4, #153]	; 0x99
 800f5ee:	f04f 0b00 	mov.w	fp, #0
 800f5f2:	2b06      	cmp	r3, #6
 800f5f4:	f884 b098 	strb.w	fp, [r4, #152]	; 0x98
 800f5f8:	f63f af62 	bhi.w	800f4c0 <tcp_slowtmr+0x100>
 800f5fc:	3301      	adds	r3, #1
 800f5fe:	f884 3099 	strb.w	r3, [r4, #153]	; 0x99
 800f602:	e764      	b.n	800f4ce <tcp_slowtmr+0x10e>
 800f604:	f002 f80a 	bl	801161c <tcp_split_unsent_seg>
 800f608:	2800      	cmp	r0, #0
 800f60a:	d1ee      	bne.n	800f5ea <tcp_slowtmr+0x22a>
 800f60c:	4620      	mov	r0, r4
 800f60e:	f002 fac3 	bl	8011b98 <tcp_output>
 800f612:	2800      	cmp	r0, #0
 800f614:	f43f af54 	beq.w	800f4c0 <tcp_slowtmr+0x100>
 800f618:	e7e7      	b.n	800f5ea <tcp_slowtmr+0x22a>
 800f61a:	bf00      	nop
 800f61c:	2000b338 	.word	0x2000b338
 800f620:	20004512 	.word	0x20004512
 800f624:	2000b334 	.word	0x2000b334
 800f628:	0802607e 	.word	0x0802607e
 800f62c:	2000b344 	.word	0x2000b344
 800f630:	080263b6 	.word	0x080263b6
 800f634:	08014a3b 	.word	0x08014a3b
 800f638:	080263e0 	.word	0x080263e0
 800f63c:	0802640a 	.word	0x0802640a
 800f640:	08026437 	.word	0x08026437
 800f644:	08026469 	.word	0x08026469
 800f648:	0802627b 	.word	0x0802627b
 800f64c:	0802649e 	.word	0x0802649e
 800f650:	2000b330 	.word	0x2000b330
 800f654:	080264f3 	.word	0x080264f3
 800f658:	f9b4 3030 	ldrsh.w	r3, [r4, #48]	; 0x30
 800f65c:	2b00      	cmp	r3, #0
 800f65e:	db05      	blt.n	800f66c <tcp_slowtmr+0x2ac>
 800f660:	f647 72ff 	movw	r2, #32767	; 0x7fff
 800f664:	4293      	cmp	r3, r2
 800f666:	bf1c      	itt	ne
 800f668:	3301      	addne	r3, #1
 800f66a:	8623      	strhne	r3, [r4, #48]	; 0x30
 800f66c:	f9b4 2030 	ldrsh.w	r2, [r4, #48]	; 0x30
 800f670:	f9b4 3040 	ldrsh.w	r3, [r4, #64]	; 0x40
 800f674:	429a      	cmp	r2, r3
 800f676:	f6ff af23 	blt.w	800f4c0 <tcp_slowtmr+0x100>
 800f67a:	4620      	mov	r0, r4
 800f67c:	f002 f95a 	bl	8011934 <tcp_rexmit_rto_prepare>
 800f680:	b138      	cbz	r0, 800f692 <tcp_slowtmr+0x2d2>
 800f682:	6f23      	ldr	r3, [r4, #112]	; 0x70
 800f684:	2b00      	cmp	r3, #0
 800f686:	f47f af1b 	bne.w	800f4c0 <tcp_slowtmr+0x100>
 800f68a:	6ee3      	ldr	r3, [r4, #108]	; 0x6c
 800f68c:	2b00      	cmp	r3, #0
 800f68e:	f43f af17 	beq.w	800f4c0 <tcp_slowtmr+0x100>
 800f692:	7d23      	ldrb	r3, [r4, #20]
 800f694:	2b02      	cmp	r3, #2
 800f696:	d014      	beq.n	800f6c2 <tcp_slowtmr+0x302>
 800f698:	f9b4 203c 	ldrsh.w	r2, [r4, #60]	; 0x3c
 800f69c:	f9b4 303e 	ldrsh.w	r3, [r4, #62]	; 0x3e
 800f6a0:	4957      	ldr	r1, [pc, #348]	; (800f800 <tcp_slowtmr+0x440>)
 800f6a2:	eb03 03e2 	add.w	r3, r3, r2, asr #3
 800f6a6:	f894 2042 	ldrb.w	r2, [r4, #66]	; 0x42
 800f6aa:	2a0c      	cmp	r2, #12
 800f6ac:	bf28      	it	cs
 800f6ae:	220c      	movcs	r2, #12
 800f6b0:	5c8a      	ldrb	r2, [r1, r2]
 800f6b2:	4093      	lsls	r3, r2
 800f6b4:	f647 72ff 	movw	r2, #32767	; 0x7fff
 800f6b8:	4293      	cmp	r3, r2
 800f6ba:	bfa8      	it	ge
 800f6bc:	4613      	movge	r3, r2
 800f6be:	f8a4 3040 	strh.w	r3, [r4, #64]	; 0x40
 800f6c2:	f8b4 2048 	ldrh.w	r2, [r4, #72]	; 0x48
 800f6c6:	2100      	movs	r1, #0
 800f6c8:	f8b4 3060 	ldrh.w	r3, [r4, #96]	; 0x60
 800f6cc:	8e60      	ldrh	r0, [r4, #50]	; 0x32
 800f6ce:	4293      	cmp	r3, r2
 800f6d0:	8621      	strh	r1, [r4, #48]	; 0x30
 800f6d2:	f8a4 0048 	strh.w	r0, [r4, #72]	; 0x48
 800f6d6:	bf28      	it	cs
 800f6d8:	4613      	movcs	r3, r2
 800f6da:	0042      	lsls	r2, r0, #1
 800f6dc:	f8a4 106a 	strh.w	r1, [r4, #106]	; 0x6a
 800f6e0:	4620      	mov	r0, r4
 800f6e2:	085b      	lsrs	r3, r3, #1
 800f6e4:	b292      	uxth	r2, r2
 800f6e6:	f8a4 304a 	strh.w	r3, [r4, #74]	; 0x4a
 800f6ea:	4293      	cmp	r3, r2
 800f6ec:	bf38      	it	cc
 800f6ee:	f8a4 204a 	strhcc.w	r2, [r4, #74]	; 0x4a
 800f6f2:	f002 fbfb 	bl	8011eec <tcp_rexmit_rto_commit>
 800f6f6:	e6ea      	b.n	800f4ce <tcp_slowtmr+0x10e>
 800f6f8:	f894 309b 	ldrb.w	r3, [r4, #155]	; 0x9b
 800f6fc:	4a41      	ldr	r2, [pc, #260]	; (800f804 <tcp_slowtmr+0x444>)
 800f6fe:	fb02 5303 	mla	r3, r2, r3, r5
 800f702:	fbb3 f3f0 	udiv	r3, r3, r0
 800f706:	4299      	cmp	r1, r3
 800f708:	d908      	bls.n	800f71c <tcp_slowtmr+0x35c>
 800f70a:	4620      	mov	r0, r4
 800f70c:	f002 fc24 	bl	8011f58 <tcp_keepalive>
 800f710:	b920      	cbnz	r0, 800f71c <tcp_slowtmr+0x35c>
 800f712:	f894 309b 	ldrb.w	r3, [r4, #155]	; 0x9b
 800f716:	3301      	adds	r3, #1
 800f718:	f884 309b 	strb.w	r3, [r4, #155]	; 0x9b
 800f71c:	2500      	movs	r5, #0
 800f71e:	e703      	b.n	800f528 <tcp_slowtmr+0x168>
 800f720:	2b09      	cmp	r3, #9
 800f722:	f47f af19 	bne.w	800f558 <tcp_slowtmr+0x198>
 800f726:	6833      	ldr	r3, [r6, #0]
 800f728:	6a22      	ldr	r2, [r4, #32]
 800f72a:	1a9b      	subs	r3, r3, r2
 800f72c:	2bf0      	cmp	r3, #240	; 0xf0
 800f72e:	e712      	b.n	800f556 <tcp_slowtmr+0x196>
 800f730:	42a3      	cmp	r3, r4
 800f732:	d006      	beq.n	800f742 <tcp_slowtmr+0x382>
 800f734:	463b      	mov	r3, r7
 800f736:	f240 5271 	movw	r2, #1393	; 0x571
 800f73a:	4933      	ldr	r1, [pc, #204]	; (800f808 <tcp_slowtmr+0x448>)
 800f73c:	4833      	ldr	r0, [pc, #204]	; (800f80c <tcp_slowtmr+0x44c>)
 800f73e:	f004 f9d3 	bl	8013ae8 <iprintf>
 800f742:	68e3      	ldr	r3, [r4, #12]
 800f744:	f8c8 3000 	str.w	r3, [r8]
 800f748:	e721      	b.n	800f58e <tcp_slowtmr+0x1ce>
 800f74a:	7f23      	ldrb	r3, [r4, #28]
 800f74c:	7f62      	ldrb	r2, [r4, #29]
 800f74e:	3301      	adds	r3, #1
 800f750:	68e5      	ldr	r5, [r4, #12]
 800f752:	b2db      	uxtb	r3, r3
 800f754:	429a      	cmp	r2, r3
 800f756:	7723      	strb	r3, [r4, #28]
 800f758:	f63f ae78 	bhi.w	800f44c <tcp_slowtmr+0x8c>
 800f75c:	f8d4 308c 	ldr.w	r3, [r4, #140]	; 0x8c
 800f760:	f884 b01c 	strb.w	fp, [r4, #28]
 800f764:	f88a b000 	strb.w	fp, [sl]
 800f768:	b173      	cbz	r3, 800f788 <tcp_slowtmr+0x3c8>
 800f76a:	4621      	mov	r1, r4
 800f76c:	6920      	ldr	r0, [r4, #16]
 800f76e:	4798      	blx	r3
 800f770:	f89a 3000 	ldrb.w	r3, [sl]
 800f774:	2b00      	cmp	r3, #0
 800f776:	f47f ae31 	bne.w	800f3dc <tcp_slowtmr+0x1c>
 800f77a:	2800      	cmp	r0, #0
 800f77c:	f47f ae66 	bne.w	800f44c <tcp_slowtmr+0x8c>
 800f780:	4620      	mov	r0, r4
 800f782:	f002 fa09 	bl	8011b98 <tcp_output>
 800f786:	e661      	b.n	800f44c <tcp_slowtmr+0x8c>
 800f788:	4658      	mov	r0, fp
 800f78a:	e7f1      	b.n	800f770 <tcp_slowtmr+0x3b0>
 800f78c:	7d2b      	ldrb	r3, [r5, #20]
 800f78e:	2b0a      	cmp	r3, #10
 800f790:	d006      	beq.n	800f7a0 <tcp_slowtmr+0x3e0>
 800f792:	4643      	mov	r3, r8
 800f794:	f240 52a1 	movw	r2, #1441	; 0x5a1
 800f798:	4651      	mov	r1, sl
 800f79a:	4648      	mov	r0, r9
 800f79c:	f004 f9a4 	bl	8013ae8 <iprintf>
 800f7a0:	6833      	ldr	r3, [r6, #0]
 800f7a2:	6a2a      	ldr	r2, [r5, #32]
 800f7a4:	1a9b      	subs	r3, r3, r2
 800f7a6:	2bf0      	cmp	r3, #240	; 0xf0
 800f7a8:	d910      	bls.n	800f7cc <tcp_slowtmr+0x40c>
 800f7aa:	4628      	mov	r0, r5
 800f7ac:	f7ff fa5e 	bl	800ec6c <tcp_pcb_purge>
 800f7b0:	b97c      	cbnz	r4, 800f7d2 <tcp_slowtmr+0x412>
 800f7b2:	683b      	ldr	r3, [r7, #0]
 800f7b4:	42ab      	cmp	r3, r5
 800f7b6:	d006      	beq.n	800f7c6 <tcp_slowtmr+0x406>
 800f7b8:	4643      	mov	r3, r8
 800f7ba:	f240 52b3 	movw	r2, #1459	; 0x5b3
 800f7be:	4914      	ldr	r1, [pc, #80]	; (800f810 <tcp_slowtmr+0x450>)
 800f7c0:	4648      	mov	r0, r9
 800f7c2:	f004 f991 	bl	8013ae8 <iprintf>
 800f7c6:	68eb      	ldr	r3, [r5, #12]
 800f7c8:	603b      	str	r3, [r7, #0]
 800f7ca:	e00e      	b.n	800f7ea <tcp_slowtmr+0x42a>
 800f7cc:	462c      	mov	r4, r5
 800f7ce:	68ed      	ldr	r5, [r5, #12]
 800f7d0:	e613      	b.n	800f3fa <tcp_slowtmr+0x3a>
 800f7d2:	683b      	ldr	r3, [r7, #0]
 800f7d4:	42ab      	cmp	r3, r5
 800f7d6:	d106      	bne.n	800f7e6 <tcp_slowtmr+0x426>
 800f7d8:	4643      	mov	r3, r8
 800f7da:	f240 52af 	movw	r2, #1455	; 0x5af
 800f7de:	490d      	ldr	r1, [pc, #52]	; (800f814 <tcp_slowtmr+0x454>)
 800f7e0:	4648      	mov	r0, r9
 800f7e2:	f004 f981 	bl	8013ae8 <iprintf>
 800f7e6:	68eb      	ldr	r3, [r5, #12]
 800f7e8:	60e3      	str	r3, [r4, #12]
 800f7ea:	f8d5 b00c 	ldr.w	fp, [r5, #12]
 800f7ee:	4628      	mov	r0, r5
 800f7f0:	f7fe fff0 	bl	800e7d4 <tcp_free>
 800f7f4:	465d      	mov	r5, fp
 800f7f6:	e600      	b.n	800f3fa <tcp_slowtmr+0x3a>
 800f7f8:	f04f 0b01 	mov.w	fp, #1
 800f7fc:	e676      	b.n	800f4ec <tcp_slowtmr+0x12c>
 800f7fe:	bf00      	nop
 800f800:	08025fca 	.word	0x08025fca
 800f804:	000124f8 	.word	0x000124f8
 800f808:	080264c9 	.word	0x080264c9
 800f80c:	08014a3b 	.word	0x08014a3b
 800f810:	08026549 	.word	0x08026549
 800f814:	08026522 	.word	0x08026522

0800f818 <tcp_tmr>:
 800f818:	b508      	push	{r3, lr}
 800f81a:	f7ff fd91 	bl	800f340 <tcp_fasttmr>
 800f81e:	4a06      	ldr	r2, [pc, #24]	; (800f838 <tcp_tmr+0x20>)
 800f820:	7813      	ldrb	r3, [r2, #0]
 800f822:	3301      	adds	r3, #1
 800f824:	b2db      	uxtb	r3, r3
 800f826:	7013      	strb	r3, [r2, #0]
 800f828:	07db      	lsls	r3, r3, #31
 800f82a:	d503      	bpl.n	800f834 <tcp_tmr+0x1c>
 800f82c:	e8bd 4008 	ldmia.w	sp!, {r3, lr}
 800f830:	f7ff bdc6 	b.w	800f3c0 <tcp_slowtmr>
 800f834:	bd08      	pop	{r3, pc}
 800f836:	bf00      	nop
 800f838:	20004511 	.word	0x20004511

0800f83c <tcp_get_next_optbyte>:
 800f83c:	4a09      	ldr	r2, [pc, #36]	; (800f864 <tcp_get_next_optbyte+0x28>)
 800f83e:	8813      	ldrh	r3, [r2, #0]
 800f840:	1c59      	adds	r1, r3, #1
 800f842:	8011      	strh	r1, [r2, #0]
 800f844:	4a08      	ldr	r2, [pc, #32]	; (800f868 <tcp_get_next_optbyte+0x2c>)
 800f846:	6812      	ldr	r2, [r2, #0]
 800f848:	b11a      	cbz	r2, 800f852 <tcp_get_next_optbyte+0x16>
 800f84a:	4908      	ldr	r1, [pc, #32]	; (800f86c <tcp_get_next_optbyte+0x30>)
 800f84c:	8809      	ldrh	r1, [r1, #0]
 800f84e:	428b      	cmp	r3, r1
 800f850:	d204      	bcs.n	800f85c <tcp_get_next_optbyte+0x20>
 800f852:	4a07      	ldr	r2, [pc, #28]	; (800f870 <tcp_get_next_optbyte+0x34>)
 800f854:	6812      	ldr	r2, [r2, #0]
 800f856:	4413      	add	r3, r2
 800f858:	7d18      	ldrb	r0, [r3, #20]
 800f85a:	4770      	bx	lr
 800f85c:	1a5b      	subs	r3, r3, r1
 800f85e:	b2db      	uxtb	r3, r3
 800f860:	5cd0      	ldrb	r0, [r2, r3]
 800f862:	4770      	bx	lr
 800f864:	2000453c 	.word	0x2000453c
 800f868:	20004548 	.word	0x20004548
 800f86c:	20004544 	.word	0x20004544
 800f870:	20004540 	.word	0x20004540

0800f874 <tcp_oos_insert_segment>:
 800f874:	b5f8      	push	{r3, r4, r5, r6, r7, lr}
 800f876:	460c      	mov	r4, r1
 800f878:	4605      	mov	r5, r0
 800f87a:	b930      	cbnz	r0, 800f88a <tcp_oos_insert_segment+0x16>
 800f87c:	4b1e      	ldr	r3, [pc, #120]	; (800f8f8 <tcp_oos_insert_segment+0x84>)
 800f87e:	f240 421f 	movw	r2, #1055	; 0x41f
 800f882:	491e      	ldr	r1, [pc, #120]	; (800f8fc <tcp_oos_insert_segment+0x88>)
 800f884:	481e      	ldr	r0, [pc, #120]	; (800f900 <tcp_oos_insert_segment+0x8c>)
 800f886:	f004 f92f 	bl	8013ae8 <iprintf>
 800f88a:	68eb      	ldr	r3, [r5, #12]
 800f88c:	8998      	ldrh	r0, [r3, #12]
 800f88e:	f7fd ff07 	bl	800d6a0 <lwip_htons>
 800f892:	07c2      	lsls	r2, r0, #31
 800f894:	d414      	bmi.n	800f8c0 <tcp_oos_insert_segment+0x4c>
 800f896:	4e1b      	ldr	r6, [pc, #108]	; (800f904 <tcp_oos_insert_segment+0x90>)
 800f898:	68e7      	ldr	r7, [r4, #12]
 800f89a:	6830      	ldr	r0, [r6, #0]
 800f89c:	892b      	ldrh	r3, [r5, #8]
 800f89e:	6879      	ldr	r1, [r7, #4]
 800f8a0:	8922      	ldrh	r2, [r4, #8]
 800f8a2:	4403      	add	r3, r0
 800f8a4:	440a      	add	r2, r1
 800f8a6:	1a9a      	subs	r2, r3, r2
 800f8a8:	2a00      	cmp	r2, #0
 800f8aa:	da0f      	bge.n	800f8cc <tcp_oos_insert_segment+0x58>
 800f8ac:	1a5b      	subs	r3, r3, r1
 800f8ae:	2b00      	cmp	r3, #0
 800f8b0:	dd0a      	ble.n	800f8c8 <tcp_oos_insert_segment+0x54>
 800f8b2:	1a09      	subs	r1, r1, r0
 800f8b4:	6868      	ldr	r0, [r5, #4]
 800f8b6:	b289      	uxth	r1, r1
 800f8b8:	8129      	strh	r1, [r5, #8]
 800f8ba:	f7fe fd8d 	bl	800e3d8 <pbuf_realloc>
 800f8be:	e003      	b.n	800f8c8 <tcp_oos_insert_segment+0x54>
 800f8c0:	4620      	mov	r0, r4
 800f8c2:	2400      	movs	r4, #0
 800f8c4:	f7ff f8de 	bl	800ea84 <tcp_segs_free>
 800f8c8:	602c      	str	r4, [r5, #0]
 800f8ca:	bdf8      	pop	{r3, r4, r5, r6, r7, pc}
 800f8cc:	89b8      	ldrh	r0, [r7, #12]
 800f8ce:	f7fd fee7 	bl	800d6a0 <lwip_htons>
 800f8d2:	07c3      	lsls	r3, r0, #31
 800f8d4:	d507      	bpl.n	800f8e6 <tcp_oos_insert_segment+0x72>
 800f8d6:	68eb      	ldr	r3, [r5, #12]
 800f8d8:	2001      	movs	r0, #1
 800f8da:	899f      	ldrh	r7, [r3, #12]
 800f8dc:	f7fd fee0 	bl	800d6a0 <lwip_htons>
 800f8e0:	68eb      	ldr	r3, [r5, #12]
 800f8e2:	4338      	orrs	r0, r7
 800f8e4:	8198      	strh	r0, [r3, #12]
 800f8e6:	6827      	ldr	r7, [r4, #0]
 800f8e8:	4620      	mov	r0, r4
 800f8ea:	f7ff f8bd 	bl	800ea68 <tcp_seg_free>
 800f8ee:	463c      	mov	r4, r7
 800f8f0:	2f00      	cmp	r7, #0
 800f8f2:	d1d1      	bne.n	800f898 <tcp_oos_insert_segment+0x24>
 800f8f4:	e7e8      	b.n	800f8c8 <tcp_oos_insert_segment+0x54>
 800f8f6:	bf00      	nop
 800f8f8:	080267e8 	.word	0x080267e8
 800f8fc:	0802681a 	.word	0x0802681a
 800f900:	08014a3b 	.word	0x08014a3b
 800f904:	20004538 	.word	0x20004538

0800f908 <tcp_parseopt>:
 800f908:	b5f8      	push	{r3, r4, r5, r6, r7, lr}
 800f90a:	4607      	mov	r7, r0
 800f90c:	b930      	cbnz	r0, 800f91c <tcp_parseopt+0x14>
 800f90e:	4b1d      	ldr	r3, [pc, #116]	; (800f984 <tcp_parseopt+0x7c>)
 800f910:	f240 727d 	movw	r2, #1917	; 0x77d
 800f914:	491c      	ldr	r1, [pc, #112]	; (800f988 <tcp_parseopt+0x80>)
 800f916:	481d      	ldr	r0, [pc, #116]	; (800f98c <tcp_parseopt+0x84>)
 800f918:	f004 f8e6 	bl	8013ae8 <iprintf>
 800f91c:	4e1c      	ldr	r6, [pc, #112]	; (800f990 <tcp_parseopt+0x88>)
 800f91e:	8833      	ldrh	r3, [r6, #0]
 800f920:	b133      	cbz	r3, 800f930 <tcp_parseopt+0x28>
 800f922:	4d1c      	ldr	r5, [pc, #112]	; (800f994 <tcp_parseopt+0x8c>)
 800f924:	2300      	movs	r3, #0
 800f926:	802b      	strh	r3, [r5, #0]
 800f928:	8834      	ldrh	r4, [r6, #0]
 800f92a:	882b      	ldrh	r3, [r5, #0]
 800f92c:	42a3      	cmp	r3, r4
 800f92e:	d300      	bcc.n	800f932 <tcp_parseopt+0x2a>
 800f930:	bdf8      	pop	{r3, r4, r5, r6, r7, pc}
 800f932:	f7ff ff83 	bl	800f83c <tcp_get_next_optbyte>
 800f936:	2801      	cmp	r0, #1
 800f938:	d0f6      	beq.n	800f928 <tcp_parseopt+0x20>
 800f93a:	d3f9      	bcc.n	800f930 <tcp_parseopt+0x28>
 800f93c:	2802      	cmp	r0, #2
 800f93e:	d117      	bne.n	800f970 <tcp_parseopt+0x68>
 800f940:	f7ff ff7c 	bl	800f83c <tcp_get_next_optbyte>
 800f944:	2804      	cmp	r0, #4
 800f946:	d1f3      	bne.n	800f930 <tcp_parseopt+0x28>
 800f948:	882b      	ldrh	r3, [r5, #0]
 800f94a:	3301      	adds	r3, #1
 800f94c:	42a3      	cmp	r3, r4
 800f94e:	daef      	bge.n	800f930 <tcp_parseopt+0x28>
 800f950:	f7ff ff74 	bl	800f83c <tcp_get_next_optbyte>
 800f954:	0200      	lsls	r0, r0, #8
 800f956:	b284      	uxth	r4, r0
 800f958:	f7ff ff70 	bl	800f83c <tcp_get_next_optbyte>
 800f95c:	4320      	orrs	r0, r4
 800f95e:	b280      	uxth	r0, r0
 800f960:	1e43      	subs	r3, r0, #1
 800f962:	f5b3 7f06 	cmp.w	r3, #536	; 0x218
 800f966:	bf28      	it	cs
 800f968:	f44f 7006 	movcs.w	r0, #536	; 0x218
 800f96c:	8678      	strh	r0, [r7, #50]	; 0x32
 800f96e:	e7db      	b.n	800f928 <tcp_parseopt+0x20>
 800f970:	f7ff ff64 	bl	800f83c <tcp_get_next_optbyte>
 800f974:	2801      	cmp	r0, #1
 800f976:	d9db      	bls.n	800f930 <tcp_parseopt+0x28>
 800f978:	882b      	ldrh	r3, [r5, #0]
 800f97a:	3b02      	subs	r3, #2
 800f97c:	4418      	add	r0, r3
 800f97e:	8028      	strh	r0, [r5, #0]
 800f980:	e7d2      	b.n	800f928 <tcp_parseopt+0x20>
 800f982:	bf00      	nop
 800f984:	080267e8 	.word	0x080267e8
 800f988:	0802683f 	.word	0x0802683f
 800f98c:	08014a3b 	.word	0x08014a3b
 800f990:	2000454c 	.word	0x2000454c
 800f994:	2000453c 	.word	0x2000453c

0800f998 <tcp_input_delayed_close>:
 800f998:	b510      	push	{r4, lr}
 800f99a:	4604      	mov	r4, r0
 800f99c:	b930      	cbnz	r0, 800f9ac <tcp_input_delayed_close+0x14>
 800f99e:	4b0f      	ldr	r3, [pc, #60]	; (800f9dc <tcp_input_delayed_close+0x44>)
 800f9a0:	f240 225a 	movw	r2, #602	; 0x25a
 800f9a4:	490e      	ldr	r1, [pc, #56]	; (800f9e0 <tcp_input_delayed_close+0x48>)
 800f9a6:	480f      	ldr	r0, [pc, #60]	; (800f9e4 <tcp_input_delayed_close+0x4c>)
 800f9a8:	f004 f89e 	bl	8013ae8 <iprintf>
 800f9ac:	4b0e      	ldr	r3, [pc, #56]	; (800f9e8 <tcp_input_delayed_close+0x50>)
 800f9ae:	7818      	ldrb	r0, [r3, #0]
 800f9b0:	f010 0010 	ands.w	r0, r0, #16
 800f9b4:	d011      	beq.n	800f9da <tcp_input_delayed_close+0x42>
 800f9b6:	8b63      	ldrh	r3, [r4, #26]
 800f9b8:	06db      	lsls	r3, r3, #27
 800f9ba:	d406      	bmi.n	800f9ca <tcp_input_delayed_close+0x32>
 800f9bc:	f8d4 3090 	ldr.w	r3, [r4, #144]	; 0x90
 800f9c0:	b11b      	cbz	r3, 800f9ca <tcp_input_delayed_close+0x32>
 800f9c2:	f06f 010e 	mvn.w	r1, #14
 800f9c6:	6920      	ldr	r0, [r4, #16]
 800f9c8:	4798      	blx	r3
 800f9ca:	4621      	mov	r1, r4
 800f9cc:	4807      	ldr	r0, [pc, #28]	; (800f9ec <tcp_input_delayed_close+0x54>)
 800f9ce:	f7ff f97f 	bl	800ecd0 <tcp_pcb_remove>
 800f9d2:	4620      	mov	r0, r4
 800f9d4:	f7fe fefe 	bl	800e7d4 <tcp_free>
 800f9d8:	2001      	movs	r0, #1
 800f9da:	bd10      	pop	{r4, pc}
 800f9dc:	080267e8 	.word	0x080267e8
 800f9e0:	080267c3 	.word	0x080267c3
 800f9e4:	08014a3b 	.word	0x08014a3b
 800f9e8:	20004534 	.word	0x20004534
 800f9ec:	2000b334 	.word	0x2000b334

0800f9f0 <tcp_free_acked_segments.isra.2>:
 800f9f0:	e92d 4ff8 	stmdb	sp!, {r3, r4, r5, r6, r7, r8, r9, sl, fp, lr}
 800f9f4:	4606      	mov	r6, r0
 800f9f6:	4617      	mov	r7, r2
 800f9f8:	460c      	mov	r4, r1
 800f9fa:	f8df 80a4 	ldr.w	r8, [pc, #164]	; 800faa0 <tcp_free_acked_segments.isra.2+0xb0>
 800f9fe:	f8df 9098 	ldr.w	r9, [pc, #152]	; 800fa98 <tcp_free_acked_segments.isra.2+0xa8>
 800fa02:	f8df a0a0 	ldr.w	sl, [pc, #160]	; 800faa4 <tcp_free_acked_segments.isra.2+0xb4>
 800fa06:	2c00      	cmp	r4, #0
 800fa08:	d034      	beq.n	800fa74 <tcp_free_acked_segments.isra.2+0x84>
 800fa0a:	68e3      	ldr	r3, [r4, #12]
 800fa0c:	6858      	ldr	r0, [r3, #4]
 800fa0e:	f7fd fe4a 	bl	800d6a6 <lwip_htonl>
 800fa12:	68e3      	ldr	r3, [r4, #12]
 800fa14:	4683      	mov	fp, r0
 800fa16:	8925      	ldrh	r5, [r4, #8]
 800fa18:	8998      	ldrh	r0, [r3, #12]
 800fa1a:	f7fd fe41 	bl	800d6a0 <lwip_htons>
 800fa1e:	f8d8 3000 	ldr.w	r3, [r8]
 800fa22:	f010 0003 	ands.w	r0, r0, #3
 800fa26:	eba5 0503 	sub.w	r5, r5, r3
 800fa2a:	bf18      	it	ne
 800fa2c:	2001      	movne	r0, #1
 800fa2e:	445d      	add	r5, fp
 800fa30:	4405      	add	r5, r0
 800fa32:	2d00      	cmp	r5, #0
 800fa34:	dc1f      	bgt.n	800fa76 <tcp_free_acked_segments.isra.2+0x86>
 800fa36:	e9d4 5000 	ldrd	r5, r0, [r4]
 800fa3a:	f7fe fd25 	bl	800e488 <pbuf_clen>
 800fa3e:	8833      	ldrh	r3, [r6, #0]
 800fa40:	4683      	mov	fp, r0
 800fa42:	4283      	cmp	r3, r0
 800fa44:	d206      	bcs.n	800fa54 <tcp_free_acked_segments.isra.2+0x64>
 800fa46:	464b      	mov	r3, r9
 800fa48:	f240 4257 	movw	r2, #1111	; 0x457
 800fa4c:	4651      	mov	r1, sl
 800fa4e:	4810      	ldr	r0, [pc, #64]	; (800fa90 <tcp_free_acked_segments.isra.2+0xa0>)
 800fa50:	f004 f84a 	bl	8013ae8 <iprintf>
 800fa54:	8830      	ldrh	r0, [r6, #0]
 800fa56:	4a0f      	ldr	r2, [pc, #60]	; (800fa94 <tcp_free_acked_segments.isra.2+0xa4>)
 800fa58:	eba0 000b 	sub.w	r0, r0, fp
 800fa5c:	8811      	ldrh	r1, [r2, #0]
 800fa5e:	8030      	strh	r0, [r6, #0]
 800fa60:	4620      	mov	r0, r4
 800fa62:	8923      	ldrh	r3, [r4, #8]
 800fa64:	440b      	add	r3, r1
 800fa66:	8013      	strh	r3, [r2, #0]
 800fa68:	f7fe fffe 	bl	800ea68 <tcp_seg_free>
 800fa6c:	8833      	ldrh	r3, [r6, #0]
 800fa6e:	b16b      	cbz	r3, 800fa8c <tcp_free_acked_segments.isra.2+0x9c>
 800fa70:	b965      	cbnz	r5, 800fa8c <tcp_free_acked_segments.isra.2+0x9c>
 800fa72:	b11f      	cbz	r7, 800fa7c <tcp_free_acked_segments.isra.2+0x8c>
 800fa74:	2400      	movs	r4, #0
 800fa76:	4620      	mov	r0, r4
 800fa78:	e8bd 8ff8 	ldmia.w	sp!, {r3, r4, r5, r6, r7, r8, r9, sl, fp, pc}
 800fa7c:	4b06      	ldr	r3, [pc, #24]	; (800fa98 <tcp_free_acked_segments.isra.2+0xa8>)
 800fa7e:	f240 4262 	movw	r2, #1122	; 0x462
 800fa82:	4906      	ldr	r1, [pc, #24]	; (800fa9c <tcp_free_acked_segments.isra.2+0xac>)
 800fa84:	4802      	ldr	r0, [pc, #8]	; (800fa90 <tcp_free_acked_segments.isra.2+0xa0>)
 800fa86:	f004 f82f 	bl	8013ae8 <iprintf>
 800fa8a:	e7f3      	b.n	800fa74 <tcp_free_acked_segments.isra.2+0x84>
 800fa8c:	462c      	mov	r4, r5
 800fa8e:	e7ba      	b.n	800fa06 <tcp_free_acked_segments.isra.2+0x16>
 800fa90:	08014a3b 	.word	0x08014a3b
 800fa94:	2000452c 	.word	0x2000452c
 800fa98:	080267e8 	.word	0x080267e8
 800fa9c:	080265d5 	.word	0x080265d5
 800faa0:	20004514 	.word	0x20004514
 800faa4:	080265ad 	.word	0x080265ad

0800faa8 <tcp_receive>:
 800faa8:	e92d 4ff8 	stmdb	sp!, {r3, r4, r5, r6, r7, r8, r9, sl, fp, lr}
 800faac:	4604      	mov	r4, r0
 800faae:	b930      	cbnz	r0, 800fabe <tcp_receive+0x16>
 800fab0:	4b39      	ldr	r3, [pc, #228]	; (800fb98 <tcp_receive+0xf0>)
 800fab2:	f240 427b 	movw	r2, #1147	; 0x47b
 800fab6:	4939      	ldr	r1, [pc, #228]	; (800fb9c <tcp_receive+0xf4>)
 800fab8:	4839      	ldr	r0, [pc, #228]	; (800fba0 <tcp_receive+0xf8>)
 800faba:	f004 f815 	bl	8013ae8 <iprintf>
 800fabe:	7d23      	ldrb	r3, [r4, #20]
 800fac0:	2b03      	cmp	r3, #3
 800fac2:	d806      	bhi.n	800fad2 <tcp_receive+0x2a>
 800fac4:	4b34      	ldr	r3, [pc, #208]	; (800fb98 <tcp_receive+0xf0>)
 800fac6:	f240 427c 	movw	r2, #1148	; 0x47c
 800faca:	4936      	ldr	r1, [pc, #216]	; (800fba4 <tcp_receive+0xfc>)
 800facc:	4834      	ldr	r0, [pc, #208]	; (800fba0 <tcp_receive+0xf8>)
 800face:	f004 f80b 	bl	8013ae8 <iprintf>
 800fad2:	4b35      	ldr	r3, [pc, #212]	; (800fba8 <tcp_receive+0x100>)
 800fad4:	4e35      	ldr	r6, [pc, #212]	; (800fbac <tcp_receive+0x104>)
 800fad6:	781b      	ldrb	r3, [r3, #0]
 800fad8:	4f35      	ldr	r7, [pc, #212]	; (800fbb0 <tcp_receive+0x108>)
 800fada:	f013 0f10 	tst.w	r3, #16
 800fade:	f000 8094 	beq.w	800fc0a <tcp_receive+0x162>
 800fae2:	6833      	ldr	r3, [r6, #0]
 800fae4:	4d33      	ldr	r5, [pc, #204]	; (800fbb4 <tcp_receive+0x10c>)
 800fae6:	f8b4 1060 	ldrh.w	r1, [r4, #96]	; 0x60
 800faea:	682a      	ldr	r2, [r5, #0]
 800faec:	46a9      	mov	r9, r5
 800faee:	e9d4 0c15 	ldrd	r0, ip, [r4, #84]	; 0x54
 800faf2:	eba0 0e03 	sub.w	lr, r0, r3
 800faf6:	f1be 0f00 	cmp.w	lr, #0
 800fafa:	db0c      	blt.n	800fb16 <tcp_receive+0x6e>
 800fafc:	4298      	cmp	r0, r3
 800fafe:	d103      	bne.n	800fb08 <tcp_receive+0x60>
 800fb00:	ebac 0002 	sub.w	r0, ip, r2
 800fb04:	2800      	cmp	r0, #0
 800fb06:	db06      	blt.n	800fb16 <tcp_receive+0x6e>
 800fb08:	4594      	cmp	ip, r2
 800fb0a:	d111      	bne.n	800fb30 <tcp_receive+0x88>
 800fb0c:	482a      	ldr	r0, [pc, #168]	; (800fbb8 <tcp_receive+0x110>)
 800fb0e:	6800      	ldr	r0, [r0, #0]
 800fb10:	89c0      	ldrh	r0, [r0, #14]
 800fb12:	4288      	cmp	r0, r1
 800fb14:	d90c      	bls.n	800fb30 <tcp_receive+0x88>
 800fb16:	4828      	ldr	r0, [pc, #160]	; (800fbb8 <tcp_receive+0x110>)
 800fb18:	f8b4 e062 	ldrh.w	lr, [r4, #98]	; 0x62
 800fb1c:	6800      	ldr	r0, [r0, #0]
 800fb1e:	89c0      	ldrh	r0, [r0, #14]
 800fb20:	4586      	cmp	lr, r0
 800fb22:	f8a4 0060 	strh.w	r0, [r4, #96]	; 0x60
 800fb26:	bf38      	it	cc
 800fb28:	f8a4 0062 	strhcc.w	r0, [r4, #98]	; 0x62
 800fb2c:	e9c4 3215 	strd	r3, r2, [r4, #84]	; 0x54
 800fb30:	6c60      	ldr	r0, [r4, #68]	; 0x44
 800fb32:	1a13      	subs	r3, r2, r0
 800fb34:	2b00      	cmp	r3, #0
 800fb36:	f300 8185 	bgt.w	800fe44 <tcp_receive+0x39c>
 800fb3a:	883b      	ldrh	r3, [r7, #0]
 800fb3c:	2b00      	cmp	r3, #0
 800fb3e:	f040 816a 	bne.w	800fe16 <tcp_receive+0x36e>
 800fb42:	f8b4 3060 	ldrh.w	r3, [r4, #96]	; 0x60
 800fb46:	4461      	add	r1, ip
 800fb48:	6da5      	ldr	r5, [r4, #88]	; 0x58
 800fb4a:	442b      	add	r3, r5
 800fb4c:	428b      	cmp	r3, r1
 800fb4e:	f040 8162 	bne.w	800fe16 <tcp_receive+0x36e>
 800fb52:	f9b4 3030 	ldrsh.w	r3, [r4, #48]	; 0x30
 800fb56:	2b00      	cmp	r3, #0
 800fb58:	f2c0 815d 	blt.w	800fe16 <tcp_receive+0x36e>
 800fb5c:	4290      	cmp	r0, r2
 800fb5e:	f040 815a 	bne.w	800fe16 <tcp_receive+0x36e>
 800fb62:	f894 3043 	ldrb.w	r3, [r4, #67]	; 0x43
 800fb66:	2bff      	cmp	r3, #255	; 0xff
 800fb68:	bf1c      	itt	ne
 800fb6a:	3301      	addne	r3, #1
 800fb6c:	f884 3043 	strbne.w	r3, [r4, #67]	; 0x43
 800fb70:	f894 3043 	ldrb.w	r3, [r4, #67]	; 0x43
 800fb74:	2b03      	cmp	r3, #3
 800fb76:	d921      	bls.n	800fbbc <tcp_receive+0x114>
 800fb78:	f8b4 2048 	ldrh.w	r2, [r4, #72]	; 0x48
 800fb7c:	8e63      	ldrh	r3, [r4, #50]	; 0x32
 800fb7e:	4413      	add	r3, r2
 800fb80:	b29b      	uxth	r3, r3
 800fb82:	429a      	cmp	r2, r3
 800fb84:	bf88      	it	hi
 800fb86:	f64f 73ff 	movwhi	r3, #65535	; 0xffff
 800fb8a:	f8a4 3048 	strh.w	r3, [r4, #72]	; 0x48
 800fb8e:	4620      	mov	r0, r4
 800fb90:	f001 ff54 	bl	8011a3c <tcp_rexmit_fast>
 800fb94:	e013      	b.n	800fbbe <tcp_receive+0x116>
 800fb96:	bf00      	nop
 800fb98:	080267e8 	.word	0x080267e8
 800fb9c:	08026859 	.word	0x08026859
 800fba0:	08014a3b 	.word	0x08014a3b
 800fba4:	08026872 	.word	0x08026872
 800fba8:	20004518 	.word	0x20004518
 800fbac:	20004538 	.word	0x20004538
 800fbb0:	2000454e 	.word	0x2000454e
 800fbb4:	20004514 	.word	0x20004514
 800fbb8:	20004540 	.word	0x20004540
 800fbbc:	d0e7      	beq.n	800fb8e <tcp_receive+0xe6>
 800fbbe:	6b62      	ldr	r2, [r4, #52]	; 0x34
 800fbc0:	b31a      	cbz	r2, 800fc0a <tcp_receive+0x162>
 800fbc2:	6ba3      	ldr	r3, [r4, #56]	; 0x38
 800fbc4:	f8d9 1000 	ldr.w	r1, [r9]
 800fbc8:	1a5b      	subs	r3, r3, r1
 800fbca:	2b00      	cmp	r3, #0
 800fbcc:	da1d      	bge.n	800fc0a <tcp_receive+0x162>
 800fbce:	4b94      	ldr	r3, [pc, #592]	; (800fe20 <tcp_receive+0x378>)
 800fbd0:	f9b4 003c 	ldrsh.w	r0, [r4, #60]	; 0x3c
 800fbd4:	6819      	ldr	r1, [r3, #0]
 800fbd6:	1a89      	subs	r1, r1, r2
 800fbd8:	f9b4 203e 	ldrsh.w	r2, [r4, #62]	; 0x3e
 800fbdc:	eba1 01e0 	sub.w	r1, r1, r0, asr #3
 800fbe0:	eba2 02a2 	sub.w	r2, r2, r2, asr #2
 800fbe4:	b289      	uxth	r1, r1
 800fbe6:	b20b      	sxth	r3, r1
 800fbe8:	4408      	add	r0, r1
 800fbea:	2b00      	cmp	r3, #0
 800fbec:	b200      	sxth	r0, r0
 800fbee:	bfb8      	it	lt
 800fbf0:	4249      	neglt	r1, r1
 800fbf2:	87a0      	strh	r0, [r4, #60]	; 0x3c
 800fbf4:	bfb8      	it	lt
 800fbf6:	b20b      	sxthlt	r3, r1
 800fbf8:	4413      	add	r3, r2
 800fbfa:	b29b      	uxth	r3, r3
 800fbfc:	87e3      	strh	r3, [r4, #62]	; 0x3e
 800fbfe:	eb03 03e0 	add.w	r3, r3, r0, asr #3
 800fc02:	f8a4 3040 	strh.w	r3, [r4, #64]	; 0x40
 800fc06:	2300      	movs	r3, #0
 800fc08:	6363      	str	r3, [r4, #52]	; 0x34
 800fc0a:	8838      	ldrh	r0, [r7, #0]
 800fc0c:	6a62      	ldr	r2, [r4, #36]	; 0x24
 800fc0e:	6833      	ldr	r3, [r6, #0]
 800fc10:	2800      	cmp	r0, #0
 800fc12:	f000 835d 	beq.w	80102d0 <tcp_receive+0x828>
 800fc16:	7d21      	ldrb	r1, [r4, #20]
 800fc18:	2906      	cmp	r1, #6
 800fc1a:	f200 8359 	bhi.w	80102d0 <tcp_receive+0x828>
 800fc1e:	1ad5      	subs	r5, r2, r3
 800fc20:	2d01      	cmp	r5, #1
 800fc22:	f100 81aa 	bmi.w	800ff7a <tcp_receive+0x4d2>
 800fc26:	f1c3 0101 	rsb	r1, r3, #1
 800fc2a:	1a09      	subs	r1, r1, r0
 800fc2c:	4411      	add	r1, r2
 800fc2e:	2900      	cmp	r1, #0
 800fc30:	f300 81a3 	bgt.w	800ff7a <tcp_receive+0x4d2>
 800fc34:	4b7b      	ldr	r3, [pc, #492]	; (800fe24 <tcp_receive+0x37c>)
 800fc36:	f8d3 9004 	ldr.w	r9, [r3, #4]
 800fc3a:	4698      	mov	r8, r3
 800fc3c:	f1b9 0f00 	cmp.w	r9, #0
 800fc40:	d106      	bne.n	800fc50 <tcp_receive+0x1a8>
 800fc42:	4b79      	ldr	r3, [pc, #484]	; (800fe28 <tcp_receive+0x380>)
 800fc44:	f240 5294 	movw	r2, #1428	; 0x594
 800fc48:	4978      	ldr	r1, [pc, #480]	; (800fe2c <tcp_receive+0x384>)
 800fc4a:	4879      	ldr	r0, [pc, #484]	; (800fe30 <tcp_receive+0x388>)
 800fc4c:	f003 ff4c 	bl	8013ae8 <iprintf>
 800fc50:	f64f 73fe 	movw	r3, #65534	; 0xfffe
 800fc54:	429d      	cmp	r5, r3
 800fc56:	d906      	bls.n	800fc66 <tcp_receive+0x1be>
 800fc58:	4b73      	ldr	r3, [pc, #460]	; (800fe28 <tcp_receive+0x380>)
 800fc5a:	f240 5295 	movw	r2, #1429	; 0x595
 800fc5e:	4975      	ldr	r1, [pc, #468]	; (800fe34 <tcp_receive+0x38c>)
 800fc60:	4873      	ldr	r0, [pc, #460]	; (800fe30 <tcp_receive+0x388>)
 800fc62:	f003 ff41 	bl	8013ae8 <iprintf>
 800fc66:	f8d8 3004 	ldr.w	r3, [r8, #4]
 800fc6a:	b2ad      	uxth	r5, r5
 800fc6c:	891b      	ldrh	r3, [r3, #8]
 800fc6e:	42ab      	cmp	r3, r5
 800fc70:	d206      	bcs.n	800fc80 <tcp_receive+0x1d8>
 800fc72:	4b6d      	ldr	r3, [pc, #436]	; (800fe28 <tcp_receive+0x380>)
 800fc74:	f240 5297 	movw	r2, #1431	; 0x597
 800fc78:	496f      	ldr	r1, [pc, #444]	; (800fe38 <tcp_receive+0x390>)
 800fc7a:	486d      	ldr	r0, [pc, #436]	; (800fe30 <tcp_receive+0x388>)
 800fc7c:	f003 ff34 	bl	8013ae8 <iprintf>
 800fc80:	f8b8 3008 	ldrh.w	r3, [r8, #8]
 800fc84:	2100      	movs	r1, #0
 800fc86:	1b5b      	subs	r3, r3, r5
 800fc88:	f8a8 3008 	strh.w	r3, [r8, #8]
 800fc8c:	f8d8 3004 	ldr.w	r3, [r8, #4]
 800fc90:	891b      	ldrh	r3, [r3, #8]
 800fc92:	1b5b      	subs	r3, r3, r5
 800fc94:	b29b      	uxth	r3, r3
 800fc96:	f8b9 200a 	ldrh.w	r2, [r9, #10]
 800fc9a:	42aa      	cmp	r2, r5
 800fc9c:	f0c0 8164 	bcc.w	800ff68 <tcp_receive+0x4c0>
 800fca0:	4629      	mov	r1, r5
 800fca2:	4648      	mov	r0, r9
 800fca4:	f7fe fa6a 	bl	800e17c <pbuf_remove_header>
 800fca8:	6a63      	ldr	r3, [r4, #36]	; 0x24
 800fcaa:	f8d8 200c 	ldr.w	r2, [r8, #12]
 800fcae:	6033      	str	r3, [r6, #0]
 800fcb0:	6053      	str	r3, [r2, #4]
 800fcb2:	6833      	ldr	r3, [r6, #0]
 800fcb4:	6a62      	ldr	r2, [r4, #36]	; 0x24
 800fcb6:	1a99      	subs	r1, r3, r2
 800fcb8:	2900      	cmp	r1, #0
 800fcba:	f2c0 8233 	blt.w	8010124 <tcp_receive+0x67c>
 800fcbe:	1c58      	adds	r0, r3, #1
 800fcc0:	8d25      	ldrh	r5, [r4, #40]	; 0x28
 800fcc2:	1a81      	subs	r1, r0, r2
 800fcc4:	1b49      	subs	r1, r1, r5
 800fcc6:	2900      	cmp	r1, #0
 800fcc8:	f300 822c 	bgt.w	8010124 <tcp_receive+0x67c>
 800fccc:	4293      	cmp	r3, r2
 800fcce:	f040 8223 	bne.w	8010118 <tcp_receive+0x670>
 800fcd2:	4d54      	ldr	r5, [pc, #336]	; (800fe24 <tcp_receive+0x37c>)
 800fcd4:	68eb      	ldr	r3, [r5, #12]
 800fcd6:	f8b5 8008 	ldrh.w	r8, [r5, #8]
 800fcda:	8998      	ldrh	r0, [r3, #12]
 800fcdc:	f7fd fce0 	bl	800d6a0 <lwip_htons>
 800fce0:	f010 0003 	ands.w	r0, r0, #3
 800fce4:	8d23      	ldrh	r3, [r4, #40]	; 0x28
 800fce6:	bf18      	it	ne
 800fce8:	2001      	movne	r0, #1
 800fcea:	4440      	add	r0, r8
 800fcec:	b280      	uxth	r0, r0
 800fcee:	4283      	cmp	r3, r0
 800fcf0:	8038      	strh	r0, [r7, #0]
 800fcf2:	d241      	bcs.n	800fd78 <tcp_receive+0x2d0>
 800fcf4:	68eb      	ldr	r3, [r5, #12]
 800fcf6:	8998      	ldrh	r0, [r3, #12]
 800fcf8:	f7fd fcd2 	bl	800d6a0 <lwip_htons>
 800fcfc:	07c2      	lsls	r2, r0, #31
 800fcfe:	d510      	bpl.n	800fd22 <tcp_receive+0x27a>
 800fd00:	68eb      	ldr	r3, [r5, #12]
 800fd02:	f8b3 800c 	ldrh.w	r8, [r3, #12]
 800fd06:	4640      	mov	r0, r8
 800fd08:	f428 587c 	bic.w	r8, r8, #16128	; 0x3f00
 800fd0c:	f7fd fcc8 	bl	800d6a0 <lwip_htons>
 800fd10:	f000 003e 	and.w	r0, r0, #62	; 0x3e
 800fd14:	f7fd fcc4 	bl	800d6a0 <lwip_htons>
 800fd18:	68eb      	ldr	r3, [r5, #12]
 800fd1a:	ea48 0800 	orr.w	r8, r8, r0
 800fd1e:	f8a3 800c 	strh.w	r8, [r3, #12]
 800fd22:	8d23      	ldrh	r3, [r4, #40]	; 0x28
 800fd24:	812b      	strh	r3, [r5, #8]
 800fd26:	68eb      	ldr	r3, [r5, #12]
 800fd28:	8998      	ldrh	r0, [r3, #12]
 800fd2a:	f7fd fcb9 	bl	800d6a0 <lwip_htons>
 800fd2e:	0783      	lsls	r3, r0, #30
 800fd30:	6868      	ldr	r0, [r5, #4]
 800fd32:	bf42      	ittt	mi
 800fd34:	892b      	ldrhmi	r3, [r5, #8]
 800fd36:	f103 33ff 	addmi.w	r3, r3, #4294967295	; 0xffffffff
 800fd3a:	812b      	strhmi	r3, [r5, #8]
 800fd3c:	8929      	ldrh	r1, [r5, #8]
 800fd3e:	f7fe fb4b 	bl	800e3d8 <pbuf_realloc>
 800fd42:	68eb      	ldr	r3, [r5, #12]
 800fd44:	f8b5 8008 	ldrh.w	r8, [r5, #8]
 800fd48:	8998      	ldrh	r0, [r3, #12]
 800fd4a:	f7fd fca9 	bl	800d6a0 <lwip_htons>
 800fd4e:	f010 0003 	ands.w	r0, r0, #3
 800fd52:	6833      	ldr	r3, [r6, #0]
 800fd54:	bf18      	it	ne
 800fd56:	2001      	movne	r0, #1
 800fd58:	6a62      	ldr	r2, [r4, #36]	; 0x24
 800fd5a:	4440      	add	r0, r8
 800fd5c:	b280      	uxth	r0, r0
 800fd5e:	8038      	strh	r0, [r7, #0]
 800fd60:	4418      	add	r0, r3
 800fd62:	8d23      	ldrh	r3, [r4, #40]	; 0x28
 800fd64:	4413      	add	r3, r2
 800fd66:	4298      	cmp	r0, r3
 800fd68:	d006      	beq.n	800fd78 <tcp_receive+0x2d0>
 800fd6a:	4b2f      	ldr	r3, [pc, #188]	; (800fe28 <tcp_receive+0x380>)
 800fd6c:	f240 52cc 	movw	r2, #1484	; 0x5cc
 800fd70:	4932      	ldr	r1, [pc, #200]	; (800fe3c <tcp_receive+0x394>)
 800fd72:	482f      	ldr	r0, [pc, #188]	; (800fe30 <tcp_receive+0x388>)
 800fd74:	f003 feb8 	bl	8013ae8 <iprintf>
 800fd78:	6f63      	ldr	r3, [r4, #116]	; 0x74
 800fd7a:	2b00      	cmp	r3, #0
 800fd7c:	f000 810c 	beq.w	800ff98 <tcp_receive+0x4f0>
 800fd80:	68eb      	ldr	r3, [r5, #12]
 800fd82:	8998      	ldrh	r0, [r3, #12]
 800fd84:	f7fd fc8c 	bl	800d6a0 <lwip_htons>
 800fd88:	07c0      	lsls	r0, r0, #31
 800fd8a:	f100 8102 	bmi.w	800ff92 <tcp_receive+0x4ea>
 800fd8e:	f8d4 8074 	ldr.w	r8, [r4, #116]	; 0x74
 800fd92:	6830      	ldr	r0, [r6, #0]
 800fd94:	883b      	ldrh	r3, [r7, #0]
 800fd96:	4403      	add	r3, r0
 800fd98:	f1b8 0f00 	cmp.w	r8, #0
 800fd9c:	d038      	beq.n	800fe10 <tcp_receive+0x368>
 800fd9e:	f8d8 c00c 	ldr.w	ip, [r8, #12]
 800fda2:	f8b8 1008 	ldrh.w	r1, [r8, #8]
 800fda6:	f8dc 2004 	ldr.w	r2, [ip, #4]
 800fdaa:	4411      	add	r1, r2
 800fdac:	1a59      	subs	r1, r3, r1
 800fdae:	2900      	cmp	r1, #0
 800fdb0:	f280 811f 	bge.w	800fff2 <tcp_receive+0x54a>
 800fdb4:	1a9b      	subs	r3, r3, r2
 800fdb6:	2b00      	cmp	r3, #0
 800fdb8:	dd2a      	ble.n	800fe10 <tcp_receive+0x368>
 800fdba:	68eb      	ldr	r3, [r5, #12]
 800fdbc:	1a12      	subs	r2, r2, r0
 800fdbe:	812a      	strh	r2, [r5, #8]
 800fdc0:	8998      	ldrh	r0, [r3, #12]
 800fdc2:	f7fd fc6d 	bl	800d6a0 <lwip_htons>
 800fdc6:	0783      	lsls	r3, r0, #30
 800fdc8:	6868      	ldr	r0, [r5, #4]
 800fdca:	bf42      	ittt	mi
 800fdcc:	892b      	ldrhmi	r3, [r5, #8]
 800fdce:	f103 33ff 	addmi.w	r3, r3, #4294967295	; 0xffffffff
 800fdd2:	812b      	strhmi	r3, [r5, #8]
 800fdd4:	8929      	ldrh	r1, [r5, #8]
 800fdd6:	f7fe faff 	bl	800e3d8 <pbuf_realloc>
 800fdda:	68eb      	ldr	r3, [r5, #12]
 800fddc:	f8b5 9008 	ldrh.w	r9, [r5, #8]
 800fde0:	8998      	ldrh	r0, [r3, #12]
 800fde2:	f7fd fc5d 	bl	800d6a0 <lwip_htons>
 800fde6:	f010 0003 	ands.w	r0, r0, #3
 800fdea:	6833      	ldr	r3, [r6, #0]
 800fdec:	bf18      	it	ne
 800fdee:	2001      	movne	r0, #1
 800fdf0:	4448      	add	r0, r9
 800fdf2:	b280      	uxth	r0, r0
 800fdf4:	8038      	strh	r0, [r7, #0]
 800fdf6:	4418      	add	r0, r3
 800fdf8:	f8d8 300c 	ldr.w	r3, [r8, #12]
 800fdfc:	685b      	ldr	r3, [r3, #4]
 800fdfe:	4298      	cmp	r0, r3
 800fe00:	d006      	beq.n	800fe10 <tcp_receive+0x368>
 800fe02:	4b09      	ldr	r3, [pc, #36]	; (800fe28 <tcp_receive+0x380>)
 800fe04:	f240 52fd 	movw	r2, #1533	; 0x5fd
 800fe08:	490d      	ldr	r1, [pc, #52]	; (800fe40 <tcp_receive+0x398>)
 800fe0a:	4809      	ldr	r0, [pc, #36]	; (800fe30 <tcp_receive+0x388>)
 800fe0c:	f003 fe6c 	bl	8013ae8 <iprintf>
 800fe10:	f8c4 8074 	str.w	r8, [r4, #116]	; 0x74
 800fe14:	e0c0      	b.n	800ff98 <tcp_receive+0x4f0>
 800fe16:	2300      	movs	r3, #0
 800fe18:	f884 3043 	strb.w	r3, [r4, #67]	; 0x43
 800fe1c:	e6cf      	b.n	800fbbe <tcp_receive+0x116>
 800fe1e:	bf00      	nop
 800fe20:	2000b338 	.word	0x2000b338
 800fe24:	2000451c 	.word	0x2000451c
 800fe28:	080267e8 	.word	0x080267e8
 800fe2c:	0802688b 	.word	0x0802688b
 800fe30:	08014a3b 	.word	0x08014a3b
 800fe34:	0802689b 	.word	0x0802689b
 800fe38:	080268aa 	.word	0x080268aa
 800fe3c:	080268ba 	.word	0x080268ba
 800fe40:	080268f1 	.word	0x080268f1
 800fe44:	6d21      	ldr	r1, [r4, #80]	; 0x50
 800fe46:	1a51      	subs	r1, r2, r1
 800fe48:	2900      	cmp	r1, #0
 800fe4a:	f300 8089 	bgt.w	800ff60 <tcp_receive+0x4b8>
 800fe4e:	8b61      	ldrh	r1, [r4, #26]
 800fe50:	0748      	lsls	r0, r1, #29
 800fe52:	d509      	bpl.n	800fe68 <tcp_receive+0x3c0>
 800fe54:	f021 0104 	bic.w	r1, r1, #4
 800fe58:	8361      	strh	r1, [r4, #26]
 800fe5a:	f8b4 104a 	ldrh.w	r1, [r4, #74]	; 0x4a
 800fe5e:	f8a4 1048 	strh.w	r1, [r4, #72]	; 0x48
 800fe62:	2100      	movs	r1, #0
 800fe64:	f8a4 106a 	strh.w	r1, [r4, #106]	; 0x6a
 800fe68:	f9b4 c03c 	ldrsh.w	ip, [r4, #60]	; 0x3c
 800fe6c:	2000      	movs	r0, #0
 800fe6e:	8fe1      	ldrh	r1, [r4, #62]	; 0x3e
 800fe70:	6462      	str	r2, [r4, #68]	; 0x44
 800fe72:	7d22      	ldrb	r2, [r4, #20]
 800fe74:	eb01 01ec 	add.w	r1, r1, ip, asr #3
 800fe78:	f884 0042 	strb.w	r0, [r4, #66]	; 0x42
 800fe7c:	2a03      	cmp	r2, #3
 800fe7e:	f8a4 1040 	strh.w	r1, [r4, #64]	; 0x40
 800fe82:	f884 0043 	strb.w	r0, [r4, #67]	; 0x43
 800fe86:	d91b      	bls.n	800fec0 <tcp_receive+0x418>
 800fe88:	f8b4 1048 	ldrh.w	r1, [r4, #72]	; 0x48
 800fe8c:	b29b      	uxth	r3, r3
 800fe8e:	f8b4 204a 	ldrh.w	r2, [r4, #74]	; 0x4a
 800fe92:	428a      	cmp	r2, r1
 800fe94:	d93e      	bls.n	800ff14 <tcp_receive+0x46c>
 800fe96:	8b62      	ldrh	r2, [r4, #26]
 800fe98:	f412 6f00 	tst.w	r2, #2048	; 0x800
 800fe9c:	8e62      	ldrh	r2, [r4, #50]	; 0x32
 800fe9e:	bf0c      	ite	eq
 800fea0:	2002      	moveq	r0, #2
 800fea2:	2001      	movne	r0, #1
 800fea4:	fb12 f200 	smulbb	r2, r2, r0
 800fea8:	b292      	uxth	r2, r2
 800feaa:	429a      	cmp	r2, r3
 800feac:	bf94      	ite	ls
 800feae:	188b      	addls	r3, r1, r2
 800feb0:	18cb      	addhi	r3, r1, r3
 800feb2:	b29b      	uxth	r3, r3
 800feb4:	4299      	cmp	r1, r3
 800feb6:	d901      	bls.n	800febc <tcp_receive+0x414>
 800feb8:	f64f 73ff 	movw	r3, #65535	; 0xffff
 800febc:	f8a4 3048 	strh.w	r3, [r4, #72]	; 0x48
 800fec0:	f104 0866 	add.w	r8, r4, #102	; 0x66
 800fec4:	e9d4 211b 	ldrd	r2, r1, [r4, #108]	; 0x6c
 800fec8:	4640      	mov	r0, r8
 800feca:	f7ff fd91 	bl	800f9f0 <tcp_free_acked_segments.isra.2>
 800fece:	6ee1      	ldr	r1, [r4, #108]	; 0x6c
 800fed0:	4602      	mov	r2, r0
 800fed2:	6720      	str	r0, [r4, #112]	; 0x70
 800fed4:	4640      	mov	r0, r8
 800fed6:	f7ff fd8b 	bl	800f9f0 <tcp_free_acked_segments.isra.2>
 800feda:	6f23      	ldr	r3, [r4, #112]	; 0x70
 800fedc:	66e0      	str	r0, [r4, #108]	; 0x6c
 800fede:	2200      	movs	r2, #0
 800fee0:	bb63      	cbnz	r3, 800ff3c <tcp_receive+0x494>
 800fee2:	f64f 71ff 	movw	r1, #65535	; 0xffff
 800fee6:	8621      	strh	r1, [r4, #48]	; 0x30
 800fee8:	7722      	strb	r2, [r4, #28]
 800feea:	b908      	cbnz	r0, 800fef0 <tcp_receive+0x448>
 800feec:	f8a4 0068 	strh.w	r0, [r4, #104]	; 0x68
 800fef0:	49a5      	ldr	r1, [pc, #660]	; (8010188 <tcp_receive+0x6e0>)
 800fef2:	f8b4 2064 	ldrh.w	r2, [r4, #100]	; 0x64
 800fef6:	8809      	ldrh	r1, [r1, #0]
 800fef8:	440a      	add	r2, r1
 800fefa:	f8a4 2064 	strh.w	r2, [r4, #100]	; 0x64
 800fefe:	8b62      	ldrh	r2, [r4, #26]
 800ff00:	0511      	lsls	r1, r2, #20
 800ff02:	f57f ae5c 	bpl.w	800fbbe <tcp_receive+0x116>
 800ff06:	bb3b      	cbnz	r3, 800ff58 <tcp_receive+0x4b0>
 800ff08:	b9d0      	cbnz	r0, 800ff40 <tcp_receive+0x498>
 800ff0a:	8b63      	ldrh	r3, [r4, #26]
 800ff0c:	f423 6300 	bic.w	r3, r3, #2048	; 0x800
 800ff10:	8363      	strh	r3, [r4, #26]
 800ff12:	e654      	b.n	800fbbe <tcp_receive+0x116>
 800ff14:	f8b4 206a 	ldrh.w	r2, [r4, #106]	; 0x6a
 800ff18:	4413      	add	r3, r2
 800ff1a:	b29b      	uxth	r3, r3
 800ff1c:	429a      	cmp	r2, r3
 800ff1e:	bf88      	it	hi
 800ff20:	f64f 73ff 	movwhi	r3, #65535	; 0xffff
 800ff24:	f8a4 306a 	strh.w	r3, [r4, #106]	; 0x6a
 800ff28:	f8b4 306a 	ldrh.w	r3, [r4, #106]	; 0x6a
 800ff2c:	4299      	cmp	r1, r3
 800ff2e:	d8c7      	bhi.n	800fec0 <tcp_receive+0x418>
 800ff30:	1a5b      	subs	r3, r3, r1
 800ff32:	f8a4 306a 	strh.w	r3, [r4, #106]	; 0x6a
 800ff36:	8e63      	ldrh	r3, [r4, #50]	; 0x32
 800ff38:	440b      	add	r3, r1
 800ff3a:	e7ba      	b.n	800feb2 <tcp_receive+0x40a>
 800ff3c:	8622      	strh	r2, [r4, #48]	; 0x30
 800ff3e:	e7d3      	b.n	800fee8 <tcp_receive+0x440>
 800ff40:	f8d4 804c 	ldr.w	r8, [r4, #76]	; 0x4c
 800ff44:	68c3      	ldr	r3, [r0, #12]
 800ff46:	6858      	ldr	r0, [r3, #4]
 800ff48:	f7fd fbad 	bl	800d6a6 <lwip_htonl>
 800ff4c:	eba8 0000 	sub.w	r0, r8, r0
 800ff50:	2800      	cmp	r0, #0
 800ff52:	f73f ae34 	bgt.w	800fbbe <tcp_receive+0x116>
 800ff56:	e7d8      	b.n	800ff0a <tcp_receive+0x462>
 800ff58:	f8d4 804c 	ldr.w	r8, [r4, #76]	; 0x4c
 800ff5c:	68db      	ldr	r3, [r3, #12]
 800ff5e:	e7f2      	b.n	800ff46 <tcp_receive+0x49e>
 800ff60:	4620      	mov	r0, r4
 800ff62:	f001 fde7 	bl	8011b34 <tcp_send_empty_ack>
 800ff66:	e62a      	b.n	800fbbe <tcp_receive+0x116>
 800ff68:	1aad      	subs	r5, r5, r2
 800ff6a:	f8a9 3008 	strh.w	r3, [r9, #8]
 800ff6e:	f8a9 100a 	strh.w	r1, [r9, #10]
 800ff72:	b2ad      	uxth	r5, r5
 800ff74:	f8d9 9000 	ldr.w	r9, [r9]
 800ff78:	e68d      	b.n	800fc96 <tcp_receive+0x1ee>
 800ff7a:	1a9b      	subs	r3, r3, r2
 800ff7c:	2b00      	cmp	r3, #0
 800ff7e:	bfbe      	ittt	lt
 800ff80:	8b63      	ldrhlt	r3, [r4, #26]
 800ff82:	f043 0302 	orrlt.w	r3, r3, #2
 800ff86:	8363      	strhlt	r3, [r4, #26]
 800ff88:	e693      	b.n	800fcb2 <tcp_receive+0x20a>
 800ff8a:	6803      	ldr	r3, [r0, #0]
 800ff8c:	6763      	str	r3, [r4, #116]	; 0x74
 800ff8e:	f7fe fd6b 	bl	800ea68 <tcp_seg_free>
 800ff92:	6f60      	ldr	r0, [r4, #116]	; 0x74
 800ff94:	2800      	cmp	r0, #0
 800ff96:	d1f8      	bne.n	800ff8a <tcp_receive+0x4e2>
 800ff98:	883a      	ldrh	r2, [r7, #0]
 800ff9a:	6833      	ldr	r3, [r6, #0]
 800ff9c:	4413      	add	r3, r2
 800ff9e:	6263      	str	r3, [r4, #36]	; 0x24
 800ffa0:	8d23      	ldrh	r3, [r4, #40]	; 0x28
 800ffa2:	4293      	cmp	r3, r2
 800ffa4:	d206      	bcs.n	800ffb4 <tcp_receive+0x50c>
 800ffa6:	4b79      	ldr	r3, [pc, #484]	; (801018c <tcp_receive+0x6e4>)
 800ffa8:	f240 6207 	movw	r2, #1543	; 0x607
 800ffac:	4978      	ldr	r1, [pc, #480]	; (8010190 <tcp_receive+0x6e8>)
 800ffae:	4879      	ldr	r0, [pc, #484]	; (8010194 <tcp_receive+0x6ec>)
 800ffb0:	f003 fd9a 	bl	8013ae8 <iprintf>
 800ffb4:	8d23      	ldrh	r3, [r4, #40]	; 0x28
 800ffb6:	4620      	mov	r0, r4
 800ffb8:	883a      	ldrh	r2, [r7, #0]
 800ffba:	1a9b      	subs	r3, r3, r2
 800ffbc:	8523      	strh	r3, [r4, #40]	; 0x28
 800ffbe:	f7fe fce1 	bl	800e984 <tcp_update_rcv_ann_wnd>
 800ffc2:	686b      	ldr	r3, [r5, #4]
 800ffc4:	891a      	ldrh	r2, [r3, #8]
 800ffc6:	b11a      	cbz	r2, 800ffd0 <tcp_receive+0x528>
 800ffc8:	4a73      	ldr	r2, [pc, #460]	; (8010198 <tcp_receive+0x6f0>)
 800ffca:	6013      	str	r3, [r2, #0]
 800ffcc:	2300      	movs	r3, #0
 800ffce:	606b      	str	r3, [r5, #4]
 800ffd0:	68eb      	ldr	r3, [r5, #12]
 800ffd2:	8998      	ldrh	r0, [r3, #12]
 800ffd4:	f7fd fb64 	bl	800d6a0 <lwip_htons>
 800ffd8:	07c5      	lsls	r5, r0, #31
 800ffda:	d504      	bpl.n	800ffe6 <tcp_receive+0x53e>
 800ffdc:	4a6f      	ldr	r2, [pc, #444]	; (801019c <tcp_receive+0x6f4>)
 800ffde:	7813      	ldrb	r3, [r2, #0]
 800ffe0:	f043 0320 	orr.w	r3, r3, #32
 800ffe4:	7013      	strb	r3, [r2, #0]
 800ffe6:	4f69      	ldr	r7, [pc, #420]	; (801018c <tcp_receive+0x6e4>)
 800ffe8:	f8df 81b8 	ldr.w	r8, [pc, #440]	; 80101a4 <tcp_receive+0x6fc>
 800ffec:	f8df 91a4 	ldr.w	r9, [pc, #420]	; 8010194 <tcp_receive+0x6ec>
 800fff0:	e07c      	b.n	80100ec <tcp_receive+0x644>
 800fff2:	f8bc 000c 	ldrh.w	r0, [ip, #12]
 800fff6:	f7fd fb53 	bl	800d6a0 <lwip_htons>
 800fffa:	07c1      	lsls	r1, r0, #31
 800fffc:	d51b      	bpl.n	8010036 <tcp_receive+0x58e>
 800fffe:	68eb      	ldr	r3, [r5, #12]
 8010000:	8998      	ldrh	r0, [r3, #12]
 8010002:	f7fd fb4d 	bl	800d6a0 <lwip_htons>
 8010006:	0782      	lsls	r2, r0, #30
 8010008:	d415      	bmi.n	8010036 <tcp_receive+0x58e>
 801000a:	68eb      	ldr	r3, [r5, #12]
 801000c:	2001      	movs	r0, #1
 801000e:	f8b3 900c 	ldrh.w	r9, [r3, #12]
 8010012:	f7fd fb45 	bl	800d6a0 <lwip_htons>
 8010016:	68eb      	ldr	r3, [r5, #12]
 8010018:	ea49 0000 	orr.w	r0, r9, r0
 801001c:	f8b5 9008 	ldrh.w	r9, [r5, #8]
 8010020:	b280      	uxth	r0, r0
 8010022:	8198      	strh	r0, [r3, #12]
 8010024:	f7fd fb3c 	bl	800d6a0 <lwip_htons>
 8010028:	f010 0003 	ands.w	r0, r0, #3
 801002c:	bf18      	it	ne
 801002e:	2001      	movne	r0, #1
 8010030:	4481      	add	r9, r0
 8010032:	f8a7 9000 	strh.w	r9, [r7]
 8010036:	f8d8 9000 	ldr.w	r9, [r8]
 801003a:	4640      	mov	r0, r8
 801003c:	f7fe fd14 	bl	800ea68 <tcp_seg_free>
 8010040:	46c8      	mov	r8, r9
 8010042:	e6a6      	b.n	800fd92 <tcp_receive+0x2ea>
 8010044:	6033      	str	r3, [r6, #0]
 8010046:	8990      	ldrh	r0, [r2, #12]
 8010048:	f8b5 a008 	ldrh.w	sl, [r5, #8]
 801004c:	f7fd fb28 	bl	800d6a0 <lwip_htons>
 8010050:	6a63      	ldr	r3, [r4, #36]	; 0x24
 8010052:	f010 0003 	ands.w	r0, r0, #3
 8010056:	f8b5 b008 	ldrh.w	fp, [r5, #8]
 801005a:	bf18      	it	ne
 801005c:	2001      	movne	r0, #1
 801005e:	449a      	add	sl, r3
 8010060:	68eb      	ldr	r3, [r5, #12]
 8010062:	4450      	add	r0, sl
 8010064:	f8b4 a028 	ldrh.w	sl, [r4, #40]	; 0x28
 8010068:	6260      	str	r0, [r4, #36]	; 0x24
 801006a:	8998      	ldrh	r0, [r3, #12]
 801006c:	f7fd fb18 	bl	800d6a0 <lwip_htons>
 8010070:	f010 0003 	ands.w	r0, r0, #3
 8010074:	bf18      	it	ne
 8010076:	2001      	movne	r0, #1
 8010078:	4458      	add	r0, fp
 801007a:	4582      	cmp	sl, r0
 801007c:	d206      	bcs.n	801008c <tcp_receive+0x5e4>
 801007e:	463b      	mov	r3, r7
 8010080:	f240 622c 	movw	r2, #1580	; 0x62c
 8010084:	4641      	mov	r1, r8
 8010086:	4648      	mov	r0, r9
 8010088:	f003 fd2e 	bl	8013ae8 <iprintf>
 801008c:	68eb      	ldr	r3, [r5, #12]
 801008e:	f8b5 a008 	ldrh.w	sl, [r5, #8]
 8010092:	8998      	ldrh	r0, [r3, #12]
 8010094:	f7fd fb04 	bl	800d6a0 <lwip_htons>
 8010098:	f010 0003 	ands.w	r0, r0, #3
 801009c:	8d23      	ldrh	r3, [r4, #40]	; 0x28
 801009e:	bf18      	it	ne
 80100a0:	2001      	movne	r0, #1
 80100a2:	4450      	add	r0, sl
 80100a4:	1a18      	subs	r0, r3, r0
 80100a6:	8520      	strh	r0, [r4, #40]	; 0x28
 80100a8:	4620      	mov	r0, r4
 80100aa:	f7fe fc6b 	bl	800e984 <tcp_update_rcv_ann_wnd>
 80100ae:	6869      	ldr	r1, [r5, #4]
 80100b0:	890b      	ldrh	r3, [r1, #8]
 80100b2:	b133      	cbz	r3, 80100c2 <tcp_receive+0x61a>
 80100b4:	4b38      	ldr	r3, [pc, #224]	; (8010198 <tcp_receive+0x6f0>)
 80100b6:	6818      	ldr	r0, [r3, #0]
 80100b8:	b338      	cbz	r0, 801010a <tcp_receive+0x662>
 80100ba:	f7fe fa09 	bl	800e4d0 <pbuf_cat>
 80100be:	2300      	movs	r3, #0
 80100c0:	606b      	str	r3, [r5, #4]
 80100c2:	68eb      	ldr	r3, [r5, #12]
 80100c4:	8998      	ldrh	r0, [r3, #12]
 80100c6:	f7fd faeb 	bl	800d6a0 <lwip_htons>
 80100ca:	07c0      	lsls	r0, r0, #31
 80100cc:	d509      	bpl.n	80100e2 <tcp_receive+0x63a>
 80100ce:	4a33      	ldr	r2, [pc, #204]	; (801019c <tcp_receive+0x6f4>)
 80100d0:	7813      	ldrb	r3, [r2, #0]
 80100d2:	f043 0320 	orr.w	r3, r3, #32
 80100d6:	7013      	strb	r3, [r2, #0]
 80100d8:	7d23      	ldrb	r3, [r4, #20]
 80100da:	2b04      	cmp	r3, #4
 80100dc:	bf04      	itt	eq
 80100de:	2307      	moveq	r3, #7
 80100e0:	7523      	strbeq	r3, [r4, #20]
 80100e2:	682b      	ldr	r3, [r5, #0]
 80100e4:	4628      	mov	r0, r5
 80100e6:	6763      	str	r3, [r4, #116]	; 0x74
 80100e8:	f7fe fcbe 	bl	800ea68 <tcp_seg_free>
 80100ec:	6f65      	ldr	r5, [r4, #116]	; 0x74
 80100ee:	b125      	cbz	r5, 80100fa <tcp_receive+0x652>
 80100f0:	68ea      	ldr	r2, [r5, #12]
 80100f2:	6a61      	ldr	r1, [r4, #36]	; 0x24
 80100f4:	6853      	ldr	r3, [r2, #4]
 80100f6:	428b      	cmp	r3, r1
 80100f8:	d0a4      	beq.n	8010044 <tcp_receive+0x59c>
 80100fa:	8b63      	ldrh	r3, [r4, #26]
 80100fc:	07d9      	lsls	r1, r3, #31
 80100fe:	d506      	bpl.n	801010e <tcp_receive+0x666>
 8010100:	f023 0301 	bic.w	r3, r3, #1
 8010104:	f043 0302 	orr.w	r3, r3, #2
 8010108:	e003      	b.n	8010112 <tcp_receive+0x66a>
 801010a:	6019      	str	r1, [r3, #0]
 801010c:	e7d7      	b.n	80100be <tcp_receive+0x616>
 801010e:	f043 0301 	orr.w	r3, r3, #1
 8010112:	8363      	strh	r3, [r4, #26]
 8010114:	e8bd 8ff8 	ldmia.w	sp!, {r3, r4, r5, r6, r7, r8, r9, sl, fp, pc}
 8010118:	6f65      	ldr	r5, [r4, #116]	; 0x74
 801011a:	b945      	cbnz	r5, 801012e <tcp_receive+0x686>
 801011c:	4820      	ldr	r0, [pc, #128]	; (80101a0 <tcp_receive+0x6f8>)
 801011e:	f7fe fcc9 	bl	800eab4 <tcp_seg_copy>
 8010122:	6760      	str	r0, [r4, #116]	; 0x74
 8010124:	4620      	mov	r0, r4
 8010126:	e8bd 4ff8 	ldmia.w	sp!, {r3, r4, r5, r6, r7, r8, r9, sl, fp, lr}
 801012a:	f001 bd03 	b.w	8011b34 <tcp_send_empty_ack>
 801012e:	f04f 0800 	mov.w	r8, #0
 8010132:	f103 3eff 	add.w	lr, r3, #4294967295	; 0xffffffff
 8010136:	f8d5 c00c 	ldr.w	ip, [r5, #12]
 801013a:	f8dc 2004 	ldr.w	r2, [ip, #4]
 801013e:	4293      	cmp	r3, r2
 8010140:	d115      	bne.n	801016e <tcp_receive+0x6c6>
 8010142:	4817      	ldr	r0, [pc, #92]	; (80101a0 <tcp_receive+0x6f8>)
 8010144:	892b      	ldrh	r3, [r5, #8]
 8010146:	8902      	ldrh	r2, [r0, #8]
 8010148:	429a      	cmp	r2, r3
 801014a:	d9eb      	bls.n	8010124 <tcp_receive+0x67c>
 801014c:	f7fe fcb2 	bl	800eab4 <tcp_seg_copy>
 8010150:	2800      	cmp	r0, #0
 8010152:	d0e7      	beq.n	8010124 <tcp_receive+0x67c>
 8010154:	f1b8 0f00 	cmp.w	r8, #0
 8010158:	d007      	beq.n	801016a <tcp_receive+0x6c2>
 801015a:	f8c8 0000 	str.w	r0, [r8]
 801015e:	4629      	mov	r1, r5
 8010160:	f7ff fb88 	bl	800f874 <tcp_oos_insert_segment>
 8010164:	e7de      	b.n	8010124 <tcp_receive+0x67c>
 8010166:	460d      	mov	r5, r1
 8010168:	e7e5      	b.n	8010136 <tcp_receive+0x68e>
 801016a:	6760      	str	r0, [r4, #116]	; 0x74
 801016c:	e7f7      	b.n	801015e <tcp_receive+0x6b6>
 801016e:	f1b8 0f00 	cmp.w	r8, #0
 8010172:	d119      	bne.n	80101a8 <tcp_receive+0x700>
 8010174:	1a99      	subs	r1, r3, r2
 8010176:	2900      	cmp	r1, #0
 8010178:	da3d      	bge.n	80101f6 <tcp_receive+0x74e>
 801017a:	4809      	ldr	r0, [pc, #36]	; (80101a0 <tcp_receive+0x6f8>)
 801017c:	f7fe fc9a 	bl	800eab4 <tcp_seg_copy>
 8010180:	2800      	cmp	r0, #0
 8010182:	d0cf      	beq.n	8010124 <tcp_receive+0x67c>
 8010184:	6760      	str	r0, [r4, #116]	; 0x74
 8010186:	e7ea      	b.n	801015e <tcp_receive+0x6b6>
 8010188:	2000452c 	.word	0x2000452c
 801018c:	080267e8 	.word	0x080267e8
 8010190:	0802692c 	.word	0x0802692c
 8010194:	08014a3b 	.word	0x08014a3b
 8010198:	20004530 	.word	0x20004530
 801019c:	20004534 	.word	0x20004534
 80101a0:	2000451c 	.word	0x2000451c
 80101a4:	0802694b 	.word	0x0802694b
 80101a8:	f8d8 100c 	ldr.w	r1, [r8, #12]
 80101ac:	6849      	ldr	r1, [r1, #4]
 80101ae:	ebae 0101 	sub.w	r1, lr, r1
 80101b2:	2900      	cmp	r1, #0
 80101b4:	db1f      	blt.n	80101f6 <tcp_receive+0x74e>
 80101b6:	1a81      	subs	r1, r0, r2
 80101b8:	2900      	cmp	r1, #0
 80101ba:	dc1c      	bgt.n	80101f6 <tcp_receive+0x74e>
 80101bc:	484a      	ldr	r0, [pc, #296]	; (80102e8 <tcp_receive+0x840>)
 80101be:	f7fe fc79 	bl	800eab4 <tcp_seg_copy>
 80101c2:	4607      	mov	r7, r0
 80101c4:	2800      	cmp	r0, #0
 80101c6:	d0ad      	beq.n	8010124 <tcp_receive+0x67c>
 80101c8:	f8d8 300c 	ldr.w	r3, [r8, #12]
 80101cc:	6831      	ldr	r1, [r6, #0]
 80101ce:	685a      	ldr	r2, [r3, #4]
 80101d0:	f8b8 3008 	ldrh.w	r3, [r8, #8]
 80101d4:	4413      	add	r3, r2
 80101d6:	1a5b      	subs	r3, r3, r1
 80101d8:	2b00      	cmp	r3, #0
 80101da:	dd07      	ble.n	80101ec <tcp_receive+0x744>
 80101dc:	1a89      	subs	r1, r1, r2
 80101de:	f8d8 0004 	ldr.w	r0, [r8, #4]
 80101e2:	b289      	uxth	r1, r1
 80101e4:	f8a8 1008 	strh.w	r1, [r8, #8]
 80101e8:	f7fe f8f6 	bl	800e3d8 <pbuf_realloc>
 80101ec:	f8c8 7000 	str.w	r7, [r8]
 80101f0:	4629      	mov	r1, r5
 80101f2:	4638      	mov	r0, r7
 80101f4:	e7b4      	b.n	8010160 <tcp_receive+0x6b8>
 80101f6:	6829      	ldr	r1, [r5, #0]
 80101f8:	46a8      	mov	r8, r5
 80101fa:	2900      	cmp	r1, #0
 80101fc:	d1b3      	bne.n	8010166 <tcp_receive+0x6be>
 80101fe:	1a9b      	subs	r3, r3, r2
 8010200:	2b00      	cmp	r3, #0
 8010202:	dd8f      	ble.n	8010124 <tcp_receive+0x67c>
 8010204:	f8bc 000c 	ldrh.w	r0, [ip, #12]
 8010208:	f7fd fa4a 	bl	800d6a0 <lwip_htons>
 801020c:	07c2      	lsls	r2, r0, #31
 801020e:	d489      	bmi.n	8010124 <tcp_receive+0x67c>
 8010210:	4835      	ldr	r0, [pc, #212]	; (80102e8 <tcp_receive+0x840>)
 8010212:	f7fe fc4f 	bl	800eab4 <tcp_seg_copy>
 8010216:	6028      	str	r0, [r5, #0]
 8010218:	2800      	cmp	r0, #0
 801021a:	d083      	beq.n	8010124 <tcp_receive+0x67c>
 801021c:	68eb      	ldr	r3, [r5, #12]
 801021e:	6831      	ldr	r1, [r6, #0]
 8010220:	685a      	ldr	r2, [r3, #4]
 8010222:	892b      	ldrh	r3, [r5, #8]
 8010224:	4413      	add	r3, r2
 8010226:	1a5b      	subs	r3, r3, r1
 8010228:	2b00      	cmp	r3, #0
 801022a:	dd05      	ble.n	8010238 <tcp_receive+0x790>
 801022c:	1a89      	subs	r1, r1, r2
 801022e:	6868      	ldr	r0, [r5, #4]
 8010230:	b289      	uxth	r1, r1
 8010232:	8129      	strh	r1, [r5, #8]
 8010234:	f7fe f8d0 	bl	800e3d8 <pbuf_realloc>
 8010238:	6832      	ldr	r2, [r6, #0]
 801023a:	883b      	ldrh	r3, [r7, #0]
 801023c:	4413      	add	r3, r2
 801023e:	6a62      	ldr	r2, [r4, #36]	; 0x24
 8010240:	1a9b      	subs	r3, r3, r2
 8010242:	8d22      	ldrh	r2, [r4, #40]	; 0x28
 8010244:	1a9b      	subs	r3, r3, r2
 8010246:	2b00      	cmp	r3, #0
 8010248:	f77f af6c 	ble.w	8010124 <tcp_receive+0x67c>
 801024c:	682b      	ldr	r3, [r5, #0]
 801024e:	68db      	ldr	r3, [r3, #12]
 8010250:	8998      	ldrh	r0, [r3, #12]
 8010252:	f7fd fa25 	bl	800d6a0 <lwip_htons>
 8010256:	07c3      	lsls	r3, r0, #31
 8010258:	d512      	bpl.n	8010280 <tcp_receive+0x7d8>
 801025a:	682b      	ldr	r3, [r5, #0]
 801025c:	68db      	ldr	r3, [r3, #12]
 801025e:	f8b3 800c 	ldrh.w	r8, [r3, #12]
 8010262:	4640      	mov	r0, r8
 8010264:	f428 587c 	bic.w	r8, r8, #16128	; 0x3f00
 8010268:	f7fd fa1a 	bl	800d6a0 <lwip_htons>
 801026c:	f000 003e 	and.w	r0, r0, #62	; 0x3e
 8010270:	f7fd fa16 	bl	800d6a0 <lwip_htons>
 8010274:	682b      	ldr	r3, [r5, #0]
 8010276:	ea48 0800 	orr.w	r8, r8, r0
 801027a:	68db      	ldr	r3, [r3, #12]
 801027c:	f8a3 800c 	strh.w	r8, [r3, #12]
 8010280:	6832      	ldr	r2, [r6, #0]
 8010282:	8d21      	ldrh	r1, [r4, #40]	; 0x28
 8010284:	682b      	ldr	r3, [r5, #0]
 8010286:	1a89      	subs	r1, r1, r2
 8010288:	6a62      	ldr	r2, [r4, #36]	; 0x24
 801028a:	6858      	ldr	r0, [r3, #4]
 801028c:	4411      	add	r1, r2
 801028e:	b289      	uxth	r1, r1
 8010290:	8119      	strh	r1, [r3, #8]
 8010292:	f7fe f8a1 	bl	800e3d8 <pbuf_realloc>
 8010296:	682b      	ldr	r3, [r5, #0]
 8010298:	891d      	ldrh	r5, [r3, #8]
 801029a:	68db      	ldr	r3, [r3, #12]
 801029c:	8998      	ldrh	r0, [r3, #12]
 801029e:	f7fd f9ff 	bl	800d6a0 <lwip_htons>
 80102a2:	f010 0003 	ands.w	r0, r0, #3
 80102a6:	6833      	ldr	r3, [r6, #0]
 80102a8:	bf18      	it	ne
 80102aa:	2001      	movne	r0, #1
 80102ac:	6a62      	ldr	r2, [r4, #36]	; 0x24
 80102ae:	4428      	add	r0, r5
 80102b0:	b280      	uxth	r0, r0
 80102b2:	8038      	strh	r0, [r7, #0]
 80102b4:	4418      	add	r0, r3
 80102b6:	8d23      	ldrh	r3, [r4, #40]	; 0x28
 80102b8:	4413      	add	r3, r2
 80102ba:	4298      	cmp	r0, r3
 80102bc:	f43f af32 	beq.w	8010124 <tcp_receive+0x67c>
 80102c0:	4b0a      	ldr	r3, [pc, #40]	; (80102ec <tcp_receive+0x844>)
 80102c2:	f240 62f9 	movw	r2, #1785	; 0x6f9
 80102c6:	490a      	ldr	r1, [pc, #40]	; (80102f0 <tcp_receive+0x848>)
 80102c8:	480a      	ldr	r0, [pc, #40]	; (80102f4 <tcp_receive+0x84c>)
 80102ca:	f003 fc0d 	bl	8013ae8 <iprintf>
 80102ce:	e729      	b.n	8010124 <tcp_receive+0x67c>
 80102d0:	1a99      	subs	r1, r3, r2
 80102d2:	2900      	cmp	r1, #0
 80102d4:	db06      	blt.n	80102e4 <tcp_receive+0x83c>
 80102d6:	3301      	adds	r3, #1
 80102d8:	1a9b      	subs	r3, r3, r2
 80102da:	8d22      	ldrh	r2, [r4, #40]	; 0x28
 80102dc:	1a9b      	subs	r3, r3, r2
 80102de:	2b00      	cmp	r3, #0
 80102e0:	f77f af18 	ble.w	8010114 <tcp_receive+0x66c>
 80102e4:	8b63      	ldrh	r3, [r4, #26]
 80102e6:	e70d      	b.n	8010104 <tcp_receive+0x65c>
 80102e8:	2000451c 	.word	0x2000451c
 80102ec:	080267e8 	.word	0x080267e8
 80102f0:	080268ba 	.word	0x080268ba
 80102f4:	08014a3b 	.word	0x08014a3b

080102f8 <tcp_input>:
 80102f8:	e92d 4ff0 	stmdb	sp!, {r4, r5, r6, r7, r8, r9, sl, fp, lr}
 80102fc:	4605      	mov	r5, r0
 80102fe:	b089      	sub	sp, #36	; 0x24
 8010300:	b928      	cbnz	r0, 801030e <tcp_input+0x16>
 8010302:	4bae      	ldr	r3, [pc, #696]	; (80105bc <tcp_input+0x2c4>)
 8010304:	2283      	movs	r2, #131	; 0x83
 8010306:	49ae      	ldr	r1, [pc, #696]	; (80105c0 <tcp_input+0x2c8>)
 8010308:	48ae      	ldr	r0, [pc, #696]	; (80105c4 <tcp_input+0x2cc>)
 801030a:	f003 fbed 	bl	8013ae8 <iprintf>
 801030e:	686b      	ldr	r3, [r5, #4]
 8010310:	4ead      	ldr	r6, [pc, #692]	; (80105c8 <tcp_input+0x2d0>)
 8010312:	6033      	str	r3, [r6, #0]
 8010314:	896b      	ldrh	r3, [r5, #10]
 8010316:	2b13      	cmp	r3, #19
 8010318:	f240 80ad 	bls.w	8010476 <tcp_input+0x17e>
 801031c:	4cab      	ldr	r4, [pc, #684]	; (80105cc <tcp_input+0x2d4>)
 801031e:	6821      	ldr	r1, [r4, #0]
 8010320:	46a0      	mov	r8, r4
 8010322:	6960      	ldr	r0, [r4, #20]
 8010324:	f002 fea3 	bl	801306e <ip4_addr_isbroadcast_u32>
 8010328:	4607      	mov	r7, r0
 801032a:	2800      	cmp	r0, #0
 801032c:	f040 80a3 	bne.w	8010476 <tcp_input+0x17e>
 8010330:	6963      	ldr	r3, [r4, #20]
 8010332:	f003 03f0 	and.w	r3, r3, #240	; 0xf0
 8010336:	2be0      	cmp	r3, #224	; 0xe0
 8010338:	f000 809d 	beq.w	8010476 <tcp_input+0x17e>
 801033c:	6833      	ldr	r3, [r6, #0]
 801033e:	8998      	ldrh	r0, [r3, #12]
 8010340:	f7fd f9ae 	bl	800d6a0 <lwip_htons>
 8010344:	0a81      	lsrs	r1, r0, #10
 8010346:	f001 01fc 	and.w	r1, r1, #252	; 0xfc
 801034a:	2913      	cmp	r1, #19
 801034c:	f240 8093 	bls.w	8010476 <tcp_input+0x17e>
 8010350:	b28a      	uxth	r2, r1
 8010352:	892b      	ldrh	r3, [r5, #8]
 8010354:	4293      	cmp	r3, r2
 8010356:	f0c0 808e 	bcc.w	8010476 <tcp_input+0x17e>
 801035a:	489d      	ldr	r0, [pc, #628]	; (80105d0 <tcp_input+0x2d8>)
 801035c:	f1a2 0314 	sub.w	r3, r2, #20
 8010360:	4c9c      	ldr	r4, [pc, #624]	; (80105d4 <tcp_input+0x2dc>)
 8010362:	6007      	str	r7, [r0, #0]
 8010364:	b29b      	uxth	r3, r3
 8010366:	896f      	ldrh	r7, [r5, #10]
 8010368:	8023      	strh	r3, [r4, #0]
 801036a:	4297      	cmp	r7, r2
 801036c:	f8df 92b0 	ldr.w	r9, [pc, #688]	; 8010620 <tcp_input+0x328>
 8010370:	4607      	mov	r7, r0
 8010372:	d345      	bcc.n	8010400 <tcp_input+0x108>
 8010374:	4628      	mov	r0, r5
 8010376:	f8a9 3000 	strh.w	r3, [r9]
 801037a:	f7fd feff 	bl	800e17c <pbuf_remove_header>
 801037e:	6834      	ldr	r4, [r6, #0]
 8010380:	4f95      	ldr	r7, [pc, #596]	; (80105d8 <tcp_input+0x2e0>)
 8010382:	8820      	ldrh	r0, [r4, #0]
 8010384:	f7fd f98c 	bl	800d6a0 <lwip_htons>
 8010388:	8020      	strh	r0, [r4, #0]
 801038a:	6834      	ldr	r4, [r6, #0]
 801038c:	8860      	ldrh	r0, [r4, #2]
 801038e:	f7fd f987 	bl	800d6a0 <lwip_htons>
 8010392:	8060      	strh	r0, [r4, #2]
 8010394:	6834      	ldr	r4, [r6, #0]
 8010396:	6860      	ldr	r0, [r4, #4]
 8010398:	f7fd f985 	bl	800d6a6 <lwip_htonl>
 801039c:	6060      	str	r0, [r4, #4]
 801039e:	6834      	ldr	r4, [r6, #0]
 80103a0:	6038      	str	r0, [r7, #0]
 80103a2:	68a0      	ldr	r0, [r4, #8]
 80103a4:	f7fd f97f 	bl	800d6a6 <lwip_htonl>
 80103a8:	f8d6 9000 	ldr.w	r9, [r6]
 80103ac:	60a0      	str	r0, [r4, #8]
 80103ae:	4c8b      	ldr	r4, [pc, #556]	; (80105dc <tcp_input+0x2e4>)
 80103b0:	6020      	str	r0, [r4, #0]
 80103b2:	46a2      	mov	sl, r4
 80103b4:	f8b9 000e 	ldrh.w	r0, [r9, #14]
 80103b8:	f7fd f972 	bl	800d6a0 <lwip_htons>
 80103bc:	6833      	ldr	r3, [r6, #0]
 80103be:	f8a9 000e 	strh.w	r0, [r9, #14]
 80103c2:	8998      	ldrh	r0, [r3, #12]
 80103c4:	f7fd f96c 	bl	800d6a0 <lwip_htons>
 80103c8:	4b85      	ldr	r3, [pc, #532]	; (80105e0 <tcp_input+0x2e8>)
 80103ca:	b2c0      	uxtb	r0, r0
 80103cc:	9705      	str	r7, [sp, #20]
 80103ce:	9306      	str	r3, [sp, #24]
 80103d0:	f000 023f 	and.w	r2, r0, #63	; 0x3f
 80103d4:	f010 0f03 	tst.w	r0, #3
 80103d8:	701a      	strb	r2, [r3, #0]
 80103da:	892a      	ldrh	r2, [r5, #8]
 80103dc:	d145      	bne.n	801046a <tcp_input+0x172>
 80103de:	4b81      	ldr	r3, [pc, #516]	; (80105e4 <tcp_input+0x2ec>)
 80103e0:	801a      	strh	r2, [r3, #0]
 80103e2:	4f81      	ldr	r7, [pc, #516]	; (80105e8 <tcp_input+0x2f0>)
 80103e4:	f04f 0900 	mov.w	r9, #0
 80103e8:	f8df b1d0 	ldr.w	fp, [pc, #464]	; 80105bc <tcp_input+0x2c4>
 80103ec:	683c      	ldr	r4, [r7, #0]
 80103ee:	2c00      	cmp	r4, #0
 80103f0:	d147      	bne.n	8010482 <tcp_input+0x18a>
 80103f2:	4b7e      	ldr	r3, [pc, #504]	; (80105ec <tcp_input+0x2f4>)
 80103f4:	4c71      	ldr	r4, [pc, #452]	; (80105bc <tcp_input+0x2c4>)
 80103f6:	f8d3 9000 	ldr.w	r9, [r3]
 80103fa:	f8df b1c8 	ldr.w	fp, [pc, #456]	; 80105c4 <tcp_input+0x2cc>
 80103fe:	e178      	b.n	80106f2 <tcp_input+0x3fa>
 8010400:	682b      	ldr	r3, [r5, #0]
 8010402:	b92b      	cbnz	r3, 8010410 <tcp_input+0x118>
 8010404:	4b6d      	ldr	r3, [pc, #436]	; (80105bc <tcp_input+0x2c4>)
 8010406:	22c2      	movs	r2, #194	; 0xc2
 8010408:	4979      	ldr	r1, [pc, #484]	; (80105f0 <tcp_input+0x2f8>)
 801040a:	486e      	ldr	r0, [pc, #440]	; (80105c4 <tcp_input+0x2cc>)
 801040c:	f003 fb6c 	bl	8013ae8 <iprintf>
 8010410:	2114      	movs	r1, #20
 8010412:	4628      	mov	r0, r5
 8010414:	f7fd feb2 	bl	800e17c <pbuf_remove_header>
 8010418:	8969      	ldrh	r1, [r5, #10]
 801041a:	8824      	ldrh	r4, [r4, #0]
 801041c:	4628      	mov	r0, r5
 801041e:	f8a9 1000 	strh.w	r1, [r9]
 8010422:	1a64      	subs	r4, r4, r1
 8010424:	f7fd feaa 	bl	800e17c <pbuf_remove_header>
 8010428:	6828      	ldr	r0, [r5, #0]
 801042a:	b2a4      	uxth	r4, r4
 801042c:	8943      	ldrh	r3, [r0, #10]
 801042e:	42a3      	cmp	r3, r4
 8010430:	d321      	bcc.n	8010476 <tcp_input+0x17e>
 8010432:	6843      	ldr	r3, [r0, #4]
 8010434:	4621      	mov	r1, r4
 8010436:	603b      	str	r3, [r7, #0]
 8010438:	f7fd fea0 	bl	800e17c <pbuf_remove_header>
 801043c:	892b      	ldrh	r3, [r5, #8]
 801043e:	1b1c      	subs	r4, r3, r4
 8010440:	896b      	ldrh	r3, [r5, #10]
 8010442:	812c      	strh	r4, [r5, #8]
 8010444:	b12b      	cbz	r3, 8010452 <tcp_input+0x15a>
 8010446:	4b5d      	ldr	r3, [pc, #372]	; (80105bc <tcp_input+0x2c4>)
 8010448:	22df      	movs	r2, #223	; 0xdf
 801044a:	496a      	ldr	r1, [pc, #424]	; (80105f4 <tcp_input+0x2fc>)
 801044c:	485d      	ldr	r0, [pc, #372]	; (80105c4 <tcp_input+0x2cc>)
 801044e:	f003 fb4b 	bl	8013ae8 <iprintf>
 8010452:	682b      	ldr	r3, [r5, #0]
 8010454:	892a      	ldrh	r2, [r5, #8]
 8010456:	891b      	ldrh	r3, [r3, #8]
 8010458:	429a      	cmp	r2, r3
 801045a:	d090      	beq.n	801037e <tcp_input+0x86>
 801045c:	4b57      	ldr	r3, [pc, #348]	; (80105bc <tcp_input+0x2c4>)
 801045e:	22e0      	movs	r2, #224	; 0xe0
 8010460:	4965      	ldr	r1, [pc, #404]	; (80105f8 <tcp_input+0x300>)
 8010462:	4858      	ldr	r0, [pc, #352]	; (80105c4 <tcp_input+0x2cc>)
 8010464:	f003 fb40 	bl	8013ae8 <iprintf>
 8010468:	e789      	b.n	801037e <tcp_input+0x86>
 801046a:	1c53      	adds	r3, r2, #1
 801046c:	495d      	ldr	r1, [pc, #372]	; (80105e4 <tcp_input+0x2ec>)
 801046e:	b29b      	uxth	r3, r3
 8010470:	429a      	cmp	r2, r3
 8010472:	800b      	strh	r3, [r1, #0]
 8010474:	d9b5      	bls.n	80103e2 <tcp_input+0xea>
 8010476:	4628      	mov	r0, r5
 8010478:	b009      	add	sp, #36	; 0x24
 801047a:	e8bd 4ff0 	ldmia.w	sp!, {r4, r5, r6, r7, r8, r9, sl, fp, lr}
 801047e:	f7fd beb1 	b.w	800e1e4 <pbuf_free>
 8010482:	7d23      	ldrb	r3, [r4, #20]
 8010484:	b92b      	cbnz	r3, 8010492 <tcp_input+0x19a>
 8010486:	465b      	mov	r3, fp
 8010488:	22fb      	movs	r2, #251	; 0xfb
 801048a:	495c      	ldr	r1, [pc, #368]	; (80105fc <tcp_input+0x304>)
 801048c:	484d      	ldr	r0, [pc, #308]	; (80105c4 <tcp_input+0x2cc>)
 801048e:	f003 fb2b 	bl	8013ae8 <iprintf>
 8010492:	7d23      	ldrb	r3, [r4, #20]
 8010494:	2b0a      	cmp	r3, #10
 8010496:	d105      	bne.n	80104a4 <tcp_input+0x1ac>
 8010498:	465b      	mov	r3, fp
 801049a:	22fc      	movs	r2, #252	; 0xfc
 801049c:	4958      	ldr	r1, [pc, #352]	; (8010600 <tcp_input+0x308>)
 801049e:	4849      	ldr	r0, [pc, #292]	; (80105c4 <tcp_input+0x2cc>)
 80104a0:	f003 fb22 	bl	8013ae8 <iprintf>
 80104a4:	7d23      	ldrb	r3, [r4, #20]
 80104a6:	2b01      	cmp	r3, #1
 80104a8:	d105      	bne.n	80104b6 <tcp_input+0x1be>
 80104aa:	465b      	mov	r3, fp
 80104ac:	22fd      	movs	r2, #253	; 0xfd
 80104ae:	4955      	ldr	r1, [pc, #340]	; (8010604 <tcp_input+0x30c>)
 80104b0:	4844      	ldr	r0, [pc, #272]	; (80105c4 <tcp_input+0x2cc>)
 80104b2:	f003 fb19 	bl	8013ae8 <iprintf>
 80104b6:	7a21      	ldrb	r1, [r4, #8]
 80104b8:	68e2      	ldr	r2, [r4, #12]
 80104ba:	b141      	cbz	r1, 80104ce <tcp_input+0x1d6>
 80104bc:	f8d8 3004 	ldr.w	r3, [r8, #4]
 80104c0:	f893 3030 	ldrb.w	r3, [r3, #48]	; 0x30
 80104c4:	3301      	adds	r3, #1
 80104c6:	b2db      	uxtb	r3, r3
 80104c8:	4299      	cmp	r1, r3
 80104ca:	f040 80ad 	bne.w	8010628 <tcp_input+0x330>
 80104ce:	6833      	ldr	r3, [r6, #0]
 80104d0:	8b20      	ldrh	r0, [r4, #24]
 80104d2:	8819      	ldrh	r1, [r3, #0]
 80104d4:	4288      	cmp	r0, r1
 80104d6:	f040 80a7 	bne.w	8010628 <tcp_input+0x330>
 80104da:	8ae1      	ldrh	r1, [r4, #22]
 80104dc:	885b      	ldrh	r3, [r3, #2]
 80104de:	4299      	cmp	r1, r3
 80104e0:	f040 80a2 	bne.w	8010628 <tcp_input+0x330>
 80104e4:	6861      	ldr	r1, [r4, #4]
 80104e6:	f8d8 3010 	ldr.w	r3, [r8, #16]
 80104ea:	4299      	cmp	r1, r3
 80104ec:	f040 809c 	bne.w	8010628 <tcp_input+0x330>
 80104f0:	6821      	ldr	r1, [r4, #0]
 80104f2:	f8d8 3014 	ldr.w	r3, [r8, #20]
 80104f6:	4299      	cmp	r1, r3
 80104f8:	f040 8096 	bne.w	8010628 <tcp_input+0x330>
 80104fc:	42a2      	cmp	r2, r4
 80104fe:	f040 8453 	bne.w	8010da8 <tcp_input+0xab0>
 8010502:	4b2e      	ldr	r3, [pc, #184]	; (80105bc <tcp_input+0x2c4>)
 8010504:	f240 120d 	movw	r2, #269	; 0x10d
 8010508:	493f      	ldr	r1, [pc, #252]	; (8010608 <tcp_input+0x310>)
 801050a:	482e      	ldr	r0, [pc, #184]	; (80105c4 <tcp_input+0x2cc>)
 801050c:	f003 faec 	bl	8013ae8 <iprintf>
 8010510:	f1b9 0f00 	cmp.w	r9, #0
 8010514:	d005      	beq.n	8010522 <tcp_input+0x22a>
 8010516:	68e3      	ldr	r3, [r4, #12]
 8010518:	f8c9 300c 	str.w	r3, [r9, #12]
 801051c:	683b      	ldr	r3, [r7, #0]
 801051e:	603c      	str	r4, [r7, #0]
 8010520:	60e3      	str	r3, [r4, #12]
 8010522:	68e3      	ldr	r3, [r4, #12]
 8010524:	42a3      	cmp	r3, r4
 8010526:	d106      	bne.n	8010536 <tcp_input+0x23e>
 8010528:	4b24      	ldr	r3, [pc, #144]	; (80105bc <tcp_input+0x2c4>)
 801052a:	f240 1215 	movw	r2, #277	; 0x115
 801052e:	4937      	ldr	r1, [pc, #220]	; (801060c <tcp_input+0x314>)
 8010530:	4824      	ldr	r0, [pc, #144]	; (80105c4 <tcp_input+0x2cc>)
 8010532:	f003 fad9 	bl	8013ae8 <iprintf>
 8010536:	4b36      	ldr	r3, [pc, #216]	; (8010610 <tcp_input+0x318>)
 8010538:	2200      	movs	r2, #0
 801053a:	8929      	ldrh	r1, [r5, #8]
 801053c:	4835      	ldr	r0, [pc, #212]	; (8010614 <tcp_input+0x31c>)
 801053e:	8119      	strh	r1, [r3, #8]
 8010540:	6831      	ldr	r1, [r6, #0]
 8010542:	4681      	mov	r9, r0
 8010544:	f8df 80dc 	ldr.w	r8, [pc, #220]	; 8010624 <tcp_input+0x32c>
 8010548:	60d9      	str	r1, [r3, #12]
 801054a:	4933      	ldr	r1, [pc, #204]	; (8010618 <tcp_input+0x320>)
 801054c:	601a      	str	r2, [r3, #0]
 801054e:	600a      	str	r2, [r1, #0]
 8010550:	468b      	mov	fp, r1
 8010552:	f888 2000 	strb.w	r2, [r8]
 8010556:	8002      	strh	r2, [r0, #0]
 8010558:	9a06      	ldr	r2, [sp, #24]
 801055a:	605d      	str	r5, [r3, #4]
 801055c:	7812      	ldrb	r2, [r2, #0]
 801055e:	9307      	str	r3, [sp, #28]
 8010560:	f012 0f08 	tst.w	r2, #8
 8010564:	d003      	beq.n	801056e <tcp_input+0x276>
 8010566:	7b6b      	ldrb	r3, [r5, #13]
 8010568:	f043 0301 	orr.w	r3, r3, #1
 801056c:	736b      	strb	r3, [r5, #13]
 801056e:	6fa3      	ldr	r3, [r4, #120]	; 0x78
 8010570:	4d2a      	ldr	r5, [pc, #168]	; (801061c <tcp_input+0x324>)
 8010572:	2b00      	cmp	r3, #0
 8010574:	f000 8163 	beq.w	801083e <tcp_input+0x546>
 8010578:	4620      	mov	r0, r4
 801057a:	f7fe fe9b 	bl	800f2b4 <tcp_process_refused_data>
 801057e:	300d      	adds	r0, #13
 8010580:	d008      	beq.n	8010594 <tcp_input+0x29c>
 8010582:	6fa3      	ldr	r3, [r4, #120]	; 0x78
 8010584:	2b00      	cmp	r3, #0
 8010586:	f000 815a 	beq.w	801083e <tcp_input+0x546>
 801058a:	4b16      	ldr	r3, [pc, #88]	; (80105e4 <tcp_input+0x2ec>)
 801058c:	881b      	ldrh	r3, [r3, #0]
 801058e:	2b00      	cmp	r3, #0
 8010590:	f000 8155 	beq.w	801083e <tcp_input+0x546>
 8010594:	8d63      	ldrh	r3, [r4, #42]	; 0x2a
 8010596:	b913      	cbnz	r3, 801059e <tcp_input+0x2a6>
 8010598:	4620      	mov	r0, r4
 801059a:	f001 facb 	bl	8011b34 <tcp_send_empty_ack>
 801059e:	9b07      	ldr	r3, [sp, #28]
 80105a0:	2400      	movs	r4, #0
 80105a2:	6858      	ldr	r0, [r3, #4]
 80105a4:	602c      	str	r4, [r5, #0]
 80105a6:	f8cb 4000 	str.w	r4, [fp]
 80105aa:	b118      	cbz	r0, 80105b4 <tcp_input+0x2bc>
 80105ac:	f7fd fe1a 	bl	800e1e4 <pbuf_free>
 80105b0:	9b07      	ldr	r3, [sp, #28]
 80105b2:	605c      	str	r4, [r3, #4]
 80105b4:	b009      	add	sp, #36	; 0x24
 80105b6:	e8bd 8ff0 	ldmia.w	sp!, {r4, r5, r6, r7, r8, r9, sl, fp, pc}
 80105ba:	bf00      	nop
 80105bc:	080267e8 	.word	0x080267e8
 80105c0:	080265f5 	.word	0x080265f5
 80105c4:	08014a3b 	.word	0x08014a3b
 80105c8:	20004540 	.word	0x20004540
 80105cc:	20007c2c 	.word	0x20007c2c
 80105d0:	20004548 	.word	0x20004548
 80105d4:	2000454c 	.word	0x2000454c
 80105d8:	20004538 	.word	0x20004538
 80105dc:	20004514 	.word	0x20004514
 80105e0:	20004518 	.word	0x20004518
 80105e4:	2000454e 	.word	0x2000454e
 80105e8:	2000b334 	.word	0x2000b334
 80105ec:	2000b344 	.word	0x2000b344
 80105f0:	0802660d 	.word	0x0802660d
 80105f4:	0802661d 	.word	0x0802661d
 80105f8:	08026629 	.word	0x08026629
 80105fc:	08026648 	.word	0x08026648
 8010600:	0802666f 	.word	0x0802666f
 8010604:	08026699 	.word	0x08026699
 8010608:	080266c0 	.word	0x080266c0
 801060c:	080266eb 	.word	0x080266eb
 8010610:	2000451c 	.word	0x2000451c
 8010614:	2000452c 	.word	0x2000452c
 8010618:	20004530 	.word	0x20004530
 801061c:	2000b348 	.word	0x2000b348
 8010620:	20004544 	.word	0x20004544
 8010624:	20004534 	.word	0x20004534
 8010628:	46a1      	mov	r9, r4
 801062a:	4614      	mov	r4, r2
 801062c:	e6df      	b.n	80103ee <tcp_input+0xf6>
 801062e:	f899 3014 	ldrb.w	r3, [r9, #20]
 8010632:	2b0a      	cmp	r3, #10
 8010634:	d006      	beq.n	8010644 <tcp_input+0x34c>
 8010636:	4623      	mov	r3, r4
 8010638:	f240 121f 	movw	r2, #287	; 0x11f
 801063c:	49a6      	ldr	r1, [pc, #664]	; (80108d8 <tcp_input+0x5e0>)
 801063e:	4658      	mov	r0, fp
 8010640:	f003 fa52 	bl	8013ae8 <iprintf>
 8010644:	f899 2008 	ldrb.w	r2, [r9, #8]
 8010648:	b13a      	cbz	r2, 801065a <tcp_input+0x362>
 801064a:	f8d8 3004 	ldr.w	r3, [r8, #4]
 801064e:	f893 3030 	ldrb.w	r3, [r3, #48]	; 0x30
 8010652:	3301      	adds	r3, #1
 8010654:	b2db      	uxtb	r3, r3
 8010656:	429a      	cmp	r2, r3
 8010658:	d149      	bne.n	80106ee <tcp_input+0x3f6>
 801065a:	6833      	ldr	r3, [r6, #0]
 801065c:	f8b9 2018 	ldrh.w	r2, [r9, #24]
 8010660:	8818      	ldrh	r0, [r3, #0]
 8010662:	4290      	cmp	r0, r2
 8010664:	d143      	bne.n	80106ee <tcp_input+0x3f6>
 8010666:	f8b9 2016 	ldrh.w	r2, [r9, #22]
 801066a:	8859      	ldrh	r1, [r3, #2]
 801066c:	4291      	cmp	r1, r2
 801066e:	d13e      	bne.n	80106ee <tcp_input+0x3f6>
 8010670:	f8d9 2004 	ldr.w	r2, [r9, #4]
 8010674:	f8d8 3010 	ldr.w	r3, [r8, #16]
 8010678:	429a      	cmp	r2, r3
 801067a:	d138      	bne.n	80106ee <tcp_input+0x3f6>
 801067c:	f8d9 2000 	ldr.w	r2, [r9]
 8010680:	f8d8 3014 	ldr.w	r3, [r8, #20]
 8010684:	429a      	cmp	r2, r3
 8010686:	d132      	bne.n	80106ee <tcp_input+0x3f6>
 8010688:	9b06      	ldr	r3, [sp, #24]
 801068a:	781b      	ldrb	r3, [r3, #0]
 801068c:	075f      	lsls	r7, r3, #29
 801068e:	f53f aef2 	bmi.w	8010476 <tcp_input+0x17e>
 8010692:	4a92      	ldr	r2, [pc, #584]	; (80108dc <tcp_input+0x5e4>)
 8010694:	079e      	lsls	r6, r3, #30
 8010696:	8814      	ldrh	r4, [r2, #0]
 8010698:	d516      	bpl.n	80106c8 <tcp_input+0x3d0>
 801069a:	9b05      	ldr	r3, [sp, #20]
 801069c:	681a      	ldr	r2, [r3, #0]
 801069e:	f8d9 3024 	ldr.w	r3, [r9, #36]	; 0x24
 80106a2:	1ad3      	subs	r3, r2, r3
 80106a4:	d416      	bmi.n	80106d4 <tcp_input+0x3dc>
 80106a6:	f8b9 6028 	ldrh.w	r6, [r9, #40]	; 0x28
 80106aa:	1b9b      	subs	r3, r3, r6
 80106ac:	2b00      	cmp	r3, #0
 80106ae:	dc11      	bgt.n	80106d4 <tcp_input+0x3dc>
 80106b0:	4b8b      	ldr	r3, [pc, #556]	; (80108e0 <tcp_input+0x5e8>)
 80106b2:	4422      	add	r2, r4
 80106b4:	e9cd 1001 	strd	r1, r0, [sp, #4]
 80106b8:	9300      	str	r3, [sp, #0]
 80106ba:	4648      	mov	r0, r9
 80106bc:	3304      	adds	r3, #4
 80106be:	f8da 1000 	ldr.w	r1, [sl]
 80106c2:	f001 f9f3 	bl	8011aac <tcp_rst>
 80106c6:	e6d6      	b.n	8010476 <tcp_input+0x17e>
 80106c8:	07d9      	lsls	r1, r3, #31
 80106ca:	bf42      	ittt	mi
 80106cc:	4b85      	ldrmi	r3, [pc, #532]	; (80108e4 <tcp_input+0x5ec>)
 80106ce:	681b      	ldrmi	r3, [r3, #0]
 80106d0:	f8c9 3020 	strmi.w	r3, [r9, #32]
 80106d4:	2c00      	cmp	r4, #0
 80106d6:	f43f aece 	beq.w	8010476 <tcp_input+0x17e>
 80106da:	f8b9 301a 	ldrh.w	r3, [r9, #26]
 80106de:	4648      	mov	r0, r9
 80106e0:	f043 0302 	orr.w	r3, r3, #2
 80106e4:	f8a9 301a 	strh.w	r3, [r9, #26]
 80106e8:	f001 fa56 	bl	8011b98 <tcp_output>
 80106ec:	e6c3      	b.n	8010476 <tcp_input+0x17e>
 80106ee:	f8d9 900c 	ldr.w	r9, [r9, #12]
 80106f2:	f1b9 0f00 	cmp.w	r9, #0
 80106f6:	d19a      	bne.n	801062e <tcp_input+0x336>
 80106f8:	4b7b      	ldr	r3, [pc, #492]	; (80108e8 <tcp_input+0x5f0>)
 80106fa:	f8d8 c004 	ldr.w	ip, [r8, #4]
 80106fe:	681a      	ldr	r2, [r3, #0]
 8010700:	6831      	ldr	r1, [r6, #0]
 8010702:	f8d8 e014 	ldr.w	lr, [r8, #20]
 8010706:	4614      	mov	r4, r2
 8010708:	b99c      	cbnz	r4, 8010732 <tcp_input+0x43a>
 801070a:	8988      	ldrh	r0, [r1, #12]
 801070c:	f7fc ffc8 	bl	800d6a0 <lwip_htons>
 8010710:	0743      	lsls	r3, r0, #29
 8010712:	f53f aeb0 	bmi.w	8010476 <tcp_input+0x17e>
 8010716:	6833      	ldr	r3, [r6, #0]
 8010718:	4a70      	ldr	r2, [pc, #448]	; (80108dc <tcp_input+0x5e4>)
 801071a:	8818      	ldrh	r0, [r3, #0]
 801071c:	8811      	ldrh	r1, [r2, #0]
 801071e:	9a05      	ldr	r2, [sp, #20]
 8010720:	6812      	ldr	r2, [r2, #0]
 8010722:	9002      	str	r0, [sp, #8]
 8010724:	885b      	ldrh	r3, [r3, #2]
 8010726:	440a      	add	r2, r1
 8010728:	9301      	str	r3, [sp, #4]
 801072a:	4b6d      	ldr	r3, [pc, #436]	; (80108e0 <tcp_input+0x5e8>)
 801072c:	9300      	str	r3, [sp, #0]
 801072e:	3304      	adds	r3, #4
 8010730:	e336      	b.n	8010da0 <tcp_input+0xaa8>
 8010732:	7a20      	ldrb	r0, [r4, #8]
 8010734:	b128      	cbz	r0, 8010742 <tcp_input+0x44a>
 8010736:	f89c 3030 	ldrb.w	r3, [ip, #48]	; 0x30
 801073a:	3301      	adds	r3, #1
 801073c:	b2db      	uxtb	r3, r3
 801073e:	4298      	cmp	r0, r3
 8010740:	d10a      	bne.n	8010758 <tcp_input+0x460>
 8010742:	8ae0      	ldrh	r0, [r4, #22]
 8010744:	884b      	ldrh	r3, [r1, #2]
 8010746:	4283      	cmp	r3, r0
 8010748:	d106      	bne.n	8010758 <tcp_input+0x460>
 801074a:	6823      	ldr	r3, [r4, #0]
 801074c:	4573      	cmp	r3, lr
 801074e:	f000 830a 	beq.w	8010d66 <tcp_input+0xa6e>
 8010752:	2b00      	cmp	r3, #0
 8010754:	f000 8307 	beq.w	8010d66 <tcp_input+0xa6e>
 8010758:	46a1      	mov	r9, r4
 801075a:	68e4      	ldr	r4, [r4, #12]
 801075c:	e7d4      	b.n	8010708 <tcp_input+0x410>
 801075e:	079b      	lsls	r3, r3, #30
 8010760:	f57f ae89 	bpl.w	8010476 <tcp_input+0x17e>
 8010764:	7d60      	ldrb	r0, [r4, #21]
 8010766:	f7fe fc13 	bl	800ef90 <tcp_alloc>
 801076a:	4682      	mov	sl, r0
 801076c:	b948      	cbnz	r0, 8010782 <tcp_input+0x48a>
 801076e:	69a3      	ldr	r3, [r4, #24]
 8010770:	2b00      	cmp	r3, #0
 8010772:	f43f ae80 	beq.w	8010476 <tcp_input+0x17e>
 8010776:	4601      	mov	r1, r0
 8010778:	f04f 32ff 	mov.w	r2, #4294967295	; 0xffffffff
 801077c:	6920      	ldr	r0, [r4, #16]
 801077e:	4798      	blx	r3
 8010780:	e679      	b.n	8010476 <tcp_input+0x17e>
 8010782:	f8d8 3014 	ldr.w	r3, [r8, #20]
 8010786:	6832      	ldr	r2, [r6, #0]
 8010788:	6003      	str	r3, [r0, #0]
 801078a:	f8d8 3010 	ldr.w	r3, [r8, #16]
 801078e:	6043      	str	r3, [r0, #4]
 8010790:	8ae3      	ldrh	r3, [r4, #22]
 8010792:	82c3      	strh	r3, [r0, #22]
 8010794:	7813      	ldrb	r3, [r2, #0]
 8010796:	7852      	ldrb	r2, [r2, #1]
 8010798:	ea43 2302 	orr.w	r3, r3, r2, lsl #8
 801079c:	8303      	strh	r3, [r0, #24]
 801079e:	2303      	movs	r3, #3
 80107a0:	7503      	strb	r3, [r0, #20]
 80107a2:	9b05      	ldr	r3, [sp, #20]
 80107a4:	681b      	ldr	r3, [r3, #0]
 80107a6:	3301      	adds	r3, #1
 80107a8:	6243      	str	r3, [r0, #36]	; 0x24
 80107aa:	62c3      	str	r3, [r0, #44]	; 0x2c
 80107ac:	f7fe fa1c 	bl	800ebe8 <tcp_next_iss>
 80107b0:	9b05      	ldr	r3, [sp, #20]
 80107b2:	f8ca 0058 	str.w	r0, [sl, #88]	; 0x58
 80107b6:	681b      	ldr	r3, [r3, #0]
 80107b8:	f8ca 0050 	str.w	r0, [sl, #80]	; 0x50
 80107bc:	3b01      	subs	r3, #1
 80107be:	f8ca 0044 	str.w	r0, [sl, #68]	; 0x44
 80107c2:	f8ca 005c 	str.w	r0, [sl, #92]	; 0x5c
 80107c6:	f8ca 3054 	str.w	r3, [sl, #84]	; 0x54
 80107ca:	6923      	ldr	r3, [r4, #16]
 80107cc:	f8ca 407c 	str.w	r4, [sl, #124]	; 0x7c
 80107d0:	f8ca 3010 	str.w	r3, [sl, #16]
 80107d4:	7a63      	ldrb	r3, [r4, #9]
 80107d6:	f003 030c 	and.w	r3, r3, #12
 80107da:	f88a 3009 	strb.w	r3, [sl, #9]
 80107de:	7a23      	ldrb	r3, [r4, #8]
 80107e0:	f10a 0404 	add.w	r4, sl, #4
 80107e4:	f88a 3008 	strb.w	r3, [sl, #8]
 80107e8:	683b      	ldr	r3, [r7, #0]
 80107ea:	f8c7 a000 	str.w	sl, [r7]
 80107ee:	f8ca 300c 	str.w	r3, [sl, #12]
 80107f2:	f001 fca7 	bl	8012144 <tcp_timer_needed>
 80107f6:	2201      	movs	r2, #1
 80107f8:	4b3c      	ldr	r3, [pc, #240]	; (80108ec <tcp_input+0x5f4>)
 80107fa:	4650      	mov	r0, sl
 80107fc:	701a      	strb	r2, [r3, #0]
 80107fe:	f7ff f883 	bl	800f908 <tcp_parseopt>
 8010802:	6833      	ldr	r3, [r6, #0]
 8010804:	4620      	mov	r0, r4
 8010806:	f8ba 6032 	ldrh.w	r6, [sl, #50]	; 0x32
 801080a:	89db      	ldrh	r3, [r3, #14]
 801080c:	f8aa 3060 	strh.w	r3, [sl, #96]	; 0x60
 8010810:	f8aa 3062 	strh.w	r3, [sl, #98]	; 0x62
 8010814:	f002 fabc 	bl	8012d90 <ip4_route>
 8010818:	4622      	mov	r2, r4
 801081a:	4601      	mov	r1, r0
 801081c:	4630      	mov	r0, r6
 801081e:	f7fe f9fd 	bl	800ec1c <tcp_eff_send_mss_netif>
 8010822:	2112      	movs	r1, #18
 8010824:	f8aa 0032 	strh.w	r0, [sl, #50]	; 0x32
 8010828:	4650      	mov	r0, sl
 801082a:	f000 ffbd 	bl	80117a8 <tcp_enqueue_flags>
 801082e:	b120      	cbz	r0, 801083a <tcp_input+0x542>
 8010830:	4649      	mov	r1, r9
 8010832:	4650      	mov	r0, sl
 8010834:	f7fe fab0 	bl	800ed98 <tcp_abandon>
 8010838:	e61d      	b.n	8010476 <tcp_input+0x17e>
 801083a:	4650      	mov	r0, sl
 801083c:	e754      	b.n	80106e8 <tcp_input+0x3f0>
 801083e:	9b06      	ldr	r3, [sp, #24]
 8010840:	602c      	str	r4, [r5, #0]
 8010842:	781a      	ldrb	r2, [r3, #0]
 8010844:	0750      	lsls	r0, r2, #29
 8010846:	d53c      	bpl.n	80108c2 <tcp_input+0x5ca>
 8010848:	7d21      	ldrb	r1, [r4, #20]
 801084a:	2902      	cmp	r1, #2
 801084c:	d122      	bne.n	8010894 <tcp_input+0x59c>
 801084e:	6d22      	ldr	r2, [r4, #80]	; 0x50
 8010850:	f8da 3000 	ldr.w	r3, [sl]
 8010854:	429a      	cmp	r2, r3
 8010856:	d109      	bne.n	801086c <tcp_input+0x574>
 8010858:	f898 3000 	ldrb.w	r3, [r8]
 801085c:	f043 0308 	orr.w	r3, r3, #8
 8010860:	f888 3000 	strb.w	r3, [r8]
 8010864:	8b63      	ldrh	r3, [r4, #26]
 8010866:	f023 0301 	bic.w	r3, r3, #1
 801086a:	8363      	strh	r3, [r4, #26]
 801086c:	f898 3000 	ldrb.w	r3, [r8]
 8010870:	0719      	lsls	r1, r3, #28
 8010872:	f140 8211 	bpl.w	8010c98 <tcp_input+0x9a0>
 8010876:	f8d4 3090 	ldr.w	r3, [r4, #144]	; 0x90
 801087a:	b11b      	cbz	r3, 8010884 <tcp_input+0x58c>
 801087c:	f06f 010d 	mvn.w	r1, #13
 8010880:	6920      	ldr	r0, [r4, #16]
 8010882:	4798      	blx	r3
 8010884:	4621      	mov	r1, r4
 8010886:	481a      	ldr	r0, [pc, #104]	; (80108f0 <tcp_input+0x5f8>)
 8010888:	f7fe fa22 	bl	800ecd0 <tcp_pcb_remove>
 801088c:	4620      	mov	r0, r4
 801088e:	f7fd ffa1 	bl	800e7d4 <tcp_free>
 8010892:	e684      	b.n	801059e <tcp_input+0x2a6>
 8010894:	9b05      	ldr	r3, [sp, #20]
 8010896:	6a62      	ldr	r2, [r4, #36]	; 0x24
 8010898:	681b      	ldr	r3, [r3, #0]
 801089a:	429a      	cmp	r2, r3
 801089c:	d007      	beq.n	80108ae <tcp_input+0x5b6>
 801089e:	1a9b      	subs	r3, r3, r2
 80108a0:	d4e4      	bmi.n	801086c <tcp_input+0x574>
 80108a2:	8d22      	ldrh	r2, [r4, #40]	; 0x28
 80108a4:	1a9b      	subs	r3, r3, r2
 80108a6:	2b00      	cmp	r3, #0
 80108a8:	dce0      	bgt.n	801086c <tcp_input+0x574>
 80108aa:	8b63      	ldrh	r3, [r4, #26]
 80108ac:	e010      	b.n	80108d0 <tcp_input+0x5d8>
 80108ae:	2900      	cmp	r1, #0
 80108b0:	d1d2      	bne.n	8010858 <tcp_input+0x560>
 80108b2:	4b10      	ldr	r3, [pc, #64]	; (80108f4 <tcp_input+0x5fc>)
 80108b4:	f44f 724e 	mov.w	r2, #824	; 0x338
 80108b8:	490f      	ldr	r1, [pc, #60]	; (80108f8 <tcp_input+0x600>)
 80108ba:	4810      	ldr	r0, [pc, #64]	; (80108fc <tcp_input+0x604>)
 80108bc:	f003 f914 	bl	8013ae8 <iprintf>
 80108c0:	e7ca      	b.n	8010858 <tcp_input+0x560>
 80108c2:	0791      	lsls	r1, r2, #30
 80108c4:	8b63      	ldrh	r3, [r4, #26]
 80108c6:	d51b      	bpl.n	8010900 <tcp_input+0x608>
 80108c8:	7d22      	ldrb	r2, [r4, #20]
 80108ca:	3a02      	subs	r2, #2
 80108cc:	2a01      	cmp	r2, #1
 80108ce:	d917      	bls.n	8010900 <tcp_input+0x608>
 80108d0:	f043 0302 	orr.w	r3, r3, #2
 80108d4:	e7c9      	b.n	801086a <tcp_input+0x572>
 80108d6:	bf00      	nop
 80108d8:	08026715 	.word	0x08026715
 80108dc:	2000454e 	.word	0x2000454e
 80108e0:	20007c3c 	.word	0x20007c3c
 80108e4:	2000b338 	.word	0x2000b338
 80108e8:	2000b33c 	.word	0x2000b33c
 80108ec:	2000b330 	.word	0x2000b330
 80108f0:	2000b334 	.word	0x2000b334
 80108f4:	080267e8 	.word	0x080267e8
 80108f8:	08026742 	.word	0x08026742
 80108fc:	08014a3b 	.word	0x08014a3b
 8010900:	06da      	lsls	r2, r3, #27
 8010902:	4620      	mov	r0, r4
 8010904:	bf5e      	ittt	pl
 8010906:	4ba2      	ldrpl	r3, [pc, #648]	; (8010b90 <tcp_input+0x898>)
 8010908:	681b      	ldrpl	r3, [r3, #0]
 801090a:	6223      	strpl	r3, [r4, #32]
 801090c:	2300      	movs	r3, #0
 801090e:	f8a4 309a 	strh.w	r3, [r4, #154]	; 0x9a
 8010912:	f7fe fff9 	bl	800f908 <tcp_parseopt>
 8010916:	7d23      	ldrb	r3, [r4, #20]
 8010918:	3b02      	subs	r3, #2
 801091a:	2b07      	cmp	r3, #7
 801091c:	d8a6      	bhi.n	801086c <tcp_input+0x574>
 801091e:	e8df f013 	tbh	[pc, r3, lsl #1]
 8010922:	0008      	.short	0x0008
 8010924:	010b0099 	.word	0x010b0099
 8010928:	016a010f 	.word	0x016a010f
 801092c:	0183010b 	.word	0x0183010b
 8010930:	01a2      	.short	0x01a2
 8010932:	9b06      	ldr	r3, [sp, #24]
 8010934:	781b      	ldrb	r3, [r3, #0]
 8010936:	f003 0212 	and.w	r2, r3, #18
 801093a:	2a12      	cmp	r2, #18
 801093c:	d16a      	bne.n	8010a14 <tcp_input+0x71c>
 801093e:	6c62      	ldr	r2, [r4, #68]	; 0x44
 8010940:	f8da 1000 	ldr.w	r1, [sl]
 8010944:	3201      	adds	r2, #1
 8010946:	428a      	cmp	r2, r1
 8010948:	d164      	bne.n	8010a14 <tcp_input+0x71c>
 801094a:	9b05      	ldr	r3, [sp, #20]
 801094c:	6462      	str	r2, [r4, #68]	; 0x44
 801094e:	681b      	ldr	r3, [r3, #0]
 8010950:	6832      	ldr	r2, [r6, #0]
 8010952:	1c59      	adds	r1, r3, #1
 8010954:	3b01      	subs	r3, #1
 8010956:	8e67      	ldrh	r7, [r4, #50]	; 0x32
 8010958:	6261      	str	r1, [r4, #36]	; 0x24
 801095a:	62e1      	str	r1, [r4, #44]	; 0x2c
 801095c:	89d2      	ldrh	r2, [r2, #14]
 801095e:	6563      	str	r3, [r4, #84]	; 0x54
 8010960:	2304      	movs	r3, #4
 8010962:	f8a4 2060 	strh.w	r2, [r4, #96]	; 0x60
 8010966:	18e6      	adds	r6, r4, r3
 8010968:	7523      	strb	r3, [r4, #20]
 801096a:	f8a4 2062 	strh.w	r2, [r4, #98]	; 0x62
 801096e:	4630      	mov	r0, r6
 8010970:	f002 fa0e 	bl	8012d90 <ip4_route>
 8010974:	4632      	mov	r2, r6
 8010976:	4601      	mov	r1, r0
 8010978:	4638      	mov	r0, r7
 801097a:	f7fe f94f 	bl	800ec1c <tcp_eff_send_mss_netif>
 801097e:	8660      	strh	r0, [r4, #50]	; 0x32
 8010980:	0042      	lsls	r2, r0, #1
 8010982:	0083      	lsls	r3, r0, #2
 8010984:	f241 101c 	movw	r0, #4380	; 0x111c
 8010988:	4611      	mov	r1, r2
 801098a:	4282      	cmp	r2, r0
 801098c:	bf38      	it	cc
 801098e:	4601      	movcc	r1, r0
 8010990:	428b      	cmp	r3, r1
 8010992:	d233      	bcs.n	80109fc <tcp_input+0x704>
 8010994:	b298      	uxth	r0, r3
 8010996:	f8b4 3066 	ldrh.w	r3, [r4, #102]	; 0x66
 801099a:	f8a4 0048 	strh.w	r0, [r4, #72]	; 0x48
 801099e:	b933      	cbnz	r3, 80109ae <tcp_input+0x6b6>
 80109a0:	4b7c      	ldr	r3, [pc, #496]	; (8010b94 <tcp_input+0x89c>)
 80109a2:	f44f 725b 	mov.w	r2, #876	; 0x36c
 80109a6:	497c      	ldr	r1, [pc, #496]	; (8010b98 <tcp_input+0x8a0>)
 80109a8:	487c      	ldr	r0, [pc, #496]	; (8010b9c <tcp_input+0x8a4>)
 80109aa:	f003 f89d 	bl	8013ae8 <iprintf>
 80109ae:	f8b4 3066 	ldrh.w	r3, [r4, #102]	; 0x66
 80109b2:	6f26      	ldr	r6, [r4, #112]	; 0x70
 80109b4:	3b01      	subs	r3, #1
 80109b6:	f8a4 3066 	strh.w	r3, [r4, #102]	; 0x66
 80109ba:	bb1e      	cbnz	r6, 8010a04 <tcp_input+0x70c>
 80109bc:	6ee6      	ldr	r6, [r4, #108]	; 0x6c
 80109be:	b936      	cbnz	r6, 80109ce <tcp_input+0x6d6>
 80109c0:	4b74      	ldr	r3, [pc, #464]	; (8010b94 <tcp_input+0x89c>)
 80109c2:	f44f 725d 	mov.w	r2, #884	; 0x374
 80109c6:	4976      	ldr	r1, [pc, #472]	; (8010ba0 <tcp_input+0x8a8>)
 80109c8:	4874      	ldr	r0, [pc, #464]	; (8010b9c <tcp_input+0x8a4>)
 80109ca:	f003 f88d 	bl	8013ae8 <iprintf>
 80109ce:	6833      	ldr	r3, [r6, #0]
 80109d0:	66e3      	str	r3, [r4, #108]	; 0x6c
 80109d2:	4630      	mov	r0, r6
 80109d4:	f7fe f848 	bl	800ea68 <tcp_seg_free>
 80109d8:	6f23      	ldr	r3, [r4, #112]	; 0x70
 80109da:	b9b3      	cbnz	r3, 8010a0a <tcp_input+0x712>
 80109dc:	f64f 73ff 	movw	r3, #65535	; 0xffff
 80109e0:	8623      	strh	r3, [r4, #48]	; 0x30
 80109e2:	f8d4 3088 	ldr.w	r3, [r4, #136]	; 0x88
 80109e6:	2b00      	cmp	r3, #0
 80109e8:	f43f af5f 	beq.w	80108aa <tcp_input+0x5b2>
 80109ec:	2200      	movs	r2, #0
 80109ee:	4621      	mov	r1, r4
 80109f0:	6920      	ldr	r0, [r4, #16]
 80109f2:	4798      	blx	r3
 80109f4:	300d      	adds	r0, #13
 80109f6:	f47f af58 	bne.w	80108aa <tcp_input+0x5b2>
 80109fa:	e5d0      	b.n	801059e <tcp_input+0x2a6>
 80109fc:	4282      	cmp	r2, r0
 80109fe:	bf88      	it	hi
 8010a00:	b290      	uxthhi	r0, r2
 8010a02:	e7c8      	b.n	8010996 <tcp_input+0x69e>
 8010a04:	6833      	ldr	r3, [r6, #0]
 8010a06:	6723      	str	r3, [r4, #112]	; 0x70
 8010a08:	e7e3      	b.n	80109d2 <tcp_input+0x6da>
 8010a0a:	2300      	movs	r3, #0
 8010a0c:	8623      	strh	r3, [r4, #48]	; 0x30
 8010a0e:	f884 3042 	strb.w	r3, [r4, #66]	; 0x42
 8010a12:	e7e6      	b.n	80109e2 <tcp_input+0x6ea>
 8010a14:	06db      	lsls	r3, r3, #27
 8010a16:	f57f af29 	bpl.w	801086c <tcp_input+0x574>
 8010a1a:	6833      	ldr	r3, [r6, #0]
 8010a1c:	4a61      	ldr	r2, [pc, #388]	; (8010ba4 <tcp_input+0x8ac>)
 8010a1e:	8818      	ldrh	r0, [r3, #0]
 8010a20:	8811      	ldrh	r1, [r2, #0]
 8010a22:	9a05      	ldr	r2, [sp, #20]
 8010a24:	6812      	ldr	r2, [r2, #0]
 8010a26:	9002      	str	r0, [sp, #8]
 8010a28:	4620      	mov	r0, r4
 8010a2a:	885b      	ldrh	r3, [r3, #2]
 8010a2c:	440a      	add	r2, r1
 8010a2e:	9301      	str	r3, [sp, #4]
 8010a30:	4b5d      	ldr	r3, [pc, #372]	; (8010ba8 <tcp_input+0x8b0>)
 8010a32:	9300      	str	r3, [sp, #0]
 8010a34:	3304      	adds	r3, #4
 8010a36:	f8da 1000 	ldr.w	r1, [sl]
 8010a3a:	f001 f837 	bl	8011aac <tcp_rst>
 8010a3e:	f894 3042 	ldrb.w	r3, [r4, #66]	; 0x42
 8010a42:	2b05      	cmp	r3, #5
 8010a44:	f63f af12 	bhi.w	801086c <tcp_input+0x574>
 8010a48:	2300      	movs	r3, #0
 8010a4a:	4620      	mov	r0, r4
 8010a4c:	8623      	strh	r3, [r4, #48]	; 0x30
 8010a4e:	f001 fa69 	bl	8011f24 <tcp_rexmit_rto>
 8010a52:	e70b      	b.n	801086c <tcp_input+0x574>
 8010a54:	9b06      	ldr	r3, [sp, #24]
 8010a56:	781b      	ldrb	r3, [r3, #0]
 8010a58:	06df      	lsls	r7, r3, #27
 8010a5a:	d55f      	bpl.n	8010b1c <tcp_input+0x824>
 8010a5c:	6c63      	ldr	r3, [r4, #68]	; 0x44
 8010a5e:	f8da 1000 	ldr.w	r1, [sl]
 8010a62:	43db      	mvns	r3, r3
 8010a64:	42cb      	cmn	r3, r1
 8010a66:	d448      	bmi.n	8010afa <tcp_input+0x802>
 8010a68:	6d23      	ldr	r3, [r4, #80]	; 0x50
 8010a6a:	1acb      	subs	r3, r1, r3
 8010a6c:	2b00      	cmp	r3, #0
 8010a6e:	dc44      	bgt.n	8010afa <tcp_input+0x802>
 8010a70:	2304      	movs	r3, #4
 8010a72:	7523      	strb	r3, [r4, #20]
 8010a74:	6fe3      	ldr	r3, [r4, #124]	; 0x7c
 8010a76:	b91b      	cbnz	r3, 8010a80 <tcp_input+0x788>
 8010a78:	4620      	mov	r0, r4
 8010a7a:	f7fe fa0f 	bl	800ee9c <tcp_abort>
 8010a7e:	e58e      	b.n	801059e <tcp_input+0x2a6>
 8010a80:	699b      	ldr	r3, [r3, #24]
 8010a82:	b933      	cbnz	r3, 8010a92 <tcp_input+0x79a>
 8010a84:	4b43      	ldr	r3, [pc, #268]	; (8010b94 <tcp_input+0x89c>)
 8010a86:	f44f 726a 	mov.w	r2, #936	; 0x3a8
 8010a8a:	4948      	ldr	r1, [pc, #288]	; (8010bac <tcp_input+0x8b4>)
 8010a8c:	4843      	ldr	r0, [pc, #268]	; (8010b9c <tcp_input+0x8a4>)
 8010a8e:	f003 f82b 	bl	8013ae8 <iprintf>
 8010a92:	6fe3      	ldr	r3, [r4, #124]	; 0x7c
 8010a94:	699b      	ldr	r3, [r3, #24]
 8010a96:	2b00      	cmp	r3, #0
 8010a98:	d0ee      	beq.n	8010a78 <tcp_input+0x780>
 8010a9a:	2200      	movs	r2, #0
 8010a9c:	4621      	mov	r1, r4
 8010a9e:	6920      	ldr	r0, [r4, #16]
 8010aa0:	4798      	blx	r3
 8010aa2:	b118      	cbz	r0, 8010aac <tcp_input+0x7b4>
 8010aa4:	300d      	adds	r0, #13
 8010aa6:	f43f ad7a 	beq.w	801059e <tcp_input+0x2a6>
 8010aaa:	e7e5      	b.n	8010a78 <tcp_input+0x780>
 8010aac:	4620      	mov	r0, r4
 8010aae:	f7fe fffb 	bl	800faa8 <tcp_receive>
 8010ab2:	f8b9 3000 	ldrh.w	r3, [r9]
 8010ab6:	b113      	cbz	r3, 8010abe <tcp_input+0x7c6>
 8010ab8:	3b01      	subs	r3, #1
 8010aba:	f8a9 3000 	strh.w	r3, [r9]
 8010abe:	8e63      	ldrh	r3, [r4, #50]	; 0x32
 8010ac0:	0059      	lsls	r1, r3, #1
 8010ac2:	009a      	lsls	r2, r3, #2
 8010ac4:	f241 131c 	movw	r3, #4380	; 0x111c
 8010ac8:	4608      	mov	r0, r1
 8010aca:	4299      	cmp	r1, r3
 8010acc:	bf38      	it	cc
 8010ace:	4618      	movcc	r0, r3
 8010ad0:	4282      	cmp	r2, r0
 8010ad2:	d20e      	bcs.n	8010af2 <tcp_input+0x7fa>
 8010ad4:	b293      	uxth	r3, r2
 8010ad6:	f8a4 3048 	strh.w	r3, [r4, #72]	; 0x48
 8010ada:	f898 3000 	ldrb.w	r3, [r8]
 8010ade:	0699      	lsls	r1, r3, #26
 8010ae0:	f57f aec4 	bpl.w	801086c <tcp_input+0x574>
 8010ae4:	8b63      	ldrh	r3, [r4, #26]
 8010ae6:	f043 0302 	orr.w	r3, r3, #2
 8010aea:	8363      	strh	r3, [r4, #26]
 8010aec:	2307      	movs	r3, #7
 8010aee:	7523      	strb	r3, [r4, #20]
 8010af0:	e6bc      	b.n	801086c <tcp_input+0x574>
 8010af2:	4299      	cmp	r1, r3
 8010af4:	bf88      	it	hi
 8010af6:	b28b      	uxthhi	r3, r1
 8010af8:	e7ed      	b.n	8010ad6 <tcp_input+0x7de>
 8010afa:	6833      	ldr	r3, [r6, #0]
 8010afc:	4a29      	ldr	r2, [pc, #164]	; (8010ba4 <tcp_input+0x8ac>)
 8010afe:	881e      	ldrh	r6, [r3, #0]
 8010b00:	8810      	ldrh	r0, [r2, #0]
 8010b02:	9a05      	ldr	r2, [sp, #20]
 8010b04:	6812      	ldr	r2, [r2, #0]
 8010b06:	9602      	str	r6, [sp, #8]
 8010b08:	885b      	ldrh	r3, [r3, #2]
 8010b0a:	4402      	add	r2, r0
 8010b0c:	4620      	mov	r0, r4
 8010b0e:	9301      	str	r3, [sp, #4]
 8010b10:	4b25      	ldr	r3, [pc, #148]	; (8010ba8 <tcp_input+0x8b0>)
 8010b12:	9300      	str	r3, [sp, #0]
 8010b14:	3304      	adds	r3, #4
 8010b16:	f000 ffc9 	bl	8011aac <tcp_rst>
 8010b1a:	e6a7      	b.n	801086c <tcp_input+0x574>
 8010b1c:	0798      	lsls	r0, r3, #30
 8010b1e:	f57f aea5 	bpl.w	801086c <tcp_input+0x574>
 8010b22:	6a63      	ldr	r3, [r4, #36]	; 0x24
 8010b24:	9a05      	ldr	r2, [sp, #20]
 8010b26:	3b01      	subs	r3, #1
 8010b28:	6812      	ldr	r2, [r2, #0]
 8010b2a:	4293      	cmp	r3, r2
 8010b2c:	f47f ae9e 	bne.w	801086c <tcp_input+0x574>
 8010b30:	4620      	mov	r0, r4
 8010b32:	f000 ff43 	bl	80119bc <tcp_rexmit>
 8010b36:	e699      	b.n	801086c <tcp_input+0x574>
 8010b38:	4620      	mov	r0, r4
 8010b3a:	f7fe ffb5 	bl	800faa8 <tcp_receive>
 8010b3e:	e7cc      	b.n	8010ada <tcp_input+0x7e2>
 8010b40:	4620      	mov	r0, r4
 8010b42:	f7fe ffb1 	bl	800faa8 <tcp_receive>
 8010b46:	f898 3000 	ldrb.w	r3, [r8]
 8010b4a:	f013 0f20 	tst.w	r3, #32
 8010b4e:	9b06      	ldr	r3, [sp, #24]
 8010b50:	781b      	ldrb	r3, [r3, #0]
 8010b52:	d041      	beq.n	8010bd8 <tcp_input+0x8e0>
 8010b54:	f013 0f10 	tst.w	r3, #16
 8010b58:	8b63      	ldrh	r3, [r4, #26]
 8010b5a:	d038      	beq.n	8010bce <tcp_input+0x8d6>
 8010b5c:	6d21      	ldr	r1, [r4, #80]	; 0x50
 8010b5e:	f8da 2000 	ldr.w	r2, [sl]
 8010b62:	4291      	cmp	r1, r2
 8010b64:	d133      	bne.n	8010bce <tcp_input+0x8d6>
 8010b66:	6ee2      	ldr	r2, [r4, #108]	; 0x6c
 8010b68:	2a00      	cmp	r2, #0
 8010b6a:	d130      	bne.n	8010bce <tcp_input+0x8d6>
 8010b6c:	f043 0302 	orr.w	r3, r3, #2
 8010b70:	4620      	mov	r0, r4
 8010b72:	8363      	strh	r3, [r4, #26]
 8010b74:	f7fe f87a 	bl	800ec6c <tcp_pcb_purge>
 8010b78:	683b      	ldr	r3, [r7, #0]
 8010b7a:	429c      	cmp	r4, r3
 8010b7c:	d119      	bne.n	8010bb2 <tcp_input+0x8ba>
 8010b7e:	68e3      	ldr	r3, [r4, #12]
 8010b80:	603b      	str	r3, [r7, #0]
 8010b82:	e018      	b.n	8010bb6 <tcp_input+0x8be>
 8010b84:	68da      	ldr	r2, [r3, #12]
 8010b86:	4294      	cmp	r4, r2
 8010b88:	d112      	bne.n	8010bb0 <tcp_input+0x8b8>
 8010b8a:	68e2      	ldr	r2, [r4, #12]
 8010b8c:	60da      	str	r2, [r3, #12]
 8010b8e:	e012      	b.n	8010bb6 <tcp_input+0x8be>
 8010b90:	2000b338 	.word	0x2000b338
 8010b94:	080267e8 	.word	0x080267e8
 8010b98:	08026762 	.word	0x08026762
 8010b9c:	08014a3b 	.word	0x08014a3b
 8010ba0:	08026778 	.word	0x08026778
 8010ba4:	2000454e 	.word	0x2000454e
 8010ba8:	20007c3c 	.word	0x20007c3c
 8010bac:	0802678b 	.word	0x0802678b
 8010bb0:	4613      	mov	r3, r2
 8010bb2:	2b00      	cmp	r3, #0
 8010bb4:	d1e6      	bne.n	8010b84 <tcp_input+0x88c>
 8010bb6:	4b7f      	ldr	r3, [pc, #508]	; (8010db4 <tcp_input+0xabc>)
 8010bb8:	2201      	movs	r2, #1
 8010bba:	701a      	strb	r2, [r3, #0]
 8010bbc:	230a      	movs	r3, #10
 8010bbe:	7523      	strb	r3, [r4, #20]
 8010bc0:	4b7d      	ldr	r3, [pc, #500]	; (8010db8 <tcp_input+0xac0>)
 8010bc2:	681a      	ldr	r2, [r3, #0]
 8010bc4:	601c      	str	r4, [r3, #0]
 8010bc6:	60e2      	str	r2, [r4, #12]
 8010bc8:	f001 fabc 	bl	8012144 <tcp_timer_needed>
 8010bcc:	e64e      	b.n	801086c <tcp_input+0x574>
 8010bce:	f043 0302 	orr.w	r3, r3, #2
 8010bd2:	8363      	strh	r3, [r4, #26]
 8010bd4:	2308      	movs	r3, #8
 8010bd6:	e78a      	b.n	8010aee <tcp_input+0x7f6>
 8010bd8:	06da      	lsls	r2, r3, #27
 8010bda:	f57f ae47 	bpl.w	801086c <tcp_input+0x574>
 8010bde:	6d22      	ldr	r2, [r4, #80]	; 0x50
 8010be0:	f8da 3000 	ldr.w	r3, [sl]
 8010be4:	429a      	cmp	r2, r3
 8010be6:	f47f ae41 	bne.w	801086c <tcp_input+0x574>
 8010bea:	6ee3      	ldr	r3, [r4, #108]	; 0x6c
 8010bec:	2b00      	cmp	r3, #0
 8010bee:	f47f ae3d 	bne.w	801086c <tcp_input+0x574>
 8010bf2:	2306      	movs	r3, #6
 8010bf4:	e77b      	b.n	8010aee <tcp_input+0x7f6>
 8010bf6:	4620      	mov	r0, r4
 8010bf8:	f7fe ff56 	bl	800faa8 <tcp_receive>
 8010bfc:	f898 3000 	ldrb.w	r3, [r8]
 8010c00:	069b      	lsls	r3, r3, #26
 8010c02:	f57f ae33 	bpl.w	801086c <tcp_input+0x574>
 8010c06:	8b63      	ldrh	r3, [r4, #26]
 8010c08:	4620      	mov	r0, r4
 8010c0a:	f043 0302 	orr.w	r3, r3, #2
 8010c0e:	8363      	strh	r3, [r4, #26]
 8010c10:	f7fe f82c 	bl	800ec6c <tcp_pcb_purge>
 8010c14:	683b      	ldr	r3, [r7, #0]
 8010c16:	429c      	cmp	r4, r3
 8010c18:	d0b1      	beq.n	8010b7e <tcp_input+0x886>
 8010c1a:	2b00      	cmp	r3, #0
 8010c1c:	d0cb      	beq.n	8010bb6 <tcp_input+0x8be>
 8010c1e:	68da      	ldr	r2, [r3, #12]
 8010c20:	4294      	cmp	r4, r2
 8010c22:	d0b2      	beq.n	8010b8a <tcp_input+0x892>
 8010c24:	4613      	mov	r3, r2
 8010c26:	e7f8      	b.n	8010c1a <tcp_input+0x922>
 8010c28:	4620      	mov	r0, r4
 8010c2a:	f7fe ff3d 	bl	800faa8 <tcp_receive>
 8010c2e:	9b06      	ldr	r3, [sp, #24]
 8010c30:	781b      	ldrb	r3, [r3, #0]
 8010c32:	06de      	lsls	r6, r3, #27
 8010c34:	f57f ae1a 	bpl.w	801086c <tcp_input+0x574>
 8010c38:	6d22      	ldr	r2, [r4, #80]	; 0x50
 8010c3a:	f8da 3000 	ldr.w	r3, [sl]
 8010c3e:	429a      	cmp	r2, r3
 8010c40:	f47f ae14 	bne.w	801086c <tcp_input+0x574>
 8010c44:	6ee3      	ldr	r3, [r4, #108]	; 0x6c
 8010c46:	2b00      	cmp	r3, #0
 8010c48:	f47f ae10 	bne.w	801086c <tcp_input+0x574>
 8010c4c:	4620      	mov	r0, r4
 8010c4e:	f7fe f80d 	bl	800ec6c <tcp_pcb_purge>
 8010c52:	683b      	ldr	r3, [r7, #0]
 8010c54:	429c      	cmp	r4, r3
 8010c56:	d092      	beq.n	8010b7e <tcp_input+0x886>
 8010c58:	2b00      	cmp	r3, #0
 8010c5a:	d0ac      	beq.n	8010bb6 <tcp_input+0x8be>
 8010c5c:	68da      	ldr	r2, [r3, #12]
 8010c5e:	4294      	cmp	r4, r2
 8010c60:	d093      	beq.n	8010b8a <tcp_input+0x892>
 8010c62:	4613      	mov	r3, r2
 8010c64:	e7f8      	b.n	8010c58 <tcp_input+0x960>
 8010c66:	4620      	mov	r0, r4
 8010c68:	f7fe ff1e 	bl	800faa8 <tcp_receive>
 8010c6c:	9b06      	ldr	r3, [sp, #24]
 8010c6e:	781b      	ldrb	r3, [r3, #0]
 8010c70:	06d8      	lsls	r0, r3, #27
 8010c72:	f57f adfb 	bpl.w	801086c <tcp_input+0x574>
 8010c76:	6d22      	ldr	r2, [r4, #80]	; 0x50
 8010c78:	f8da 3000 	ldr.w	r3, [sl]
 8010c7c:	429a      	cmp	r2, r3
 8010c7e:	f47f adf5 	bne.w	801086c <tcp_input+0x574>
 8010c82:	6ee3      	ldr	r3, [r4, #108]	; 0x6c
 8010c84:	2b00      	cmp	r3, #0
 8010c86:	f47f adf1 	bne.w	801086c <tcp_input+0x574>
 8010c8a:	f898 3000 	ldrb.w	r3, [r8]
 8010c8e:	f043 0310 	orr.w	r3, r3, #16
 8010c92:	f888 3000 	strb.w	r3, [r8]
 8010c96:	e5e9      	b.n	801086c <tcp_input+0x574>
 8010c98:	f8b9 2000 	ldrh.w	r2, [r9]
 8010c9c:	b12a      	cbz	r2, 8010caa <tcp_input+0x9b2>
 8010c9e:	f8d4 3080 	ldr.w	r3, [r4, #128]	; 0x80
 8010ca2:	b9f3      	cbnz	r3, 8010ce2 <tcp_input+0x9ea>
 8010ca4:	2300      	movs	r3, #0
 8010ca6:	f8a9 3000 	strh.w	r3, [r9]
 8010caa:	4620      	mov	r0, r4
 8010cac:	f7fe fe74 	bl	800f998 <tcp_input_delayed_close>
 8010cb0:	2800      	cmp	r0, #0
 8010cb2:	f47f ac74 	bne.w	801059e <tcp_input+0x2a6>
 8010cb6:	f8db 3000 	ldr.w	r3, [fp]
 8010cba:	b333      	cbz	r3, 8010d0a <tcp_input+0xa12>
 8010cbc:	6fa3      	ldr	r3, [r4, #120]	; 0x78
 8010cbe:	b133      	cbz	r3, 8010cce <tcp_input+0x9d6>
 8010cc0:	4b3e      	ldr	r3, [pc, #248]	; (8010dbc <tcp_input+0xac4>)
 8010cc2:	f44f 72f3 	mov.w	r2, #486	; 0x1e6
 8010cc6:	493e      	ldr	r1, [pc, #248]	; (8010dc0 <tcp_input+0xac8>)
 8010cc8:	483e      	ldr	r0, [pc, #248]	; (8010dc4 <tcp_input+0xacc>)
 8010cca:	f002 ff0d 	bl	8013ae8 <iprintf>
 8010cce:	8b63      	ldrh	r3, [r4, #26]
 8010cd0:	f8db 2000 	ldr.w	r2, [fp]
 8010cd4:	f013 0310 	ands.w	r3, r3, #16
 8010cd8:	d009      	beq.n	8010cee <tcp_input+0x9f6>
 8010cda:	4610      	mov	r0, r2
 8010cdc:	f7fd fa82 	bl	800e1e4 <pbuf_free>
 8010ce0:	e6ca      	b.n	8010a78 <tcp_input+0x780>
 8010ce2:	4621      	mov	r1, r4
 8010ce4:	6920      	ldr	r0, [r4, #16]
 8010ce6:	4798      	blx	r3
 8010ce8:	300d      	adds	r0, #13
 8010cea:	d1db      	bne.n	8010ca4 <tcp_input+0x9ac>
 8010cec:	e457      	b.n	801059e <tcp_input+0x2a6>
 8010cee:	f8d4 6084 	ldr.w	r6, [r4, #132]	; 0x84
 8010cf2:	b306      	cbz	r6, 8010d36 <tcp_input+0xa3e>
 8010cf4:	4621      	mov	r1, r4
 8010cf6:	6920      	ldr	r0, [r4, #16]
 8010cf8:	47b0      	blx	r6
 8010cfa:	f110 0f0d 	cmn.w	r0, #13
 8010cfe:	f43f ac4e 	beq.w	801059e <tcp_input+0x2a6>
 8010d02:	b110      	cbz	r0, 8010d0a <tcp_input+0xa12>
 8010d04:	f8db 3000 	ldr.w	r3, [fp]
 8010d08:	67a3      	str	r3, [r4, #120]	; 0x78
 8010d0a:	f898 3000 	ldrb.w	r3, [r8]
 8010d0e:	069a      	lsls	r2, r3, #26
 8010d10:	d505      	bpl.n	8010d1e <tcp_input+0xa26>
 8010d12:	6fa3      	ldr	r3, [r4, #120]	; 0x78
 8010d14:	b1ab      	cbz	r3, 8010d42 <tcp_input+0xa4a>
 8010d16:	7b5a      	ldrb	r2, [r3, #13]
 8010d18:	f042 0220 	orr.w	r2, r2, #32
 8010d1c:	735a      	strb	r2, [r3, #13]
 8010d1e:	2300      	movs	r3, #0
 8010d20:	4620      	mov	r0, r4
 8010d22:	602b      	str	r3, [r5, #0]
 8010d24:	f7fe fe38 	bl	800f998 <tcp_input_delayed_close>
 8010d28:	2800      	cmp	r0, #0
 8010d2a:	f47f ac38 	bne.w	801059e <tcp_input+0x2a6>
 8010d2e:	4620      	mov	r0, r4
 8010d30:	f000 ff32 	bl	8011b98 <tcp_output>
 8010d34:	e433      	b.n	801059e <tcp_input+0x2a6>
 8010d36:	4633      	mov	r3, r6
 8010d38:	4621      	mov	r1, r4
 8010d3a:	4630      	mov	r0, r6
 8010d3c:	f7fe fa96 	bl	800f26c <tcp_recv_null>
 8010d40:	e7db      	b.n	8010cfa <tcp_input+0xa02>
 8010d42:	8d23      	ldrh	r3, [r4, #40]	; 0x28
 8010d44:	f8d4 6084 	ldr.w	r6, [r4, #132]	; 0x84
 8010d48:	f5b3 6f06 	cmp.w	r3, #2144	; 0x860
 8010d4c:	bf1c      	itt	ne
 8010d4e:	3301      	addne	r3, #1
 8010d50:	8523      	strhne	r3, [r4, #40]	; 0x28
 8010d52:	2e00      	cmp	r6, #0
 8010d54:	d0e3      	beq.n	8010d1e <tcp_input+0xa26>
 8010d56:	2300      	movs	r3, #0
 8010d58:	4621      	mov	r1, r4
 8010d5a:	6920      	ldr	r0, [r4, #16]
 8010d5c:	461a      	mov	r2, r3
 8010d5e:	47b0      	blx	r6
 8010d60:	300d      	adds	r0, #13
 8010d62:	d1dc      	bne.n	8010d1e <tcp_input+0xa26>
 8010d64:	e41b      	b.n	801059e <tcp_input+0x2a6>
 8010d66:	f1b9 0f00 	cmp.w	r9, #0
 8010d6a:	d005      	beq.n	8010d78 <tcp_input+0xa80>
 8010d6c:	68e3      	ldr	r3, [r4, #12]
 8010d6e:	f8c9 300c 	str.w	r3, [r9, #12]
 8010d72:	4b15      	ldr	r3, [pc, #84]	; (8010dc8 <tcp_input+0xad0>)
 8010d74:	60e2      	str	r2, [r4, #12]
 8010d76:	601c      	str	r4, [r3, #0]
 8010d78:	9b06      	ldr	r3, [sp, #24]
 8010d7a:	781b      	ldrb	r3, [r3, #0]
 8010d7c:	075a      	lsls	r2, r3, #29
 8010d7e:	f53f ab7a 	bmi.w	8010476 <tcp_input+0x17e>
 8010d82:	f013 0910 	ands.w	r9, r3, #16
 8010d86:	f43f acea 	beq.w	801075e <tcp_input+0x466>
 8010d8a:	4b10      	ldr	r3, [pc, #64]	; (8010dcc <tcp_input+0xad4>)
 8010d8c:	881e      	ldrh	r6, [r3, #0]
 8010d8e:	9b05      	ldr	r3, [sp, #20]
 8010d90:	681a      	ldr	r2, [r3, #0]
 8010d92:	880b      	ldrh	r3, [r1, #0]
 8010d94:	4432      	add	r2, r6
 8010d96:	e9cd 0301 	strd	r0, r3, [sp, #4]
 8010d9a:	4b0d      	ldr	r3, [pc, #52]	; (8010dd0 <tcp_input+0xad8>)
 8010d9c:	9300      	str	r3, [sp, #0]
 8010d9e:	3304      	adds	r3, #4
 8010da0:	f8da 1000 	ldr.w	r1, [sl]
 8010da4:	4620      	mov	r0, r4
 8010da6:	e48c      	b.n	80106c2 <tcp_input+0x3ca>
 8010da8:	f1b9 0f00 	cmp.w	r9, #0
 8010dac:	f47f abb3 	bne.w	8010516 <tcp_input+0x21e>
 8010db0:	f7ff bbc1 	b.w	8010536 <tcp_input+0x23e>
 8010db4:	2000b330 	.word	0x2000b330
 8010db8:	2000b344 	.word	0x2000b344
 8010dbc:	080267e8 	.word	0x080267e8
 8010dc0:	080267a9 	.word	0x080267a9
 8010dc4:	08014a3b 	.word	0x08014a3b
 8010dc8:	2000b33c 	.word	0x2000b33c
 8010dcc:	2000454e 	.word	0x2000454e
 8010dd0:	20007c3c 	.word	0x20007c3c

08010dd4 <tcp_trigger_input_pcb_close>:
 8010dd4:	4a02      	ldr	r2, [pc, #8]	; (8010de0 <tcp_trigger_input_pcb_close+0xc>)
 8010dd6:	7813      	ldrb	r3, [r2, #0]
 8010dd8:	f043 0310 	orr.w	r3, r3, #16
 8010ddc:	7013      	strb	r3, [r2, #0]
 8010dde:	4770      	bx	lr
 8010de0:	20004534 	.word	0x20004534

08010de4 <tcp_output_segment_busy>:
 8010de4:	b510      	push	{r4, lr}
 8010de6:	4604      	mov	r4, r0
 8010de8:	b930      	cbnz	r0, 8010df8 <tcp_output_segment_busy+0x14>
 8010dea:	4b07      	ldr	r3, [pc, #28]	; (8010e08 <tcp_output_segment_busy+0x24>)
 8010dec:	f240 529a 	movw	r2, #1434	; 0x59a
 8010df0:	4906      	ldr	r1, [pc, #24]	; (8010e0c <tcp_output_segment_busy+0x28>)
 8010df2:	4807      	ldr	r0, [pc, #28]	; (8010e10 <tcp_output_segment_busy+0x2c>)
 8010df4:	f002 fe78 	bl	8013ae8 <iprintf>
 8010df8:	6863      	ldr	r3, [r4, #4]
 8010dfa:	7b98      	ldrb	r0, [r3, #14]
 8010dfc:	f110 30ff 	adds.w	r0, r0, #4294967295	; 0xffffffff
 8010e00:	bf18      	it	ne
 8010e02:	2001      	movne	r0, #1
 8010e04:	bd10      	pop	{r4, pc}
 8010e06:	bf00      	nop
 8010e08:	08026c02 	.word	0x08026c02
 8010e0c:	08026c35 	.word	0x08026c35
 8010e10:	08014a3b 	.word	0x08014a3b

08010e14 <tcp_pbuf_prealloc>:
 8010e14:	e92d 43f8 	stmdb	sp!, {r3, r4, r5, r6, r7, r8, r9, lr}
 8010e18:	9d08      	ldr	r5, [sp, #32]
 8010e1a:	4607      	mov	r7, r0
 8010e1c:	460c      	mov	r4, r1
 8010e1e:	4690      	mov	r8, r2
 8010e20:	461e      	mov	r6, r3
 8010e22:	f89d 9028 	ldrb.w	r9, [sp, #40]	; 0x28
 8010e26:	b92d      	cbnz	r5, 8010e34 <tcp_pbuf_prealloc+0x20>
 8010e28:	4b1b      	ldr	r3, [pc, #108]	; (8010e98 <tcp_pbuf_prealloc+0x84>)
 8010e2a:	22e9      	movs	r2, #233	; 0xe9
 8010e2c:	491b      	ldr	r1, [pc, #108]	; (8010e9c <tcp_pbuf_prealloc+0x88>)
 8010e2e:	481c      	ldr	r0, [pc, #112]	; (8010ea0 <tcp_pbuf_prealloc+0x8c>)
 8010e30:	f002 fe5a 	bl	8013ae8 <iprintf>
 8010e34:	4544      	cmp	r4, r8
 8010e36:	d22d      	bcs.n	8010e94 <tcp_pbuf_prealloc+0x80>
 8010e38:	f89d 3024 	ldrb.w	r3, [sp, #36]	; 0x24
 8010e3c:	079a      	lsls	r2, r3, #30
 8010e3e:	d409      	bmi.n	8010e54 <tcp_pbuf_prealloc+0x40>
 8010e40:	8b6b      	ldrh	r3, [r5, #26]
 8010e42:	065b      	lsls	r3, r3, #25
 8010e44:	d426      	bmi.n	8010e94 <tcp_pbuf_prealloc+0x80>
 8010e46:	f1b9 0f00 	cmp.w	r9, #0
 8010e4a:	d003      	beq.n	8010e54 <tcp_pbuf_prealloc+0x40>
 8010e4c:	6eeb      	ldr	r3, [r5, #108]	; 0x6c
 8010e4e:	b90b      	cbnz	r3, 8010e54 <tcp_pbuf_prealloc+0x40>
 8010e50:	6f2b      	ldr	r3, [r5, #112]	; 0x70
 8010e52:	b1fb      	cbz	r3, 8010e94 <tcp_pbuf_prealloc+0x80>
 8010e54:	f204 211b 	addw	r1, r4, #539	; 0x21b
 8010e58:	f021 0103 	bic.w	r1, r1, #3
 8010e5c:	4541      	cmp	r1, r8
 8010e5e:	bf28      	it	cs
 8010e60:	4641      	movcs	r1, r8
 8010e62:	b289      	uxth	r1, r1
 8010e64:	f44f 7220 	mov.w	r2, #640	; 0x280
 8010e68:	4638      	mov	r0, r7
 8010e6a:	f7fd fa23 	bl	800e2b4 <pbuf_alloc>
 8010e6e:	4605      	mov	r5, r0
 8010e70:	b168      	cbz	r0, 8010e8e <tcp_pbuf_prealloc+0x7a>
 8010e72:	6803      	ldr	r3, [r0, #0]
 8010e74:	b133      	cbz	r3, 8010e84 <tcp_pbuf_prealloc+0x70>
 8010e76:	4b08      	ldr	r3, [pc, #32]	; (8010e98 <tcp_pbuf_prealloc+0x84>)
 8010e78:	f240 120b 	movw	r2, #267	; 0x10b
 8010e7c:	4909      	ldr	r1, [pc, #36]	; (8010ea4 <tcp_pbuf_prealloc+0x90>)
 8010e7e:	4808      	ldr	r0, [pc, #32]	; (8010ea0 <tcp_pbuf_prealloc+0x8c>)
 8010e80:	f002 fe32 	bl	8013ae8 <iprintf>
 8010e84:	896b      	ldrh	r3, [r5, #10]
 8010e86:	1b1b      	subs	r3, r3, r4
 8010e88:	8033      	strh	r3, [r6, #0]
 8010e8a:	812c      	strh	r4, [r5, #8]
 8010e8c:	816c      	strh	r4, [r5, #10]
 8010e8e:	4628      	mov	r0, r5
 8010e90:	e8bd 83f8 	ldmia.w	sp!, {r3, r4, r5, r6, r7, r8, r9, pc}
 8010e94:	4621      	mov	r1, r4
 8010e96:	e7e5      	b.n	8010e64 <tcp_pbuf_prealloc+0x50>
 8010e98:	08026c02 	.word	0x08026c02
 8010e9c:	08026c5a 	.word	0x08026c5a
 8010ea0:	08014a3b 	.word	0x08014a3b
 8010ea4:	08026c79 	.word	0x08026c79

08010ea8 <tcp_create_segment>:
 8010ea8:	e92d 47f0 	stmdb	sp!, {r4, r5, r6, r7, r8, r9, sl, lr}
 8010eac:	460e      	mov	r6, r1
 8010eae:	4690      	mov	r8, r2
 8010eb0:	4699      	mov	r9, r3
 8010eb2:	f89d a020 	ldrb.w	sl, [sp, #32]
 8010eb6:	4607      	mov	r7, r0
 8010eb8:	b928      	cbnz	r0, 8010ec6 <tcp_create_segment+0x1e>
 8010eba:	4b2e      	ldr	r3, [pc, #184]	; (8010f74 <tcp_create_segment+0xcc>)
 8010ebc:	22a3      	movs	r2, #163	; 0xa3
 8010ebe:	492e      	ldr	r1, [pc, #184]	; (8010f78 <tcp_create_segment+0xd0>)
 8010ec0:	482e      	ldr	r0, [pc, #184]	; (8010f7c <tcp_create_segment+0xd4>)
 8010ec2:	f002 fe11 	bl	8013ae8 <iprintf>
 8010ec6:	b92e      	cbnz	r6, 8010ed4 <tcp_create_segment+0x2c>
 8010ec8:	4b2a      	ldr	r3, [pc, #168]	; (8010f74 <tcp_create_segment+0xcc>)
 8010eca:	22a4      	movs	r2, #164	; 0xa4
 8010ecc:	492c      	ldr	r1, [pc, #176]	; (8010f80 <tcp_create_segment+0xd8>)
 8010ece:	482b      	ldr	r0, [pc, #172]	; (8010f7c <tcp_create_segment+0xd4>)
 8010ed0:	f002 fe0a 	bl	8013ae8 <iprintf>
 8010ed4:	ea4f 058a 	mov.w	r5, sl, lsl #2
 8010ed8:	2003      	movs	r0, #3
 8010eda:	f7fc fee3 	bl	800dca4 <memp_malloc>
 8010ede:	4604      	mov	r4, r0
 8010ee0:	f005 0504 	and.w	r5, r5, #4
 8010ee4:	b928      	cbnz	r0, 8010ef2 <tcp_create_segment+0x4a>
 8010ee6:	4630      	mov	r0, r6
 8010ee8:	f7fd f97c 	bl	800e1e4 <pbuf_free>
 8010eec:	4620      	mov	r0, r4
 8010eee:	e8bd 87f0 	ldmia.w	sp!, {r4, r5, r6, r7, r8, r9, sl, pc}
 8010ef2:	2300      	movs	r3, #0
 8010ef4:	f880 a00a 	strb.w	sl, [r0, #10]
 8010ef8:	fa1f fa85 	uxth.w	sl, r5
 8010efc:	e9c0 3600 	strd	r3, r6, [r0]
 8010f00:	8933      	ldrh	r3, [r6, #8]
 8010f02:	4553      	cmp	r3, sl
 8010f04:	d205      	bcs.n	8010f12 <tcp_create_segment+0x6a>
 8010f06:	4b1b      	ldr	r3, [pc, #108]	; (8010f74 <tcp_create_segment+0xcc>)
 8010f08:	22b0      	movs	r2, #176	; 0xb0
 8010f0a:	491e      	ldr	r1, [pc, #120]	; (8010f84 <tcp_create_segment+0xdc>)
 8010f0c:	481b      	ldr	r0, [pc, #108]	; (8010f7c <tcp_create_segment+0xd4>)
 8010f0e:	f002 fdeb 	bl	8013ae8 <iprintf>
 8010f12:	8933      	ldrh	r3, [r6, #8]
 8010f14:	4630      	mov	r0, r6
 8010f16:	2114      	movs	r1, #20
 8010f18:	eba3 030a 	sub.w	r3, r3, sl
 8010f1c:	8123      	strh	r3, [r4, #8]
 8010f1e:	f7fd f92a 	bl	800e176 <pbuf_add_header>
 8010f22:	4606      	mov	r6, r0
 8010f24:	b120      	cbz	r0, 8010f30 <tcp_create_segment+0x88>
 8010f26:	4620      	mov	r0, r4
 8010f28:	2400      	movs	r4, #0
 8010f2a:	f7fd fd9d 	bl	800ea68 <tcp_seg_free>
 8010f2e:	e7dd      	b.n	8010eec <tcp_create_segment+0x44>
 8010f30:	6863      	ldr	r3, [r4, #4]
 8010f32:	8af8      	ldrh	r0, [r7, #22]
 8010f34:	f8d3 a004 	ldr.w	sl, [r3, #4]
 8010f38:	f8c4 a00c 	str.w	sl, [r4, #12]
 8010f3c:	f7fc fbb0 	bl	800d6a0 <lwip_htons>
 8010f40:	f8aa 0000 	strh.w	r0, [sl]
 8010f44:	f8d4 a00c 	ldr.w	sl, [r4, #12]
 8010f48:	8b38      	ldrh	r0, [r7, #24]
 8010f4a:	f7fc fba9 	bl	800d6a0 <lwip_htons>
 8010f4e:	68e7      	ldr	r7, [r4, #12]
 8010f50:	f8aa 0002 	strh.w	r0, [sl, #2]
 8010f54:	4648      	mov	r0, r9
 8010f56:	f7fc fba6 	bl	800d6a6 <lwip_htonl>
 8010f5a:	6078      	str	r0, [r7, #4]
 8010f5c:	08a8      	lsrs	r0, r5, #2
 8010f5e:	68e7      	ldr	r7, [r4, #12]
 8010f60:	3005      	adds	r0, #5
 8010f62:	ea48 3000 	orr.w	r0, r8, r0, lsl #12
 8010f66:	f7fc fb9b 	bl	800d6a0 <lwip_htons>
 8010f6a:	68e3      	ldr	r3, [r4, #12]
 8010f6c:	81b8      	strh	r0, [r7, #12]
 8010f6e:	749e      	strb	r6, [r3, #18]
 8010f70:	74de      	strb	r6, [r3, #19]
 8010f72:	e7bb      	b.n	8010eec <tcp_create_segment+0x44>
 8010f74:	08026c02 	.word	0x08026c02
 8010f78:	08026970 	.word	0x08026970
 8010f7c:	08014a3b 	.word	0x08014a3b
 8010f80:	08026990 	.word	0x08026990
 8010f84:	080269b1 	.word	0x080269b1

08010f88 <tcp_output_alloc_header_common.constprop.4>:
 8010f88:	3114      	adds	r1, #20
 8010f8a:	e92d 41f0 	stmdb	sp!, {r4, r5, r6, r7, r8, lr}
 8010f8e:	b289      	uxth	r1, r1
 8010f90:	4606      	mov	r6, r0
 8010f92:	4617      	mov	r7, r2
 8010f94:	2022      	movs	r0, #34	; 0x22
 8010f96:	f44f 7220 	mov.w	r2, #640	; 0x280
 8010f9a:	4698      	mov	r8, r3
 8010f9c:	f7fd f98a 	bl	800e2b4 <pbuf_alloc>
 8010fa0:	4605      	mov	r5, r0
 8010fa2:	b348      	cbz	r0, 8010ff8 <tcp_output_alloc_header_common.constprop.4+0x70>
 8010fa4:	8943      	ldrh	r3, [r0, #10]
 8010fa6:	2b13      	cmp	r3, #19
 8010fa8:	d806      	bhi.n	8010fb8 <tcp_output_alloc_header_common.constprop.4+0x30>
 8010faa:	4b15      	ldr	r3, [pc, #84]	; (8011000 <tcp_output_alloc_header_common.constprop.4+0x78>)
 8010fac:	f240 7224 	movw	r2, #1828	; 0x724
 8010fb0:	4914      	ldr	r1, [pc, #80]	; (8011004 <tcp_output_alloc_header_common.constprop.4+0x7c>)
 8010fb2:	4815      	ldr	r0, [pc, #84]	; (8011008 <tcp_output_alloc_header_common.constprop.4+0x80>)
 8010fb4:	f002 fd98 	bl	8013ae8 <iprintf>
 8010fb8:	686c      	ldr	r4, [r5, #4]
 8010fba:	4640      	mov	r0, r8
 8010fbc:	f7fc fb70 	bl	800d6a0 <lwip_htons>
 8010fc0:	8020      	strh	r0, [r4, #0]
 8010fc2:	f8bd 0018 	ldrh.w	r0, [sp, #24]
 8010fc6:	f7fc fb6b 	bl	800d6a0 <lwip_htons>
 8010fca:	6067      	str	r7, [r4, #4]
 8010fcc:	8060      	strh	r0, [r4, #2]
 8010fce:	4630      	mov	r0, r6
 8010fd0:	f7fc fb69 	bl	800d6a6 <lwip_htonl>
 8010fd4:	60a0      	str	r0, [r4, #8]
 8010fd6:	f89d 001c 	ldrb.w	r0, [sp, #28]
 8010fda:	f440 40a0 	orr.w	r0, r0, #20480	; 0x5000
 8010fde:	f7fc fb5f 	bl	800d6a0 <lwip_htons>
 8010fe2:	81a0      	strh	r0, [r4, #12]
 8010fe4:	f8bd 0020 	ldrh.w	r0, [sp, #32]
 8010fe8:	f7fc fb5a 	bl	800d6a0 <lwip_htons>
 8010fec:	2300      	movs	r3, #0
 8010fee:	81e0      	strh	r0, [r4, #14]
 8010ff0:	7423      	strb	r3, [r4, #16]
 8010ff2:	7463      	strb	r3, [r4, #17]
 8010ff4:	74a3      	strb	r3, [r4, #18]
 8010ff6:	74e3      	strb	r3, [r4, #19]
 8010ff8:	4628      	mov	r0, r5
 8010ffa:	e8bd 81f0 	ldmia.w	sp!, {r4, r5, r6, r7, r8, pc}
 8010ffe:	bf00      	nop
 8011000:	08026c02 	.word	0x08026c02
 8011004:	08026b85 	.word	0x08026b85
 8011008:	08014a3b 	.word	0x08014a3b

0801100c <tcp_output_alloc_header.constprop.3>:
 801100c:	b57f      	push	{r0, r1, r2, r3, r4, r5, r6, lr}
 801100e:	460d      	mov	r5, r1
 8011010:	4616      	mov	r6, r2
 8011012:	4604      	mov	r4, r0
 8011014:	b930      	cbnz	r0, 8011024 <tcp_output_alloc_header.constprop.3+0x18>
 8011016:	4b0d      	ldr	r3, [pc, #52]	; (801104c <tcp_output_alloc_header.constprop.3+0x40>)
 8011018:	f240 7242 	movw	r2, #1858	; 0x742
 801101c:	490c      	ldr	r1, [pc, #48]	; (8011050 <tcp_output_alloc_header.constprop.3+0x44>)
 801101e:	480d      	ldr	r0, [pc, #52]	; (8011054 <tcp_output_alloc_header.constprop.3+0x48>)
 8011020:	f002 fd62 	bl	8013ae8 <iprintf>
 8011024:	8d62      	ldrh	r2, [r4, #42]	; 0x2a
 8011026:	4629      	mov	r1, r5
 8011028:	8ae3      	ldrh	r3, [r4, #22]
 801102a:	9202      	str	r2, [sp, #8]
 801102c:	2210      	movs	r2, #16
 801102e:	9201      	str	r2, [sp, #4]
 8011030:	8b22      	ldrh	r2, [r4, #24]
 8011032:	9200      	str	r2, [sp, #0]
 8011034:	4632      	mov	r2, r6
 8011036:	6a60      	ldr	r0, [r4, #36]	; 0x24
 8011038:	f7ff ffa6 	bl	8010f88 <tcp_output_alloc_header_common.constprop.4>
 801103c:	b118      	cbz	r0, 8011046 <tcp_output_alloc_header.constprop.3+0x3a>
 801103e:	8d62      	ldrh	r2, [r4, #42]	; 0x2a
 8011040:	6a63      	ldr	r3, [r4, #36]	; 0x24
 8011042:	4413      	add	r3, r2
 8011044:	62e3      	str	r3, [r4, #44]	; 0x2c
 8011046:	b004      	add	sp, #16
 8011048:	bd70      	pop	{r4, r5, r6, pc}
 801104a:	bf00      	nop
 801104c:	08026c02 	.word	0x08026c02
 8011050:	08026b60 	.word	0x08026b60
 8011054:	08014a3b 	.word	0x08014a3b

08011058 <tcp_output_fill_options.isra.0.constprop.5>:
 8011058:	b930      	cbnz	r0, 8011068 <tcp_output_fill_options.isra.0.constprop.5+0x10>
 801105a:	4b04      	ldr	r3, [pc, #16]	; (801106c <tcp_output_fill_options.isra.0.constprop.5+0x14>)
 801105c:	f240 7256 	movw	r2, #1878	; 0x756
 8011060:	4903      	ldr	r1, [pc, #12]	; (8011070 <tcp_output_fill_options.isra.0.constprop.5+0x18>)
 8011062:	4804      	ldr	r0, [pc, #16]	; (8011074 <tcp_output_fill_options.isra.0.constprop.5+0x1c>)
 8011064:	f002 bd40 	b.w	8013ae8 <iprintf>
 8011068:	4770      	bx	lr
 801106a:	bf00      	nop
 801106c:	08026c02 	.word	0x08026c02
 8011070:	08026bdc 	.word	0x08026bdc
 8011074:	08014a3b 	.word	0x08014a3b

08011078 <tcp_output_control_segment>:
 8011078:	b5f0      	push	{r4, r5, r6, r7, lr}
 801107a:	4604      	mov	r4, r0
 801107c:	b085      	sub	sp, #20
 801107e:	4617      	mov	r7, r2
 8011080:	461e      	mov	r6, r3
 8011082:	460d      	mov	r5, r1
 8011084:	b931      	cbnz	r1, 8011094 <tcp_output_control_segment+0x1c>
 8011086:	4b15      	ldr	r3, [pc, #84]	; (80110dc <tcp_output_control_segment+0x64>)
 8011088:	f240 7287 	movw	r2, #1927	; 0x787
 801108c:	4914      	ldr	r1, [pc, #80]	; (80110e0 <tcp_output_control_segment+0x68>)
 801108e:	4815      	ldr	r0, [pc, #84]	; (80110e4 <tcp_output_control_segment+0x6c>)
 8011090:	f002 fd2a 	bl	8013ae8 <iprintf>
 8011094:	b164      	cbz	r4, 80110b0 <tcp_output_control_segment+0x38>
 8011096:	7a20      	ldrb	r0, [r4, #8]
 8011098:	b150      	cbz	r0, 80110b0 <tcp_output_control_segment+0x38>
 801109a:	f7fc ffd3 	bl	800e044 <netif_get_by_index>
 801109e:	b968      	cbnz	r0, 80110bc <tcp_output_control_segment+0x44>
 80110a0:	f06f 0403 	mvn.w	r4, #3
 80110a4:	4628      	mov	r0, r5
 80110a6:	f7fd f89d 	bl	800e1e4 <pbuf_free>
 80110aa:	4620      	mov	r0, r4
 80110ac:	b005      	add	sp, #20
 80110ae:	bdf0      	pop	{r4, r5, r6, r7, pc}
 80110b0:	4630      	mov	r0, r6
 80110b2:	f001 fe6d 	bl	8012d90 <ip4_route>
 80110b6:	2800      	cmp	r0, #0
 80110b8:	d0f2      	beq.n	80110a0 <tcp_output_control_segment+0x28>
 80110ba:	b164      	cbz	r4, 80110d6 <tcp_output_control_segment+0x5e>
 80110bc:	7ae3      	ldrb	r3, [r4, #11]
 80110be:	7aa4      	ldrb	r4, [r4, #10]
 80110c0:	2206      	movs	r2, #6
 80110c2:	9002      	str	r0, [sp, #8]
 80110c4:	4639      	mov	r1, r7
 80110c6:	4628      	mov	r0, r5
 80110c8:	e9cd 4200 	strd	r4, r2, [sp]
 80110cc:	4632      	mov	r2, r6
 80110ce:	f001 ffbd 	bl	801304c <ip4_output_if>
 80110d2:	4604      	mov	r4, r0
 80110d4:	e7e6      	b.n	80110a4 <tcp_output_control_segment+0x2c>
 80110d6:	23ff      	movs	r3, #255	; 0xff
 80110d8:	e7f2      	b.n	80110c0 <tcp_output_control_segment+0x48>
 80110da:	bf00      	nop
 80110dc:	08026c02 	.word	0x08026c02
 80110e0:	08026bb3 	.word	0x08026bb3
 80110e4:	08014a3b 	.word	0x08014a3b

080110e8 <tcp_write>:
 80110e8:	e92d 4ff0 	stmdb	sp!, {r4, r5, r6, r7, r8, r9, sl, fp, lr}
 80110ec:	b091      	sub	sp, #68	; 0x44
 80110ee:	4604      	mov	r4, r0
 80110f0:	930a      	str	r3, [sp, #40]	; 0x28
 80110f2:	2300      	movs	r3, #0
 80110f4:	9108      	str	r1, [sp, #32]
 80110f6:	9205      	str	r2, [sp, #20]
 80110f8:	f8ad 303e 	strh.w	r3, [sp, #62]	; 0x3e
 80110fc:	b958      	cbnz	r0, 8011116 <tcp_write+0x2e>
 80110fe:	4baf      	ldr	r3, [pc, #700]	; (80113bc <tcp_write+0x2d4>)
 8011100:	f44f 72cf 	mov.w	r2, #414	; 0x19e
 8011104:	49ae      	ldr	r1, [pc, #696]	; (80113c0 <tcp_write+0x2d8>)
 8011106:	48af      	ldr	r0, [pc, #700]	; (80113c4 <tcp_write+0x2dc>)
 8011108:	f002 fcee 	bl	8013ae8 <iprintf>
 801110c:	f06f 000f 	mvn.w	r0, #15
 8011110:	b011      	add	sp, #68	; 0x44
 8011112:	e8bd 8ff0 	ldmia.w	sp!, {r4, r5, r6, r7, r8, r9, sl, fp, pc}
 8011116:	8e43      	ldrh	r3, [r0, #50]	; 0x32
 8011118:	9307      	str	r3, [sp, #28]
 801111a:	f8b0 3062 	ldrh.w	r3, [r0, #98]	; 0x62
 801111e:	9a07      	ldr	r2, [sp, #28]
 8011120:	085b      	lsrs	r3, r3, #1
 8011122:	4293      	cmp	r3, r2
 8011124:	bf28      	it	cs
 8011126:	4613      	movcs	r3, r2
 8011128:	2b00      	cmp	r3, #0
 801112a:	bf18      	it	ne
 801112c:	461a      	movne	r2, r3
 801112e:	9b08      	ldr	r3, [sp, #32]
 8011130:	9207      	str	r2, [sp, #28]
 8011132:	b923      	cbnz	r3, 801113e <tcp_write+0x56>
 8011134:	4ba1      	ldr	r3, [pc, #644]	; (80113bc <tcp_write+0x2d4>)
 8011136:	f44f 72d7 	mov.w	r2, #430	; 0x1ae
 801113a:	49a3      	ldr	r1, [pc, #652]	; (80113c8 <tcp_write+0x2e0>)
 801113c:	e7e3      	b.n	8011106 <tcp_write+0x1e>
 801113e:	7d03      	ldrb	r3, [r0, #20]
 8011140:	2b07      	cmp	r3, #7
 8011142:	d003      	beq.n	801114c <tcp_write+0x64>
 8011144:	3b02      	subs	r3, #2
 8011146:	2b02      	cmp	r3, #2
 8011148:	f200 8250 	bhi.w	80115ec <tcp_write+0x504>
 801114c:	9b05      	ldr	r3, [sp, #20]
 801114e:	b1eb      	cbz	r3, 801118c <tcp_write+0xa4>
 8011150:	f8b4 3064 	ldrh.w	r3, [r4, #100]	; 0x64
 8011154:	9a05      	ldr	r2, [sp, #20]
 8011156:	4293      	cmp	r3, r2
 8011158:	d206      	bcs.n	8011168 <tcp_write+0x80>
 801115a:	8b63      	ldrh	r3, [r4, #26]
 801115c:	f043 0380 	orr.w	r3, r3, #128	; 0x80
 8011160:	8363      	strh	r3, [r4, #26]
 8011162:	f04f 30ff 	mov.w	r0, #4294967295	; 0xffffffff
 8011166:	e7d3      	b.n	8011110 <tcp_write+0x28>
 8011168:	f8b4 2066 	ldrh.w	r2, [r4, #102]	; 0x66
 801116c:	2a08      	cmp	r2, #8
 801116e:	d8f4      	bhi.n	801115a <tcp_write+0x72>
 8011170:	6f23      	ldr	r3, [r4, #112]	; 0x70
 8011172:	2a00      	cmp	r2, #0
 8011174:	f000 809f 	beq.w	80112b6 <tcp_write+0x1ce>
 8011178:	b943      	cbnz	r3, 801118c <tcp_write+0xa4>
 801117a:	6ee3      	ldr	r3, [r4, #108]	; 0x6c
 801117c:	b933      	cbnz	r3, 801118c <tcp_write+0xa4>
 801117e:	4b8f      	ldr	r3, [pc, #572]	; (80113bc <tcp_write+0x2d4>)
 8011180:	f44f 72ab 	mov.w	r2, #342	; 0x156
 8011184:	4991      	ldr	r1, [pc, #580]	; (80113cc <tcp_write+0x2e4>)
 8011186:	488f      	ldr	r0, [pc, #572]	; (80113c4 <tcp_write+0x2dc>)
 8011188:	f002 fcae 	bl	8013ae8 <iprintf>
 801118c:	f8b4 3066 	ldrh.w	r3, [r4, #102]	; 0x66
 8011190:	f8d4 806c 	ldr.w	r8, [r4, #108]	; 0x6c
 8011194:	9306      	str	r3, [sp, #24]
 8011196:	f1b8 0f00 	cmp.w	r8, #0
 801119a:	f000 80c3 	beq.w	8011324 <tcp_write+0x23c>
 801119e:	4646      	mov	r6, r8
 80111a0:	f8d6 b000 	ldr.w	fp, [r6]
 80111a4:	f1bb 0f00 	cmp.w	fp, #0
 80111a8:	f040 808f 	bne.w	80112ca <tcp_write+0x1e2>
 80111ac:	7ab5      	ldrb	r5, [r6, #10]
 80111ae:	8933      	ldrh	r3, [r6, #8]
 80111b0:	00ad      	lsls	r5, r5, #2
 80111b2:	9a07      	ldr	r2, [sp, #28]
 80111b4:	f005 0504 	and.w	r5, r5, #4
 80111b8:	442b      	add	r3, r5
 80111ba:	429a      	cmp	r2, r3
 80111bc:	da06      	bge.n	80111cc <tcp_write+0xe4>
 80111be:	4b7f      	ldr	r3, [pc, #508]	; (80113bc <tcp_write+0x2d4>)
 80111c0:	f44f 72f3 	mov.w	r2, #486	; 0x1e6
 80111c4:	4982      	ldr	r1, [pc, #520]	; (80113d0 <tcp_write+0x2e8>)
 80111c6:	487f      	ldr	r0, [pc, #508]	; (80113c4 <tcp_write+0x2dc>)
 80111c8:	f002 fc8e 	bl	8013ae8 <iprintf>
 80111cc:	8937      	ldrh	r7, [r6, #8]
 80111ce:	9b07      	ldr	r3, [sp, #28]
 80111d0:	1bdf      	subs	r7, r3, r7
 80111d2:	1b7f      	subs	r7, r7, r5
 80111d4:	f8b4 5068 	ldrh.w	r5, [r4, #104]	; 0x68
 80111d8:	b2bf      	uxth	r7, r7
 80111da:	f8ad 503e 	strh.w	r5, [sp, #62]	; 0x3e
 80111de:	2d00      	cmp	r5, #0
 80111e0:	d075      	beq.n	80112ce <tcp_write+0x1e6>
 80111e2:	42bd      	cmp	r5, r7
 80111e4:	d906      	bls.n	80111f4 <tcp_write+0x10c>
 80111e6:	4b75      	ldr	r3, [pc, #468]	; (80113bc <tcp_write+0x2d4>)
 80111e8:	f44f 72fc 	mov.w	r2, #504	; 0x1f8
 80111ec:	4979      	ldr	r1, [pc, #484]	; (80113d4 <tcp_write+0x2ec>)
 80111ee:	4875      	ldr	r0, [pc, #468]	; (80113c4 <tcp_write+0x2dc>)
 80111f0:	f002 fc7a 	bl	8013ae8 <iprintf>
 80111f4:	f8bd 303e 	ldrh.w	r3, [sp, #62]	; 0x3e
 80111f8:	46b0      	mov	r8, r6
 80111fa:	9a05      	ldr	r2, [sp, #20]
 80111fc:	429a      	cmp	r2, r3
 80111fe:	bf28      	it	cs
 8011200:	461a      	movcs	r2, r3
 8011202:	42ba      	cmp	r2, r7
 8011204:	4615      	mov	r5, r2
 8011206:	bfa8      	it	ge
 8011208:	463d      	movge	r5, r7
 801120a:	1b7f      	subs	r7, r7, r5
 801120c:	1b5b      	subs	r3, r3, r5
 801120e:	b2bf      	uxth	r7, r7
 8011210:	f8ad 303e 	strh.w	r3, [sp, #62]	; 0x3e
 8011214:	f8bd 303e 	ldrh.w	r3, [sp, #62]	; 0x3e
 8011218:	b153      	cbz	r3, 8011230 <tcp_write+0x148>
 801121a:	9b05      	ldr	r3, [sp, #20]
 801121c:	429d      	cmp	r5, r3
 801121e:	f000 81e8 	beq.w	80115f2 <tcp_write+0x50a>
 8011222:	4b66      	ldr	r3, [pc, #408]	; (80113bc <tcp_write+0x2d4>)
 8011224:	f44f 7200 	mov.w	r2, #512	; 0x200
 8011228:	496b      	ldr	r1, [pc, #428]	; (80113d8 <tcp_write+0x2f0>)
 801122a:	4866      	ldr	r0, [pc, #408]	; (80113c4 <tcp_write+0x2dc>)
 801122c:	f002 fc5c 	bl	8013ae8 <iprintf>
 8011230:	9b05      	ldr	r3, [sp, #20]
 8011232:	429d      	cmp	r5, r3
 8011234:	f080 81dd 	bcs.w	80115f2 <tcp_write+0x50a>
 8011238:	2f00      	cmp	r7, #0
 801123a:	f000 8166 	beq.w	801150a <tcp_write+0x422>
 801123e:	f8b6 a008 	ldrh.w	sl, [r6, #8]
 8011242:	f1ba 0f00 	cmp.w	sl, #0
 8011246:	f000 8161 	beq.w	801150c <tcp_write+0x424>
 801124a:	eba3 0a05 	sub.w	sl, r3, r5
 801124e:	9b0a      	ldr	r3, [sp, #40]	; 0x28
 8011250:	45ba      	cmp	sl, r7
 8011252:	bfa8      	it	ge
 8011254:	46ba      	movge	sl, r7
 8011256:	07db      	lsls	r3, r3, #31
 8011258:	fa1f f88a 	uxth.w	r8, sl
 801125c:	d539      	bpl.n	80112d2 <tcp_write+0x1ea>
 801125e:	2301      	movs	r3, #1
 8011260:	463a      	mov	r2, r7
 8011262:	4641      	mov	r1, r8
 8011264:	2000      	movs	r0, #0
 8011266:	9302      	str	r3, [sp, #8]
 8011268:	9b0a      	ldr	r3, [sp, #40]	; 0x28
 801126a:	e9cd 4300 	strd	r4, r3, [sp]
 801126e:	f10d 033e 	add.w	r3, sp, #62	; 0x3e
 8011272:	f7ff fdcf 	bl	8010e14 <tcp_pbuf_prealloc>
 8011276:	4681      	mov	r9, r0
 8011278:	2800      	cmp	r0, #0
 801127a:	f000 81b4 	beq.w	80115e6 <tcp_write+0x4fe>
 801127e:	9b08      	ldr	r3, [sp, #32]
 8011280:	4642      	mov	r2, r8
 8011282:	6840      	ldr	r0, [r0, #4]
 8011284:	1959      	adds	r1, r3, r5
 8011286:	f002 fc1c 	bl	8013ac2 <memcpy>
 801128a:	4648      	mov	r0, r9
 801128c:	f7fd f8fc 	bl	800e488 <pbuf_clen>
 8011290:	9b06      	ldr	r3, [sp, #24]
 8011292:	f04f 0a00 	mov.w	sl, #0
 8011296:	4403      	add	r3, r0
 8011298:	b29b      	uxth	r3, r3
 801129a:	9306      	str	r3, [sp, #24]
 801129c:	eb05 0708 	add.w	r7, r5, r8
 80112a0:	46b0      	mov	r8, r6
 80112a2:	b2bf      	uxth	r7, r7
 80112a4:	9b0a      	ldr	r3, [sp, #40]	; 0x28
 80112a6:	f04f 0b00 	mov.w	fp, #0
 80112aa:	f003 0301 	and.w	r3, r3, #1
 80112ae:	f8cd b02c 	str.w	fp, [sp, #44]	; 0x2c
 80112b2:	930c      	str	r3, [sp, #48]	; 0x30
 80112b4:	e102      	b.n	80114bc <tcp_write+0x3d4>
 80112b6:	b91b      	cbnz	r3, 80112c0 <tcp_write+0x1d8>
 80112b8:	6ee3      	ldr	r3, [r4, #108]	; 0x6c
 80112ba:	2b00      	cmp	r3, #0
 80112bc:	f43f af66 	beq.w	801118c <tcp_write+0xa4>
 80112c0:	4b3e      	ldr	r3, [pc, #248]	; (80113bc <tcp_write+0x2d4>)
 80112c2:	f240 1259 	movw	r2, #345	; 0x159
 80112c6:	4945      	ldr	r1, [pc, #276]	; (80113dc <tcp_write+0x2f4>)
 80112c8:	e75d      	b.n	8011186 <tcp_write+0x9e>
 80112ca:	465e      	mov	r6, fp
 80112cc:	e768      	b.n	80111a0 <tcp_write+0xb8>
 80112ce:	46a8      	mov	r8, r5
 80112d0:	e7a0      	b.n	8011214 <tcp_write+0x12c>
 80112d2:	6873      	ldr	r3, [r6, #4]
 80112d4:	f8d3 9000 	ldr.w	r9, [r3]
 80112d8:	f1b9 0f00 	cmp.w	r9, #0
 80112dc:	d113      	bne.n	8011306 <tcp_write+0x21e>
 80112de:	7b1a      	ldrb	r2, [r3, #12]
 80112e0:	f012 0fc0 	tst.w	r2, #192	; 0xc0
 80112e4:	d111      	bne.n	801130a <tcp_write+0x222>
 80112e6:	895a      	ldrh	r2, [r3, #10]
 80112e8:	685b      	ldr	r3, [r3, #4]
 80112ea:	4413      	add	r3, r2
 80112ec:	9a08      	ldr	r2, [sp, #32]
 80112ee:	429a      	cmp	r2, r3
 80112f0:	d10b      	bne.n	801130a <tcp_write+0x222>
 80112f2:	b135      	cbz	r5, 8011302 <tcp_write+0x21a>
 80112f4:	4b31      	ldr	r3, [pc, #196]	; (80113bc <tcp_write+0x2d4>)
 80112f6:	f240 2231 	movw	r2, #561	; 0x231
 80112fa:	4939      	ldr	r1, [pc, #228]	; (80113e0 <tcp_write+0x2f8>)
 80112fc:	4831      	ldr	r0, [pc, #196]	; (80113c4 <tcp_write+0x2dc>)
 80112fe:	f002 fbf3 	bl	8013ae8 <iprintf>
 8011302:	46c2      	mov	sl, r8
 8011304:	e7ca      	b.n	801129c <tcp_write+0x1b4>
 8011306:	464b      	mov	r3, r9
 8011308:	e7e4      	b.n	80112d4 <tcp_write+0x1ec>
 801130a:	2201      	movs	r2, #1
 801130c:	4641      	mov	r1, r8
 801130e:	2000      	movs	r0, #0
 8011310:	f7fc ffd0 	bl	800e2b4 <pbuf_alloc>
 8011314:	4681      	mov	r9, r0
 8011316:	2800      	cmp	r0, #0
 8011318:	f000 8165 	beq.w	80115e6 <tcp_write+0x4fe>
 801131c:	9b08      	ldr	r3, [sp, #32]
 801131e:	442b      	add	r3, r5
 8011320:	6043      	str	r3, [r0, #4]
 8011322:	e7b3      	b.n	801128c <tcp_write+0x1a4>
 8011324:	f8b4 7068 	ldrh.w	r7, [r4, #104]	; 0x68
 8011328:	2f00      	cmp	r7, #0
 801132a:	f000 80f2 	beq.w	8011512 <tcp_write+0x42a>
 801132e:	4b23      	ldr	r3, [pc, #140]	; (80113bc <tcp_write+0x2d4>)
 8011330:	f240 224b 	movw	r2, #587	; 0x24b
 8011334:	492b      	ldr	r1, [pc, #172]	; (80113e4 <tcp_write+0x2fc>)
 8011336:	4646      	mov	r6, r8
 8011338:	4822      	ldr	r0, [pc, #136]	; (80113c4 <tcp_write+0x2dc>)
 801133a:	46c2      	mov	sl, r8
 801133c:	f002 fbd4 	bl	8013ae8 <iprintf>
 8011340:	4645      	mov	r5, r8
 8011342:	4647      	mov	r7, r8
 8011344:	46c1      	mov	r9, r8
 8011346:	e7ad      	b.n	80112a4 <tcp_write+0x1bc>
 8011348:	9b05      	ldr	r3, [sp, #20]
 801134a:	9a07      	ldr	r2, [sp, #28]
 801134c:	1bdb      	subs	r3, r3, r7
 801134e:	b29b      	uxth	r3, r3
 8011350:	4293      	cmp	r3, r2
 8011352:	bf28      	it	cs
 8011354:	4613      	movcs	r3, r2
 8011356:	b29b      	uxth	r3, r3
 8011358:	9309      	str	r3, [sp, #36]	; 0x24
 801135a:	9b0c      	ldr	r3, [sp, #48]	; 0x30
 801135c:	2b00      	cmp	r3, #0
 801135e:	d045      	beq.n	80113ec <tcp_write+0x304>
 8011360:	fabb f38b 	clz	r3, fp
 8011364:	9909      	ldr	r1, [sp, #36]	; 0x24
 8011366:	2036      	movs	r0, #54	; 0x36
 8011368:	095b      	lsrs	r3, r3, #5
 801136a:	9302      	str	r3, [sp, #8]
 801136c:	9b0a      	ldr	r3, [sp, #40]	; 0x28
 801136e:	e9cd 4300 	strd	r4, r3, [sp]
 8011372:	f10d 033e 	add.w	r3, sp, #62	; 0x3e
 8011376:	f7ff fd4d 	bl	8010e14 <tcp_pbuf_prealloc>
 801137a:	4680      	mov	r8, r0
 801137c:	2800      	cmp	r0, #0
 801137e:	d055      	beq.n	801142c <tcp_write+0x344>
 8011380:	8943      	ldrh	r3, [r0, #10]
 8011382:	9a09      	ldr	r2, [sp, #36]	; 0x24
 8011384:	4293      	cmp	r3, r2
 8011386:	d206      	bcs.n	8011396 <tcp_write+0x2ae>
 8011388:	4b0c      	ldr	r3, [pc, #48]	; (80113bc <tcp_write+0x2d4>)
 801138a:	f240 2267 	movw	r2, #615	; 0x267
 801138e:	4916      	ldr	r1, [pc, #88]	; (80113e8 <tcp_write+0x300>)
 8011390:	480c      	ldr	r0, [pc, #48]	; (80113c4 <tcp_write+0x2dc>)
 8011392:	f002 fba9 	bl	8013ae8 <iprintf>
 8011396:	f8d8 0004 	ldr.w	r0, [r8, #4]
 801139a:	e9dd 3208 	ldrd	r3, r2, [sp, #32]
 801139e:	19d9      	adds	r1, r3, r7
 80113a0:	f002 fb8f 	bl	8013ac2 <memcpy>
 80113a4:	4640      	mov	r0, r8
 80113a6:	f7fd f86f 	bl	800e488 <pbuf_clen>
 80113aa:	9b06      	ldr	r3, [sp, #24]
 80113ac:	4403      	add	r3, r0
 80113ae:	b29b      	uxth	r3, r3
 80113b0:	2b09      	cmp	r3, #9
 80113b2:	9306      	str	r3, [sp, #24]
 80113b4:	d963      	bls.n	801147e <tcp_write+0x396>
 80113b6:	4640      	mov	r0, r8
 80113b8:	e036      	b.n	8011428 <tcp_write+0x340>
 80113ba:	bf00      	nop
 80113bc:	08026c02 	.word	0x08026c02
 80113c0:	08026df3 	.word	0x08026df3
 80113c4:	08014a3b 	.word	0x08014a3b
 80113c8:	08026e0a 	.word	0x08026e0a
 80113cc:	08026e3b 	.word	0x08026e3b
 80113d0:	08026ea7 	.word	0x08026ea7
 80113d4:	08026ebe 	.word	0x08026ebe
 80113d8:	08026ede 	.word	0x08026ede
 80113dc:	08026e75 	.word	0x08026e75
 80113e0:	08026efc 	.word	0x08026efc
 80113e4:	08026f25 	.word	0x08026f25
 80113e8:	08026f54 	.word	0x08026f54
 80113ec:	f8bd 303e 	ldrh.w	r3, [sp, #62]	; 0x3e
 80113f0:	b133      	cbz	r3, 8011400 <tcp_write+0x318>
 80113f2:	4b83      	ldr	r3, [pc, #524]	; (8011600 <tcp_write+0x518>)
 80113f4:	f240 2271 	movw	r2, #625	; 0x271
 80113f8:	4982      	ldr	r1, [pc, #520]	; (8011604 <tcp_write+0x51c>)
 80113fa:	4883      	ldr	r0, [pc, #524]	; (8011608 <tcp_write+0x520>)
 80113fc:	f002 fb74 	bl	8013ae8 <iprintf>
 8011400:	2201      	movs	r2, #1
 8011402:	9909      	ldr	r1, [sp, #36]	; 0x24
 8011404:	2036      	movs	r0, #54	; 0x36
 8011406:	f7fc ff55 	bl	800e2b4 <pbuf_alloc>
 801140a:	b178      	cbz	r0, 801142c <tcp_write+0x344>
 801140c:	9a08      	ldr	r2, [sp, #32]
 801140e:	2100      	movs	r1, #0
 8011410:	900d      	str	r0, [sp, #52]	; 0x34
 8011412:	443a      	add	r2, r7
 8011414:	6042      	str	r2, [r0, #4]
 8011416:	f44f 7220 	mov.w	r2, #640	; 0x280
 801141a:	2036      	movs	r0, #54	; 0x36
 801141c:	f7fc ff4a 	bl	800e2b4 <pbuf_alloc>
 8011420:	9b0d      	ldr	r3, [sp, #52]	; 0x34
 8011422:	4680      	mov	r8, r0
 8011424:	bb38      	cbnz	r0, 8011476 <tcp_write+0x38e>
 8011426:	4618      	mov	r0, r3
 8011428:	f7fc fedc 	bl	800e1e4 <pbuf_free>
 801142c:	8b63      	ldrh	r3, [r4, #26]
 801142e:	f043 0380 	orr.w	r3, r3, #128	; 0x80
 8011432:	8363      	strh	r3, [r4, #26]
 8011434:	f1b9 0f00 	cmp.w	r9, #0
 8011438:	d002      	beq.n	8011440 <tcp_write+0x358>
 801143a:	4648      	mov	r0, r9
 801143c:	f7fc fed2 	bl	800e1e4 <pbuf_free>
 8011440:	f1bb 0f00 	cmp.w	fp, #0
 8011444:	d002      	beq.n	801144c <tcp_write+0x364>
 8011446:	4658      	mov	r0, fp
 8011448:	f7fd fb1c 	bl	800ea84 <tcp_segs_free>
 801144c:	f8b4 3066 	ldrh.w	r3, [r4, #102]	; 0x66
 8011450:	2b00      	cmp	r3, #0
 8011452:	f43f ae86 	beq.w	8011162 <tcp_write+0x7a>
 8011456:	6f23      	ldr	r3, [r4, #112]	; 0x70
 8011458:	2b00      	cmp	r3, #0
 801145a:	f47f ae82 	bne.w	8011162 <tcp_write+0x7a>
 801145e:	6ee3      	ldr	r3, [r4, #108]	; 0x6c
 8011460:	2b00      	cmp	r3, #0
 8011462:	f47f ae7e 	bne.w	8011162 <tcp_write+0x7a>
 8011466:	4b66      	ldr	r3, [pc, #408]	; (8011600 <tcp_write+0x518>)
 8011468:	f44f 724a 	mov.w	r2, #808	; 0x328
 801146c:	4967      	ldr	r1, [pc, #412]	; (801160c <tcp_write+0x524>)
 801146e:	4866      	ldr	r0, [pc, #408]	; (8011608 <tcp_write+0x520>)
 8011470:	f002 fb3a 	bl	8013ae8 <iprintf>
 8011474:	e675      	b.n	8011162 <tcp_write+0x7a>
 8011476:	4619      	mov	r1, r3
 8011478:	f7fd f82a 	bl	800e4d0 <pbuf_cat>
 801147c:	e792      	b.n	80113a4 <tcp_write+0x2bc>
 801147e:	6de3      	ldr	r3, [r4, #92]	; 0x5c
 8011480:	2200      	movs	r2, #0
 8011482:	4641      	mov	r1, r8
 8011484:	4620      	mov	r0, r4
 8011486:	9200      	str	r2, [sp, #0]
 8011488:	443b      	add	r3, r7
 801148a:	f7ff fd0d 	bl	8010ea8 <tcp_create_segment>
 801148e:	4680      	mov	r8, r0
 8011490:	2800      	cmp	r0, #0
 8011492:	d0cb      	beq.n	801142c <tcp_write+0x344>
 8011494:	f1bb 0f00 	cmp.w	fp, #0
 8011498:	d035      	beq.n	8011506 <tcp_write+0x41e>
 801149a:	9b0b      	ldr	r3, [sp, #44]	; 0x2c
 801149c:	b933      	cbnz	r3, 80114ac <tcp_write+0x3c4>
 801149e:	4b58      	ldr	r3, [pc, #352]	; (8011600 <tcp_write+0x518>)
 80114a0:	f240 22ab 	movw	r2, #683	; 0x2ab
 80114a4:	495a      	ldr	r1, [pc, #360]	; (8011610 <tcp_write+0x528>)
 80114a6:	4858      	ldr	r0, [pc, #352]	; (8011608 <tcp_write+0x520>)
 80114a8:	f002 fb1e 	bl	8013ae8 <iprintf>
 80114ac:	9b0b      	ldr	r3, [sp, #44]	; 0x2c
 80114ae:	f8c3 8000 	str.w	r8, [r3]
 80114b2:	9b09      	ldr	r3, [sp, #36]	; 0x24
 80114b4:	f8cd 802c 	str.w	r8, [sp, #44]	; 0x2c
 80114b8:	441f      	add	r7, r3
 80114ba:	b2bf      	uxth	r7, r7
 80114bc:	9b05      	ldr	r3, [sp, #20]
 80114be:	429f      	cmp	r7, r3
 80114c0:	f4ff af42 	bcc.w	8011348 <tcp_write+0x260>
 80114c4:	b125      	cbz	r5, 80114d0 <tcp_write+0x3e8>
 80114c6:	6877      	ldr	r7, [r6, #4]
 80114c8:	bb67      	cbnz	r7, 8011524 <tcp_write+0x43c>
 80114ca:	8933      	ldrh	r3, [r6, #8]
 80114cc:	441d      	add	r5, r3
 80114ce:	8135      	strh	r5, [r6, #8]
 80114d0:	f8bd 303e 	ldrh.w	r3, [sp, #62]	; 0x3e
 80114d4:	f8a4 3068 	strh.w	r3, [r4, #104]	; 0x68
 80114d8:	f1b9 0f00 	cmp.w	r9, #0
 80114dc:	d033      	beq.n	8011546 <tcp_write+0x45e>
 80114de:	b936      	cbnz	r6, 80114ee <tcp_write+0x406>
 80114e0:	4b47      	ldr	r3, [pc, #284]	; (8011600 <tcp_write+0x518>)
 80114e2:	f240 22e1 	movw	r2, #737	; 0x2e1
 80114e6:	494b      	ldr	r1, [pc, #300]	; (8011614 <tcp_write+0x52c>)
 80114e8:	4847      	ldr	r0, [pc, #284]	; (8011608 <tcp_write+0x520>)
 80114ea:	f002 fafd 	bl	8013ae8 <iprintf>
 80114ee:	4649      	mov	r1, r9
 80114f0:	6870      	ldr	r0, [r6, #4]
 80114f2:	f7fc ffed 	bl	800e4d0 <pbuf_cat>
 80114f6:	8933      	ldrh	r3, [r6, #8]
 80114f8:	f8b9 2008 	ldrh.w	r2, [r9, #8]
 80114fc:	4413      	add	r3, r2
 80114fe:	8133      	strh	r3, [r6, #8]
 8011500:	f8c6 b000 	str.w	fp, [r6]
 8011504:	e041      	b.n	801158a <tcp_write+0x4a2>
 8011506:	4683      	mov	fp, r0
 8011508:	e7d3      	b.n	80114b2 <tcp_write+0x3ca>
 801150a:	46ba      	mov	sl, r7
 801150c:	462f      	mov	r7, r5
 801150e:	46d1      	mov	r9, sl
 8011510:	e6c8      	b.n	80112a4 <tcp_write+0x1bc>
 8011512:	46ba      	mov	sl, r7
 8011514:	463d      	mov	r5, r7
 8011516:	463e      	mov	r6, r7
 8011518:	46b9      	mov	r9, r7
 801151a:	e6c3      	b.n	80112a4 <tcp_write+0x1bc>
 801151c:	f04f 0a00 	mov.w	sl, #0
 8011520:	46d1      	mov	r9, sl
 8011522:	e7d0      	b.n	80114c6 <tcp_write+0x3de>
 8011524:	893b      	ldrh	r3, [r7, #8]
 8011526:	442b      	add	r3, r5
 8011528:	813b      	strh	r3, [r7, #8]
 801152a:	683b      	ldr	r3, [r7, #0]
 801152c:	b94b      	cbnz	r3, 8011542 <tcp_write+0x45a>
 801152e:	687b      	ldr	r3, [r7, #4]
 8011530:	462a      	mov	r2, r5
 8011532:	8978      	ldrh	r0, [r7, #10]
 8011534:	9908      	ldr	r1, [sp, #32]
 8011536:	4418      	add	r0, r3
 8011538:	f002 fac3 	bl	8013ac2 <memcpy>
 801153c:	897b      	ldrh	r3, [r7, #10]
 801153e:	442b      	add	r3, r5
 8011540:	817b      	strh	r3, [r7, #10]
 8011542:	683f      	ldr	r7, [r7, #0]
 8011544:	e7c0      	b.n	80114c8 <tcp_write+0x3e0>
 8011546:	f1ba 0f00 	cmp.w	sl, #0
 801154a:	d01a      	beq.n	8011582 <tcp_write+0x49a>
 801154c:	b10e      	cbz	r6, 8011552 <tcp_write+0x46a>
 801154e:	6873      	ldr	r3, [r6, #4]
 8011550:	b933      	cbnz	r3, 8011560 <tcp_write+0x478>
 8011552:	4b2b      	ldr	r3, [pc, #172]	; (8011600 <tcp_write+0x518>)
 8011554:	f240 22e7 	movw	r2, #743	; 0x2e7
 8011558:	492f      	ldr	r1, [pc, #188]	; (8011618 <tcp_write+0x530>)
 801155a:	482b      	ldr	r0, [pc, #172]	; (8011608 <tcp_write+0x520>)
 801155c:	f002 fac4 	bl	8013ae8 <iprintf>
 8011560:	6873      	ldr	r3, [r6, #4]
 8011562:	891a      	ldrh	r2, [r3, #8]
 8011564:	6819      	ldr	r1, [r3, #0]
 8011566:	4452      	add	r2, sl
 8011568:	b292      	uxth	r2, r2
 801156a:	811a      	strh	r2, [r3, #8]
 801156c:	b939      	cbnz	r1, 801157e <tcp_write+0x496>
 801156e:	895a      	ldrh	r2, [r3, #10]
 8011570:	4452      	add	r2, sl
 8011572:	815a      	strh	r2, [r3, #10]
 8011574:	8933      	ldrh	r3, [r6, #8]
 8011576:	449a      	add	sl, r3
 8011578:	f8a6 a008 	strh.w	sl, [r6, #8]
 801157c:	e7c0      	b.n	8011500 <tcp_write+0x418>
 801157e:	460b      	mov	r3, r1
 8011580:	e7ef      	b.n	8011562 <tcp_write+0x47a>
 8011582:	2e00      	cmp	r6, #0
 8011584:	d1bc      	bne.n	8011500 <tcp_write+0x418>
 8011586:	f8c4 b06c 	str.w	fp, [r4, #108]	; 0x6c
 801158a:	6de3      	ldr	r3, [r4, #92]	; 0x5c
 801158c:	9a05      	ldr	r2, [sp, #20]
 801158e:	4413      	add	r3, r2
 8011590:	65e3      	str	r3, [r4, #92]	; 0x5c
 8011592:	f8b4 3064 	ldrh.w	r3, [r4, #100]	; 0x64
 8011596:	1a9b      	subs	r3, r3, r2
 8011598:	f8a4 3064 	strh.w	r3, [r4, #100]	; 0x64
 801159c:	9b06      	ldr	r3, [sp, #24]
 801159e:	f8a4 3066 	strh.w	r3, [r4, #102]	; 0x66
 80115a2:	b153      	cbz	r3, 80115ba <tcp_write+0x4d2>
 80115a4:	6f23      	ldr	r3, [r4, #112]	; 0x70
 80115a6:	b943      	cbnz	r3, 80115ba <tcp_write+0x4d2>
 80115a8:	6ee3      	ldr	r3, [r4, #108]	; 0x6c
 80115aa:	b933      	cbnz	r3, 80115ba <tcp_write+0x4d2>
 80115ac:	4b14      	ldr	r3, [pc, #80]	; (8011600 <tcp_write+0x518>)
 80115ae:	f240 3213 	movw	r2, #787	; 0x313
 80115b2:	4916      	ldr	r1, [pc, #88]	; (801160c <tcp_write+0x524>)
 80115b4:	4814      	ldr	r0, [pc, #80]	; (8011608 <tcp_write+0x520>)
 80115b6:	f002 fa97 	bl	8013ae8 <iprintf>
 80115ba:	f1b8 0f00 	cmp.w	r8, #0
 80115be:	d010      	beq.n	80115e2 <tcp_write+0x4fa>
 80115c0:	f8d8 000c 	ldr.w	r0, [r8, #12]
 80115c4:	2800      	cmp	r0, #0
 80115c6:	f43f ada3 	beq.w	8011110 <tcp_write+0x28>
 80115ca:	9b0a      	ldr	r3, [sp, #40]	; 0x28
 80115cc:	f013 0502 	ands.w	r5, r3, #2
 80115d0:	d107      	bne.n	80115e2 <tcp_write+0x4fa>
 80115d2:	8984      	ldrh	r4, [r0, #12]
 80115d4:	2008      	movs	r0, #8
 80115d6:	f7fc f863 	bl	800d6a0 <lwip_htons>
 80115da:	f8d8 300c 	ldr.w	r3, [r8, #12]
 80115de:	4320      	orrs	r0, r4
 80115e0:	8198      	strh	r0, [r3, #12]
 80115e2:	2000      	movs	r0, #0
 80115e4:	e594      	b.n	8011110 <tcp_write+0x28>
 80115e6:	f04f 0900 	mov.w	r9, #0
 80115ea:	e71f      	b.n	801142c <tcp_write+0x344>
 80115ec:	f06f 000a 	mvn.w	r0, #10
 80115f0:	e58e      	b.n	8011110 <tcp_write+0x28>
 80115f2:	2d00      	cmp	r5, #0
 80115f4:	d192      	bne.n	801151c <tcp_write+0x434>
 80115f6:	f8bd 303e 	ldrh.w	r3, [sp, #62]	; 0x3e
 80115fa:	f8a4 3068 	strh.w	r3, [r4, #104]	; 0x68
 80115fe:	e77f      	b.n	8011500 <tcp_write+0x418>
 8011600:	08026c02 	.word	0x08026c02
 8011604:	08026f92 	.word	0x08026f92
 8011608:	08014a3b 	.word	0x08014a3b
 801160c:	0802701e 	.word	0x0802701e
 8011610:	08026fa0 	.word	0x08026fa0
 8011614:	08026fb1 	.word	0x08026fb1
 8011618:	08026fe9 	.word	0x08026fe9

0801161c <tcp_split_unsent_seg>:
 801161c:	e92d 4ff7 	stmdb	sp!, {r0, r1, r2, r4, r5, r6, r7, r8, r9, sl, fp, lr}
 8011620:	4689      	mov	r9, r1
 8011622:	4605      	mov	r5, r0
 8011624:	b930      	cbnz	r0, 8011634 <tcp_split_unsent_seg+0x18>
 8011626:	4b5a      	ldr	r3, [pc, #360]	; (8011790 <tcp_split_unsent_seg+0x174>)
 8011628:	f240 324b 	movw	r2, #843	; 0x34b
 801162c:	4959      	ldr	r1, [pc, #356]	; (8011794 <tcp_split_unsent_seg+0x178>)
 801162e:	485a      	ldr	r0, [pc, #360]	; (8011798 <tcp_split_unsent_seg+0x17c>)
 8011630:	f002 fa5a 	bl	8013ae8 <iprintf>
 8011634:	6eec      	ldr	r4, [r5, #108]	; 0x6c
 8011636:	b914      	cbnz	r4, 801163e <tcp_split_unsent_seg+0x22>
 8011638:	f04f 30ff 	mov.w	r0, #4294967295	; 0xffffffff
 801163c:	e00b      	b.n	8011656 <tcp_split_unsent_seg+0x3a>
 801163e:	f1b9 0f00 	cmp.w	r9, #0
 8011642:	d10b      	bne.n	801165c <tcp_split_unsent_seg+0x40>
 8011644:	4b52      	ldr	r3, [pc, #328]	; (8011790 <tcp_split_unsent_seg+0x174>)
 8011646:	f240 3253 	movw	r2, #851	; 0x353
 801164a:	4954      	ldr	r1, [pc, #336]	; (801179c <tcp_split_unsent_seg+0x180>)
 801164c:	4852      	ldr	r0, [pc, #328]	; (8011798 <tcp_split_unsent_seg+0x17c>)
 801164e:	f002 fa4b 	bl	8013ae8 <iprintf>
 8011652:	f06f 0005 	mvn.w	r0, #5
 8011656:	b003      	add	sp, #12
 8011658:	e8bd 8ff0 	ldmia.w	sp!, {r4, r5, r6, r7, r8, r9, sl, fp, pc}
 801165c:	8923      	ldrh	r3, [r4, #8]
 801165e:	454b      	cmp	r3, r9
 8011660:	d801      	bhi.n	8011666 <tcp_split_unsent_seg+0x4a>
 8011662:	2000      	movs	r0, #0
 8011664:	e7f7      	b.n	8011656 <tcp_split_unsent_seg+0x3a>
 8011666:	8e6b      	ldrh	r3, [r5, #50]	; 0x32
 8011668:	454b      	cmp	r3, r9
 801166a:	d206      	bcs.n	801167a <tcp_split_unsent_seg+0x5e>
 801166c:	4b48      	ldr	r3, [pc, #288]	; (8011790 <tcp_split_unsent_seg+0x174>)
 801166e:	f240 325b 	movw	r2, #859	; 0x35b
 8011672:	494b      	ldr	r1, [pc, #300]	; (80117a0 <tcp_split_unsent_seg+0x184>)
 8011674:	4848      	ldr	r0, [pc, #288]	; (8011798 <tcp_split_unsent_seg+0x17c>)
 8011676:	f002 fa37 	bl	8013ae8 <iprintf>
 801167a:	8923      	ldrh	r3, [r4, #8]
 801167c:	b933      	cbnz	r3, 801168c <tcp_split_unsent_seg+0x70>
 801167e:	4b44      	ldr	r3, [pc, #272]	; (8011790 <tcp_split_unsent_seg+0x174>)
 8011680:	f44f 7257 	mov.w	r2, #860	; 0x35c
 8011684:	4947      	ldr	r1, [pc, #284]	; (80117a4 <tcp_split_unsent_seg+0x188>)
 8011686:	4844      	ldr	r0, [pc, #272]	; (8011798 <tcp_split_unsent_seg+0x17c>)
 8011688:	f002 fa2e 	bl	8013ae8 <iprintf>
 801168c:	f894 b00a 	ldrb.w	fp, [r4, #10]
 8011690:	f44f 7220 	mov.w	r2, #640	; 0x280
 8011694:	8927      	ldrh	r7, [r4, #8]
 8011696:	2036      	movs	r0, #54	; 0x36
 8011698:	ea4f 068b 	mov.w	r6, fp, lsl #2
 801169c:	eba7 0709 	sub.w	r7, r7, r9
 80116a0:	f006 0604 	and.w	r6, r6, #4
 80116a4:	b2bf      	uxth	r7, r7
 80116a6:	19b9      	adds	r1, r7, r6
 80116a8:	b289      	uxth	r1, r1
 80116aa:	f7fc fe03 	bl	800e2b4 <pbuf_alloc>
 80116ae:	4682      	mov	sl, r0
 80116b0:	2800      	cmp	r0, #0
 80116b2:	d0c1      	beq.n	8011638 <tcp_split_unsent_seg+0x1c>
 80116b4:	6860      	ldr	r0, [r4, #4]
 80116b6:	8922      	ldrh	r2, [r4, #8]
 80116b8:	8903      	ldrh	r3, [r0, #8]
 80116ba:	f8da 1004 	ldr.w	r1, [sl, #4]
 80116be:	1a9b      	subs	r3, r3, r2
 80116c0:	463a      	mov	r2, r7
 80116c2:	4431      	add	r1, r6
 80116c4:	444b      	add	r3, r9
 80116c6:	b29b      	uxth	r3, r3
 80116c8:	f7fc ffbe 	bl	800e648 <pbuf_copy_partial>
 80116cc:	42b8      	cmp	r0, r7
 80116ce:	d15b      	bne.n	8011788 <tcp_split_unsent_seg+0x16c>
 80116d0:	68e3      	ldr	r3, [r4, #12]
 80116d2:	8998      	ldrh	r0, [r3, #12]
 80116d4:	f7fb ffe4 	bl	800d6a0 <lwip_htons>
 80116d8:	b2c6      	uxtb	r6, r0
 80116da:	f016 0808 	ands.w	r8, r6, #8
 80116de:	bf0e      	itee	eq
 80116e0:	f006 063f 	andeq.w	r6, r6, #63	; 0x3f
 80116e4:	f006 0637 	andne.w	r6, r6, #55	; 0x37
 80116e8:	f04f 0808 	movne.w	r8, #8
 80116ec:	07f3      	lsls	r3, r6, #31
 80116ee:	68e3      	ldr	r3, [r4, #12]
 80116f0:	bf48      	it	mi
 80116f2:	f048 0801 	orrmi.w	r8, r8, #1
 80116f6:	6858      	ldr	r0, [r3, #4]
 80116f8:	bf48      	it	mi
 80116fa:	f006 06fe 	andmi.w	r6, r6, #254	; 0xfe
 80116fe:	f7fb ffd2 	bl	800d6a6 <lwip_htonl>
 8011702:	4642      	mov	r2, r8
 8011704:	eb09 0300 	add.w	r3, r9, r0
 8011708:	f8cd b000 	str.w	fp, [sp]
 801170c:	4651      	mov	r1, sl
 801170e:	4628      	mov	r0, r5
 8011710:	f7ff fbca 	bl	8010ea8 <tcp_create_segment>
 8011714:	4680      	mov	r8, r0
 8011716:	2800      	cmp	r0, #0
 8011718:	d036      	beq.n	8011788 <tcp_split_unsent_seg+0x16c>
 801171a:	6860      	ldr	r0, [r4, #4]
 801171c:	f7fc feb4 	bl	800e488 <pbuf_clen>
 8011720:	f8b5 3066 	ldrh.w	r3, [r5, #102]	; 0x66
 8011724:	1a18      	subs	r0, r3, r0
 8011726:	f8a5 0066 	strh.w	r0, [r5, #102]	; 0x66
 801172a:	6860      	ldr	r0, [r4, #4]
 801172c:	8901      	ldrh	r1, [r0, #8]
 801172e:	1bc9      	subs	r1, r1, r7
 8011730:	b289      	uxth	r1, r1
 8011732:	f7fc fe51 	bl	800e3d8 <pbuf_realloc>
 8011736:	8923      	ldrh	r3, [r4, #8]
 8011738:	4630      	mov	r0, r6
 801173a:	1bdf      	subs	r7, r3, r7
 801173c:	68e3      	ldr	r3, [r4, #12]
 801173e:	8127      	strh	r7, [r4, #8]
 8011740:	899f      	ldrh	r7, [r3, #12]
 8011742:	f7fb ffad 	bl	800d6a0 <lwip_htons>
 8011746:	68e3      	ldr	r3, [r4, #12]
 8011748:	4338      	orrs	r0, r7
 801174a:	8198      	strh	r0, [r3, #12]
 801174c:	6860      	ldr	r0, [r4, #4]
 801174e:	f7fc fe9b 	bl	800e488 <pbuf_clen>
 8011752:	f8b5 3066 	ldrh.w	r3, [r5, #102]	; 0x66
 8011756:	4418      	add	r0, r3
 8011758:	f8a5 0066 	strh.w	r0, [r5, #102]	; 0x66
 801175c:	f8d8 0004 	ldr.w	r0, [r8, #4]
 8011760:	f7fc fe92 	bl	800e488 <pbuf_clen>
 8011764:	f8b5 3066 	ldrh.w	r3, [r5, #102]	; 0x66
 8011768:	4418      	add	r0, r3
 801176a:	6823      	ldr	r3, [r4, #0]
 801176c:	f8a5 0066 	strh.w	r0, [r5, #102]	; 0x66
 8011770:	f8c8 3000 	str.w	r3, [r8]
 8011774:	f8c4 8000 	str.w	r8, [r4]
 8011778:	f8d8 0000 	ldr.w	r0, [r8]
 801177c:	2800      	cmp	r0, #0
 801177e:	f47f af70 	bne.w	8011662 <tcp_split_unsent_seg+0x46>
 8011782:	f8a5 0068 	strh.w	r0, [r5, #104]	; 0x68
 8011786:	e766      	b.n	8011656 <tcp_split_unsent_seg+0x3a>
 8011788:	4650      	mov	r0, sl
 801178a:	f7fc fd2b 	bl	800e1e4 <pbuf_free>
 801178e:	e753      	b.n	8011638 <tcp_split_unsent_seg+0x1c>
 8011790:	08026c02 	.word	0x08026c02
 8011794:	08026d94 	.word	0x08026d94
 8011798:	08014a3b 	.word	0x08014a3b
 801179c:	08026db6 	.word	0x08026db6
 80117a0:	08026dd8 	.word	0x08026dd8
 80117a4:	08026de5 	.word	0x08026de5

080117a8 <tcp_enqueue_flags>:
 80117a8:	e92d 43f7 	stmdb	sp!, {r0, r1, r2, r4, r5, r6, r7, r8, r9, lr}
 80117ac:	f011 0803 	ands.w	r8, r1, #3
 80117b0:	4604      	mov	r4, r0
 80117b2:	460e      	mov	r6, r1
 80117b4:	d106      	bne.n	80117c4 <tcp_enqueue_flags+0x1c>
 80117b6:	4b3e      	ldr	r3, [pc, #248]	; (80118b0 <tcp_enqueue_flags+0x108>)
 80117b8:	f240 4212 	movw	r2, #1042	; 0x412
 80117bc:	493d      	ldr	r1, [pc, #244]	; (80118b4 <tcp_enqueue_flags+0x10c>)
 80117be:	483e      	ldr	r0, [pc, #248]	; (80118b8 <tcp_enqueue_flags+0x110>)
 80117c0:	f002 f992 	bl	8013ae8 <iprintf>
 80117c4:	b934      	cbnz	r4, 80117d4 <tcp_enqueue_flags+0x2c>
 80117c6:	4b3a      	ldr	r3, [pc, #232]	; (80118b0 <tcp_enqueue_flags+0x108>)
 80117c8:	f240 4213 	movw	r2, #1043	; 0x413
 80117cc:	493b      	ldr	r1, [pc, #236]	; (80118bc <tcp_enqueue_flags+0x114>)
 80117ce:	483a      	ldr	r0, [pc, #232]	; (80118b8 <tcp_enqueue_flags+0x110>)
 80117d0:	f002 f98a 	bl	8013ae8 <iprintf>
 80117d4:	f3c6 0740 	ubfx	r7, r6, #1, #1
 80117d8:	f44f 7220 	mov.w	r2, #640	; 0x280
 80117dc:	2036      	movs	r0, #54	; 0x36
 80117de:	ea4f 0987 	mov.w	r9, r7, lsl #2
 80117e2:	4649      	mov	r1, r9
 80117e4:	f7fc fd66 	bl	800e2b4 <pbuf_alloc>
 80117e8:	4605      	mov	r5, r0
 80117ea:	b940      	cbnz	r0, 80117fe <tcp_enqueue_flags+0x56>
 80117ec:	8b63      	ldrh	r3, [r4, #26]
 80117ee:	f04f 30ff 	mov.w	r0, #4294967295	; 0xffffffff
 80117f2:	f043 0380 	orr.w	r3, r3, #128	; 0x80
 80117f6:	8363      	strh	r3, [r4, #26]
 80117f8:	b003      	add	sp, #12
 80117fa:	e8bd 83f0 	ldmia.w	sp!, {r4, r5, r6, r7, r8, r9, pc}
 80117fe:	8943      	ldrh	r3, [r0, #10]
 8011800:	454b      	cmp	r3, r9
 8011802:	d206      	bcs.n	8011812 <tcp_enqueue_flags+0x6a>
 8011804:	4b2a      	ldr	r3, [pc, #168]	; (80118b0 <tcp_enqueue_flags+0x108>)
 8011806:	f240 423a 	movw	r2, #1082	; 0x43a
 801180a:	492d      	ldr	r1, [pc, #180]	; (80118c0 <tcp_enqueue_flags+0x118>)
 801180c:	482a      	ldr	r0, [pc, #168]	; (80118b8 <tcp_enqueue_flags+0x110>)
 801180e:	f002 f96b 	bl	8013ae8 <iprintf>
 8011812:	9700      	str	r7, [sp, #0]
 8011814:	4629      	mov	r1, r5
 8011816:	6de3      	ldr	r3, [r4, #92]	; 0x5c
 8011818:	4632      	mov	r2, r6
 801181a:	4620      	mov	r0, r4
 801181c:	f7ff fb44 	bl	8010ea8 <tcp_create_segment>
 8011820:	4605      	mov	r5, r0
 8011822:	2800      	cmp	r0, #0
 8011824:	d0e2      	beq.n	80117ec <tcp_enqueue_flags+0x44>
 8011826:	68c3      	ldr	r3, [r0, #12]
 8011828:	079a      	lsls	r2, r3, #30
 801182a:	d006      	beq.n	801183a <tcp_enqueue_flags+0x92>
 801182c:	4b20      	ldr	r3, [pc, #128]	; (80118b0 <tcp_enqueue_flags+0x108>)
 801182e:	f240 4242 	movw	r2, #1090	; 0x442
 8011832:	4924      	ldr	r1, [pc, #144]	; (80118c4 <tcp_enqueue_flags+0x11c>)
 8011834:	4820      	ldr	r0, [pc, #128]	; (80118b8 <tcp_enqueue_flags+0x110>)
 8011836:	f002 f957 	bl	8013ae8 <iprintf>
 801183a:	892b      	ldrh	r3, [r5, #8]
 801183c:	b133      	cbz	r3, 801184c <tcp_enqueue_flags+0xa4>
 801183e:	4b1c      	ldr	r3, [pc, #112]	; (80118b0 <tcp_enqueue_flags+0x108>)
 8011840:	f240 4243 	movw	r2, #1091	; 0x443
 8011844:	4920      	ldr	r1, [pc, #128]	; (80118c8 <tcp_enqueue_flags+0x120>)
 8011846:	481c      	ldr	r0, [pc, #112]	; (80118b8 <tcp_enqueue_flags+0x110>)
 8011848:	f002 f94e 	bl	8013ae8 <iprintf>
 801184c:	6ee3      	ldr	r3, [r4, #108]	; 0x6c
 801184e:	bb4b      	cbnz	r3, 80118a4 <tcp_enqueue_flags+0xfc>
 8011850:	66e5      	str	r5, [r4, #108]	; 0x6c
 8011852:	2300      	movs	r3, #0
 8011854:	f8a4 3068 	strh.w	r3, [r4, #104]	; 0x68
 8011858:	f1b8 0f00 	cmp.w	r8, #0
 801185c:	d002      	beq.n	8011864 <tcp_enqueue_flags+0xbc>
 801185e:	6de3      	ldr	r3, [r4, #92]	; 0x5c
 8011860:	3301      	adds	r3, #1
 8011862:	65e3      	str	r3, [r4, #92]	; 0x5c
 8011864:	07f3      	lsls	r3, r6, #31
 8011866:	6868      	ldr	r0, [r5, #4]
 8011868:	bf42      	ittt	mi
 801186a:	8b63      	ldrhmi	r3, [r4, #26]
 801186c:	f043 0320 	orrmi.w	r3, r3, #32
 8011870:	8363      	strhmi	r3, [r4, #26]
 8011872:	f7fc fe09 	bl	800e488 <pbuf_clen>
 8011876:	f8b4 3066 	ldrh.w	r3, [r4, #102]	; 0x66
 801187a:	4418      	add	r0, r3
 801187c:	b280      	uxth	r0, r0
 801187e:	f8a4 0066 	strh.w	r0, [r4, #102]	; 0x66
 8011882:	2800      	cmp	r0, #0
 8011884:	d0b8      	beq.n	80117f8 <tcp_enqueue_flags+0x50>
 8011886:	6f20      	ldr	r0, [r4, #112]	; 0x70
 8011888:	b948      	cbnz	r0, 801189e <tcp_enqueue_flags+0xf6>
 801188a:	6ee4      	ldr	r4, [r4, #108]	; 0x6c
 801188c:	2c00      	cmp	r4, #0
 801188e:	d1b3      	bne.n	80117f8 <tcp_enqueue_flags+0x50>
 8011890:	4b07      	ldr	r3, [pc, #28]	; (80118b0 <tcp_enqueue_flags+0x108>)
 8011892:	f240 4266 	movw	r2, #1126	; 0x466
 8011896:	490d      	ldr	r1, [pc, #52]	; (80118cc <tcp_enqueue_flags+0x124>)
 8011898:	4807      	ldr	r0, [pc, #28]	; (80118b8 <tcp_enqueue_flags+0x110>)
 801189a:	f002 f925 	bl	8013ae8 <iprintf>
 801189e:	2000      	movs	r0, #0
 80118a0:	e7aa      	b.n	80117f8 <tcp_enqueue_flags+0x50>
 80118a2:	4613      	mov	r3, r2
 80118a4:	681a      	ldr	r2, [r3, #0]
 80118a6:	2a00      	cmp	r2, #0
 80118a8:	d1fb      	bne.n	80118a2 <tcp_enqueue_flags+0xfa>
 80118aa:	601d      	str	r5, [r3, #0]
 80118ac:	e7d1      	b.n	8011852 <tcp_enqueue_flags+0xaa>
 80118ae:	bf00      	nop
 80118b0:	08026c02 	.word	0x08026c02
 80118b4:	080269c6 	.word	0x080269c6
 80118b8:	08014a3b 	.word	0x08014a3b
 80118bc:	08026a1b 	.word	0x08026a1b
 80118c0:	08026a3a 	.word	0x08026a3a
 80118c4:	08026a73 	.word	0x08026a73
 80118c8:	08026a8b 	.word	0x08026a8b
 80118cc:	08026ab5 	.word	0x08026ab5

080118d0 <tcp_send_fin>:
 80118d0:	b5f8      	push	{r3, r4, r5, r6, r7, lr}
 80118d2:	4605      	mov	r5, r0
 80118d4:	b930      	cbnz	r0, 80118e4 <tcp_send_fin+0x14>
 80118d6:	4b14      	ldr	r3, [pc, #80]	; (8011928 <tcp_send_fin+0x58>)
 80118d8:	f240 32eb 	movw	r2, #1003	; 0x3eb
 80118dc:	4913      	ldr	r1, [pc, #76]	; (801192c <tcp_send_fin+0x5c>)
 80118de:	4814      	ldr	r0, [pc, #80]	; (8011930 <tcp_send_fin+0x60>)
 80118e0:	f002 f902 	bl	8013ae8 <iprintf>
 80118e4:	6eec      	ldr	r4, [r5, #108]	; 0x6c
 80118e6:	b934      	cbnz	r4, 80118f6 <tcp_send_fin+0x26>
 80118e8:	4628      	mov	r0, r5
 80118ea:	2101      	movs	r1, #1
 80118ec:	e8bd 40f8 	ldmia.w	sp!, {r3, r4, r5, r6, r7, lr}
 80118f0:	f7ff bf5a 	b.w	80117a8 <tcp_enqueue_flags>
 80118f4:	461c      	mov	r4, r3
 80118f6:	6823      	ldr	r3, [r4, #0]
 80118f8:	2b00      	cmp	r3, #0
 80118fa:	d1fb      	bne.n	80118f4 <tcp_send_fin+0x24>
 80118fc:	68e3      	ldr	r3, [r4, #12]
 80118fe:	8998      	ldrh	r0, [r3, #12]
 8011900:	f7fb fece 	bl	800d6a0 <lwip_htons>
 8011904:	f010 0707 	ands.w	r7, r0, #7
 8011908:	d1ee      	bne.n	80118e8 <tcp_send_fin+0x18>
 801190a:	68e3      	ldr	r3, [r4, #12]
 801190c:	2001      	movs	r0, #1
 801190e:	899e      	ldrh	r6, [r3, #12]
 8011910:	f7fb fec6 	bl	800d6a0 <lwip_htons>
 8011914:	68e3      	ldr	r3, [r4, #12]
 8011916:	4330      	orrs	r0, r6
 8011918:	8198      	strh	r0, [r3, #12]
 801191a:	4638      	mov	r0, r7
 801191c:	8b6b      	ldrh	r3, [r5, #26]
 801191e:	f043 0320 	orr.w	r3, r3, #32
 8011922:	836b      	strh	r3, [r5, #26]
 8011924:	bdf8      	pop	{r3, r4, r5, r6, r7, pc}
 8011926:	bf00      	nop
 8011928:	08026c02 	.word	0x08026c02
 801192c:	08026d7a 	.word	0x08026d7a
 8011930:	08014a3b 	.word	0x08014a3b

08011934 <tcp_rexmit_rto_prepare>:
 8011934:	e92d 41f0 	stmdb	sp!, {r4, r5, r6, r7, r8, lr}
 8011938:	4604      	mov	r4, r0
 801193a:	b930      	cbnz	r0, 801194a <tcp_rexmit_rto_prepare+0x16>
 801193c:	4b1c      	ldr	r3, [pc, #112]	; (80119b0 <tcp_rexmit_rto_prepare+0x7c>)
 801193e:	f240 6263 	movw	r2, #1635	; 0x663
 8011942:	491c      	ldr	r1, [pc, #112]	; (80119b4 <tcp_rexmit_rto_prepare+0x80>)
 8011944:	481c      	ldr	r0, [pc, #112]	; (80119b8 <tcp_rexmit_rto_prepare+0x84>)
 8011946:	f002 f8cf 	bl	8013ae8 <iprintf>
 801194a:	6f25      	ldr	r5, [r4, #112]	; 0x70
 801194c:	b945      	cbnz	r5, 8011960 <tcp_rexmit_rto_prepare+0x2c>
 801194e:	f06f 0005 	mvn.w	r0, #5
 8011952:	e8bd 81f0 	ldmia.w	sp!, {r4, r5, r6, r7, r8, pc}
 8011956:	f7ff fa45 	bl	8010de4 <tcp_output_segment_busy>
 801195a:	2800      	cmp	r0, #0
 801195c:	d1f7      	bne.n	801194e <tcp_rexmit_rto_prepare+0x1a>
 801195e:	682d      	ldr	r5, [r5, #0]
 8011960:	682b      	ldr	r3, [r5, #0]
 8011962:	4628      	mov	r0, r5
 8011964:	2b00      	cmp	r3, #0
 8011966:	d1f6      	bne.n	8011956 <tcp_rexmit_rto_prepare+0x22>
 8011968:	f7ff fa3c 	bl	8010de4 <tcp_output_segment_busy>
 801196c:	4606      	mov	r6, r0
 801196e:	2800      	cmp	r0, #0
 8011970:	d1ed      	bne.n	801194e <tcp_rexmit_rto_prepare+0x1a>
 8011972:	6ee3      	ldr	r3, [r4, #108]	; 0x6c
 8011974:	602b      	str	r3, [r5, #0]
 8011976:	6f23      	ldr	r3, [r4, #112]	; 0x70
 8011978:	e9c4 301b 	strd	r3, r0, [r4, #108]	; 0x6c
 801197c:	8b63      	ldrh	r3, [r4, #26]
 801197e:	f443 6300 	orr.w	r3, r3, #2048	; 0x800
 8011982:	8363      	strh	r3, [r4, #26]
 8011984:	68eb      	ldr	r3, [r5, #12]
 8011986:	6858      	ldr	r0, [r3, #4]
 8011988:	f7fb fe8d 	bl	800d6a6 <lwip_htonl>
 801198c:	68eb      	ldr	r3, [r5, #12]
 801198e:	4607      	mov	r7, r0
 8011990:	f8b5 8008 	ldrh.w	r8, [r5, #8]
 8011994:	8998      	ldrh	r0, [r3, #12]
 8011996:	f7fb fe83 	bl	800d6a0 <lwip_htons>
 801199a:	f010 0003 	ands.w	r0, r0, #3
 801199e:	4447      	add	r7, r8
 80119a0:	6366      	str	r6, [r4, #52]	; 0x34
 80119a2:	bf18      	it	ne
 80119a4:	2001      	movne	r0, #1
 80119a6:	4438      	add	r0, r7
 80119a8:	64e0      	str	r0, [r4, #76]	; 0x4c
 80119aa:	4630      	mov	r0, r6
 80119ac:	e7d1      	b.n	8011952 <tcp_rexmit_rto_prepare+0x1e>
 80119ae:	bf00      	nop
 80119b0:	08026c02 	.word	0x08026c02
 80119b4:	08026d01 	.word	0x08026d01
 80119b8:	08014a3b 	.word	0x08014a3b

080119bc <tcp_rexmit>:
 80119bc:	b5f8      	push	{r3, r4, r5, r6, r7, lr}
 80119be:	4604      	mov	r4, r0
 80119c0:	b930      	cbnz	r0, 80119d0 <tcp_rexmit+0x14>
 80119c2:	4b1b      	ldr	r3, [pc, #108]	; (8011a30 <tcp_rexmit+0x74>)
 80119c4:	f240 62c1 	movw	r2, #1729	; 0x6c1
 80119c8:	491a      	ldr	r1, [pc, #104]	; (8011a34 <tcp_rexmit+0x78>)
 80119ca:	481b      	ldr	r0, [pc, #108]	; (8011a38 <tcp_rexmit+0x7c>)
 80119cc:	f002 f88c 	bl	8013ae8 <iprintf>
 80119d0:	6f25      	ldr	r5, [r4, #112]	; 0x70
 80119d2:	b915      	cbnz	r5, 80119da <tcp_rexmit+0x1e>
 80119d4:	f06f 0005 	mvn.w	r0, #5
 80119d8:	bdf8      	pop	{r3, r4, r5, r6, r7, pc}
 80119da:	4628      	mov	r0, r5
 80119dc:	f7ff fa02 	bl	8010de4 <tcp_output_segment_busy>
 80119e0:	2800      	cmp	r0, #0
 80119e2:	d1f7      	bne.n	80119d4 <tcp_rexmit+0x18>
 80119e4:	682b      	ldr	r3, [r5, #0]
 80119e6:	f104 066c 	add.w	r6, r4, #108	; 0x6c
 80119ea:	6723      	str	r3, [r4, #112]	; 0x70
 80119ec:	6833      	ldr	r3, [r6, #0]
 80119ee:	b983      	cbnz	r3, 8011a12 <tcp_rexmit+0x56>
 80119f0:	6833      	ldr	r3, [r6, #0]
 80119f2:	602b      	str	r3, [r5, #0]
 80119f4:	6035      	str	r5, [r6, #0]
 80119f6:	682b      	ldr	r3, [r5, #0]
 80119f8:	b90b      	cbnz	r3, 80119fe <tcp_rexmit+0x42>
 80119fa:	f8a4 3068 	strh.w	r3, [r4, #104]	; 0x68
 80119fe:	f894 3042 	ldrb.w	r3, [r4, #66]	; 0x42
 8011a02:	2000      	movs	r0, #0
 8011a04:	2bff      	cmp	r3, #255	; 0xff
 8011a06:	6360      	str	r0, [r4, #52]	; 0x34
 8011a08:	bf1c      	itt	ne
 8011a0a:	3301      	addne	r3, #1
 8011a0c:	f884 3042 	strbne.w	r3, [r4, #66]	; 0x42
 8011a10:	e7e2      	b.n	80119d8 <tcp_rexmit+0x1c>
 8011a12:	68db      	ldr	r3, [r3, #12]
 8011a14:	6858      	ldr	r0, [r3, #4]
 8011a16:	f7fb fe46 	bl	800d6a6 <lwip_htonl>
 8011a1a:	68eb      	ldr	r3, [r5, #12]
 8011a1c:	4607      	mov	r7, r0
 8011a1e:	6858      	ldr	r0, [r3, #4]
 8011a20:	f7fb fe41 	bl	800d6a6 <lwip_htonl>
 8011a24:	1a38      	subs	r0, r7, r0
 8011a26:	2800      	cmp	r0, #0
 8011a28:	dae2      	bge.n	80119f0 <tcp_rexmit+0x34>
 8011a2a:	6836      	ldr	r6, [r6, #0]
 8011a2c:	e7de      	b.n	80119ec <tcp_rexmit+0x30>
 8011a2e:	bf00      	nop
 8011a30:	08026c02 	.word	0x08026c02
 8011a34:	08026c8d 	.word	0x08026c8d
 8011a38:	08014a3b 	.word	0x08014a3b

08011a3c <tcp_rexmit_fast>:
 8011a3c:	b510      	push	{r4, lr}
 8011a3e:	4604      	mov	r4, r0
 8011a40:	b930      	cbnz	r0, 8011a50 <tcp_rexmit_fast+0x14>
 8011a42:	4b17      	ldr	r3, [pc, #92]	; (8011aa0 <tcp_rexmit_fast+0x64>)
 8011a44:	f240 62f9 	movw	r2, #1785	; 0x6f9
 8011a48:	4916      	ldr	r1, [pc, #88]	; (8011aa4 <tcp_rexmit_fast+0x68>)
 8011a4a:	4817      	ldr	r0, [pc, #92]	; (8011aa8 <tcp_rexmit_fast+0x6c>)
 8011a4c:	f002 f84c 	bl	8013ae8 <iprintf>
 8011a50:	6f23      	ldr	r3, [r4, #112]	; 0x70
 8011a52:	b31b      	cbz	r3, 8011a9c <tcp_rexmit_fast+0x60>
 8011a54:	8b63      	ldrh	r3, [r4, #26]
 8011a56:	075b      	lsls	r3, r3, #29
 8011a58:	d420      	bmi.n	8011a9c <tcp_rexmit_fast+0x60>
 8011a5a:	4620      	mov	r0, r4
 8011a5c:	f7ff ffae 	bl	80119bc <tcp_rexmit>
 8011a60:	b9e0      	cbnz	r0, 8011a9c <tcp_rexmit_fast+0x60>
 8011a62:	f8b4 2060 	ldrh.w	r2, [r4, #96]	; 0x60
 8011a66:	f8b4 3048 	ldrh.w	r3, [r4, #72]	; 0x48
 8011a6a:	4293      	cmp	r3, r2
 8011a6c:	bf38      	it	cc
 8011a6e:	085a      	lsrcc	r2, r3, #1
 8011a70:	8e63      	ldrh	r3, [r4, #50]	; 0x32
 8011a72:	bf28      	it	cs
 8011a74:	0852      	lsrcs	r2, r2, #1
 8011a76:	0059      	lsls	r1, r3, #1
 8011a78:	f8a4 204a 	strh.w	r2, [r4, #74]	; 0x4a
 8011a7c:	428a      	cmp	r2, r1
 8011a7e:	440b      	add	r3, r1
 8011a80:	bf38      	it	cc
 8011a82:	f8a4 104a 	strhcc.w	r1, [r4, #74]	; 0x4a
 8011a86:	f8b4 204a 	ldrh.w	r2, [r4, #74]	; 0x4a
 8011a8a:	4413      	add	r3, r2
 8011a8c:	f8a4 3048 	strh.w	r3, [r4, #72]	; 0x48
 8011a90:	8b63      	ldrh	r3, [r4, #26]
 8011a92:	f043 0304 	orr.w	r3, r3, #4
 8011a96:	8363      	strh	r3, [r4, #26]
 8011a98:	2300      	movs	r3, #0
 8011a9a:	8623      	strh	r3, [r4, #48]	; 0x30
 8011a9c:	bd10      	pop	{r4, pc}
 8011a9e:	bf00      	nop
 8011aa0:	08026c02 	.word	0x08026c02
 8011aa4:	08026ca5 	.word	0x08026ca5
 8011aa8:	08014a3b 	.word	0x08014a3b

08011aac <tcp_rst>:
 8011aac:	e92d 47ff 	stmdb	sp!, {r0, r1, r2, r3, r4, r5, r6, r7, r8, r9, sl, lr}
 8011ab0:	9d0c      	ldr	r5, [sp, #48]	; 0x30
 8011ab2:	4606      	mov	r6, r0
 8011ab4:	468a      	mov	sl, r1
 8011ab6:	4617      	mov	r7, r2
 8011ab8:	f8bd 8034 	ldrh.w	r8, [sp, #52]	; 0x34
 8011abc:	461c      	mov	r4, r3
 8011abe:	f8bd 9038 	ldrh.w	r9, [sp, #56]	; 0x38
 8011ac2:	b933      	cbnz	r3, 8011ad2 <tcp_rst+0x26>
 8011ac4:	4b17      	ldr	r3, [pc, #92]	; (8011b24 <tcp_rst+0x78>)
 8011ac6:	f240 72c4 	movw	r2, #1988	; 0x7c4
 8011aca:	4917      	ldr	r1, [pc, #92]	; (8011b28 <tcp_rst+0x7c>)
 8011acc:	4817      	ldr	r0, [pc, #92]	; (8011b2c <tcp_rst+0x80>)
 8011ace:	f002 f80b 	bl	8013ae8 <iprintf>
 8011ad2:	b935      	cbnz	r5, 8011ae2 <tcp_rst+0x36>
 8011ad4:	4b13      	ldr	r3, [pc, #76]	; (8011b24 <tcp_rst+0x78>)
 8011ad6:	f240 72c5 	movw	r2, #1989	; 0x7c5
 8011ada:	4915      	ldr	r1, [pc, #84]	; (8011b30 <tcp_rst+0x84>)
 8011adc:	4813      	ldr	r0, [pc, #76]	; (8011b2c <tcp_rst+0x80>)
 8011ade:	f002 f803 	bl	8013ae8 <iprintf>
 8011ae2:	4650      	mov	r0, sl
 8011ae4:	f7fb fddf 	bl	800d6a6 <lwip_htonl>
 8011ae8:	2314      	movs	r3, #20
 8011aea:	f246 0208 	movw	r2, #24584	; 0x6008
 8011aee:	f8cd 9000 	str.w	r9, [sp]
 8011af2:	2100      	movs	r1, #0
 8011af4:	e9cd 3201 	strd	r3, r2, [sp, #4]
 8011af8:	4602      	mov	r2, r0
 8011afa:	4643      	mov	r3, r8
 8011afc:	4638      	mov	r0, r7
 8011afe:	f7ff fa43 	bl	8010f88 <tcp_output_alloc_header_common.constprop.4>
 8011b02:	4607      	mov	r7, r0
 8011b04:	b150      	cbz	r0, 8011b1c <tcp_rst+0x70>
 8011b06:	f7ff faa7 	bl	8011058 <tcp_output_fill_options.isra.0.constprop.5>
 8011b0a:	462b      	mov	r3, r5
 8011b0c:	4622      	mov	r2, r4
 8011b0e:	4639      	mov	r1, r7
 8011b10:	4630      	mov	r0, r6
 8011b12:	b004      	add	sp, #16
 8011b14:	e8bd 47f0 	ldmia.w	sp!, {r4, r5, r6, r7, r8, r9, sl, lr}
 8011b18:	f7ff baae 	b.w	8011078 <tcp_output_control_segment>
 8011b1c:	b004      	add	sp, #16
 8011b1e:	e8bd 87f0 	ldmia.w	sp!, {r4, r5, r6, r7, r8, r9, sl, pc}
 8011b22:	bf00      	nop
 8011b24:	08026c02 	.word	0x08026c02
 8011b28:	08026d25 	.word	0x08026d25
 8011b2c:	08014a3b 	.word	0x08014a3b
 8011b30:	08026d3f 	.word	0x08026d3f

08011b34 <tcp_send_empty_ack>:
 8011b34:	b538      	push	{r3, r4, r5, lr}
 8011b36:	4604      	mov	r4, r0
 8011b38:	b930      	cbnz	r0, 8011b48 <tcp_send_empty_ack+0x14>
 8011b3a:	4b14      	ldr	r3, [pc, #80]	; (8011b8c <tcp_send_empty_ack+0x58>)
 8011b3c:	f240 72ea 	movw	r2, #2026	; 0x7ea
 8011b40:	4913      	ldr	r1, [pc, #76]	; (8011b90 <tcp_send_empty_ack+0x5c>)
 8011b42:	4814      	ldr	r0, [pc, #80]	; (8011b94 <tcp_send_empty_ack+0x60>)
 8011b44:	f001 ffd0 	bl	8013ae8 <iprintf>
 8011b48:	6d20      	ldr	r0, [r4, #80]	; 0x50
 8011b4a:	f7fb fdac 	bl	800d6a6 <lwip_htonl>
 8011b4e:	2100      	movs	r1, #0
 8011b50:	4602      	mov	r2, r0
 8011b52:	4620      	mov	r0, r4
 8011b54:	f7ff fa5a 	bl	801100c <tcp_output_alloc_header.constprop.3>
 8011b58:	4605      	mov	r5, r0
 8011b5a:	b930      	cbnz	r0, 8011b6a <tcp_send_empty_ack+0x36>
 8011b5c:	8b63      	ldrh	r3, [r4, #26]
 8011b5e:	f06f 0001 	mvn.w	r0, #1
 8011b62:	f043 0303 	orr.w	r3, r3, #3
 8011b66:	8363      	strh	r3, [r4, #26]
 8011b68:	bd38      	pop	{r3, r4, r5, pc}
 8011b6a:	f7ff fa75 	bl	8011058 <tcp_output_fill_options.isra.0.constprop.5>
 8011b6e:	1d23      	adds	r3, r4, #4
 8011b70:	4622      	mov	r2, r4
 8011b72:	4629      	mov	r1, r5
 8011b74:	4620      	mov	r0, r4
 8011b76:	f7ff fa7f 	bl	8011078 <tcp_output_control_segment>
 8011b7a:	8b63      	ldrh	r3, [r4, #26]
 8011b7c:	b118      	cbz	r0, 8011b86 <tcp_send_empty_ack+0x52>
 8011b7e:	f043 0303 	orr.w	r3, r3, #3
 8011b82:	8363      	strh	r3, [r4, #26]
 8011b84:	e7f0      	b.n	8011b68 <tcp_send_empty_ack+0x34>
 8011b86:	f023 0303 	bic.w	r3, r3, #3
 8011b8a:	e7fa      	b.n	8011b82 <tcp_send_empty_ack+0x4e>
 8011b8c:	08026c02 	.word	0x08026c02
 8011b90:	08026d5a 	.word	0x08026d5a
 8011b94:	08014a3b 	.word	0x08014a3b

08011b98 <tcp_output>:
 8011b98:	e92d 4ff0 	stmdb	sp!, {r4, r5, r6, r7, r8, r9, sl, fp, lr}
 8011b9c:	4604      	mov	r4, r0
 8011b9e:	b087      	sub	sp, #28
 8011ba0:	b930      	cbnz	r0, 8011bb0 <tcp_output+0x18>
 8011ba2:	4b8f      	ldr	r3, [pc, #572]	; (8011de0 <tcp_output+0x248>)
 8011ba4:	f240 42e1 	movw	r2, #1249	; 0x4e1
 8011ba8:	498e      	ldr	r1, [pc, #568]	; (8011de4 <tcp_output+0x24c>)
 8011baa:	488f      	ldr	r0, [pc, #572]	; (8011de8 <tcp_output+0x250>)
 8011bac:	f001 ff9c 	bl	8013ae8 <iprintf>
 8011bb0:	7d23      	ldrb	r3, [r4, #20]
 8011bb2:	2b01      	cmp	r3, #1
 8011bb4:	d106      	bne.n	8011bc4 <tcp_output+0x2c>
 8011bb6:	4b8a      	ldr	r3, [pc, #552]	; (8011de0 <tcp_output+0x248>)
 8011bb8:	f240 42e4 	movw	r2, #1252	; 0x4e4
 8011bbc:	498b      	ldr	r1, [pc, #556]	; (8011dec <tcp_output+0x254>)
 8011bbe:	488a      	ldr	r0, [pc, #552]	; (8011de8 <tcp_output+0x250>)
 8011bc0:	f001 ff92 	bl	8013ae8 <iprintf>
 8011bc4:	4b8a      	ldr	r3, [pc, #552]	; (8011df0 <tcp_output+0x258>)
 8011bc6:	681b      	ldr	r3, [r3, #0]
 8011bc8:	42a3      	cmp	r3, r4
 8011bca:	f000 8170 	beq.w	8011eae <tcp_output+0x316>
 8011bce:	f8b4 7060 	ldrh.w	r7, [r4, #96]	; 0x60
 8011bd2:	f8b4 3048 	ldrh.w	r3, [r4, #72]	; 0x48
 8011bd6:	6ee5      	ldr	r5, [r4, #108]	; 0x6c
 8011bd8:	429f      	cmp	r7, r3
 8011bda:	bf28      	it	cs
 8011bdc:	461f      	movcs	r7, r3
 8011bde:	b94d      	cbnz	r5, 8011bf4 <tcp_output+0x5c>
 8011be0:	8b63      	ldrh	r3, [r4, #26]
 8011be2:	0798      	lsls	r0, r3, #30
 8011be4:	f140 815f 	bpl.w	8011ea6 <tcp_output+0x30e>
 8011be8:	4620      	mov	r0, r4
 8011bea:	b007      	add	sp, #28
 8011bec:	e8bd 4ff0 	ldmia.w	sp!, {r4, r5, r6, r7, r8, r9, sl, fp, lr}
 8011bf0:	f7ff bfa0 	b.w	8011b34 <tcp_send_empty_ack>
 8011bf4:	7a20      	ldrb	r0, [r4, #8]
 8011bf6:	f104 0904 	add.w	r9, r4, #4
 8011bfa:	b328      	cbz	r0, 8011c48 <tcp_output+0xb0>
 8011bfc:	f7fc fa22 	bl	800e044 <netif_get_by_index>
 8011c00:	4680      	mov	r8, r0
 8011c02:	2800      	cmp	r0, #0
 8011c04:	f000 816c 	beq.w	8011ee0 <tcp_output+0x348>
 8011c08:	6823      	ldr	r3, [r4, #0]
 8011c0a:	b90b      	cbnz	r3, 8011c10 <tcp_output+0x78>
 8011c0c:	6843      	ldr	r3, [r0, #4]
 8011c0e:	6023      	str	r3, [r4, #0]
 8011c10:	68eb      	ldr	r3, [r5, #12]
 8011c12:	6858      	ldr	r0, [r3, #4]
 8011c14:	f7fb fd47 	bl	800d6a6 <lwip_htonl>
 8011c18:	892b      	ldrh	r3, [r5, #8]
 8011c1a:	6c62      	ldr	r2, [r4, #68]	; 0x44
 8011c1c:	1a9b      	subs	r3, r3, r2
 8011c1e:	4418      	add	r0, r3
 8011c20:	42b8      	cmp	r0, r7
 8011c22:	d915      	bls.n	8011c50 <tcp_output+0xb8>
 8011c24:	f8b4 3060 	ldrh.w	r3, [r4, #96]	; 0x60
 8011c28:	42bb      	cmp	r3, r7
 8011c2a:	d1d9      	bne.n	8011be0 <tcp_output+0x48>
 8011c2c:	6f23      	ldr	r3, [r4, #112]	; 0x70
 8011c2e:	2b00      	cmp	r3, #0
 8011c30:	d1d6      	bne.n	8011be0 <tcp_output+0x48>
 8011c32:	f894 3099 	ldrb.w	r3, [r4, #153]	; 0x99
 8011c36:	2b00      	cmp	r3, #0
 8011c38:	d1d2      	bne.n	8011be0 <tcp_output+0x48>
 8011c3a:	f44f 7280 	mov.w	r2, #256	; 0x100
 8011c3e:	f884 309a 	strb.w	r3, [r4, #154]	; 0x9a
 8011c42:	f8a4 2098 	strh.w	r2, [r4, #152]	; 0x98
 8011c46:	e7cb      	b.n	8011be0 <tcp_output+0x48>
 8011c48:	4648      	mov	r0, r9
 8011c4a:	f001 f8a1 	bl	8012d90 <ip4_route>
 8011c4e:	e7d7      	b.n	8011c00 <tcp_output+0x68>
 8011c50:	2300      	movs	r3, #0
 8011c52:	6f26      	ldr	r6, [r4, #112]	; 0x70
 8011c54:	f884 3099 	strb.w	r3, [r4, #153]	; 0x99
 8011c58:	b92e      	cbnz	r6, 8011c66 <tcp_output+0xce>
 8011c5a:	f8df a184 	ldr.w	sl, [pc, #388]	; 8011de0 <tcp_output+0x248>
 8011c5e:	f8df b188 	ldr.w	fp, [pc, #392]	; 8011de8 <tcp_output+0x250>
 8011c62:	e0e3      	b.n	8011e2c <tcp_output+0x294>
 8011c64:	461e      	mov	r6, r3
 8011c66:	6833      	ldr	r3, [r6, #0]
 8011c68:	2b00      	cmp	r3, #0
 8011c6a:	d1fb      	bne.n	8011c64 <tcp_output+0xcc>
 8011c6c:	e7f5      	b.n	8011c5a <tcp_output+0xc2>
 8011c6e:	7d23      	ldrb	r3, [r4, #20]
 8011c70:	2b02      	cmp	r3, #2
 8011c72:	d009      	beq.n	8011c88 <tcp_output+0xf0>
 8011c74:	68eb      	ldr	r3, [r5, #12]
 8011c76:	2010      	movs	r0, #16
 8011c78:	899b      	ldrh	r3, [r3, #12]
 8011c7a:	9304      	str	r3, [sp, #16]
 8011c7c:	f7fb fd10 	bl	800d6a0 <lwip_htons>
 8011c80:	9b04      	ldr	r3, [sp, #16]
 8011c82:	68ea      	ldr	r2, [r5, #12]
 8011c84:	4318      	orrs	r0, r3
 8011c86:	8190      	strh	r0, [r2, #12]
 8011c88:	4628      	mov	r0, r5
 8011c8a:	f7ff f8ab 	bl	8010de4 <tcp_output_segment_busy>
 8011c8e:	2800      	cmp	r0, #0
 8011c90:	d170      	bne.n	8011d74 <tcp_output+0x1dc>
 8011c92:	68eb      	ldr	r3, [r5, #12]
 8011c94:	6a60      	ldr	r0, [r4, #36]	; 0x24
 8011c96:	9304      	str	r3, [sp, #16]
 8011c98:	f7fb fd05 	bl	800d6a6 <lwip_htonl>
 8011c9c:	9b04      	ldr	r3, [sp, #16]
 8011c9e:	6098      	str	r0, [r3, #8]
 8011ca0:	68eb      	ldr	r3, [r5, #12]
 8011ca2:	8d60      	ldrh	r0, [r4, #42]	; 0x2a
 8011ca4:	9304      	str	r3, [sp, #16]
 8011ca6:	f7fb fcfb 	bl	800d6a0 <lwip_htons>
 8011caa:	9b04      	ldr	r3, [sp, #16]
 8011cac:	8d62      	ldrh	r2, [r4, #42]	; 0x2a
 8011cae:	81d8      	strh	r0, [r3, #14]
 8011cb0:	6a63      	ldr	r3, [r4, #36]	; 0x24
 8011cb2:	4413      	add	r3, r2
 8011cb4:	62e3      	str	r3, [r4, #44]	; 0x2c
 8011cb6:	7aaa      	ldrb	r2, [r5, #10]
 8011cb8:	68eb      	ldr	r3, [r5, #12]
 8011cba:	07d2      	lsls	r2, r2, #31
 8011cbc:	d44a      	bmi.n	8011d54 <tcp_output+0x1bc>
 8011cbe:	f103 0214 	add.w	r2, r3, #20
 8011cc2:	f9b4 3030 	ldrsh.w	r3, [r4, #48]	; 0x30
 8011cc6:	2b00      	cmp	r3, #0
 8011cc8:	bfbc      	itt	lt
 8011cca:	2300      	movlt	r3, #0
 8011ccc:	8623      	strhlt	r3, [r4, #48]	; 0x30
 8011cce:	6b63      	ldr	r3, [r4, #52]	; 0x34
 8011cd0:	b94b      	cbnz	r3, 8011ce6 <tcp_output+0x14e>
 8011cd2:	4948      	ldr	r1, [pc, #288]	; (8011df4 <tcp_output+0x25c>)
 8011cd4:	68eb      	ldr	r3, [r5, #12]
 8011cd6:	6809      	ldr	r1, [r1, #0]
 8011cd8:	9204      	str	r2, [sp, #16]
 8011cda:	6361      	str	r1, [r4, #52]	; 0x34
 8011cdc:	6858      	ldr	r0, [r3, #4]
 8011cde:	f7fb fce2 	bl	800d6a6 <lwip_htonl>
 8011ce2:	9a04      	ldr	r2, [sp, #16]
 8011ce4:	63a0      	str	r0, [r4, #56]	; 0x38
 8011ce6:	6869      	ldr	r1, [r5, #4]
 8011ce8:	68eb      	ldr	r3, [r5, #12]
 8011cea:	6848      	ldr	r0, [r1, #4]
 8011cec:	f8b1 c00a 	ldrh.w	ip, [r1, #10]
 8011cf0:	1a18      	subs	r0, r3, r0
 8011cf2:	604b      	str	r3, [r1, #4]
 8011cf4:	b280      	uxth	r0, r0
 8011cf6:	ebac 0c00 	sub.w	ip, ip, r0
 8011cfa:	f8a1 c00a 	strh.w	ip, [r1, #10]
 8011cfe:	f8b1 c008 	ldrh.w	ip, [r1, #8]
 8011d02:	ebac 0000 	sub.w	r0, ip, r0
 8011d06:	8108      	strh	r0, [r1, #8]
 8011d08:	2100      	movs	r1, #0
 8011d0a:	7419      	strb	r1, [r3, #16]
 8011d0c:	7459      	strb	r1, [r3, #17]
 8011d0e:	7aa9      	ldrb	r1, [r5, #10]
 8011d10:	0089      	lsls	r1, r1, #2
 8011d12:	f001 0104 	and.w	r1, r1, #4
 8011d16:	3114      	adds	r1, #20
 8011d18:	440b      	add	r3, r1
 8011d1a:	429a      	cmp	r2, r3
 8011d1c:	d006      	beq.n	8011d2c <tcp_output+0x194>
 8011d1e:	4653      	mov	r3, sl
 8011d20:	f240 621c 	movw	r2, #1564	; 0x61c
 8011d24:	4934      	ldr	r1, [pc, #208]	; (8011df8 <tcp_output+0x260>)
 8011d26:	4658      	mov	r0, fp
 8011d28:	f001 fede 	bl	8013ae8 <iprintf>
 8011d2c:	2206      	movs	r2, #6
 8011d2e:	7ae3      	ldrb	r3, [r4, #11]
 8011d30:	f8cd 8008 	str.w	r8, [sp, #8]
 8011d34:	4621      	mov	r1, r4
 8011d36:	9201      	str	r2, [sp, #4]
 8011d38:	7aa2      	ldrb	r2, [r4, #10]
 8011d3a:	9200      	str	r2, [sp, #0]
 8011d3c:	464a      	mov	r2, r9
 8011d3e:	6868      	ldr	r0, [r5, #4]
 8011d40:	f001 f984 	bl	801304c <ip4_output_if>
 8011d44:	b1b0      	cbz	r0, 8011d74 <tcp_output+0x1dc>
 8011d46:	8b63      	ldrh	r3, [r4, #26]
 8011d48:	f043 0380 	orr.w	r3, r3, #128	; 0x80
 8011d4c:	8363      	strh	r3, [r4, #26]
 8011d4e:	b007      	add	sp, #28
 8011d50:	e8bd 8ff0 	ldmia.w	sp!, {r4, r5, r6, r7, r8, r9, sl, fp, pc}
 8011d54:	464a      	mov	r2, r9
 8011d56:	4641      	mov	r1, r8
 8011d58:	f44f 7006 	mov.w	r0, #536	; 0x218
 8011d5c:	9304      	str	r3, [sp, #16]
 8011d5e:	f7fc ff5d 	bl	800ec1c <tcp_eff_send_mss_netif>
 8011d62:	f040 7001 	orr.w	r0, r0, #33816576	; 0x2040000
 8011d66:	f7fb fc9e 	bl	800d6a6 <lwip_htonl>
 8011d6a:	9b04      	ldr	r3, [sp, #16]
 8011d6c:	6158      	str	r0, [r3, #20]
 8011d6e:	f103 0218 	add.w	r2, r3, #24
 8011d72:	e7a6      	b.n	8011cc2 <tcp_output+0x12a>
 8011d74:	682b      	ldr	r3, [r5, #0]
 8011d76:	66e3      	str	r3, [r4, #108]	; 0x6c
 8011d78:	7d23      	ldrb	r3, [r4, #20]
 8011d7a:	2b02      	cmp	r3, #2
 8011d7c:	bf1e      	ittt	ne
 8011d7e:	8b63      	ldrhne	r3, [r4, #26]
 8011d80:	f023 0303 	bicne.w	r3, r3, #3
 8011d84:	8363      	strhne	r3, [r4, #26]
 8011d86:	68eb      	ldr	r3, [r5, #12]
 8011d88:	6858      	ldr	r0, [r3, #4]
 8011d8a:	f7fb fc8c 	bl	800d6a6 <lwip_htonl>
 8011d8e:	892a      	ldrh	r2, [r5, #8]
 8011d90:	68e9      	ldr	r1, [r5, #12]
 8011d92:	9204      	str	r2, [sp, #16]
 8011d94:	9005      	str	r0, [sp, #20]
 8011d96:	8988      	ldrh	r0, [r1, #12]
 8011d98:	f7fb fc82 	bl	800d6a0 <lwip_htons>
 8011d9c:	f010 0003 	ands.w	r0, r0, #3
 8011da0:	e9dd 2304 	ldrd	r2, r3, [sp, #16]
 8011da4:	bf18      	it	ne
 8011da6:	2001      	movne	r0, #1
 8011da8:	4413      	add	r3, r2
 8011daa:	68ea      	ldr	r2, [r5, #12]
 8011dac:	4418      	add	r0, r3
 8011dae:	6d23      	ldr	r3, [r4, #80]	; 0x50
 8011db0:	1a1b      	subs	r3, r3, r0
 8011db2:	2b00      	cmp	r3, #0
 8011db4:	892b      	ldrh	r3, [r5, #8]
 8011db6:	bfb8      	it	lt
 8011db8:	6520      	strlt	r0, [r4, #80]	; 0x50
 8011dba:	9304      	str	r3, [sp, #16]
 8011dbc:	8990      	ldrh	r0, [r2, #12]
 8011dbe:	f7fb fc6f 	bl	800d6a0 <lwip_htons>
 8011dc2:	f010 0003 	ands.w	r0, r0, #3
 8011dc6:	9b04      	ldr	r3, [sp, #16]
 8011dc8:	bf18      	it	ne
 8011dca:	2001      	movne	r0, #1
 8011dcc:	42d8      	cmn	r0, r3
 8011dce:	f000 8083 	beq.w	8011ed8 <tcp_output+0x340>
 8011dd2:	2300      	movs	r3, #0
 8011dd4:	602b      	str	r3, [r5, #0]
 8011dd6:	6f23      	ldr	r3, [r4, #112]	; 0x70
 8011dd8:	b983      	cbnz	r3, 8011dfc <tcp_output+0x264>
 8011dda:	6725      	str	r5, [r4, #112]	; 0x70
 8011ddc:	462e      	mov	r6, r5
 8011dde:	e022      	b.n	8011e26 <tcp_output+0x28e>
 8011de0:	08026c02 	.word	0x08026c02
 8011de4:	08026af8 	.word	0x08026af8
 8011de8:	08014a3b 	.word	0x08014a3b
 8011dec:	08026b10 	.word	0x08026b10
 8011df0:	2000b348 	.word	0x2000b348
 8011df4:	2000b338 	.word	0x2000b338
 8011df8:	08026b4d 	.word	0x08026b4d
 8011dfc:	68eb      	ldr	r3, [r5, #12]
 8011dfe:	6858      	ldr	r0, [r3, #4]
 8011e00:	f7fb fc51 	bl	800d6a6 <lwip_htonl>
 8011e04:	68f2      	ldr	r2, [r6, #12]
 8011e06:	9004      	str	r0, [sp, #16]
 8011e08:	6850      	ldr	r0, [r2, #4]
 8011e0a:	f7fb fc4c 	bl	800d6a6 <lwip_htonl>
 8011e0e:	9b04      	ldr	r3, [sp, #16]
 8011e10:	1a18      	subs	r0, r3, r0
 8011e12:	2800      	cmp	r0, #0
 8011e14:	da5e      	bge.n	8011ed4 <tcp_output+0x33c>
 8011e16:	f104 0370 	add.w	r3, r4, #112	; 0x70
 8011e1a:	681a      	ldr	r2, [r3, #0]
 8011e1c:	2a00      	cmp	r2, #0
 8011e1e:	d148      	bne.n	8011eb2 <tcp_output+0x31a>
 8011e20:	681a      	ldr	r2, [r3, #0]
 8011e22:	602a      	str	r2, [r5, #0]
 8011e24:	601d      	str	r5, [r3, #0]
 8011e26:	6ee5      	ldr	r5, [r4, #108]	; 0x6c
 8011e28:	2d00      	cmp	r5, #0
 8011e2a:	d038      	beq.n	8011e9e <tcp_output+0x306>
 8011e2c:	68eb      	ldr	r3, [r5, #12]
 8011e2e:	6858      	ldr	r0, [r3, #4]
 8011e30:	f7fb fc39 	bl	800d6a6 <lwip_htonl>
 8011e34:	6c63      	ldr	r3, [r4, #68]	; 0x44
 8011e36:	1ac0      	subs	r0, r0, r3
 8011e38:	892b      	ldrh	r3, [r5, #8]
 8011e3a:	4418      	add	r0, r3
 8011e3c:	42b8      	cmp	r0, r7
 8011e3e:	d82e      	bhi.n	8011e9e <tcp_output+0x306>
 8011e40:	68eb      	ldr	r3, [r5, #12]
 8011e42:	8998      	ldrh	r0, [r3, #12]
 8011e44:	f7fb fc2c 	bl	800d6a0 <lwip_htons>
 8011e48:	0741      	lsls	r1, r0, #29
 8011e4a:	d506      	bpl.n	8011e5a <tcp_output+0x2c2>
 8011e4c:	4653      	mov	r3, sl
 8011e4e:	f240 5237 	movw	r2, #1335	; 0x537
 8011e52:	4925      	ldr	r1, [pc, #148]	; (8011ee8 <tcp_output+0x350>)
 8011e54:	4658      	mov	r0, fp
 8011e56:	f001 fe47 	bl	8013ae8 <iprintf>
 8011e5a:	6f23      	ldr	r3, [r4, #112]	; 0x70
 8011e5c:	2b00      	cmp	r3, #0
 8011e5e:	f43f af06 	beq.w	8011c6e <tcp_output+0xd6>
 8011e62:	8b62      	ldrh	r2, [r4, #26]
 8011e64:	f012 0f44 	tst.w	r2, #68	; 0x44
 8011e68:	f47f af01 	bne.w	8011c6e <tcp_output+0xd6>
 8011e6c:	6ee3      	ldr	r3, [r4, #108]	; 0x6c
 8011e6e:	b143      	cbz	r3, 8011e82 <tcp_output+0x2ea>
 8011e70:	6819      	ldr	r1, [r3, #0]
 8011e72:	2900      	cmp	r1, #0
 8011e74:	f47f aefb 	bne.w	8011c6e <tcp_output+0xd6>
 8011e78:	8919      	ldrh	r1, [r3, #8]
 8011e7a:	8e63      	ldrh	r3, [r4, #50]	; 0x32
 8011e7c:	4299      	cmp	r1, r3
 8011e7e:	f4bf aef6 	bcs.w	8011c6e <tcp_output+0xd6>
 8011e82:	f8b4 3064 	ldrh.w	r3, [r4, #100]	; 0x64
 8011e86:	2b00      	cmp	r3, #0
 8011e88:	f43f aef1 	beq.w	8011c6e <tcp_output+0xd6>
 8011e8c:	f8b4 3066 	ldrh.w	r3, [r4, #102]	; 0x66
 8011e90:	2b08      	cmp	r3, #8
 8011e92:	f63f aeec 	bhi.w	8011c6e <tcp_output+0xd6>
 8011e96:	f012 0fa0 	tst.w	r2, #160	; 0xa0
 8011e9a:	f47f aee8 	bne.w	8011c6e <tcp_output+0xd6>
 8011e9e:	6ee3      	ldr	r3, [r4, #108]	; 0x6c
 8011ea0:	b90b      	cbnz	r3, 8011ea6 <tcp_output+0x30e>
 8011ea2:	f8a4 3068 	strh.w	r3, [r4, #104]	; 0x68
 8011ea6:	8b63      	ldrh	r3, [r4, #26]
 8011ea8:	f023 0380 	bic.w	r3, r3, #128	; 0x80
 8011eac:	8363      	strh	r3, [r4, #26]
 8011eae:	2000      	movs	r0, #0
 8011eb0:	e74d      	b.n	8011d4e <tcp_output+0x1b6>
 8011eb2:	68d2      	ldr	r2, [r2, #12]
 8011eb4:	9305      	str	r3, [sp, #20]
 8011eb6:	6850      	ldr	r0, [r2, #4]
 8011eb8:	f7fb fbf5 	bl	800d6a6 <lwip_htonl>
 8011ebc:	68e9      	ldr	r1, [r5, #12]
 8011ebe:	9004      	str	r0, [sp, #16]
 8011ec0:	6848      	ldr	r0, [r1, #4]
 8011ec2:	f7fb fbf0 	bl	800d6a6 <lwip_htonl>
 8011ec6:	9a04      	ldr	r2, [sp, #16]
 8011ec8:	9b05      	ldr	r3, [sp, #20]
 8011eca:	1a10      	subs	r0, r2, r0
 8011ecc:	2800      	cmp	r0, #0
 8011ece:	daa7      	bge.n	8011e20 <tcp_output+0x288>
 8011ed0:	681b      	ldr	r3, [r3, #0]
 8011ed2:	e7a2      	b.n	8011e1a <tcp_output+0x282>
 8011ed4:	6035      	str	r5, [r6, #0]
 8011ed6:	e781      	b.n	8011ddc <tcp_output+0x244>
 8011ed8:	4628      	mov	r0, r5
 8011eda:	f7fc fdc5 	bl	800ea68 <tcp_seg_free>
 8011ede:	e7a2      	b.n	8011e26 <tcp_output+0x28e>
 8011ee0:	f06f 0003 	mvn.w	r0, #3
 8011ee4:	e733      	b.n	8011d4e <tcp_output+0x1b6>
 8011ee6:	bf00      	nop
 8011ee8:	08026b36 	.word	0x08026b36

08011eec <tcp_rexmit_rto_commit>:
 8011eec:	b510      	push	{r4, lr}
 8011eee:	4604      	mov	r4, r0
 8011ef0:	b930      	cbnz	r0, 8011f00 <tcp_rexmit_rto_commit+0x14>
 8011ef2:	4b09      	ldr	r3, [pc, #36]	; (8011f18 <tcp_rexmit_rto_commit+0x2c>)
 8011ef4:	f44f 62d3 	mov.w	r2, #1688	; 0x698
 8011ef8:	4908      	ldr	r1, [pc, #32]	; (8011f1c <tcp_rexmit_rto_commit+0x30>)
 8011efa:	4809      	ldr	r0, [pc, #36]	; (8011f20 <tcp_rexmit_rto_commit+0x34>)
 8011efc:	f001 fdf4 	bl	8013ae8 <iprintf>
 8011f00:	f894 3042 	ldrb.w	r3, [r4, #66]	; 0x42
 8011f04:	4620      	mov	r0, r4
 8011f06:	2bff      	cmp	r3, #255	; 0xff
 8011f08:	bf1c      	itt	ne
 8011f0a:	3301      	addne	r3, #1
 8011f0c:	f884 3042 	strbne.w	r3, [r4, #66]	; 0x42
 8011f10:	e8bd 4010 	ldmia.w	sp!, {r4, lr}
 8011f14:	f7ff be40 	b.w	8011b98 <tcp_output>
 8011f18:	08026c02 	.word	0x08026c02
 8011f1c:	08026cde 	.word	0x08026cde
 8011f20:	08014a3b 	.word	0x08014a3b

08011f24 <tcp_rexmit_rto>:
 8011f24:	b510      	push	{r4, lr}
 8011f26:	4604      	mov	r4, r0
 8011f28:	b930      	cbnz	r0, 8011f38 <tcp_rexmit_rto+0x14>
 8011f2a:	4b08      	ldr	r3, [pc, #32]	; (8011f4c <tcp_rexmit_rto+0x28>)
 8011f2c:	f240 62ad 	movw	r2, #1709	; 0x6ad
 8011f30:	4907      	ldr	r1, [pc, #28]	; (8011f50 <tcp_rexmit_rto+0x2c>)
 8011f32:	4808      	ldr	r0, [pc, #32]	; (8011f54 <tcp_rexmit_rto+0x30>)
 8011f34:	f001 fdd8 	bl	8013ae8 <iprintf>
 8011f38:	4620      	mov	r0, r4
 8011f3a:	f7ff fcfb 	bl	8011934 <tcp_rexmit_rto_prepare>
 8011f3e:	b920      	cbnz	r0, 8011f4a <tcp_rexmit_rto+0x26>
 8011f40:	4620      	mov	r0, r4
 8011f42:	e8bd 4010 	ldmia.w	sp!, {r4, lr}
 8011f46:	f7ff bfd1 	b.w	8011eec <tcp_rexmit_rto_commit>
 8011f4a:	bd10      	pop	{r4, pc}
 8011f4c:	08026c02 	.word	0x08026c02
 8011f50:	08026cc2 	.word	0x08026cc2
 8011f54:	08014a3b 	.word	0x08014a3b

08011f58 <tcp_keepalive>:
 8011f58:	b570      	push	{r4, r5, r6, lr}
 8011f5a:	4604      	mov	r4, r0
 8011f5c:	b930      	cbnz	r0, 8011f6c <tcp_keepalive+0x14>
 8011f5e:	4b0f      	ldr	r3, [pc, #60]	; (8011f9c <tcp_keepalive+0x44>)
 8011f60:	f640 0224 	movw	r2, #2084	; 0x824
 8011f64:	490e      	ldr	r1, [pc, #56]	; (8011fa0 <tcp_keepalive+0x48>)
 8011f66:	480f      	ldr	r0, [pc, #60]	; (8011fa4 <tcp_keepalive+0x4c>)
 8011f68:	f001 fdbe 	bl	8013ae8 <iprintf>
 8011f6c:	6d20      	ldr	r0, [r4, #80]	; 0x50
 8011f6e:	3801      	subs	r0, #1
 8011f70:	f7fb fb99 	bl	800d6a6 <lwip_htonl>
 8011f74:	2100      	movs	r1, #0
 8011f76:	4602      	mov	r2, r0
 8011f78:	4620      	mov	r0, r4
 8011f7a:	f7ff f847 	bl	801100c <tcp_output_alloc_header.constprop.3>
 8011f7e:	4605      	mov	r5, r0
 8011f80:	b148      	cbz	r0, 8011f96 <tcp_keepalive+0x3e>
 8011f82:	f7ff f869 	bl	8011058 <tcp_output_fill_options.isra.0.constprop.5>
 8011f86:	1d23      	adds	r3, r4, #4
 8011f88:	4622      	mov	r2, r4
 8011f8a:	4629      	mov	r1, r5
 8011f8c:	4620      	mov	r0, r4
 8011f8e:	e8bd 4070 	ldmia.w	sp!, {r4, r5, r6, lr}
 8011f92:	f7ff b871 	b.w	8011078 <tcp_output_control_segment>
 8011f96:	f04f 30ff 	mov.w	r0, #4294967295	; 0xffffffff
 8011f9a:	bd70      	pop	{r4, r5, r6, pc}
 8011f9c:	08026c02 	.word	0x08026c02
 8011fa0:	08026add 	.word	0x08026add
 8011fa4:	08014a3b 	.word	0x08014a3b

08011fa8 <tcp_zero_window_probe>:
 8011fa8:	e92d 41f0 	stmdb	sp!, {r4, r5, r6, r7, r8, lr}
 8011fac:	4605      	mov	r5, r0
 8011fae:	b930      	cbnz	r0, 8011fbe <tcp_zero_window_probe+0x16>
 8011fb0:	4b2c      	ldr	r3, [pc, #176]	; (8012064 <tcp_zero_window_probe+0xbc>)
 8011fb2:	f640 024f 	movw	r2, #2127	; 0x84f
 8011fb6:	492c      	ldr	r1, [pc, #176]	; (8012068 <tcp_zero_window_probe+0xc0>)
 8011fb8:	482c      	ldr	r0, [pc, #176]	; (801206c <tcp_zero_window_probe+0xc4>)
 8011fba:	f001 fd95 	bl	8013ae8 <iprintf>
 8011fbe:	6eec      	ldr	r4, [r5, #108]	; 0x6c
 8011fc0:	2c00      	cmp	r4, #0
 8011fc2:	d048      	beq.n	8012056 <tcp_zero_window_probe+0xae>
 8011fc4:	f895 309a 	ldrb.w	r3, [r5, #154]	; 0x9a
 8011fc8:	2bff      	cmp	r3, #255	; 0xff
 8011fca:	bf1c      	itt	ne
 8011fcc:	3301      	addne	r3, #1
 8011fce:	f885 309a 	strbne.w	r3, [r5, #154]	; 0x9a
 8011fd2:	68e3      	ldr	r3, [r4, #12]
 8011fd4:	8998      	ldrh	r0, [r3, #12]
 8011fd6:	f7fb fb63 	bl	800d6a0 <lwip_htons>
 8011fda:	f010 0601 	ands.w	r6, r0, #1
 8011fde:	68e3      	ldr	r3, [r4, #12]
 8011fe0:	4628      	mov	r0, r5
 8011fe2:	bf18      	it	ne
 8011fe4:	8926      	ldrhne	r6, [r4, #8]
 8011fe6:	685a      	ldr	r2, [r3, #4]
 8011fe8:	bf1c      	itt	ne
 8011fea:	fab6 f686 	clzne	r6, r6
 8011fee:	0976      	lsrne	r6, r6, #5
 8011ff0:	f086 0101 	eor.w	r1, r6, #1
 8011ff4:	f7ff f80a 	bl	801100c <tcp_output_alloc_header.constprop.3>
 8011ff8:	4607      	mov	r7, r0
 8011ffa:	b378      	cbz	r0, 801205c <tcp_zero_window_probe+0xb4>
 8011ffc:	f8d0 8004 	ldr.w	r8, [r0, #4]
 8012000:	b1f6      	cbz	r6, 8012040 <tcp_zero_window_probe+0x98>
 8012002:	f9b8 600c 	ldrsh.w	r6, [r8, #12]
 8012006:	2011      	movs	r0, #17
 8012008:	f7fb fb4a 	bl	800d6a0 <lwip_htons>
 801200c:	f426 567c 	bic.w	r6, r6, #16128	; 0x3f00
 8012010:	4330      	orrs	r0, r6
 8012012:	f8a8 000c 	strh.w	r0, [r8, #12]
 8012016:	68e3      	ldr	r3, [r4, #12]
 8012018:	6858      	ldr	r0, [r3, #4]
 801201a:	f7fb fb44 	bl	800d6a6 <lwip_htonl>
 801201e:	6d2b      	ldr	r3, [r5, #80]	; 0x50
 8012020:	3001      	adds	r0, #1
 8012022:	1a1b      	subs	r3, r3, r0
 8012024:	2b00      	cmp	r3, #0
 8012026:	bfb8      	it	lt
 8012028:	6528      	strlt	r0, [r5, #80]	; 0x50
 801202a:	4638      	mov	r0, r7
 801202c:	f7ff f814 	bl	8011058 <tcp_output_fill_options.isra.0.constprop.5>
 8012030:	1d2b      	adds	r3, r5, #4
 8012032:	462a      	mov	r2, r5
 8012034:	4639      	mov	r1, r7
 8012036:	4628      	mov	r0, r5
 8012038:	e8bd 41f0 	ldmia.w	sp!, {r4, r5, r6, r7, r8, lr}
 801203c:	f7ff b81c 	b.w	8011078 <tcp_output_control_segment>
 8012040:	6860      	ldr	r0, [r4, #4]
 8012042:	f108 0114 	add.w	r1, r8, #20
 8012046:	8922      	ldrh	r2, [r4, #8]
 8012048:	8903      	ldrh	r3, [r0, #8]
 801204a:	1a9b      	subs	r3, r3, r2
 801204c:	2201      	movs	r2, #1
 801204e:	b29b      	uxth	r3, r3
 8012050:	f7fc fafa 	bl	800e648 <pbuf_copy_partial>
 8012054:	e7df      	b.n	8012016 <tcp_zero_window_probe+0x6e>
 8012056:	4620      	mov	r0, r4
 8012058:	e8bd 81f0 	ldmia.w	sp!, {r4, r5, r6, r7, r8, pc}
 801205c:	f04f 30ff 	mov.w	r0, #4294967295	; 0xffffffff
 8012060:	e7fa      	b.n	8012058 <tcp_zero_window_probe+0xb0>
 8012062:	bf00      	nop
 8012064:	08026c02 	.word	0x08026c02
 8012068:	0802703c 	.word	0x0802703c
 801206c:	08014a3b 	.word	0x08014a3b

08012070 <sys_timeout_abs>:
 8012070:	b570      	push	{r4, r5, r6, lr}
 8012072:	4604      	mov	r4, r0
 8012074:	200a      	movs	r0, #10
 8012076:	460e      	mov	r6, r1
 8012078:	4615      	mov	r5, r2
 801207a:	f7fb fe13 	bl	800dca4 <memp_malloc>
 801207e:	b938      	cbnz	r0, 8012090 <sys_timeout_abs+0x20>
 8012080:	4b10      	ldr	r3, [pc, #64]	; (80120c4 <sys_timeout_abs+0x54>)
 8012082:	22be      	movs	r2, #190	; 0xbe
 8012084:	4910      	ldr	r1, [pc, #64]	; (80120c8 <sys_timeout_abs+0x58>)
 8012086:	4811      	ldr	r0, [pc, #68]	; (80120cc <sys_timeout_abs+0x5c>)
 8012088:	e8bd 4070 	ldmia.w	sp!, {r4, r5, r6, lr}
 801208c:	f001 bd2c 	b.w	8013ae8 <iprintf>
 8012090:	2300      	movs	r3, #0
 8012092:	4a0f      	ldr	r2, [pc, #60]	; (80120d0 <sys_timeout_abs+0x60>)
 8012094:	6044      	str	r4, [r0, #4]
 8012096:	6003      	str	r3, [r0, #0]
 8012098:	6813      	ldr	r3, [r2, #0]
 801209a:	e9c0 6502 	strd	r6, r5, [r0, #8]
 801209e:	b90b      	cbnz	r3, 80120a4 <sys_timeout_abs+0x34>
 80120a0:	6010      	str	r0, [r2, #0]
 80120a2:	bd70      	pop	{r4, r5, r6, pc}
 80120a4:	6859      	ldr	r1, [r3, #4]
 80120a6:	1a61      	subs	r1, r4, r1
 80120a8:	2900      	cmp	r1, #0
 80120aa:	da02      	bge.n	80120b2 <sys_timeout_abs+0x42>
 80120ac:	6003      	str	r3, [r0, #0]
 80120ae:	e7f7      	b.n	80120a0 <sys_timeout_abs+0x30>
 80120b0:	4613      	mov	r3, r2
 80120b2:	681a      	ldr	r2, [r3, #0]
 80120b4:	b11a      	cbz	r2, 80120be <sys_timeout_abs+0x4e>
 80120b6:	6851      	ldr	r1, [r2, #4]
 80120b8:	1a61      	subs	r1, r4, r1
 80120ba:	2900      	cmp	r1, #0
 80120bc:	daf8      	bge.n	80120b0 <sys_timeout_abs+0x40>
 80120be:	6002      	str	r2, [r0, #0]
 80120c0:	6018      	str	r0, [r3, #0]
 80120c2:	e7ee      	b.n	80120a2 <sys_timeout_abs+0x32>
 80120c4:	080270ae 	.word	0x080270ae
 80120c8:	080270e2 	.word	0x080270e2
 80120cc:	08014a3b 	.word	0x08014a3b
 80120d0:	20004554 	.word	0x20004554

080120d4 <lwip_cyclic_timer>:
 80120d4:	b538      	push	{r3, r4, r5, lr}
 80120d6:	6843      	ldr	r3, [r0, #4]
 80120d8:	4604      	mov	r4, r0
 80120da:	4798      	blx	r3
 80120dc:	f7f9 f808 	bl	800b0f0 <sys_now>
 80120e0:	4b07      	ldr	r3, [pc, #28]	; (8012100 <lwip_cyclic_timer+0x2c>)
 80120e2:	6825      	ldr	r5, [r4, #0]
 80120e4:	681b      	ldr	r3, [r3, #0]
 80120e6:	4907      	ldr	r1, [pc, #28]	; (8012104 <lwip_cyclic_timer+0x30>)
 80120e8:	442b      	add	r3, r5
 80120ea:	1a1a      	subs	r2, r3, r0
 80120ec:	2a00      	cmp	r2, #0
 80120ee:	4622      	mov	r2, r4
 80120f0:	bfb4      	ite	lt
 80120f2:	1940      	addlt	r0, r0, r5
 80120f4:	4618      	movge	r0, r3
 80120f6:	e8bd 4038 	ldmia.w	sp!, {r3, r4, r5, lr}
 80120fa:	f7ff bfb9 	b.w	8012070 <sys_timeout_abs>
 80120fe:	bf00      	nop
 8012100:	20004550 	.word	0x20004550
 8012104:	080120d5 	.word	0x080120d5

08012108 <sys_timeout>:
 8012108:	f1b0 4f80 	cmp.w	r0, #1073741824	; 0x40000000
 801210c:	b570      	push	{r4, r5, r6, lr}
 801210e:	4604      	mov	r4, r0
 8012110:	460d      	mov	r5, r1
 8012112:	4616      	mov	r6, r2
 8012114:	d306      	bcc.n	8012124 <sys_timeout+0x1c>
 8012116:	4b08      	ldr	r3, [pc, #32]	; (8012138 <sys_timeout+0x30>)
 8012118:	f240 1229 	movw	r2, #297	; 0x129
 801211c:	4907      	ldr	r1, [pc, #28]	; (801213c <sys_timeout+0x34>)
 801211e:	4808      	ldr	r0, [pc, #32]	; (8012140 <sys_timeout+0x38>)
 8012120:	f001 fce2 	bl	8013ae8 <iprintf>
 8012124:	f7f8 ffe4 	bl	800b0f0 <sys_now>
 8012128:	4632      	mov	r2, r6
 801212a:	4629      	mov	r1, r5
 801212c:	4420      	add	r0, r4
 801212e:	e8bd 4070 	ldmia.w	sp!, {r4, r5, r6, lr}
 8012132:	f7ff bf9d 	b.w	8012070 <sys_timeout_abs>
 8012136:	bf00      	nop
 8012138:	080270ae 	.word	0x080270ae
 801213c:	08027078 	.word	0x08027078
 8012140:	08014a3b 	.word	0x08014a3b

08012144 <tcp_timer_needed>:
 8012144:	4b08      	ldr	r3, [pc, #32]	; (8012168 <tcp_timer_needed+0x24>)
 8012146:	681a      	ldr	r2, [r3, #0]
 8012148:	b962      	cbnz	r2, 8012164 <tcp_timer_needed+0x20>
 801214a:	4a08      	ldr	r2, [pc, #32]	; (801216c <tcp_timer_needed+0x28>)
 801214c:	6812      	ldr	r2, [r2, #0]
 801214e:	b912      	cbnz	r2, 8012156 <tcp_timer_needed+0x12>
 8012150:	4a07      	ldr	r2, [pc, #28]	; (8012170 <tcp_timer_needed+0x2c>)
 8012152:	6812      	ldr	r2, [r2, #0]
 8012154:	b132      	cbz	r2, 8012164 <tcp_timer_needed+0x20>
 8012156:	2201      	movs	r2, #1
 8012158:	4906      	ldr	r1, [pc, #24]	; (8012174 <tcp_timer_needed+0x30>)
 801215a:	20fa      	movs	r0, #250	; 0xfa
 801215c:	601a      	str	r2, [r3, #0]
 801215e:	2200      	movs	r2, #0
 8012160:	f7ff bfd2 	b.w	8012108 <sys_timeout>
 8012164:	4770      	bx	lr
 8012166:	bf00      	nop
 8012168:	20004558 	.word	0x20004558
 801216c:	2000b334 	.word	0x2000b334
 8012170:	2000b344 	.word	0x2000b344
 8012174:	08012179 	.word	0x08012179

08012178 <tcpip_tcp_timer>:
 8012178:	b508      	push	{r3, lr}
 801217a:	f7fd fb4d 	bl	800f818 <tcp_tmr>
 801217e:	4b08      	ldr	r3, [pc, #32]	; (80121a0 <tcpip_tcp_timer+0x28>)
 8012180:	681b      	ldr	r3, [r3, #0]
 8012182:	b913      	cbnz	r3, 801218a <tcpip_tcp_timer+0x12>
 8012184:	4b07      	ldr	r3, [pc, #28]	; (80121a4 <tcpip_tcp_timer+0x2c>)
 8012186:	681b      	ldr	r3, [r3, #0]
 8012188:	b133      	cbz	r3, 8012198 <tcpip_tcp_timer+0x20>
 801218a:	2200      	movs	r2, #0
 801218c:	4906      	ldr	r1, [pc, #24]	; (80121a8 <tcpip_tcp_timer+0x30>)
 801218e:	20fa      	movs	r0, #250	; 0xfa
 8012190:	e8bd 4008 	ldmia.w	sp!, {r3, lr}
 8012194:	f7ff bfb8 	b.w	8012108 <sys_timeout>
 8012198:	4a04      	ldr	r2, [pc, #16]	; (80121ac <tcpip_tcp_timer+0x34>)
 801219a:	6013      	str	r3, [r2, #0]
 801219c:	bd08      	pop	{r3, pc}
 801219e:	bf00      	nop
 80121a0:	2000b334 	.word	0x2000b334
 80121a4:	2000b344 	.word	0x2000b344
 80121a8:	08012179 	.word	0x08012179
 80121ac:	20004558 	.word	0x20004558

080121b0 <sys_timeouts_init>:
 80121b0:	b538      	push	{r3, r4, r5, lr}
 80121b2:	4d09      	ldr	r5, [pc, #36]	; (80121d8 <sys_timeouts_init+0x28>)
 80121b4:	f44f 707a 	mov.w	r0, #1000	; 0x3e8
 80121b8:	4c08      	ldr	r4, [pc, #32]	; (80121dc <sys_timeouts_init+0x2c>)
 80121ba:	f105 0208 	add.w	r2, r5, #8
 80121be:	4621      	mov	r1, r4
 80121c0:	f7ff ffa2 	bl	8012108 <sys_timeout>
 80121c4:	f105 0210 	add.w	r2, r5, #16
 80121c8:	4621      	mov	r1, r4
 80121ca:	f44f 707a 	mov.w	r0, #1000	; 0x3e8
 80121ce:	e8bd 4038 	ldmia.w	sp!, {r3, r4, r5, lr}
 80121d2:	f7ff bf99 	b.w	8012108 <sys_timeout>
 80121d6:	bf00      	nop
 80121d8:	08027060 	.word	0x08027060
 80121dc:	080120d5 	.word	0x080120d5

080121e0 <sys_check_timeouts>:
 80121e0:	e92d 41f0 	stmdb	sp!, {r4, r5, r6, r7, r8, lr}
 80121e4:	f7f8 ff84 	bl	800b0f0 <sys_now>
 80121e8:	4d0c      	ldr	r5, [pc, #48]	; (801221c <sys_check_timeouts+0x3c>)
 80121ea:	4607      	mov	r7, r0
 80121ec:	f8df 8030 	ldr.w	r8, [pc, #48]	; 8012220 <sys_check_timeouts+0x40>
 80121f0:	6829      	ldr	r1, [r5, #0]
 80121f2:	b189      	cbz	r1, 8012218 <sys_check_timeouts+0x38>
 80121f4:	684b      	ldr	r3, [r1, #4]
 80121f6:	1afa      	subs	r2, r7, r3
 80121f8:	2a00      	cmp	r2, #0
 80121fa:	db0d      	blt.n	8012218 <sys_check_timeouts+0x38>
 80121fc:	680a      	ldr	r2, [r1, #0]
 80121fe:	200a      	movs	r0, #10
 8012200:	f8c8 3000 	str.w	r3, [r8]
 8012204:	602a      	str	r2, [r5, #0]
 8012206:	e9d1 4602 	ldrd	r4, r6, [r1, #8]
 801220a:	f7fb fd67 	bl	800dcdc <memp_free>
 801220e:	2c00      	cmp	r4, #0
 8012210:	d0ee      	beq.n	80121f0 <sys_check_timeouts+0x10>
 8012212:	4630      	mov	r0, r6
 8012214:	47a0      	blx	r4
 8012216:	e7eb      	b.n	80121f0 <sys_check_timeouts+0x10>
 8012218:	e8bd 81f0 	ldmia.w	sp!, {r4, r5, r6, r7, r8, pc}
 801221c:	20004554 	.word	0x20004554
 8012220:	20004550 	.word	0x20004550

08012224 <sys_timeouts_sleeptime>:
 8012224:	b510      	push	{r4, lr}
 8012226:	4c07      	ldr	r4, [pc, #28]	; (8012244 <sys_timeouts_sleeptime+0x20>)
 8012228:	6823      	ldr	r3, [r4, #0]
 801222a:	b13b      	cbz	r3, 801223c <sys_timeouts_sleeptime+0x18>
 801222c:	f7f8 ff60 	bl	800b0f0 <sys_now>
 8012230:	6823      	ldr	r3, [r4, #0]
 8012232:	685b      	ldr	r3, [r3, #4]
 8012234:	1a18      	subs	r0, r3, r0
 8012236:	bf48      	it	mi
 8012238:	2000      	movmi	r0, #0
 801223a:	bd10      	pop	{r4, pc}
 801223c:	f04f 30ff 	mov.w	r0, #4294967295	; 0xffffffff
 8012240:	e7fb      	b.n	801223a <sys_timeouts_sleeptime+0x16>
 8012242:	bf00      	nop
 8012244:	20004554 	.word	0x20004554

08012248 <udp_init>:
 8012248:	b508      	push	{r3, lr}
 801224a:	f001 fc65 	bl	8013b18 <rand>
 801224e:	ea6f 4080 	mvn.w	r0, r0, lsl #18
 8012252:	4b02      	ldr	r3, [pc, #8]	; (801225c <udp_init+0x14>)
 8012254:	ea6f 4090 	mvn.w	r0, r0, lsr #18
 8012258:	8018      	strh	r0, [r3, #0]
 801225a:	bd08      	pop	{r3, pc}
 801225c:	20000056 	.word	0x20000056

08012260 <udp_input>:
 8012260:	e92d 4ff0 	stmdb	sp!, {r4, r5, r6, r7, r8, r9, sl, fp, lr}
 8012264:	4688      	mov	r8, r1
 8012266:	b085      	sub	sp, #20
 8012268:	4607      	mov	r7, r0
 801226a:	b928      	cbnz	r0, 8012278 <udp_input+0x18>
 801226c:	4b5c      	ldr	r3, [pc, #368]	; (80123e0 <udp_input+0x180>)
 801226e:	22cf      	movs	r2, #207	; 0xcf
 8012270:	495c      	ldr	r1, [pc, #368]	; (80123e4 <udp_input+0x184>)
 8012272:	485d      	ldr	r0, [pc, #372]	; (80123e8 <udp_input+0x188>)
 8012274:	f001 fc38 	bl	8013ae8 <iprintf>
 8012278:	f1b8 0f00 	cmp.w	r8, #0
 801227c:	d105      	bne.n	801228a <udp_input+0x2a>
 801227e:	4b58      	ldr	r3, [pc, #352]	; (80123e0 <udp_input+0x180>)
 8012280:	22d0      	movs	r2, #208	; 0xd0
 8012282:	495a      	ldr	r1, [pc, #360]	; (80123ec <udp_input+0x18c>)
 8012284:	4858      	ldr	r0, [pc, #352]	; (80123e8 <udp_input+0x188>)
 8012286:	f001 fc2f 	bl	8013ae8 <iprintf>
 801228a:	897b      	ldrh	r3, [r7, #10]
 801228c:	2b07      	cmp	r3, #7
 801228e:	d805      	bhi.n	801229c <udp_input+0x3c>
 8012290:	4638      	mov	r0, r7
 8012292:	b005      	add	sp, #20
 8012294:	e8bd 4ff0 	ldmia.w	sp!, {r4, r5, r6, r7, r8, r9, sl, fp, lr}
 8012298:	f7fb bfa4 	b.w	800e1e4 <pbuf_free>
 801229c:	4e54      	ldr	r6, [pc, #336]	; (80123f0 <udp_input+0x190>)
 801229e:	2500      	movs	r5, #0
 80122a0:	687c      	ldr	r4, [r7, #4]
 80122a2:	6831      	ldr	r1, [r6, #0]
 80122a4:	46ab      	mov	fp, r5
 80122a6:	6970      	ldr	r0, [r6, #20]
 80122a8:	f000 fee1 	bl	801306e <ip4_addr_isbroadcast_u32>
 80122ac:	4682      	mov	sl, r0
 80122ae:	8820      	ldrh	r0, [r4, #0]
 80122b0:	f7fb f9f6 	bl	800d6a0 <lwip_htons>
 80122b4:	9002      	str	r0, [sp, #8]
 80122b6:	8860      	ldrh	r0, [r4, #2]
 80122b8:	f7fb f9f2 	bl	800d6a0 <lwip_htons>
 80122bc:	4b4d      	ldr	r3, [pc, #308]	; (80123f4 <udp_input+0x194>)
 80122be:	9003      	str	r0, [sp, #12]
 80122c0:	681c      	ldr	r4, [r3, #0]
 80122c2:	4699      	mov	r9, r3
 80122c4:	b99c      	cbnz	r4, 80122ee <udp_input+0x8e>
 80122c6:	b925      	cbnz	r5, 80122d2 <udp_input+0x72>
 80122c8:	f8d8 2004 	ldr.w	r2, [r8, #4]
 80122cc:	6973      	ldr	r3, [r6, #20]
 80122ce:	429a      	cmp	r2, r3
 80122d0:	d1de      	bne.n	8012290 <udp_input+0x30>
 80122d2:	2108      	movs	r1, #8
 80122d4:	4638      	mov	r0, r7
 80122d6:	f7fb ff51 	bl	800e17c <pbuf_remove_header>
 80122da:	2800      	cmp	r0, #0
 80122dc:	d05c      	beq.n	8012398 <udp_input+0x138>
 80122de:	4b40      	ldr	r3, [pc, #256]	; (80123e0 <udp_input+0x180>)
 80122e0:	f44f 72b8 	mov.w	r2, #368	; 0x170
 80122e4:	4944      	ldr	r1, [pc, #272]	; (80123f8 <udp_input+0x198>)
 80122e6:	4840      	ldr	r0, [pc, #256]	; (80123e8 <udp_input+0x188>)
 80122e8:	f001 fbfe 	bl	8013ae8 <iprintf>
 80122ec:	e7d0      	b.n	8012290 <udp_input+0x30>
 80122ee:	8a63      	ldrh	r3, [r4, #18]
 80122f0:	9a03      	ldr	r2, [sp, #12]
 80122f2:	4293      	cmp	r3, r2
 80122f4:	d14b      	bne.n	801238e <udp_input+0x12e>
 80122f6:	f1b8 0f00 	cmp.w	r8, #0
 80122fa:	d105      	bne.n	8012308 <udp_input+0xa8>
 80122fc:	4b38      	ldr	r3, [pc, #224]	; (80123e0 <udp_input+0x180>)
 80122fe:	2288      	movs	r2, #136	; 0x88
 8012300:	493e      	ldr	r1, [pc, #248]	; (80123fc <udp_input+0x19c>)
 8012302:	4839      	ldr	r0, [pc, #228]	; (80123e8 <udp_input+0x188>)
 8012304:	f001 fbf0 	bl	8013ae8 <iprintf>
 8012308:	7a22      	ldrb	r2, [r4, #8]
 801230a:	b132      	cbz	r2, 801231a <udp_input+0xba>
 801230c:	6873      	ldr	r3, [r6, #4]
 801230e:	f893 3030 	ldrb.w	r3, [r3, #48]	; 0x30
 8012312:	3301      	adds	r3, #1
 8012314:	b2db      	uxtb	r3, r3
 8012316:	429a      	cmp	r2, r3
 8012318:	d139      	bne.n	801238e <udp_input+0x12e>
 801231a:	6823      	ldr	r3, [r4, #0]
 801231c:	f1ba 0f00 	cmp.w	sl, #0
 8012320:	d030      	beq.n	8012384 <udp_input+0x124>
 8012322:	b13b      	cbz	r3, 8012334 <udp_input+0xd4>
 8012324:	6972      	ldr	r2, [r6, #20]
 8012326:	1c51      	adds	r1, r2, #1
 8012328:	d004      	beq.n	8012334 <udp_input+0xd4>
 801232a:	405a      	eors	r2, r3
 801232c:	f8d8 1008 	ldr.w	r1, [r8, #8]
 8012330:	420a      	tst	r2, r1
 8012332:	d12c      	bne.n	801238e <udp_input+0x12e>
 8012334:	7c22      	ldrb	r2, [r4, #16]
 8012336:	0752      	lsls	r2, r2, #29
 8012338:	d40e      	bmi.n	8012358 <udp_input+0xf8>
 801233a:	b35d      	cbz	r5, 8012394 <udp_input+0x134>
 801233c:	f1ba 0f00 	cmp.w	sl, #0
 8012340:	d00a      	beq.n	8012358 <udp_input+0xf8>
 8012342:	6972      	ldr	r2, [r6, #20]
 8012344:	3201      	adds	r2, #1
 8012346:	d107      	bne.n	8012358 <udp_input+0xf8>
 8012348:	f8d8 2004 	ldr.w	r2, [r8, #4]
 801234c:	6829      	ldr	r1, [r5, #0]
 801234e:	4291      	cmp	r1, r2
 8012350:	d002      	beq.n	8012358 <udp_input+0xf8>
 8012352:	429a      	cmp	r2, r3
 8012354:	bf08      	it	eq
 8012356:	4625      	moveq	r5, r4
 8012358:	8aa3      	ldrh	r3, [r4, #20]
 801235a:	9a02      	ldr	r2, [sp, #8]
 801235c:	4293      	cmp	r3, r2
 801235e:	d116      	bne.n	801238e <udp_input+0x12e>
 8012360:	6863      	ldr	r3, [r4, #4]
 8012362:	b113      	cbz	r3, 801236a <udp_input+0x10a>
 8012364:	6932      	ldr	r2, [r6, #16]
 8012366:	4293      	cmp	r3, r2
 8012368:	d111      	bne.n	801238e <udp_input+0x12e>
 801236a:	f1bb 0f00 	cmp.w	fp, #0
 801236e:	d007      	beq.n	8012380 <udp_input+0x120>
 8012370:	68e3      	ldr	r3, [r4, #12]
 8012372:	f8cb 300c 	str.w	r3, [fp, #12]
 8012376:	f8d9 3000 	ldr.w	r3, [r9]
 801237a:	f8c9 4000 	str.w	r4, [r9]
 801237e:	60e3      	str	r3, [r4, #12]
 8012380:	4625      	mov	r5, r4
 8012382:	e7a6      	b.n	80122d2 <udp_input+0x72>
 8012384:	2b00      	cmp	r3, #0
 8012386:	d0d5      	beq.n	8012334 <udp_input+0xd4>
 8012388:	6972      	ldr	r2, [r6, #20]
 801238a:	429a      	cmp	r2, r3
 801238c:	d0d2      	beq.n	8012334 <udp_input+0xd4>
 801238e:	46a3      	mov	fp, r4
 8012390:	68e4      	ldr	r4, [r4, #12]
 8012392:	e797      	b.n	80122c4 <udp_input+0x64>
 8012394:	4625      	mov	r5, r4
 8012396:	e7df      	b.n	8012358 <udp_input+0xf8>
 8012398:	b16d      	cbz	r5, 80123b6 <udp_input+0x156>
 801239a:	69ac      	ldr	r4, [r5, #24]
 801239c:	2c00      	cmp	r4, #0
 801239e:	f43f af77 	beq.w	8012290 <udp_input+0x30>
 80123a2:	9b02      	ldr	r3, [sp, #8]
 80123a4:	463a      	mov	r2, r7
 80123a6:	4629      	mov	r1, r5
 80123a8:	9300      	str	r3, [sp, #0]
 80123aa:	4b15      	ldr	r3, [pc, #84]	; (8012400 <udp_input+0x1a0>)
 80123ac:	69e8      	ldr	r0, [r5, #28]
 80123ae:	47a0      	blx	r4
 80123b0:	b005      	add	sp, #20
 80123b2:	e8bd 8ff0 	ldmia.w	sp!, {r4, r5, r6, r7, r8, r9, sl, fp, pc}
 80123b6:	f1ba 0f00 	cmp.w	sl, #0
 80123ba:	f47f af69 	bne.w	8012290 <udp_input+0x30>
 80123be:	6973      	ldr	r3, [r6, #20]
 80123c0:	f003 03f0 	and.w	r3, r3, #240	; 0xf0
 80123c4:	2be0      	cmp	r3, #224	; 0xe0
 80123c6:	f43f af63 	beq.w	8012290 <udp_input+0x30>
 80123ca:	89b1      	ldrh	r1, [r6, #12]
 80123cc:	4638      	mov	r0, r7
 80123ce:	3108      	adds	r1, #8
 80123d0:	b209      	sxth	r1, r1
 80123d2:	f7fb feff 	bl	800e1d4 <pbuf_header_force>
 80123d6:	2103      	movs	r1, #3
 80123d8:	4638      	mov	r0, r7
 80123da:	f000 fcb5 	bl	8012d48 <icmp_dest_unreach>
 80123de:	e757      	b.n	8012290 <udp_input+0x30>
 80123e0:	0802711f 	.word	0x0802711f
 80123e4:	0802714e 	.word	0x0802714e
 80123e8:	08014a3b 	.word	0x08014a3b
 80123ec:	08027166 	.word	0x08027166
 80123f0:	20007c2c 	.word	0x20007c2c
 80123f4:	2000b34c 	.word	0x2000b34c
 80123f8:	080271a4 	.word	0x080271a4
 80123fc:	0802717f 	.word	0x0802717f
 8012400:	20007c3c 	.word	0x20007c3c

08012404 <udp_netif_ip_addr_changed>:
 8012404:	b510      	push	{r4, lr}
 8012406:	b138      	cbz	r0, 8012418 <udp_netif_ip_addr_changed+0x14>
 8012408:	6803      	ldr	r3, [r0, #0]
 801240a:	b12b      	cbz	r3, 8012418 <udp_netif_ip_addr_changed+0x14>
 801240c:	b121      	cbz	r1, 8012418 <udp_netif_ip_addr_changed+0x14>
 801240e:	680b      	ldr	r3, [r1, #0]
 8012410:	b113      	cbz	r3, 8012418 <udp_netif_ip_addr_changed+0x14>
 8012412:	4b06      	ldr	r3, [pc, #24]	; (801242c <udp_netif_ip_addr_changed+0x28>)
 8012414:	681b      	ldr	r3, [r3, #0]
 8012416:	b903      	cbnz	r3, 801241a <udp_netif_ip_addr_changed+0x16>
 8012418:	bd10      	pop	{r4, pc}
 801241a:	681c      	ldr	r4, [r3, #0]
 801241c:	6802      	ldr	r2, [r0, #0]
 801241e:	4294      	cmp	r4, r2
 8012420:	bf04      	itt	eq
 8012422:	680a      	ldreq	r2, [r1, #0]
 8012424:	601a      	streq	r2, [r3, #0]
 8012426:	68db      	ldr	r3, [r3, #12]
 8012428:	e7f5      	b.n	8012416 <udp_netif_ip_addr_changed+0x12>
 801242a:	bf00      	nop
 801242c:	2000b34c 	.word	0x2000b34c

08012430 <etharp_free_entry>:
 8012430:	b570      	push	{r4, r5, r6, lr}
 8012432:	2618      	movs	r6, #24
 8012434:	4c07      	ldr	r4, [pc, #28]	; (8012454 <etharp_free_entry+0x24>)
 8012436:	4605      	mov	r5, r0
 8012438:	4346      	muls	r6, r0
 801243a:	59a0      	ldr	r0, [r4, r6]
 801243c:	b118      	cbz	r0, 8012446 <etharp_free_entry+0x16>
 801243e:	f7fb fed1 	bl	800e1e4 <pbuf_free>
 8012442:	2300      	movs	r3, #0
 8012444:	51a3      	str	r3, [r4, r6]
 8012446:	2318      	movs	r3, #24
 8012448:	fb03 4405 	mla	r4, r3, r5, r4
 801244c:	2300      	movs	r3, #0
 801244e:	7523      	strb	r3, [r4, #20]
 8012450:	bd70      	pop	{r4, r5, r6, pc}
 8012452:	bf00      	nop
 8012454:	2000455c 	.word	0x2000455c

08012458 <etharp_find_entry>:
 8012458:	e92d 4ff7 	stmdb	sp!, {r0, r1, r2, r4, r5, r6, r7, r8, r9, sl, fp, lr}
 801245c:	2300      	movs	r3, #0
 801245e:	f04f 0e0a 	mov.w	lr, #10
 8012462:	4606      	mov	r6, r0
 8012464:	4699      	mov	r9, r3
 8012466:	469b      	mov	fp, r3
 8012468:	469c      	mov	ip, r3
 801246a:	4674      	mov	r4, lr
 801246c:	4675      	mov	r5, lr
 801246e:	46f0      	mov	r8, lr
 8012470:	e9cd 2100 	strd	r2, r1, [sp]
 8012474:	4a3a      	ldr	r2, [pc, #232]	; (8012560 <etharp_find_entry+0x108>)
 8012476:	2c0a      	cmp	r4, #10
 8012478:	b218      	sxth	r0, r3
 801247a:	f892 a014 	ldrb.w	sl, [r2, #20]
 801247e:	d11a      	bne.n	80124b6 <etharp_find_entry+0x5e>
 8012480:	f1ba 0f00 	cmp.w	sl, #0
 8012484:	d05d      	beq.n	8012542 <etharp_find_entry+0xea>
 8012486:	b156      	cbz	r6, 801249e <etharp_find_entry+0x46>
 8012488:	6837      	ldr	r7, [r6, #0]
 801248a:	6851      	ldr	r1, [r2, #4]
 801248c:	428f      	cmp	r7, r1
 801248e:	d106      	bne.n	801249e <etharp_find_entry+0x46>
 8012490:	9900      	ldr	r1, [sp, #0]
 8012492:	2900      	cmp	r1, #0
 8012494:	d048      	beq.n	8012528 <etharp_find_entry+0xd0>
 8012496:	6891      	ldr	r1, [r2, #8]
 8012498:	9f00      	ldr	r7, [sp, #0]
 801249a:	42b9      	cmp	r1, r7
 801249c:	d044      	beq.n	8012528 <etharp_find_entry+0xd0>
 801249e:	f1ba 0f01 	cmp.w	sl, #1
 80124a2:	8a51      	ldrh	r1, [r2, #18]
 80124a4:	d148      	bne.n	8012538 <etharp_find_entry+0xe0>
 80124a6:	6817      	ldr	r7, [r2, #0]
 80124a8:	2f00      	cmp	r7, #0
 80124aa:	d040      	beq.n	801252e <etharp_find_entry+0xd6>
 80124ac:	458c      	cmp	ip, r1
 80124ae:	d805      	bhi.n	80124bc <etharp_find_entry+0x64>
 80124b0:	468c      	mov	ip, r1
 80124b2:	4686      	mov	lr, r0
 80124b4:	e002      	b.n	80124bc <etharp_find_entry+0x64>
 80124b6:	f1ba 0f00 	cmp.w	sl, #0
 80124ba:	d1e4      	bne.n	8012486 <etharp_find_entry+0x2e>
 80124bc:	3301      	adds	r3, #1
 80124be:	3218      	adds	r2, #24
 80124c0:	2b0a      	cmp	r3, #10
 80124c2:	d1d8      	bne.n	8012476 <etharp_find_entry+0x1e>
 80124c4:	9b01      	ldr	r3, [sp, #4]
 80124c6:	2b01      	cmp	r3, #1
 80124c8:	d143      	bne.n	8012552 <etharp_find_entry+0xfa>
 80124ca:	2c0a      	cmp	r4, #10
 80124cc:	d111      	bne.n	80124f2 <etharp_find_entry+0x9a>
 80124ce:	2d0a      	cmp	r5, #10
 80124d0:	d039      	beq.n	8012546 <etharp_find_entry+0xee>
 80124d2:	2318      	movs	r3, #24
 80124d4:	4a22      	ldr	r2, [pc, #136]	; (8012560 <etharp_find_entry+0x108>)
 80124d6:	436b      	muls	r3, r5
 80124d8:	58d3      	ldr	r3, [r2, r3]
 80124da:	b133      	cbz	r3, 80124ea <etharp_find_entry+0x92>
 80124dc:	4b21      	ldr	r3, [pc, #132]	; (8012564 <etharp_find_entry+0x10c>)
 80124de:	f240 126d 	movw	r2, #365	; 0x16d
 80124e2:	4921      	ldr	r1, [pc, #132]	; (8012568 <etharp_find_entry+0x110>)
 80124e4:	4821      	ldr	r0, [pc, #132]	; (801256c <etharp_find_entry+0x114>)
 80124e6:	f001 faff 	bl	8013ae8 <iprintf>
 80124ea:	462c      	mov	r4, r5
 80124ec:	4628      	mov	r0, r5
 80124ee:	f7ff ff9f 	bl	8012430 <etharp_free_entry>
 80124f2:	4d1b      	ldr	r5, [pc, #108]	; (8012560 <etharp_find_entry+0x108>)
 80124f4:	2318      	movs	r3, #24
 80124f6:	fb03 5304 	mla	r3, r3, r4, r5
 80124fa:	7d1b      	ldrb	r3, [r3, #20]
 80124fc:	b133      	cbz	r3, 801250c <etharp_find_entry+0xb4>
 80124fe:	4b19      	ldr	r3, [pc, #100]	; (8012564 <etharp_find_entry+0x10c>)
 8012500:	f240 1285 	movw	r2, #389	; 0x185
 8012504:	491a      	ldr	r1, [pc, #104]	; (8012570 <etharp_find_entry+0x118>)
 8012506:	4819      	ldr	r0, [pc, #100]	; (801256c <etharp_find_entry+0x114>)
 8012508:	f001 faee 	bl	8013ae8 <iprintf>
 801250c:	b126      	cbz	r6, 8012518 <etharp_find_entry+0xc0>
 801250e:	2318      	movs	r3, #24
 8012510:	6832      	ldr	r2, [r6, #0]
 8012512:	fb03 5304 	mla	r3, r3, r4, r5
 8012516:	605a      	str	r2, [r3, #4]
 8012518:	2318      	movs	r3, #24
 801251a:	4620      	mov	r0, r4
 801251c:	fb03 5504 	mla	r5, r3, r4, r5
 8012520:	2300      	movs	r3, #0
 8012522:	826b      	strh	r3, [r5, #18]
 8012524:	9b00      	ldr	r3, [sp, #0]
 8012526:	60ab      	str	r3, [r5, #8]
 8012528:	b003      	add	sp, #12
 801252a:	e8bd 8ff0 	ldmia.w	sp!, {r4, r5, r6, r7, r8, r9, sl, fp, pc}
 801252e:	458b      	cmp	fp, r1
 8012530:	d8c4      	bhi.n	80124bc <etharp_find_entry+0x64>
 8012532:	468b      	mov	fp, r1
 8012534:	4680      	mov	r8, r0
 8012536:	e7c1      	b.n	80124bc <etharp_find_entry+0x64>
 8012538:	4589      	cmp	r9, r1
 801253a:	d8bf      	bhi.n	80124bc <etharp_find_entry+0x64>
 801253c:	4689      	mov	r9, r1
 801253e:	4605      	mov	r5, r0
 8012540:	e7bc      	b.n	80124bc <etharp_find_entry+0x64>
 8012542:	4604      	mov	r4, r0
 8012544:	e7ba      	b.n	80124bc <etharp_find_entry+0x64>
 8012546:	f1b8 0f0a 	cmp.w	r8, #10
 801254a:	d105      	bne.n	8012558 <etharp_find_entry+0x100>
 801254c:	f1be 0f0a 	cmp.w	lr, #10
 8012550:	d104      	bne.n	801255c <etharp_find_entry+0x104>
 8012552:	f04f 30ff 	mov.w	r0, #4294967295	; 0xffffffff
 8012556:	e7e7      	b.n	8012528 <etharp_find_entry+0xd0>
 8012558:	4645      	mov	r5, r8
 801255a:	e7c6      	b.n	80124ea <etharp_find_entry+0x92>
 801255c:	4675      	mov	r5, lr
 801255e:	e7c4      	b.n	80124ea <etharp_find_entry+0x92>
 8012560:	2000455c 	.word	0x2000455c
 8012564:	080271bf 	.word	0x080271bf
 8012568:	080271f6 	.word	0x080271f6
 801256c:	08014a3b 	.word	0x08014a3b
 8012570:	0802720d 	.word	0x0802720d

08012574 <etharp_raw>:
 8012574:	e92d 47f3 	stmdb	sp!, {r0, r1, r4, r5, r6, r7, r8, r9, sl, lr}
 8012578:	9d0b      	ldr	r5, [sp, #44]	; 0x2c
 801257a:	4689      	mov	r9, r1
 801257c:	4692      	mov	sl, r2
 801257e:	4698      	mov	r8, r3
 8012580:	4607      	mov	r7, r0
 8012582:	b930      	cbnz	r0, 8012592 <etharp_raw+0x1e>
 8012584:	4b2d      	ldr	r3, [pc, #180]	; (801263c <etharp_raw+0xc8>)
 8012586:	f240 4257 	movw	r2, #1111	; 0x457
 801258a:	492d      	ldr	r1, [pc, #180]	; (8012640 <etharp_raw+0xcc>)
 801258c:	482d      	ldr	r0, [pc, #180]	; (8012644 <etharp_raw+0xd0>)
 801258e:	f001 faab 	bl	8013ae8 <iprintf>
 8012592:	f44f 7220 	mov.w	r2, #640	; 0x280
 8012596:	211c      	movs	r1, #28
 8012598:	200e      	movs	r0, #14
 801259a:	f7fb fe8b 	bl	800e2b4 <pbuf_alloc>
 801259e:	4606      	mov	r6, r0
 80125a0:	2800      	cmp	r0, #0
 80125a2:	d047      	beq.n	8012634 <etharp_raw+0xc0>
 80125a4:	8943      	ldrh	r3, [r0, #10]
 80125a6:	2b1b      	cmp	r3, #27
 80125a8:	d806      	bhi.n	80125b8 <etharp_raw+0x44>
 80125aa:	4b24      	ldr	r3, [pc, #144]	; (801263c <etharp_raw+0xc8>)
 80125ac:	f240 4263 	movw	r2, #1123	; 0x463
 80125b0:	4925      	ldr	r1, [pc, #148]	; (8012648 <etharp_raw+0xd4>)
 80125b2:	4824      	ldr	r0, [pc, #144]	; (8012644 <etharp_raw+0xd0>)
 80125b4:	f001 fa98 	bl	8013ae8 <iprintf>
 80125b8:	6874      	ldr	r4, [r6, #4]
 80125ba:	f8bd 0034 	ldrh.w	r0, [sp, #52]	; 0x34
 80125be:	f7fb f86f 	bl	800d6a0 <lwip_htons>
 80125c2:	80e0      	strh	r0, [r4, #6]
 80125c4:	f897 302c 	ldrb.w	r3, [r7, #44]	; 0x2c
 80125c8:	2b06      	cmp	r3, #6
 80125ca:	d006      	beq.n	80125da <etharp_raw+0x66>
 80125cc:	4b1b      	ldr	r3, [pc, #108]	; (801263c <etharp_raw+0xc8>)
 80125ce:	f240 426a 	movw	r2, #1130	; 0x46a
 80125d2:	491e      	ldr	r1, [pc, #120]	; (801264c <etharp_raw+0xd8>)
 80125d4:	481b      	ldr	r0, [pc, #108]	; (8012644 <etharp_raw+0xd0>)
 80125d6:	f001 fa87 	bl	8013ae8 <iprintf>
 80125da:	f8d8 3000 	ldr.w	r3, [r8]
 80125de:	464a      	mov	r2, r9
 80125e0:	4631      	mov	r1, r6
 80125e2:	4638      	mov	r0, r7
 80125e4:	60a3      	str	r3, [r4, #8]
 80125e6:	f8b8 3004 	ldrh.w	r3, [r8, #4]
 80125ea:	81a3      	strh	r3, [r4, #12]
 80125ec:	682b      	ldr	r3, [r5, #0]
 80125ee:	f8c4 3012 	str.w	r3, [r4, #18]
 80125f2:	88ab      	ldrh	r3, [r5, #4]
 80125f4:	2500      	movs	r5, #0
 80125f6:	82e3      	strh	r3, [r4, #22]
 80125f8:	9b0a      	ldr	r3, [sp, #40]	; 0x28
 80125fa:	681b      	ldr	r3, [r3, #0]
 80125fc:	f8c4 300e 	str.w	r3, [r4, #14]
 8012600:	9b0c      	ldr	r3, [sp, #48]	; 0x30
 8012602:	681b      	ldr	r3, [r3, #0]
 8012604:	7025      	strb	r5, [r4, #0]
 8012606:	61a3      	str	r3, [r4, #24]
 8012608:	2301      	movs	r3, #1
 801260a:	70e5      	strb	r5, [r4, #3]
 801260c:	7063      	strb	r3, [r4, #1]
 801260e:	2308      	movs	r3, #8
 8012610:	70a3      	strb	r3, [r4, #2]
 8012612:	2306      	movs	r3, #6
 8012614:	7123      	strb	r3, [r4, #4]
 8012616:	2304      	movs	r3, #4
 8012618:	7163      	strb	r3, [r4, #5]
 801261a:	f640 0306 	movw	r3, #2054	; 0x806
 801261e:	9300      	str	r3, [sp, #0]
 8012620:	4653      	mov	r3, sl
 8012622:	f001 f951 	bl	80138c8 <ethernet_output>
 8012626:	4630      	mov	r0, r6
 8012628:	f7fb fddc 	bl	800e1e4 <pbuf_free>
 801262c:	4628      	mov	r0, r5
 801262e:	b002      	add	sp, #8
 8012630:	e8bd 87f0 	ldmia.w	sp!, {r4, r5, r6, r7, r8, r9, sl, pc}
 8012634:	f04f 30ff 	mov.w	r0, #4294967295	; 0xffffffff
 8012638:	e7f9      	b.n	801262e <etharp_raw+0xba>
 801263a:	bf00      	nop
 801263c:	080271bf 	.word	0x080271bf
 8012640:	08014a2d 	.word	0x08014a2d
 8012644:	08014a3b 	.word	0x08014a3b
 8012648:	080272f9 	.word	0x080272f9
 801264c:	0802732a 	.word	0x0802732a

08012650 <etharp_cleanup_netif>:
 8012650:	b5f8      	push	{r3, r4, r5, r6, r7, lr}
 8012652:	4605      	mov	r5, r0
 8012654:	2400      	movs	r4, #0
 8012656:	4e08      	ldr	r6, [pc, #32]	; (8012678 <etharp_cleanup_netif+0x28>)
 8012658:	2718      	movs	r7, #24
 801265a:	fb07 6304 	mla	r3, r7, r4, r6
 801265e:	7d1a      	ldrb	r2, [r3, #20]
 8012660:	b12a      	cbz	r2, 801266e <etharp_cleanup_netif+0x1e>
 8012662:	689b      	ldr	r3, [r3, #8]
 8012664:	42ab      	cmp	r3, r5
 8012666:	d102      	bne.n	801266e <etharp_cleanup_netif+0x1e>
 8012668:	4620      	mov	r0, r4
 801266a:	f7ff fee1 	bl	8012430 <etharp_free_entry>
 801266e:	3401      	adds	r4, #1
 8012670:	2c0a      	cmp	r4, #10
 8012672:	d1f2      	bne.n	801265a <etharp_cleanup_netif+0xa>
 8012674:	bdf8      	pop	{r3, r4, r5, r6, r7, pc}
 8012676:	bf00      	nop
 8012678:	2000455c 	.word	0x2000455c

0801267c <etharp_input>:
 801267c:	e92d 47f0 	stmdb	sp!, {r4, r5, r6, r7, r8, r9, sl, lr}
 8012680:	4680      	mov	r8, r0
 8012682:	b086      	sub	sp, #24
 8012684:	460c      	mov	r4, r1
 8012686:	b949      	cbnz	r1, 801269c <etharp_input+0x20>
 8012688:	4b46      	ldr	r3, [pc, #280]	; (80127a4 <etharp_input+0x128>)
 801268a:	f240 228a 	movw	r2, #650	; 0x28a
 801268e:	4946      	ldr	r1, [pc, #280]	; (80127a8 <etharp_input+0x12c>)
 8012690:	4846      	ldr	r0, [pc, #280]	; (80127ac <etharp_input+0x130>)
 8012692:	f001 fa29 	bl	8013ae8 <iprintf>
 8012696:	b006      	add	sp, #24
 8012698:	e8bd 87f0 	ldmia.w	sp!, {r4, r5, r6, r7, r8, r9, sl, pc}
 801269c:	6846      	ldr	r6, [r0, #4]
 801269e:	8833      	ldrh	r3, [r6, #0]
 80126a0:	f5b3 7f80 	cmp.w	r3, #256	; 0x100
 80126a4:	d108      	bne.n	80126b8 <etharp_input+0x3c>
 80126a6:	7933      	ldrb	r3, [r6, #4]
 80126a8:	2b06      	cmp	r3, #6
 80126aa:	d105      	bne.n	80126b8 <etharp_input+0x3c>
 80126ac:	7973      	ldrb	r3, [r6, #5]
 80126ae:	2b04      	cmp	r3, #4
 80126b0:	d102      	bne.n	80126b8 <etharp_input+0x3c>
 80126b2:	8873      	ldrh	r3, [r6, #2]
 80126b4:	2b08      	cmp	r3, #8
 80126b6:	d003      	beq.n	80126c0 <etharp_input+0x44>
 80126b8:	4640      	mov	r0, r8
 80126ba:	f7fb fd93 	bl	800e1e4 <pbuf_free>
 80126be:	e7ea      	b.n	8012696 <etharp_input+0x1a>
 80126c0:	f8d6 300e 	ldr.w	r3, [r6, #14]
 80126c4:	f106 0708 	add.w	r7, r6, #8
 80126c8:	684d      	ldr	r5, [r1, #4]
 80126ca:	9305      	str	r3, [sp, #20]
 80126cc:	69b3      	ldr	r3, [r6, #24]
 80126ce:	b115      	cbz	r5, 80126d6 <etharp_input+0x5a>
 80126d0:	429d      	cmp	r5, r3
 80126d2:	d063      	beq.n	801279c <etharp_input+0x120>
 80126d4:	2500      	movs	r5, #0
 80126d6:	f04f 0a02 	mov.w	sl, #2
 80126da:	f894 302c 	ldrb.w	r3, [r4, #44]	; 0x2c
 80126de:	2b06      	cmp	r3, #6
 80126e0:	d006      	beq.n	80126f0 <etharp_input+0x74>
 80126e2:	4b30      	ldr	r3, [pc, #192]	; (80127a4 <etharp_input+0x128>)
 80126e4:	f240 12a9 	movw	r2, #425	; 0x1a9
 80126e8:	4931      	ldr	r1, [pc, #196]	; (80127b0 <etharp_input+0x134>)
 80126ea:	4830      	ldr	r0, [pc, #192]	; (80127ac <etharp_input+0x130>)
 80126ec:	f001 f9fc 	bl	8013ae8 <iprintf>
 80126f0:	9805      	ldr	r0, [sp, #20]
 80126f2:	2800      	cmp	r0, #0
 80126f4:	d03d      	beq.n	8012772 <etharp_input+0xf6>
 80126f6:	4621      	mov	r1, r4
 80126f8:	f000 fcb9 	bl	801306e <ip4_addr_isbroadcast_u32>
 80126fc:	4681      	mov	r9, r0
 80126fe:	bbc0      	cbnz	r0, 8012772 <etharp_input+0xf6>
 8012700:	9b05      	ldr	r3, [sp, #20]
 8012702:	f003 03f0 	and.w	r3, r3, #240	; 0xf0
 8012706:	2be0      	cmp	r3, #224	; 0xe0
 8012708:	d033      	beq.n	8012772 <etharp_input+0xf6>
 801270a:	4622      	mov	r2, r4
 801270c:	4651      	mov	r1, sl
 801270e:	a805      	add	r0, sp, #20
 8012710:	f7ff fea2 	bl	8012458 <etharp_find_entry>
 8012714:	2800      	cmp	r0, #0
 8012716:	db2c      	blt.n	8012772 <etharp_input+0xf6>
 8012718:	2218      	movs	r2, #24
 801271a:	4b26      	ldr	r3, [pc, #152]	; (80127b4 <etharp_input+0x138>)
 801271c:	f04f 0e02 	mov.w	lr, #2
 8012720:	fb02 f100 	mul.w	r1, r2, r0
 8012724:	eb03 0c01 	add.w	ip, r3, r1
 8012728:	f88c e014 	strb.w	lr, [ip, #20]
 801272c:	f04f 0e0c 	mov.w	lr, #12
 8012730:	f8cc 4008 	str.w	r4, [ip, #8]
 8012734:	fb10 e202 	smlabb	r2, r0, r2, lr
 8012738:	6838      	ldr	r0, [r7, #0]
 801273a:	eb03 0e02 	add.w	lr, r3, r2
 801273e:	5098      	str	r0, [r3, r2]
 8012740:	88ba      	ldrh	r2, [r7, #4]
 8012742:	f8ae 2004 	strh.w	r2, [lr, #4]
 8012746:	f853 a001 	ldr.w	sl, [r3, r1]
 801274a:	f8ac 9012 	strh.w	r9, [ip, #18]
 801274e:	f1ba 0f00 	cmp.w	sl, #0
 8012752:	d00e      	beq.n	8012772 <etharp_input+0xf6>
 8012754:	f843 9001 	str.w	r9, [r3, r1]
 8012758:	f44f 6300 	mov.w	r3, #2048	; 0x800
 801275c:	f104 0226 	add.w	r2, r4, #38	; 0x26
 8012760:	4651      	mov	r1, sl
 8012762:	9300      	str	r3, [sp, #0]
 8012764:	4620      	mov	r0, r4
 8012766:	463b      	mov	r3, r7
 8012768:	f001 f8ae 	bl	80138c8 <ethernet_output>
 801276c:	4650      	mov	r0, sl
 801276e:	f7fb fd39 	bl	800e1e4 <pbuf_free>
 8012772:	88f3      	ldrh	r3, [r6, #6]
 8012774:	f5b3 7f80 	cmp.w	r3, #256	; 0x100
 8012778:	d19e      	bne.n	80126b8 <etharp_input+0x3c>
 801277a:	2d00      	cmp	r5, #0
 801277c:	d09c      	beq.n	80126b8 <etharp_input+0x3c>
 801277e:	2202      	movs	r2, #2
 8012780:	f104 0326 	add.w	r3, r4, #38	; 0x26
 8012784:	4620      	mov	r0, r4
 8012786:	9203      	str	r2, [sp, #12]
 8012788:	aa05      	add	r2, sp, #20
 801278a:	4619      	mov	r1, r3
 801278c:	e9cd 7201 	strd	r7, r2, [sp, #4]
 8012790:	1d22      	adds	r2, r4, #4
 8012792:	9200      	str	r2, [sp, #0]
 8012794:	463a      	mov	r2, r7
 8012796:	f7ff feed 	bl	8012574 <etharp_raw>
 801279a:	e78d      	b.n	80126b8 <etharp_input+0x3c>
 801279c:	2501      	movs	r5, #1
 801279e:	46aa      	mov	sl, r5
 80127a0:	e79b      	b.n	80126da <etharp_input+0x5e>
 80127a2:	bf00      	nop
 80127a4:	080271bf 	.word	0x080271bf
 80127a8:	08014a2d 	.word	0x08014a2d
 80127ac:	08014a3b 	.word	0x08014a3b
 80127b0:	08027255 	.word	0x08027255
 80127b4:	2000455c 	.word	0x2000455c

080127b8 <etharp_request>:
 80127b8:	b51f      	push	{r0, r1, r2, r3, r4, lr}
 80127ba:	4602      	mov	r2, r0
 80127bc:	2401      	movs	r4, #1
 80127be:	f100 0326 	add.w	r3, r0, #38	; 0x26
 80127c2:	3204      	adds	r2, #4
 80127c4:	e9cd 1402 	strd	r1, r4, [sp, #8]
 80127c8:	4904      	ldr	r1, [pc, #16]	; (80127dc <etharp_request+0x24>)
 80127ca:	9200      	str	r2, [sp, #0]
 80127cc:	9101      	str	r1, [sp, #4]
 80127ce:	4619      	mov	r1, r3
 80127d0:	4a03      	ldr	r2, [pc, #12]	; (80127e0 <etharp_request+0x28>)
 80127d2:	f7ff fecf 	bl	8012574 <etharp_raw>
 80127d6:	b004      	add	sp, #16
 80127d8:	bd10      	pop	{r4, pc}
 80127da:	bf00      	nop
 80127dc:	080276d4 	.word	0x080276d4
 80127e0:	08027668 	.word	0x08027668

080127e4 <etharp_tmr>:
 80127e4:	e92d 41f0 	stmdb	sp!, {r4, r5, r6, r7, r8, lr}
 80127e8:	4c15      	ldr	r4, [pc, #84]	; (8012840 <etharp_tmr+0x5c>)
 80127ea:	2500      	movs	r5, #0
 80127ec:	2602      	movs	r6, #2
 80127ee:	2704      	movs	r7, #4
 80127f0:	f1a4 0804 	sub.w	r8, r4, #4
 80127f4:	7b22      	ldrb	r2, [r4, #12]
 80127f6:	b16a      	cbz	r2, 8012814 <etharp_tmr+0x30>
 80127f8:	8963      	ldrh	r3, [r4, #10]
 80127fa:	3301      	adds	r3, #1
 80127fc:	b29b      	uxth	r3, r3
 80127fe:	f5b3 7f96 	cmp.w	r3, #300	; 0x12c
 8012802:	8163      	strh	r3, [r4, #10]
 8012804:	d203      	bcs.n	801280e <etharp_tmr+0x2a>
 8012806:	2a01      	cmp	r2, #1
 8012808:	d10a      	bne.n	8012820 <etharp_tmr+0x3c>
 801280a:	2b04      	cmp	r3, #4
 801280c:	d90c      	bls.n	8012828 <etharp_tmr+0x44>
 801280e:	4628      	mov	r0, r5
 8012810:	f7ff fe0e 	bl	8012430 <etharp_free_entry>
 8012814:	3501      	adds	r5, #1
 8012816:	3418      	adds	r4, #24
 8012818:	2d0a      	cmp	r5, #10
 801281a:	d1eb      	bne.n	80127f4 <etharp_tmr+0x10>
 801281c:	e8bd 81f0 	ldmia.w	sp!, {r4, r5, r6, r7, r8, pc}
 8012820:	2a03      	cmp	r2, #3
 8012822:	d108      	bne.n	8012836 <etharp_tmr+0x52>
 8012824:	7327      	strb	r7, [r4, #12]
 8012826:	e7f5      	b.n	8012814 <etharp_tmr+0x30>
 8012828:	2118      	movs	r1, #24
 801282a:	6820      	ldr	r0, [r4, #0]
 801282c:	fb01 8105 	mla	r1, r1, r5, r8
 8012830:	f7ff ffc2 	bl	80127b8 <etharp_request>
 8012834:	e7ee      	b.n	8012814 <etharp_tmr+0x30>
 8012836:	2a04      	cmp	r2, #4
 8012838:	d1ec      	bne.n	8012814 <etharp_tmr+0x30>
 801283a:	7326      	strb	r6, [r4, #12]
 801283c:	e7ea      	b.n	8012814 <etharp_tmr+0x30>
 801283e:	bf00      	nop
 8012840:	20004564 	.word	0x20004564

08012844 <etharp_output_to_arp_index>:
 8012844:	e92d 43f0 	stmdb	sp!, {r4, r5, r6, r7, r8, r9, lr}
 8012848:	2318      	movs	r3, #24
 801284a:	4d25      	ldr	r5, [pc, #148]	; (80128e0 <etharp_output_to_arp_index+0x9c>)
 801284c:	b085      	sub	sp, #20
 801284e:	4606      	mov	r6, r0
 8012850:	fb03 5302 	mla	r3, r3, r2, r5
 8012854:	4689      	mov	r9, r1
 8012856:	4614      	mov	r4, r2
 8012858:	7d1b      	ldrb	r3, [r3, #20]
 801285a:	2b01      	cmp	r3, #1
 801285c:	d806      	bhi.n	801286c <etharp_output_to_arp_index+0x28>
 801285e:	4b21      	ldr	r3, [pc, #132]	; (80128e4 <etharp_output_to_arp_index+0xa0>)
 8012860:	f240 22ef 	movw	r2, #751	; 0x2ef
 8012864:	4920      	ldr	r1, [pc, #128]	; (80128e8 <etharp_output_to_arp_index+0xa4>)
 8012866:	4821      	ldr	r0, [pc, #132]	; (80128ec <etharp_output_to_arp_index+0xa8>)
 8012868:	f001 f93e 	bl	8013ae8 <iprintf>
 801286c:	2318      	movs	r3, #24
 801286e:	eb04 0144 	add.w	r1, r4, r4, lsl #1
 8012872:	f106 0826 	add.w	r8, r6, #38	; 0x26
 8012876:	fb03 5404 	mla	r4, r3, r4, r5
 801287a:	00c9      	lsls	r1, r1, #3
 801287c:	7d23      	ldrb	r3, [r4, #20]
 801287e:	f101 070c 	add.w	r7, r1, #12
 8012882:	2b02      	cmp	r3, #2
 8012884:	442f      	add	r7, r5
 8012886:	d10b      	bne.n	80128a0 <etharp_output_to_arp_index+0x5c>
 8012888:	8a63      	ldrh	r3, [r4, #18]
 801288a:	f5b3 7f8e 	cmp.w	r3, #284	; 0x11c
 801288e:	d913      	bls.n	80128b8 <etharp_output_to_arp_index+0x74>
 8012890:	3104      	adds	r1, #4
 8012892:	4630      	mov	r0, r6
 8012894:	4429      	add	r1, r5
 8012896:	f7ff ff8f 	bl	80127b8 <etharp_request>
 801289a:	b908      	cbnz	r0, 80128a0 <etharp_output_to_arp_index+0x5c>
 801289c:	2303      	movs	r3, #3
 801289e:	7523      	strb	r3, [r4, #20]
 80128a0:	f44f 6300 	mov.w	r3, #2048	; 0x800
 80128a4:	4642      	mov	r2, r8
 80128a6:	4649      	mov	r1, r9
 80128a8:	4630      	mov	r0, r6
 80128aa:	9300      	str	r3, [sp, #0]
 80128ac:	463b      	mov	r3, r7
 80128ae:	f001 f80b 	bl	80138c8 <ethernet_output>
 80128b2:	b005      	add	sp, #20
 80128b4:	e8bd 83f0 	ldmia.w	sp!, {r4, r5, r6, r7, r8, r9, pc}
 80128b8:	f5b3 7f87 	cmp.w	r3, #270	; 0x10e
 80128bc:	d3f0      	bcc.n	80128a0 <etharp_output_to_arp_index+0x5c>
 80128be:	2301      	movs	r3, #1
 80128c0:	3104      	adds	r1, #4
 80128c2:	463a      	mov	r2, r7
 80128c4:	4630      	mov	r0, r6
 80128c6:	9303      	str	r3, [sp, #12]
 80128c8:	4429      	add	r1, r5
 80128ca:	4b09      	ldr	r3, [pc, #36]	; (80128f0 <etharp_output_to_arp_index+0xac>)
 80128cc:	9102      	str	r1, [sp, #8]
 80128ce:	4641      	mov	r1, r8
 80128d0:	9301      	str	r3, [sp, #4]
 80128d2:	1d33      	adds	r3, r6, #4
 80128d4:	9300      	str	r3, [sp, #0]
 80128d6:	4643      	mov	r3, r8
 80128d8:	f7ff fe4c 	bl	8012574 <etharp_raw>
 80128dc:	e7dd      	b.n	801289a <etharp_output_to_arp_index+0x56>
 80128de:	bf00      	nop
 80128e0:	2000455c 	.word	0x2000455c
 80128e4:	080271bf 	.word	0x080271bf
 80128e8:	08027279 	.word	0x08027279
 80128ec:	08014a3b 	.word	0x08014a3b
 80128f0:	080276d4 	.word	0x080276d4

080128f4 <etharp_query>:
 80128f4:	e92d 47f3 	stmdb	sp!, {r0, r1, r4, r5, r6, r7, r8, r9, sl, lr}
 80128f8:	4689      	mov	r9, r1
 80128fa:	4607      	mov	r7, r0
 80128fc:	4601      	mov	r1, r0
 80128fe:	4615      	mov	r5, r2
 8012900:	f8d9 0000 	ldr.w	r0, [r9]
 8012904:	f000 fbb3 	bl	801306e <ip4_addr_isbroadcast_u32>
 8012908:	2800      	cmp	r0, #0
 801290a:	f040 8081 	bne.w	8012a10 <etharp_query+0x11c>
 801290e:	f8d9 3000 	ldr.w	r3, [r9]
 8012912:	f003 02f0 	and.w	r2, r3, #240	; 0xf0
 8012916:	2ae0      	cmp	r2, #224	; 0xe0
 8012918:	d07a      	beq.n	8012a10 <etharp_query+0x11c>
 801291a:	2b00      	cmp	r3, #0
 801291c:	d078      	beq.n	8012a10 <etharp_query+0x11c>
 801291e:	463a      	mov	r2, r7
 8012920:	2101      	movs	r1, #1
 8012922:	4648      	mov	r0, r9
 8012924:	f7ff fd98 	bl	8012458 <etharp_find_entry>
 8012928:	1e04      	subs	r4, r0, #0
 801292a:	da03      	bge.n	8012934 <etharp_query+0x40>
 801292c:	b260      	sxtb	r0, r4
 801292e:	b002      	add	sp, #8
 8012930:	e8bd 87f0 	ldmia.w	sp!, {r4, r5, r6, r7, r8, r9, sl, pc}
 8012934:	2c7e      	cmp	r4, #126	; 0x7e
 8012936:	dd06      	ble.n	8012946 <etharp_query+0x52>
 8012938:	4b3e      	ldr	r3, [pc, #248]	; (8012a34 <etharp_query+0x140>)
 801293a:	f240 32c1 	movw	r2, #961	; 0x3c1
 801293e:	493e      	ldr	r1, [pc, #248]	; (8012a38 <etharp_query+0x144>)
 8012940:	483e      	ldr	r0, [pc, #248]	; (8012a3c <etharp_query+0x148>)
 8012942:	f001 f8d1 	bl	8013ae8 <iprintf>
 8012946:	b2e4      	uxtb	r4, r4
 8012948:	4e3d      	ldr	r6, [pc, #244]	; (8012a40 <etharp_query+0x14c>)
 801294a:	2218      	movs	r2, #24
 801294c:	fb02 6204 	mla	r2, r2, r4, r6
 8012950:	7d13      	ldrb	r3, [r2, #20]
 8012952:	bb83      	cbnz	r3, 80129b6 <etharp_query+0xc2>
 8012954:	f04f 0801 	mov.w	r8, #1
 8012958:	6097      	str	r7, [r2, #8]
 801295a:	f882 8014 	strb.w	r8, [r2, #20]
 801295e:	2318      	movs	r3, #24
 8012960:	fb03 6304 	mla	r3, r3, r4, r6
 8012964:	7d1b      	ldrb	r3, [r3, #20]
 8012966:	b933      	cbnz	r3, 8012976 <etharp_query+0x82>
 8012968:	4b32      	ldr	r3, [pc, #200]	; (8012a34 <etharp_query+0x140>)
 801296a:	f240 32cf 	movw	r2, #975	; 0x3cf
 801296e:	4935      	ldr	r1, [pc, #212]	; (8012a44 <etharp_query+0x150>)
 8012970:	4832      	ldr	r0, [pc, #200]	; (8012a3c <etharp_query+0x148>)
 8012972:	f001 f8b9 	bl	8013ae8 <iprintf>
 8012976:	f1b8 0f00 	cmp.w	r8, #0
 801297a:	d101      	bne.n	8012980 <etharp_query+0x8c>
 801297c:	2d00      	cmp	r5, #0
 801297e:	d14a      	bne.n	8012a16 <etharp_query+0x122>
 8012980:	4649      	mov	r1, r9
 8012982:	4638      	mov	r0, r7
 8012984:	f7ff ff18 	bl	80127b8 <etharp_request>
 8012988:	2d00      	cmp	r5, #0
 801298a:	d0d0      	beq.n	801292e <etharp_query+0x3a>
 801298c:	2318      	movs	r3, #24
 801298e:	fb03 6204 	mla	r2, r3, r4, r6
 8012992:	7d12      	ldrb	r2, [r2, #20]
 8012994:	2a01      	cmp	r2, #1
 8012996:	d911      	bls.n	80129bc <etharp_query+0xc8>
 8012998:	4a2b      	ldr	r2, [pc, #172]	; (8012a48 <etharp_query+0x154>)
 801299a:	fb03 6304 	mla	r3, r3, r4, r6
 801299e:	4629      	mov	r1, r5
 80129a0:	4638      	mov	r0, r7
 80129a2:	7014      	strb	r4, [r2, #0]
 80129a4:	f44f 6200 	mov.w	r2, #2048	; 0x800
 80129a8:	330c      	adds	r3, #12
 80129aa:	9200      	str	r2, [sp, #0]
 80129ac:	f107 0226 	add.w	r2, r7, #38	; 0x26
 80129b0:	f000 ff8a 	bl	80138c8 <ethernet_output>
 80129b4:	e7bb      	b.n	801292e <etharp_query+0x3a>
 80129b6:	f04f 0800 	mov.w	r8, #0
 80129ba:	e7d0      	b.n	801295e <etharp_query+0x6a>
 80129bc:	d1b7      	bne.n	801292e <etharp_query+0x3a>
 80129be:	462f      	mov	r7, r5
 80129c0:	f8df 8070 	ldr.w	r8, [pc, #112]	; 8012a34 <etharp_query+0x140>
 80129c4:	f8df 9084 	ldr.w	r9, [pc, #132]	; 8012a4c <etharp_query+0x158>
 80129c8:	f8df a070 	ldr.w	sl, [pc, #112]	; 8012a3c <etharp_query+0x148>
 80129cc:	897a      	ldrh	r2, [r7, #10]
 80129ce:	893b      	ldrh	r3, [r7, #8]
 80129d0:	429a      	cmp	r2, r3
 80129d2:	d108      	bne.n	80129e6 <etharp_query+0xf2>
 80129d4:	683b      	ldr	r3, [r7, #0]
 80129d6:	b133      	cbz	r3, 80129e6 <etharp_query+0xf2>
 80129d8:	4643      	mov	r3, r8
 80129da:	f240 32f1 	movw	r2, #1009	; 0x3f1
 80129de:	4649      	mov	r1, r9
 80129e0:	4650      	mov	r0, sl
 80129e2:	f001 f881 	bl	8013ae8 <iprintf>
 80129e6:	7b3b      	ldrb	r3, [r7, #12]
 80129e8:	065b      	lsls	r3, r3, #25
 80129ea:	d417      	bmi.n	8012a1c <etharp_query+0x128>
 80129ec:	683f      	ldr	r7, [r7, #0]
 80129ee:	2f00      	cmp	r7, #0
 80129f0:	d1ec      	bne.n	80129cc <etharp_query+0xd8>
 80129f2:	4628      	mov	r0, r5
 80129f4:	f7fb fd50 	bl	800e498 <pbuf_ref>
 80129f8:	2318      	movs	r3, #24
 80129fa:	fb03 f204 	mul.w	r2, r3, r4
 80129fe:	461f      	mov	r7, r3
 8012a00:	58b0      	ldr	r0, [r6, r2]
 8012a02:	b108      	cbz	r0, 8012a08 <etharp_query+0x114>
 8012a04:	f7fb fbee 	bl	800e1e4 <pbuf_free>
 8012a08:	437c      	muls	r4, r7
 8012a0a:	2000      	movs	r0, #0
 8012a0c:	5135      	str	r5, [r6, r4]
 8012a0e:	e78e      	b.n	801292e <etharp_query+0x3a>
 8012a10:	f06f 000f 	mvn.w	r0, #15
 8012a14:	e78b      	b.n	801292e <etharp_query+0x3a>
 8012a16:	f04f 30ff 	mov.w	r0, #4294967295	; 0xffffffff
 8012a1a:	e7b7      	b.n	801298c <etharp_query+0x98>
 8012a1c:	462a      	mov	r2, r5
 8012a1e:	f44f 7120 	mov.w	r1, #640	; 0x280
 8012a22:	200e      	movs	r0, #14
 8012a24:	f7fb fe56 	bl	800e6d4 <pbuf_clone>
 8012a28:	4605      	mov	r5, r0
 8012a2a:	2800      	cmp	r0, #0
 8012a2c:	d1e4      	bne.n	80129f8 <etharp_query+0x104>
 8012a2e:	f04f 30ff 	mov.w	r0, #4294967295	; 0xffffffff
 8012a32:	e77c      	b.n	801292e <etharp_query+0x3a>
 8012a34:	080271bf 	.word	0x080271bf
 8012a38:	080272a9 	.word	0x080272a9
 8012a3c:	08014a3b 	.word	0x08014a3b
 8012a40:	2000455c 	.word	0x2000455c
 8012a44:	080272b7 	.word	0x080272b7
 8012a48:	2000464c 	.word	0x2000464c
 8012a4c:	080272df 	.word	0x080272df

08012a50 <etharp_output>:
 8012a50:	b5f0      	push	{r4, r5, r6, r7, lr}
 8012a52:	460e      	mov	r6, r1
 8012a54:	b085      	sub	sp, #20
 8012a56:	4615      	mov	r5, r2
 8012a58:	4604      	mov	r4, r0
 8012a5a:	b930      	cbnz	r0, 8012a6a <etharp_output+0x1a>
 8012a5c:	4b41      	ldr	r3, [pc, #260]	; (8012b64 <etharp_output+0x114>)
 8012a5e:	f240 321e 	movw	r2, #798	; 0x31e
 8012a62:	4941      	ldr	r1, [pc, #260]	; (8012b68 <etharp_output+0x118>)
 8012a64:	4841      	ldr	r0, [pc, #260]	; (8012b6c <etharp_output+0x11c>)
 8012a66:	f001 f83f 	bl	8013ae8 <iprintf>
 8012a6a:	b936      	cbnz	r6, 8012a7a <etharp_output+0x2a>
 8012a6c:	4b3d      	ldr	r3, [pc, #244]	; (8012b64 <etharp_output+0x114>)
 8012a6e:	f240 321f 	movw	r2, #799	; 0x31f
 8012a72:	493f      	ldr	r1, [pc, #252]	; (8012b70 <etharp_output+0x120>)
 8012a74:	483d      	ldr	r0, [pc, #244]	; (8012b6c <etharp_output+0x11c>)
 8012a76:	f001 f837 	bl	8013ae8 <iprintf>
 8012a7a:	b935      	cbnz	r5, 8012a8a <etharp_output+0x3a>
 8012a7c:	4b39      	ldr	r3, [pc, #228]	; (8012b64 <etharp_output+0x114>)
 8012a7e:	f44f 7248 	mov.w	r2, #800	; 0x320
 8012a82:	493c      	ldr	r1, [pc, #240]	; (8012b74 <etharp_output+0x124>)
 8012a84:	4839      	ldr	r0, [pc, #228]	; (8012b6c <etharp_output+0x11c>)
 8012a86:	f001 f82f 	bl	8013ae8 <iprintf>
 8012a8a:	4621      	mov	r1, r4
 8012a8c:	6828      	ldr	r0, [r5, #0]
 8012a8e:	f000 faee 	bl	801306e <ip4_addr_isbroadcast_u32>
 8012a92:	2800      	cmp	r0, #0
 8012a94:	d160      	bne.n	8012b58 <etharp_output+0x108>
 8012a96:	682b      	ldr	r3, [r5, #0]
 8012a98:	f003 02f0 	and.w	r2, r3, #240	; 0xf0
 8012a9c:	2ae0      	cmp	r2, #224	; 0xe0
 8012a9e:	d11b      	bne.n	8012ad8 <etharp_output+0x88>
 8012aa0:	2301      	movs	r3, #1
 8012aa2:	f8ad 3008 	strh.w	r3, [sp, #8]
 8012aa6:	235e      	movs	r3, #94	; 0x5e
 8012aa8:	f88d 300a 	strb.w	r3, [sp, #10]
 8012aac:	786b      	ldrb	r3, [r5, #1]
 8012aae:	f003 037f 	and.w	r3, r3, #127	; 0x7f
 8012ab2:	f88d 300b 	strb.w	r3, [sp, #11]
 8012ab6:	78ab      	ldrb	r3, [r5, #2]
 8012ab8:	f88d 300c 	strb.w	r3, [sp, #12]
 8012abc:	78eb      	ldrb	r3, [r5, #3]
 8012abe:	f88d 300d 	strb.w	r3, [sp, #13]
 8012ac2:	ab02      	add	r3, sp, #8
 8012ac4:	f44f 6200 	mov.w	r2, #2048	; 0x800
 8012ac8:	4631      	mov	r1, r6
 8012aca:	4620      	mov	r0, r4
 8012acc:	9200      	str	r2, [sp, #0]
 8012ace:	f104 0226 	add.w	r2, r4, #38	; 0x26
 8012ad2:	f000 fef9 	bl	80138c8 <ethernet_output>
 8012ad6:	e023      	b.n	8012b20 <etharp_output+0xd0>
 8012ad8:	6862      	ldr	r2, [r4, #4]
 8012ada:	68a1      	ldr	r1, [r4, #8]
 8012adc:	405a      	eors	r2, r3
 8012ade:	420a      	tst	r2, r1
 8012ae0:	d009      	beq.n	8012af6 <etharp_output+0xa6>
 8012ae2:	b29b      	uxth	r3, r3
 8012ae4:	f64f 62a9 	movw	r2, #65193	; 0xfea9
 8012ae8:	4293      	cmp	r3, r2
 8012aea:	d004      	beq.n	8012af6 <etharp_output+0xa6>
 8012aec:	68e3      	ldr	r3, [r4, #12]
 8012aee:	2b00      	cmp	r3, #0
 8012af0:	d034      	beq.n	8012b5c <etharp_output+0x10c>
 8012af2:	f104 050c 	add.w	r5, r4, #12
 8012af6:	4920      	ldr	r1, [pc, #128]	; (8012b78 <etharp_output+0x128>)
 8012af8:	2318      	movs	r3, #24
 8012afa:	4820      	ldr	r0, [pc, #128]	; (8012b7c <etharp_output+0x12c>)
 8012afc:	780a      	ldrb	r2, [r1, #0]
 8012afe:	468c      	mov	ip, r1
 8012b00:	fb03 0302 	mla	r3, r3, r2, r0
 8012b04:	7d18      	ldrb	r0, [r3, #20]
 8012b06:	2801      	cmp	r0, #1
 8012b08:	d90c      	bls.n	8012b24 <etharp_output+0xd4>
 8012b0a:	6899      	ldr	r1, [r3, #8]
 8012b0c:	42a1      	cmp	r1, r4
 8012b0e:	d109      	bne.n	8012b24 <etharp_output+0xd4>
 8012b10:	6829      	ldr	r1, [r5, #0]
 8012b12:	685b      	ldr	r3, [r3, #4]
 8012b14:	4299      	cmp	r1, r3
 8012b16:	d105      	bne.n	8012b24 <etharp_output+0xd4>
 8012b18:	4631      	mov	r1, r6
 8012b1a:	4620      	mov	r0, r4
 8012b1c:	f7ff fe92 	bl	8012844 <etharp_output_to_arp_index>
 8012b20:	b005      	add	sp, #20
 8012b22:	bdf0      	pop	{r4, r5, r6, r7, pc}
 8012b24:	4b16      	ldr	r3, [pc, #88]	; (8012b80 <etharp_output+0x130>)
 8012b26:	2100      	movs	r1, #0
 8012b28:	7c18      	ldrb	r0, [r3, #16]
 8012b2a:	b2ca      	uxtb	r2, r1
 8012b2c:	2801      	cmp	r0, #1
 8012b2e:	d909      	bls.n	8012b44 <etharp_output+0xf4>
 8012b30:	6858      	ldr	r0, [r3, #4]
 8012b32:	42a0      	cmp	r0, r4
 8012b34:	d106      	bne.n	8012b44 <etharp_output+0xf4>
 8012b36:	682f      	ldr	r7, [r5, #0]
 8012b38:	6818      	ldr	r0, [r3, #0]
 8012b3a:	4287      	cmp	r7, r0
 8012b3c:	d102      	bne.n	8012b44 <etharp_output+0xf4>
 8012b3e:	f88c 2000 	strb.w	r2, [ip]
 8012b42:	e7e9      	b.n	8012b18 <etharp_output+0xc8>
 8012b44:	3101      	adds	r1, #1
 8012b46:	3318      	adds	r3, #24
 8012b48:	290a      	cmp	r1, #10
 8012b4a:	d1ed      	bne.n	8012b28 <etharp_output+0xd8>
 8012b4c:	4632      	mov	r2, r6
 8012b4e:	4629      	mov	r1, r5
 8012b50:	4620      	mov	r0, r4
 8012b52:	f7ff fecf 	bl	80128f4 <etharp_query>
 8012b56:	e7e3      	b.n	8012b20 <etharp_output+0xd0>
 8012b58:	4b0a      	ldr	r3, [pc, #40]	; (8012b84 <etharp_output+0x134>)
 8012b5a:	e7b3      	b.n	8012ac4 <etharp_output+0x74>
 8012b5c:	f06f 0003 	mvn.w	r0, #3
 8012b60:	e7de      	b.n	8012b20 <etharp_output+0xd0>
 8012b62:	bf00      	nop
 8012b64:	080271bf 	.word	0x080271bf
 8012b68:	08014a2d 	.word	0x08014a2d
 8012b6c:	08014a3b 	.word	0x08014a3b
 8012b70:	08025f0d 	.word	0x08025f0d
 8012b74:	08027236 	.word	0x08027236
 8012b78:	2000464c 	.word	0x2000464c
 8012b7c:	2000455c 	.word	0x2000455c
 8012b80:	20004560 	.word	0x20004560
 8012b84:	08027668 	.word	0x08027668

08012b88 <icmp_send_response.isra.0>:
 8012b88:	b5f0      	push	{r4, r5, r6, r7, lr}
 8012b8a:	4604      	mov	r4, r0
 8012b8c:	b087      	sub	sp, #28
 8012b8e:	460f      	mov	r7, r1
 8012b90:	4616      	mov	r6, r2
 8012b92:	2124      	movs	r1, #36	; 0x24
 8012b94:	f44f 7220 	mov.w	r2, #640	; 0x280
 8012b98:	2022      	movs	r0, #34	; 0x22
 8012b9a:	f7fb fb8b 	bl	800e2b4 <pbuf_alloc>
 8012b9e:	4605      	mov	r5, r0
 8012ba0:	b3a0      	cbz	r0, 8012c0c <icmp_send_response.isra.0+0x84>
 8012ba2:	8943      	ldrh	r3, [r0, #10]
 8012ba4:	2b23      	cmp	r3, #35	; 0x23
 8012ba6:	d806      	bhi.n	8012bb6 <icmp_send_response.isra.0+0x2e>
 8012ba8:	4b19      	ldr	r3, [pc, #100]	; (8012c10 <icmp_send_response.isra.0+0x88>)
 8012baa:	f240 1269 	movw	r2, #361	; 0x169
 8012bae:	4919      	ldr	r1, [pc, #100]	; (8012c14 <icmp_send_response.isra.0+0x8c>)
 8012bb0:	4819      	ldr	r0, [pc, #100]	; (8012c18 <icmp_send_response.isra.0+0x90>)
 8012bb2:	f000 ff99 	bl	8013ae8 <iprintf>
 8012bb6:	6822      	ldr	r2, [r4, #0]
 8012bb8:	2300      	movs	r3, #0
 8012bba:	686c      	ldr	r4, [r5, #4]
 8012bbc:	f102 001c 	add.w	r0, r2, #28
 8012bc0:	7123      	strb	r3, [r4, #4]
 8012bc2:	f104 0108 	add.w	r1, r4, #8
 8012bc6:	7163      	strb	r3, [r4, #5]
 8012bc8:	71a3      	strb	r3, [r4, #6]
 8012bca:	71e3      	strb	r3, [r4, #7]
 8012bcc:	4613      	mov	r3, r2
 8012bce:	7027      	strb	r7, [r4, #0]
 8012bd0:	7066      	strb	r6, [r4, #1]
 8012bd2:	f853 6b04 	ldr.w	r6, [r3], #4
 8012bd6:	4283      	cmp	r3, r0
 8012bd8:	f841 6b04 	str.w	r6, [r1], #4
 8012bdc:	d1f9      	bne.n	8012bd2 <icmp_send_response.isra.0+0x4a>
 8012bde:	ae06      	add	r6, sp, #24
 8012be0:	68d3      	ldr	r3, [r2, #12]
 8012be2:	f846 3d04 	str.w	r3, [r6, #-4]!
 8012be6:	4630      	mov	r0, r6
 8012be8:	f000 f8d2 	bl	8012d90 <ip4_route>
 8012bec:	b158      	cbz	r0, 8012c06 <icmp_send_response.isra.0+0x7e>
 8012bee:	2100      	movs	r1, #0
 8012bf0:	2301      	movs	r3, #1
 8012bf2:	4632      	mov	r2, r6
 8012bf4:	70a1      	strb	r1, [r4, #2]
 8012bf6:	70e1      	strb	r1, [r4, #3]
 8012bf8:	9002      	str	r0, [sp, #8]
 8012bfa:	4628      	mov	r0, r5
 8012bfc:	e9cd 1300 	strd	r1, r3, [sp]
 8012c00:	23ff      	movs	r3, #255	; 0xff
 8012c02:	f000 fa23 	bl	801304c <ip4_output_if>
 8012c06:	4628      	mov	r0, r5
 8012c08:	f7fb faec 	bl	800e1e4 <pbuf_free>
 8012c0c:	b007      	add	sp, #28
 8012c0e:	bdf0      	pop	{r4, r5, r6, r7, pc}
 8012c10:	080273d2 	.word	0x080273d2
 8012c14:	08027407 	.word	0x08027407
 8012c18:	08014a3b 	.word	0x08014a3b

08012c1c <icmp_input>:
 8012c1c:	e92d 43f0 	stmdb	sp!, {r4, r5, r6, r7, r8, r9, lr}
 8012c20:	4f43      	ldr	r7, [pc, #268]	; (8012d30 <icmp_input+0x114>)
 8012c22:	b085      	sub	sp, #20
 8012c24:	4604      	mov	r4, r0
 8012c26:	4688      	mov	r8, r1
 8012c28:	f8d7 9008 	ldr.w	r9, [r7, #8]
 8012c2c:	f899 5000 	ldrb.w	r5, [r9]
 8012c30:	f005 050f 	and.w	r5, r5, #15
 8012c34:	00ad      	lsls	r5, r5, #2
 8012c36:	2d13      	cmp	r5, #19
 8012c38:	d92e      	bls.n	8012c98 <icmp_input+0x7c>
 8012c3a:	8943      	ldrh	r3, [r0, #10]
 8012c3c:	2b03      	cmp	r3, #3
 8012c3e:	d92b      	bls.n	8012c98 <icmp_input+0x7c>
 8012c40:	6843      	ldr	r3, [r0, #4]
 8012c42:	781b      	ldrb	r3, [r3, #0]
 8012c44:	2b08      	cmp	r3, #8
 8012c46:	d127      	bne.n	8012c98 <icmp_input+0x7c>
 8012c48:	6978      	ldr	r0, [r7, #20]
 8012c4a:	f000 03f0 	and.w	r3, r0, #240	; 0xf0
 8012c4e:	2be0      	cmp	r3, #224	; 0xe0
 8012c50:	d022      	beq.n	8012c98 <icmp_input+0x7c>
 8012c52:	6839      	ldr	r1, [r7, #0]
 8012c54:	f000 fa0b 	bl	801306e <ip4_addr_isbroadcast_u32>
 8012c58:	b9f0      	cbnz	r0, 8012c98 <icmp_input+0x7c>
 8012c5a:	8923      	ldrh	r3, [r4, #8]
 8012c5c:	2b07      	cmp	r3, #7
 8012c5e:	d91b      	bls.n	8012c98 <icmp_input+0x7c>
 8012c60:	f105 060e 	add.w	r6, r5, #14
 8012c64:	4620      	mov	r0, r4
 8012c66:	4631      	mov	r1, r6
 8012c68:	f7fb fa85 	bl	800e176 <pbuf_add_header>
 8012c6c:	2800      	cmp	r0, #0
 8012c6e:	d052      	beq.n	8012d16 <icmp_input+0xfa>
 8012c70:	8923      	ldrh	r3, [r4, #8]
 8012c72:	1959      	adds	r1, r3, r5
 8012c74:	b289      	uxth	r1, r1
 8012c76:	428b      	cmp	r3, r1
 8012c78:	d80e      	bhi.n	8012c98 <icmp_input+0x7c>
 8012c7a:	f44f 7220 	mov.w	r2, #640	; 0x280
 8012c7e:	200e      	movs	r0, #14
 8012c80:	f7fb fb18 	bl	800e2b4 <pbuf_alloc>
 8012c84:	4606      	mov	r6, r0
 8012c86:	b138      	cbz	r0, 8012c98 <icmp_input+0x7c>
 8012c88:	8942      	ldrh	r2, [r0, #10]
 8012c8a:	f105 0308 	add.w	r3, r5, #8
 8012c8e:	429a      	cmp	r2, r3
 8012c90:	d208      	bcs.n	8012ca4 <icmp_input+0x88>
 8012c92:	4630      	mov	r0, r6
 8012c94:	f7fb faa6 	bl	800e1e4 <pbuf_free>
 8012c98:	4620      	mov	r0, r4
 8012c9a:	b005      	add	sp, #20
 8012c9c:	e8bd 43f0 	ldmia.w	sp!, {r4, r5, r6, r7, r8, r9, lr}
 8012ca0:	f7fb baa0 	b.w	800e1e4 <pbuf_free>
 8012ca4:	4649      	mov	r1, r9
 8012ca6:	462a      	mov	r2, r5
 8012ca8:	6840      	ldr	r0, [r0, #4]
 8012caa:	f000 ff0a 	bl	8013ac2 <memcpy>
 8012cae:	4629      	mov	r1, r5
 8012cb0:	4630      	mov	r0, r6
 8012cb2:	f7fb fa63 	bl	800e17c <pbuf_remove_header>
 8012cb6:	b130      	cbz	r0, 8012cc6 <icmp_input+0xaa>
 8012cb8:	4b1e      	ldr	r3, [pc, #120]	; (8012d34 <icmp_input+0x118>)
 8012cba:	22b6      	movs	r2, #182	; 0xb6
 8012cbc:	491e      	ldr	r1, [pc, #120]	; (8012d38 <icmp_input+0x11c>)
 8012cbe:	481f      	ldr	r0, [pc, #124]	; (8012d3c <icmp_input+0x120>)
 8012cc0:	f000 ff12 	bl	8013ae8 <iprintf>
 8012cc4:	e7e5      	b.n	8012c92 <icmp_input+0x76>
 8012cc6:	4621      	mov	r1, r4
 8012cc8:	4630      	mov	r0, r6
 8012cca:	f7fb fc3b 	bl	800e544 <pbuf_copy>
 8012cce:	2800      	cmp	r0, #0
 8012cd0:	d1df      	bne.n	8012c92 <icmp_input+0x76>
 8012cd2:	4620      	mov	r0, r4
 8012cd4:	4634      	mov	r4, r6
 8012cd6:	f7fb fa85 	bl	800e1e4 <pbuf_free>
 8012cda:	4629      	mov	r1, r5
 8012cdc:	4620      	mov	r0, r4
 8012cde:	6866      	ldr	r6, [r4, #4]
 8012ce0:	f7fb fa49 	bl	800e176 <pbuf_add_header>
 8012ce4:	4602      	mov	r2, r0
 8012ce6:	2800      	cmp	r0, #0
 8012ce8:	d1d6      	bne.n	8012c98 <icmp_input+0x7c>
 8012cea:	6861      	ldr	r1, [r4, #4]
 8012cec:	697b      	ldr	r3, [r7, #20]
 8012cee:	60cb      	str	r3, [r1, #12]
 8012cf0:	693b      	ldr	r3, [r7, #16]
 8012cf2:	610b      	str	r3, [r1, #16]
 8012cf4:	23ff      	movs	r3, #255	; 0xff
 8012cf6:	7030      	strb	r0, [r6, #0]
 8012cf8:	70b0      	strb	r0, [r6, #2]
 8012cfa:	70f0      	strb	r0, [r6, #3]
 8012cfc:	720b      	strb	r3, [r1, #8]
 8012cfe:	7288      	strb	r0, [r1, #10]
 8012d00:	72c8      	strb	r0, [r1, #11]
 8012d02:	2101      	movs	r1, #1
 8012d04:	f8cd 8008 	str.w	r8, [sp, #8]
 8012d08:	e9cd 0100 	strd	r0, r1, [sp]
 8012d0c:	490c      	ldr	r1, [pc, #48]	; (8012d40 <icmp_input+0x124>)
 8012d0e:	4620      	mov	r0, r4
 8012d10:	f000 f99c 	bl	801304c <ip4_output_if>
 8012d14:	e7c0      	b.n	8012c98 <icmp_input+0x7c>
 8012d16:	4631      	mov	r1, r6
 8012d18:	4620      	mov	r0, r4
 8012d1a:	f7fb fa2f 	bl	800e17c <pbuf_remove_header>
 8012d1e:	2800      	cmp	r0, #0
 8012d20:	d0db      	beq.n	8012cda <icmp_input+0xbe>
 8012d22:	4b04      	ldr	r3, [pc, #16]	; (8012d34 <icmp_input+0x118>)
 8012d24:	22c7      	movs	r2, #199	; 0xc7
 8012d26:	4907      	ldr	r1, [pc, #28]	; (8012d44 <icmp_input+0x128>)
 8012d28:	4804      	ldr	r0, [pc, #16]	; (8012d3c <icmp_input+0x120>)
 8012d2a:	f000 fedd 	bl	8013ae8 <iprintf>
 8012d2e:	e7b3      	b.n	8012c98 <icmp_input+0x7c>
 8012d30:	20007c2c 	.word	0x20007c2c
 8012d34:	080273d2 	.word	0x080273d2
 8012d38:	0802736b 	.word	0x0802736b
 8012d3c:	08014a3b 	.word	0x08014a3b
 8012d40:	20007c40 	.word	0x20007c40
 8012d44:	080273a0 	.word	0x080273a0

08012d48 <icmp_dest_unreach>:
 8012d48:	460a      	mov	r2, r1
 8012d4a:	3004      	adds	r0, #4
 8012d4c:	2103      	movs	r1, #3
 8012d4e:	f7ff bf1b 	b.w	8012b88 <icmp_send_response.isra.0>

08012d52 <icmp_time_exceeded>:
 8012d52:	460a      	mov	r2, r1
 8012d54:	3004      	adds	r0, #4
 8012d56:	210b      	movs	r1, #11
 8012d58:	f7ff bf16 	b.w	8012b88 <icmp_send_response.isra.0>

08012d5c <ip4_input_accept>:
 8012d5c:	b508      	push	{r3, lr}
 8012d5e:	f890 302d 	ldrb.w	r3, [r0, #45]	; 0x2d
 8012d62:	4601      	mov	r1, r0
 8012d64:	f013 0301 	ands.w	r3, r3, #1
 8012d68:	d00b      	beq.n	8012d82 <ip4_input_accept+0x26>
 8012d6a:	6843      	ldr	r3, [r0, #4]
 8012d6c:	b14b      	cbz	r3, 8012d82 <ip4_input_accept+0x26>
 8012d6e:	4a07      	ldr	r2, [pc, #28]	; (8012d8c <ip4_input_accept+0x30>)
 8012d70:	6950      	ldr	r0, [r2, #20]
 8012d72:	4283      	cmp	r3, r0
 8012d74:	d007      	beq.n	8012d86 <ip4_input_accept+0x2a>
 8012d76:	f000 f97a 	bl	801306e <ip4_addr_isbroadcast_u32>
 8012d7a:	3000      	adds	r0, #0
 8012d7c:	bf18      	it	ne
 8012d7e:	2001      	movne	r0, #1
 8012d80:	bd08      	pop	{r3, pc}
 8012d82:	4618      	mov	r0, r3
 8012d84:	e7fc      	b.n	8012d80 <ip4_input_accept+0x24>
 8012d86:	2001      	movs	r0, #1
 8012d88:	e7fa      	b.n	8012d80 <ip4_input_accept+0x24>
 8012d8a:	bf00      	nop
 8012d8c:	20007c2c 	.word	0x20007c2c

08012d90 <ip4_route>:
 8012d90:	4b14      	ldr	r3, [pc, #80]	; (8012de4 <ip4_route+0x54>)
 8012d92:	b530      	push	{r4, r5, lr}
 8012d94:	681b      	ldr	r3, [r3, #0]
 8012d96:	b97b      	cbnz	r3, 8012db8 <ip4_route+0x28>
 8012d98:	4a13      	ldr	r2, [pc, #76]	; (8012de8 <ip4_route+0x58>)
 8012d9a:	6812      	ldr	r2, [r2, #0]
 8012d9c:	b1fa      	cbz	r2, 8012dde <ip4_route+0x4e>
 8012d9e:	f892 102d 	ldrb.w	r1, [r2, #45]	; 0x2d
 8012da2:	f001 0105 	and.w	r1, r1, #5
 8012da6:	2905      	cmp	r1, #5
 8012da8:	d119      	bne.n	8012dde <ip4_route+0x4e>
 8012daa:	6851      	ldr	r1, [r2, #4]
 8012dac:	b1b9      	cbz	r1, 8012dde <ip4_route+0x4e>
 8012dae:	7801      	ldrb	r1, [r0, #0]
 8012db0:	297f      	cmp	r1, #127	; 0x7f
 8012db2:	bf18      	it	ne
 8012db4:	4613      	movne	r3, r2
 8012db6:	e012      	b.n	8012dde <ip4_route+0x4e>
 8012db8:	f893 102d 	ldrb.w	r1, [r3, #45]	; 0x2d
 8012dbc:	07cd      	lsls	r5, r1, #31
 8012dbe:	d5e9      	bpl.n	8012d94 <ip4_route+0x4>
 8012dc0:	074c      	lsls	r4, r1, #29
 8012dc2:	d5e7      	bpl.n	8012d94 <ip4_route+0x4>
 8012dc4:	685a      	ldr	r2, [r3, #4]
 8012dc6:	2a00      	cmp	r2, #0
 8012dc8:	d0e4      	beq.n	8012d94 <ip4_route+0x4>
 8012dca:	6804      	ldr	r4, [r0, #0]
 8012dcc:	689d      	ldr	r5, [r3, #8]
 8012dce:	4062      	eors	r2, r4
 8012dd0:	422a      	tst	r2, r5
 8012dd2:	d004      	beq.n	8012dde <ip4_route+0x4e>
 8012dd4:	078a      	lsls	r2, r1, #30
 8012dd6:	d4dd      	bmi.n	8012d94 <ip4_route+0x4>
 8012dd8:	68da      	ldr	r2, [r3, #12]
 8012dda:	4294      	cmp	r4, r2
 8012ddc:	d1da      	bne.n	8012d94 <ip4_route+0x4>
 8012dde:	4618      	mov	r0, r3
 8012de0:	bd30      	pop	{r4, r5, pc}
 8012de2:	bf00      	nop
 8012de4:	2000b324 	.word	0x2000b324
 8012de8:	2000b328 	.word	0x2000b328

08012dec <ip4_input>:
 8012dec:	e92d 43f8 	stmdb	sp!, {r3, r4, r5, r6, r7, r8, r9, lr}
 8012df0:	f8d0 8004 	ldr.w	r8, [r0, #4]
 8012df4:	4605      	mov	r5, r0
 8012df6:	460f      	mov	r7, r1
 8012df8:	f898 9000 	ldrb.w	r9, [r8]
 8012dfc:	ea4f 1319 	mov.w	r3, r9, lsr #4
 8012e00:	2b04      	cmp	r3, #4
 8012e02:	d005      	beq.n	8012e10 <ip4_input+0x24>
 8012e04:	4628      	mov	r0, r5
 8012e06:	f7fb f9ed 	bl	800e1e4 <pbuf_free>
 8012e0a:	2000      	movs	r0, #0
 8012e0c:	e8bd 83f8 	ldmia.w	sp!, {r3, r4, r5, r6, r7, r8, r9, pc}
 8012e10:	f8b8 0002 	ldrh.w	r0, [r8, #2]
 8012e14:	f009 090f 	and.w	r9, r9, #15
 8012e18:	f7fa fc42 	bl	800d6a0 <lwip_htons>
 8012e1c:	892b      	ldrh	r3, [r5, #8]
 8012e1e:	ea4f 0989 	mov.w	r9, r9, lsl #2
 8012e22:	4604      	mov	r4, r0
 8012e24:	4283      	cmp	r3, r0
 8012e26:	fa1f f689 	uxth.w	r6, r9
 8012e2a:	d903      	bls.n	8012e34 <ip4_input+0x48>
 8012e2c:	4601      	mov	r1, r0
 8012e2e:	4628      	mov	r0, r5
 8012e30:	f7fb fad2 	bl	800e3d8 <pbuf_realloc>
 8012e34:	896b      	ldrh	r3, [r5, #10]
 8012e36:	42b3      	cmp	r3, r6
 8012e38:	d3e4      	bcc.n	8012e04 <ip4_input+0x18>
 8012e3a:	892b      	ldrh	r3, [r5, #8]
 8012e3c:	42a3      	cmp	r3, r4
 8012e3e:	d3e1      	bcc.n	8012e04 <ip4_input+0x18>
 8012e40:	2e13      	cmp	r6, #19
 8012e42:	d9df      	bls.n	8012e04 <ip4_input+0x18>
 8012e44:	f8d8 3010 	ldr.w	r3, [r8, #16]
 8012e48:	4c41      	ldr	r4, [pc, #260]	; (8012f50 <ip4_input+0x164>)
 8012e4a:	6163      	str	r3, [r4, #20]
 8012e4c:	f003 03f0 	and.w	r3, r3, #240	; 0xf0
 8012e50:	f8d8 200c 	ldr.w	r2, [r8, #12]
 8012e54:	2be0      	cmp	r3, #224	; 0xe0
 8012e56:	6122      	str	r2, [r4, #16]
 8012e58:	d13c      	bne.n	8012ed4 <ip4_input+0xe8>
 8012e5a:	f897 302d 	ldrb.w	r3, [r7, #45]	; 0x2d
 8012e5e:	07db      	lsls	r3, r3, #31
 8012e60:	d543      	bpl.n	8012eea <ip4_input+0xfe>
 8012e62:	687b      	ldr	r3, [r7, #4]
 8012e64:	2b00      	cmp	r3, #0
 8012e66:	d040      	beq.n	8012eea <ip4_input+0xfe>
 8012e68:	463e      	mov	r6, r7
 8012e6a:	4639      	mov	r1, r7
 8012e6c:	6920      	ldr	r0, [r4, #16]
 8012e6e:	f000 f8fe 	bl	801306e <ip4_addr_isbroadcast_u32>
 8012e72:	2800      	cmp	r0, #0
 8012e74:	d1c6      	bne.n	8012e04 <ip4_input+0x18>
 8012e76:	6923      	ldr	r3, [r4, #16]
 8012e78:	f003 03f0 	and.w	r3, r3, #240	; 0xf0
 8012e7c:	2be0      	cmp	r3, #224	; 0xe0
 8012e7e:	d0c1      	beq.n	8012e04 <ip4_input+0x18>
 8012e80:	2e00      	cmp	r6, #0
 8012e82:	d0bf      	beq.n	8012e04 <ip4_input+0x18>
 8012e84:	f8b8 3006 	ldrh.w	r3, [r8, #6]
 8012e88:	f023 03c0 	bic.w	r3, r3, #192	; 0xc0
 8012e8c:	b13b      	cbz	r3, 8012e9e <ip4_input+0xb2>
 8012e8e:	4628      	mov	r0, r5
 8012e90:	f000 fa1e 	bl	80132d0 <ip4_reass>
 8012e94:	4605      	mov	r5, r0
 8012e96:	2800      	cmp	r0, #0
 8012e98:	d0b7      	beq.n	8012e0a <ip4_input+0x1e>
 8012e9a:	f8d0 8004 	ldr.w	r8, [r0, #4]
 8012e9e:	f8c4 8008 	str.w	r8, [r4, #8]
 8012ea2:	4649      	mov	r1, r9
 8012ea4:	4628      	mov	r0, r5
 8012ea6:	e9c4 6700 	strd	r6, r7, [r4]
 8012eaa:	f898 3000 	ldrb.w	r3, [r8]
 8012eae:	f003 030f 	and.w	r3, r3, #15
 8012eb2:	009b      	lsls	r3, r3, #2
 8012eb4:	81a3      	strh	r3, [r4, #12]
 8012eb6:	f7fb f961 	bl	800e17c <pbuf_remove_header>
 8012eba:	f898 3009 	ldrb.w	r3, [r8, #9]
 8012ebe:	2b06      	cmp	r3, #6
 8012ec0:	d02b      	beq.n	8012f1a <ip4_input+0x12e>
 8012ec2:	2b11      	cmp	r3, #17
 8012ec4:	d01d      	beq.n	8012f02 <ip4_input+0x116>
 8012ec6:	2b01      	cmp	r3, #1
 8012ec8:	d12c      	bne.n	8012f24 <ip4_input+0x138>
 8012eca:	4639      	mov	r1, r7
 8012ecc:	4628      	mov	r0, r5
 8012ece:	f7ff fea5 	bl	8012c1c <icmp_input>
 8012ed2:	e01a      	b.n	8012f0a <ip4_input+0x11e>
 8012ed4:	4638      	mov	r0, r7
 8012ed6:	f7ff ff41 	bl	8012d5c <ip4_input_accept>
 8012eda:	2800      	cmp	r0, #0
 8012edc:	d1c4      	bne.n	8012e68 <ip4_input+0x7c>
 8012ede:	7d23      	ldrb	r3, [r4, #20]
 8012ee0:	2b7f      	cmp	r3, #127	; 0x7f
 8012ee2:	d002      	beq.n	8012eea <ip4_input+0xfe>
 8012ee4:	4b1b      	ldr	r3, [pc, #108]	; (8012f54 <ip4_input+0x168>)
 8012ee6:	681e      	ldr	r6, [r3, #0]
 8012ee8:	b90e      	cbnz	r6, 8012eee <ip4_input+0x102>
 8012eea:	2600      	movs	r6, #0
 8012eec:	e7bd      	b.n	8012e6a <ip4_input+0x7e>
 8012eee:	42be      	cmp	r6, r7
 8012ef0:	d101      	bne.n	8012ef6 <ip4_input+0x10a>
 8012ef2:	6836      	ldr	r6, [r6, #0]
 8012ef4:	e7f8      	b.n	8012ee8 <ip4_input+0xfc>
 8012ef6:	4630      	mov	r0, r6
 8012ef8:	f7ff ff30 	bl	8012d5c <ip4_input_accept>
 8012efc:	2800      	cmp	r0, #0
 8012efe:	d0f8      	beq.n	8012ef2 <ip4_input+0x106>
 8012f00:	e7b3      	b.n	8012e6a <ip4_input+0x7e>
 8012f02:	4639      	mov	r1, r7
 8012f04:	4628      	mov	r0, r5
 8012f06:	f7ff f9ab 	bl	8012260 <udp_input>
 8012f0a:	2300      	movs	r3, #0
 8012f0c:	e9c4 3300 	strd	r3, r3, [r4]
 8012f10:	60a3      	str	r3, [r4, #8]
 8012f12:	81a3      	strh	r3, [r4, #12]
 8012f14:	e9c4 3304 	strd	r3, r3, [r4, #16]
 8012f18:	e777      	b.n	8012e0a <ip4_input+0x1e>
 8012f1a:	4639      	mov	r1, r7
 8012f1c:	4628      	mov	r0, r5
 8012f1e:	f7fd f9eb 	bl	80102f8 <tcp_input>
 8012f22:	e7f2      	b.n	8012f0a <ip4_input+0x11e>
 8012f24:	4631      	mov	r1, r6
 8012f26:	6960      	ldr	r0, [r4, #20]
 8012f28:	f000 f8a1 	bl	801306e <ip4_addr_isbroadcast_u32>
 8012f2c:	b960      	cbnz	r0, 8012f48 <ip4_input+0x15c>
 8012f2e:	6963      	ldr	r3, [r4, #20]
 8012f30:	f003 03f0 	and.w	r3, r3, #240	; 0xf0
 8012f34:	2be0      	cmp	r3, #224	; 0xe0
 8012f36:	d007      	beq.n	8012f48 <ip4_input+0x15c>
 8012f38:	4649      	mov	r1, r9
 8012f3a:	4628      	mov	r0, r5
 8012f3c:	f7fb f94a 	bl	800e1d4 <pbuf_header_force>
 8012f40:	2102      	movs	r1, #2
 8012f42:	4628      	mov	r0, r5
 8012f44:	f7ff ff00 	bl	8012d48 <icmp_dest_unreach>
 8012f48:	4628      	mov	r0, r5
 8012f4a:	f7fb f94b 	bl	800e1e4 <pbuf_free>
 8012f4e:	e7dc      	b.n	8012f0a <ip4_input+0x11e>
 8012f50:	20007c2c 	.word	0x20007c2c
 8012f54:	2000b324 	.word	0x2000b324

08012f58 <ip4_output_if_src>:
 8012f58:	e92d 47f3 	stmdb	sp!, {r0, r1, r4, r5, r6, r7, r8, r9, sl, lr}
 8012f5c:	461f      	mov	r7, r3
 8012f5e:	7b83      	ldrb	r3, [r0, #14]
 8012f60:	4605      	mov	r5, r0
 8012f62:	468a      	mov	sl, r1
 8012f64:	2b01      	cmp	r3, #1
 8012f66:	4616      	mov	r6, r2
 8012f68:	f8dd 8030 	ldr.w	r8, [sp, #48]	; 0x30
 8012f6c:	d006      	beq.n	8012f7c <ip4_output_if_src+0x24>
 8012f6e:	4b31      	ldr	r3, [pc, #196]	; (8013034 <ip4_output_if_src+0xdc>)
 8012f70:	f44f 7255 	mov.w	r2, #852	; 0x354
 8012f74:	4930      	ldr	r1, [pc, #192]	; (8013038 <ip4_output_if_src+0xe0>)
 8012f76:	4831      	ldr	r0, [pc, #196]	; (801303c <ip4_output_if_src+0xe4>)
 8012f78:	f000 fdb6 	bl	8013ae8 <iprintf>
 8012f7c:	2e00      	cmp	r6, #0
 8012f7e:	d049      	beq.n	8013014 <ip4_output_if_src+0xbc>
 8012f80:	2114      	movs	r1, #20
 8012f82:	4628      	mov	r0, r5
 8012f84:	f7fb f8f7 	bl	800e176 <pbuf_add_header>
 8012f88:	b120      	cbz	r0, 8012f94 <ip4_output_if_src+0x3c>
 8012f8a:	f06f 0001 	mvn.w	r0, #1
 8012f8e:	b002      	add	sp, #8
 8012f90:	e8bd 87f0 	ldmia.w	sp!, {r4, r5, r6, r7, r8, r9, sl, pc}
 8012f94:	896b      	ldrh	r3, [r5, #10]
 8012f96:	686c      	ldr	r4, [r5, #4]
 8012f98:	2b13      	cmp	r3, #19
 8012f9a:	d806      	bhi.n	8012faa <ip4_output_if_src+0x52>
 8012f9c:	4b25      	ldr	r3, [pc, #148]	; (8013034 <ip4_output_if_src+0xdc>)
 8012f9e:	f240 3289 	movw	r2, #905	; 0x389
 8012fa2:	4927      	ldr	r1, [pc, #156]	; (8013040 <ip4_output_if_src+0xe8>)
 8012fa4:	4825      	ldr	r0, [pc, #148]	; (801303c <ip4_output_if_src+0xe4>)
 8012fa6:	f000 fd9f 	bl	8013ae8 <iprintf>
 8012faa:	f89d 302c 	ldrb.w	r3, [sp, #44]	; 0x2c
 8012fae:	7227      	strb	r7, [r4, #8]
 8012fb0:	2700      	movs	r7, #0
 8012fb2:	7263      	strb	r3, [r4, #9]
 8012fb4:	6833      	ldr	r3, [r6, #0]
 8012fb6:	f8df 9090 	ldr.w	r9, [pc, #144]	; 8013048 <ip4_output_if_src+0xf0>
 8012fba:	6123      	str	r3, [r4, #16]
 8012fbc:	2345      	movs	r3, #69	; 0x45
 8012fbe:	7023      	strb	r3, [r4, #0]
 8012fc0:	f89d 3028 	ldrb.w	r3, [sp, #40]	; 0x28
 8012fc4:	7063      	strb	r3, [r4, #1]
 8012fc6:	8928      	ldrh	r0, [r5, #8]
 8012fc8:	f7fa fb6a 	bl	800d6a0 <lwip_htons>
 8012fcc:	71a7      	strb	r7, [r4, #6]
 8012fce:	8060      	strh	r0, [r4, #2]
 8012fd0:	71e7      	strb	r7, [r4, #7]
 8012fd2:	f8b9 0000 	ldrh.w	r0, [r9]
 8012fd6:	f7fa fb63 	bl	800d6a0 <lwip_htons>
 8012fda:	f8b9 3000 	ldrh.w	r3, [r9]
 8012fde:	80a0      	strh	r0, [r4, #4]
 8012fe0:	3301      	adds	r3, #1
 8012fe2:	f8a9 3000 	strh.w	r3, [r9]
 8012fe6:	f1ba 0f00 	cmp.w	sl, #0
 8012fea:	d110      	bne.n	801300e <ip4_output_if_src+0xb6>
 8012fec:	4b15      	ldr	r3, [pc, #84]	; (8013044 <ip4_output_if_src+0xec>)
 8012fee:	681b      	ldr	r3, [r3, #0]
 8012ff0:	60e3      	str	r3, [r4, #12]
 8012ff2:	72a7      	strb	r7, [r4, #10]
 8012ff4:	72e7      	strb	r7, [r4, #11]
 8012ff6:	f8b8 3024 	ldrh.w	r3, [r8, #36]	; 0x24
 8012ffa:	b1a3      	cbz	r3, 8013026 <ip4_output_if_src+0xce>
 8012ffc:	892a      	ldrh	r2, [r5, #8]
 8012ffe:	429a      	cmp	r2, r3
 8013000:	d911      	bls.n	8013026 <ip4_output_if_src+0xce>
 8013002:	4632      	mov	r2, r6
 8013004:	4641      	mov	r1, r8
 8013006:	4628      	mov	r0, r5
 8013008:	f000 fb2c 	bl	8013664 <ip4_frag>
 801300c:	e7bf      	b.n	8012f8e <ip4_output_if_src+0x36>
 801300e:	f8da 3000 	ldr.w	r3, [sl]
 8013012:	e7ed      	b.n	8012ff0 <ip4_output_if_src+0x98>
 8013014:	896b      	ldrh	r3, [r5, #10]
 8013016:	2b13      	cmp	r3, #19
 8013018:	d9b7      	bls.n	8012f8a <ip4_output_if_src+0x32>
 801301a:	686b      	ldr	r3, [r5, #4]
 801301c:	ae02      	add	r6, sp, #8
 801301e:	691b      	ldr	r3, [r3, #16]
 8013020:	f846 3d04 	str.w	r3, [r6, #-4]!
 8013024:	e7e7      	b.n	8012ff6 <ip4_output_if_src+0x9e>
 8013026:	f8d8 3014 	ldr.w	r3, [r8, #20]
 801302a:	4632      	mov	r2, r6
 801302c:	4629      	mov	r1, r5
 801302e:	4640      	mov	r0, r8
 8013030:	4798      	blx	r3
 8013032:	e7ac      	b.n	8012f8e <ip4_output_if_src+0x36>
 8013034:	08027433 	.word	0x08027433
 8013038:	08027467 	.word	0x08027467
 801303c:	08014a3b 	.word	0x08014a3b
 8013040:	08027473 	.word	0x08027473
 8013044:	080274a0 	.word	0x080274a0
 8013048:	2000464e 	.word	0x2000464e

0801304c <ip4_output_if>:
 801304c:	b4f0      	push	{r4, r5, r6, r7}
 801304e:	9c06      	ldr	r4, [sp, #24]
 8013050:	f89d 5010 	ldrb.w	r5, [sp, #16]
 8013054:	f89d 6014 	ldrb.w	r6, [sp, #20]
 8013058:	b11a      	cbz	r2, 8013062 <ip4_output_if+0x16>
 801305a:	b109      	cbz	r1, 8013060 <ip4_output_if+0x14>
 801305c:	680f      	ldr	r7, [r1, #0]
 801305e:	b907      	cbnz	r7, 8013062 <ip4_output_if+0x16>
 8013060:	1d21      	adds	r1, r4, #4
 8013062:	9504      	str	r5, [sp, #16]
 8013064:	e9cd 6405 	strd	r6, r4, [sp, #20]
 8013068:	bcf0      	pop	{r4, r5, r6, r7}
 801306a:	f7ff bf75 	b.w	8012f58 <ip4_output_if_src>

0801306e <ip4_addr_isbroadcast_u32>:
 801306e:	1e43      	subs	r3, r0, #1
 8013070:	3303      	adds	r3, #3
 8013072:	d811      	bhi.n	8013098 <ip4_addr_isbroadcast_u32+0x2a>
 8013074:	f891 302d 	ldrb.w	r3, [r1, #45]	; 0x2d
 8013078:	f013 0302 	ands.w	r3, r3, #2
 801307c:	d00e      	beq.n	801309c <ip4_addr_isbroadcast_u32+0x2e>
 801307e:	684a      	ldr	r2, [r1, #4]
 8013080:	4282      	cmp	r2, r0
 8013082:	d00b      	beq.n	801309c <ip4_addr_isbroadcast_u32+0x2e>
 8013084:	688b      	ldr	r3, [r1, #8]
 8013086:	4042      	eors	r2, r0
 8013088:	421a      	tst	r2, r3
 801308a:	d107      	bne.n	801309c <ip4_addr_isbroadcast_u32+0x2e>
 801308c:	43db      	mvns	r3, r3
 801308e:	4383      	bics	r3, r0
 8013090:	bf0c      	ite	eq
 8013092:	2001      	moveq	r0, #1
 8013094:	2000      	movne	r0, #0
 8013096:	4770      	bx	lr
 8013098:	2001      	movs	r0, #1
 801309a:	4770      	bx	lr
 801309c:	2000      	movs	r0, #0
 801309e:	4770      	bx	lr

080130a0 <ip_reass_dequeue_datagram>:
 80130a0:	b538      	push	{r3, r4, r5, lr}
 80130a2:	4b0c      	ldr	r3, [pc, #48]	; (80130d4 <ip_reass_dequeue_datagram+0x34>)
 80130a4:	4604      	mov	r4, r0
 80130a6:	460d      	mov	r5, r1
 80130a8:	681a      	ldr	r2, [r3, #0]
 80130aa:	4282      	cmp	r2, r0
 80130ac:	d107      	bne.n	80130be <ip_reass_dequeue_datagram+0x1e>
 80130ae:	6802      	ldr	r2, [r0, #0]
 80130b0:	601a      	str	r2, [r3, #0]
 80130b2:	4621      	mov	r1, r4
 80130b4:	2004      	movs	r0, #4
 80130b6:	e8bd 4038 	ldmia.w	sp!, {r3, r4, r5, lr}
 80130ba:	f7fa be0f 	b.w	800dcdc <memp_free>
 80130be:	b931      	cbnz	r1, 80130ce <ip_reass_dequeue_datagram+0x2e>
 80130c0:	4b05      	ldr	r3, [pc, #20]	; (80130d8 <ip_reass_dequeue_datagram+0x38>)
 80130c2:	f240 1245 	movw	r2, #325	; 0x145
 80130c6:	4905      	ldr	r1, [pc, #20]	; (80130dc <ip_reass_dequeue_datagram+0x3c>)
 80130c8:	4805      	ldr	r0, [pc, #20]	; (80130e0 <ip_reass_dequeue_datagram+0x40>)
 80130ca:	f000 fd0d 	bl	8013ae8 <iprintf>
 80130ce:	6823      	ldr	r3, [r4, #0]
 80130d0:	602b      	str	r3, [r5, #0]
 80130d2:	e7ee      	b.n	80130b2 <ip_reass_dequeue_datagram+0x12>
 80130d4:	20004654 	.word	0x20004654
 80130d8:	080275ad 	.word	0x080275ad
 80130dc:	080275e6 	.word	0x080275e6
 80130e0:	08014a3b 	.word	0x08014a3b

080130e4 <ip_reass_free_complete_datagram>:
 80130e4:	4281      	cmp	r1, r0
 80130e6:	e92d 4ff8 	stmdb	sp!, {r3, r4, r5, r6, r7, r8, r9, sl, fp, lr}
 80130ea:	4605      	mov	r5, r0
 80130ec:	460f      	mov	r7, r1
 80130ee:	d105      	bne.n	80130fc <ip_reass_free_complete_datagram+0x18>
 80130f0:	4b2f      	ldr	r3, [pc, #188]	; (80131b0 <ip_reass_free_complete_datagram+0xcc>)
 80130f2:	22ab      	movs	r2, #171	; 0xab
 80130f4:	492f      	ldr	r1, [pc, #188]	; (80131b4 <ip_reass_free_complete_datagram+0xd0>)
 80130f6:	4830      	ldr	r0, [pc, #192]	; (80131b8 <ip_reass_free_complete_datagram+0xd4>)
 80130f8:	f000 fcf6 	bl	8013ae8 <iprintf>
 80130fc:	b147      	cbz	r7, 8013110 <ip_reass_free_complete_datagram+0x2c>
 80130fe:	683b      	ldr	r3, [r7, #0]
 8013100:	42ab      	cmp	r3, r5
 8013102:	d005      	beq.n	8013110 <ip_reass_free_complete_datagram+0x2c>
 8013104:	4b2a      	ldr	r3, [pc, #168]	; (80131b0 <ip_reass_free_complete_datagram+0xcc>)
 8013106:	22ad      	movs	r2, #173	; 0xad
 8013108:	492c      	ldr	r1, [pc, #176]	; (80131bc <ip_reass_free_complete_datagram+0xd8>)
 801310a:	482b      	ldr	r0, [pc, #172]	; (80131b8 <ip_reass_free_complete_datagram+0xd4>)
 801310c:	f000 fcec 	bl	8013ae8 <iprintf>
 8013110:	686e      	ldr	r6, [r5, #4]
 8013112:	6873      	ldr	r3, [r6, #4]
 8013114:	889a      	ldrh	r2, [r3, #4]
 8013116:	bb92      	cbnz	r2, 801317e <ip_reass_free_complete_datagram+0x9a>
 8013118:	681a      	ldr	r2, [r3, #0]
 801311a:	f105 011c 	add.w	r1, r5, #28
 801311e:	606a      	str	r2, [r5, #4]
 8013120:	f105 0208 	add.w	r2, r5, #8
 8013124:	f852 0b04 	ldr.w	r0, [r2], #4
 8013128:	428a      	cmp	r2, r1
 801312a:	f843 0b04 	str.w	r0, [r3], #4
 801312e:	d1f9      	bne.n	8013124 <ip_reass_free_complete_datagram+0x40>
 8013130:	2101      	movs	r1, #1
 8013132:	4630      	mov	r0, r6
 8013134:	f7ff fe0d 	bl	8012d52 <icmp_time_exceeded>
 8013138:	4630      	mov	r0, r6
 801313a:	f7fb f9a5 	bl	800e488 <pbuf_clen>
 801313e:	4604      	mov	r4, r0
 8013140:	4630      	mov	r0, r6
 8013142:	f7fb f84f 	bl	800e1e4 <pbuf_free>
 8013146:	686e      	ldr	r6, [r5, #4]
 8013148:	f8df 8064 	ldr.w	r8, [pc, #100]	; 80131b0 <ip_reass_free_complete_datagram+0xcc>
 801314c:	f8df 9078 	ldr.w	r9, [pc, #120]	; 80131c8 <ip_reass_free_complete_datagram+0xe4>
 8013150:	f8df a064 	ldr.w	sl, [pc, #100]	; 80131b8 <ip_reass_free_complete_datagram+0xd4>
 8013154:	b9ae      	cbnz	r6, 8013182 <ip_reass_free_complete_datagram+0x9e>
 8013156:	4628      	mov	r0, r5
 8013158:	4d19      	ldr	r5, [pc, #100]	; (80131c0 <ip_reass_free_complete_datagram+0xdc>)
 801315a:	4639      	mov	r1, r7
 801315c:	f7ff ffa0 	bl	80130a0 <ip_reass_dequeue_datagram>
 8013160:	882b      	ldrh	r3, [r5, #0]
 8013162:	42a3      	cmp	r3, r4
 8013164:	d205      	bcs.n	8013172 <ip_reass_free_complete_datagram+0x8e>
 8013166:	4b12      	ldr	r3, [pc, #72]	; (80131b0 <ip_reass_free_complete_datagram+0xcc>)
 8013168:	22d2      	movs	r2, #210	; 0xd2
 801316a:	4916      	ldr	r1, [pc, #88]	; (80131c4 <ip_reass_free_complete_datagram+0xe0>)
 801316c:	4812      	ldr	r0, [pc, #72]	; (80131b8 <ip_reass_free_complete_datagram+0xd4>)
 801316e:	f000 fcbb 	bl	8013ae8 <iprintf>
 8013172:	882b      	ldrh	r3, [r5, #0]
 8013174:	4620      	mov	r0, r4
 8013176:	1b1b      	subs	r3, r3, r4
 8013178:	802b      	strh	r3, [r5, #0]
 801317a:	e8bd 8ff8 	ldmia.w	sp!, {r3, r4, r5, r6, r7, r8, r9, sl, fp, pc}
 801317e:	2400      	movs	r4, #0
 8013180:	e7e1      	b.n	8013146 <ip_reass_free_complete_datagram+0x62>
 8013182:	6873      	ldr	r3, [r6, #4]
 8013184:	4630      	mov	r0, r6
 8013186:	f8d3 b000 	ldr.w	fp, [r3]
 801318a:	f7fb f97d 	bl	800e488 <pbuf_clen>
 801318e:	4404      	add	r4, r0
 8013190:	f5b4 3f80 	cmp.w	r4, #65536	; 0x10000
 8013194:	db05      	blt.n	80131a2 <ip_reass_free_complete_datagram+0xbe>
 8013196:	4643      	mov	r3, r8
 8013198:	22cc      	movs	r2, #204	; 0xcc
 801319a:	4649      	mov	r1, r9
 801319c:	4650      	mov	r0, sl
 801319e:	f000 fca3 	bl	8013ae8 <iprintf>
 80131a2:	4630      	mov	r0, r6
 80131a4:	b2a4      	uxth	r4, r4
 80131a6:	f7fb f81d 	bl	800e1e4 <pbuf_free>
 80131aa:	465e      	mov	r6, fp
 80131ac:	e7d2      	b.n	8013154 <ip_reass_free_complete_datagram+0x70>
 80131ae:	bf00      	nop
 80131b0:	080275ad 	.word	0x080275ad
 80131b4:	080275ff 	.word	0x080275ff
 80131b8:	08014a3b 	.word	0x08014a3b
 80131bc:	0802760b 	.word	0x0802760b
 80131c0:	20004650 	.word	0x20004650
 80131c4:	0802763a 	.word	0x0802763a
 80131c8:	0802761d 	.word	0x0802761d

080131cc <ip_reass_remove_oldest_datagram>:
 80131cc:	e92d 41f0 	stmdb	sp!, {r4, r5, r6, r7, r8, lr}
 80131d0:	4606      	mov	r6, r0
 80131d2:	460f      	mov	r7, r1
 80131d4:	2500      	movs	r5, #0
 80131d6:	f8df 8068 	ldr.w	r8, [pc, #104]	; 8013240 <ip_reass_remove_oldest_datagram+0x74>
 80131da:	2400      	movs	r4, #0
 80131dc:	f8d8 3000 	ldr.w	r3, [r8]
 80131e0:	4621      	mov	r1, r4
 80131e2:	46a4      	mov	ip, r4
 80131e4:	4620      	mov	r0, r4
 80131e6:	b953      	cbnz	r3, 80131fe <ip_reass_remove_oldest_datagram+0x32>
 80131e8:	b110      	cbz	r0, 80131f0 <ip_reass_remove_oldest_datagram+0x24>
 80131ea:	f7ff ff7b 	bl	80130e4 <ip_reass_free_complete_datagram>
 80131ee:	4405      	add	r5, r0
 80131f0:	42bd      	cmp	r5, r7
 80131f2:	da01      	bge.n	80131f8 <ip_reass_remove_oldest_datagram+0x2c>
 80131f4:	2c01      	cmp	r4, #1
 80131f6:	dcf0      	bgt.n	80131da <ip_reass_remove_oldest_datagram+0xe>
 80131f8:	4628      	mov	r0, r5
 80131fa:	e8bd 81f0 	ldmia.w	sp!, {r4, r5, r6, r7, r8, pc}
 80131fe:	f8d6 e00c 	ldr.w	lr, [r6, #12]
 8013202:	695a      	ldr	r2, [r3, #20]
 8013204:	4572      	cmp	r2, lr
 8013206:	d109      	bne.n	801321c <ip_reass_remove_oldest_datagram+0x50>
 8013208:	f8d6 e010 	ldr.w	lr, [r6, #16]
 801320c:	699a      	ldr	r2, [r3, #24]
 801320e:	4572      	cmp	r2, lr
 8013210:	d104      	bne.n	801321c <ip_reass_remove_oldest_datagram+0x50>
 8013212:	f8b3 e00c 	ldrh.w	lr, [r3, #12]
 8013216:	88b2      	ldrh	r2, [r6, #4]
 8013218:	4596      	cmp	lr, r2
 801321a:	d008      	beq.n	801322e <ip_reass_remove_oldest_datagram+0x62>
 801321c:	3401      	adds	r4, #1
 801321e:	b160      	cbz	r0, 801323a <ip_reass_remove_oldest_datagram+0x6e>
 8013220:	7fc2      	ldrb	r2, [r0, #31]
 8013222:	f893 e01f 	ldrb.w	lr, [r3, #31]
 8013226:	4596      	cmp	lr, r2
 8013228:	bf9c      	itt	ls
 801322a:	4661      	movls	r1, ip
 801322c:	4618      	movls	r0, r3
 801322e:	681a      	ldr	r2, [r3, #0]
 8013230:	2a00      	cmp	r2, #0
 8013232:	bf18      	it	ne
 8013234:	469c      	movne	ip, r3
 8013236:	4613      	mov	r3, r2
 8013238:	e7d5      	b.n	80131e6 <ip_reass_remove_oldest_datagram+0x1a>
 801323a:	4661      	mov	r1, ip
 801323c:	4618      	mov	r0, r3
 801323e:	e7f6      	b.n	801322e <ip_reass_remove_oldest_datagram+0x62>
 8013240:	20004654 	.word	0x20004654

08013244 <ip_frag_free_pbuf_custom_ref>:
 8013244:	b510      	push	{r4, lr}
 8013246:	4604      	mov	r4, r0
 8013248:	b930      	cbnz	r0, 8013258 <ip_frag_free_pbuf_custom_ref+0x14>
 801324a:	4b06      	ldr	r3, [pc, #24]	; (8013264 <ip_frag_free_pbuf_custom_ref+0x20>)
 801324c:	f44f 7231 	mov.w	r2, #708	; 0x2c4
 8013250:	4905      	ldr	r1, [pc, #20]	; (8013268 <ip_frag_free_pbuf_custom_ref+0x24>)
 8013252:	4806      	ldr	r0, [pc, #24]	; (801326c <ip_frag_free_pbuf_custom_ref+0x28>)
 8013254:	f000 fc48 	bl	8013ae8 <iprintf>
 8013258:	4621      	mov	r1, r4
 801325a:	2005      	movs	r0, #5
 801325c:	e8bd 4010 	ldmia.w	sp!, {r4, lr}
 8013260:	f7fa bd3c 	b.w	800dcdc <memp_free>
 8013264:	080275ad 	.word	0x080275ad
 8013268:	08025ef5 	.word	0x08025ef5
 801326c:	08014a3b 	.word	0x08014a3b

08013270 <ipfrag_free_pbuf_custom>:
 8013270:	b510      	push	{r4, lr}
 8013272:	4604      	mov	r4, r0
 8013274:	b930      	cbnz	r0, 8013284 <ipfrag_free_pbuf_custom+0x14>
 8013276:	4b08      	ldr	r3, [pc, #32]	; (8013298 <ipfrag_free_pbuf_custom+0x28>)
 8013278:	f240 22ce 	movw	r2, #718	; 0x2ce
 801327c:	4907      	ldr	r1, [pc, #28]	; (801329c <ipfrag_free_pbuf_custom+0x2c>)
 801327e:	4808      	ldr	r0, [pc, #32]	; (80132a0 <ipfrag_free_pbuf_custom+0x30>)
 8013280:	f000 fc32 	bl	8013ae8 <iprintf>
 8013284:	6960      	ldr	r0, [r4, #20]
 8013286:	b108      	cbz	r0, 801328c <ipfrag_free_pbuf_custom+0x1c>
 8013288:	f7fa ffac 	bl	800e1e4 <pbuf_free>
 801328c:	4620      	mov	r0, r4
 801328e:	e8bd 4010 	ldmia.w	sp!, {r4, lr}
 8013292:	f7ff bfd7 	b.w	8013244 <ip_frag_free_pbuf_custom_ref>
 8013296:	bf00      	nop
 8013298:	080275ad 	.word	0x080275ad
 801329c:	0802765c 	.word	0x0802765c
 80132a0:	08014a3b 	.word	0x08014a3b

080132a4 <ip_reass_tmr>:
 80132a4:	b538      	push	{r3, r4, r5, lr}
 80132a6:	4b09      	ldr	r3, [pc, #36]	; (80132cc <ip_reass_tmr+0x28>)
 80132a8:	2400      	movs	r4, #0
 80132aa:	6818      	ldr	r0, [r3, #0]
 80132ac:	b900      	cbnz	r0, 80132b0 <ip_reass_tmr+0xc>
 80132ae:	bd38      	pop	{r3, r4, r5, pc}
 80132b0:	7fc3      	ldrb	r3, [r0, #31]
 80132b2:	6805      	ldr	r5, [r0, #0]
 80132b4:	b123      	cbz	r3, 80132c0 <ip_reass_tmr+0x1c>
 80132b6:	3b01      	subs	r3, #1
 80132b8:	77c3      	strb	r3, [r0, #31]
 80132ba:	4604      	mov	r4, r0
 80132bc:	4628      	mov	r0, r5
 80132be:	e7f5      	b.n	80132ac <ip_reass_tmr+0x8>
 80132c0:	4621      	mov	r1, r4
 80132c2:	f7ff ff0f 	bl	80130e4 <ip_reass_free_complete_datagram>
 80132c6:	4620      	mov	r0, r4
 80132c8:	e7f7      	b.n	80132ba <ip_reass_tmr+0x16>
 80132ca:	bf00      	nop
 80132cc:	20004654 	.word	0x20004654

080132d0 <ip4_reass>:
 80132d0:	e92d 4ff7 	stmdb	sp!, {r0, r1, r2, r4, r5, r6, r7, r8, r9, sl, fp, lr}
 80132d4:	6845      	ldr	r5, [r0, #4]
 80132d6:	4607      	mov	r7, r0
 80132d8:	782b      	ldrb	r3, [r5, #0]
 80132da:	f003 030f 	and.w	r3, r3, #15
 80132de:	2b05      	cmp	r3, #5
 80132e0:	f040 8096 	bne.w	8013410 <ip4_reass+0x140>
 80132e4:	88e8      	ldrh	r0, [r5, #6]
 80132e6:	f7fa f9db 	bl	800d6a0 <lwip_htons>
 80132ea:	f3c0 000c 	ubfx	r0, r0, #0, #13
 80132ee:	ea4f 09c0 	mov.w	r9, r0, lsl #3
 80132f2:	8868      	ldrh	r0, [r5, #2]
 80132f4:	f7fa f9d4 	bl	800d6a0 <lwip_htons>
 80132f8:	782b      	ldrb	r3, [r5, #0]
 80132fa:	f003 030f 	and.w	r3, r3, #15
 80132fe:	009b      	lsls	r3, r3, #2
 8013300:	4283      	cmp	r3, r0
 8013302:	f200 8085 	bhi.w	8013410 <ip4_reass+0x140>
 8013306:	1ac0      	subs	r0, r0, r3
 8013308:	4cba      	ldr	r4, [pc, #744]	; (80135f4 <ip4_reass+0x324>)
 801330a:	b283      	uxth	r3, r0
 801330c:	4638      	mov	r0, r7
 801330e:	9301      	str	r3, [sp, #4]
 8013310:	f7fb f8ba 	bl	800e488 <pbuf_clen>
 8013314:	8823      	ldrh	r3, [r4, #0]
 8013316:	4682      	mov	sl, r0
 8013318:	4403      	add	r3, r0
 801331a:	2b0a      	cmp	r3, #10
 801331c:	dc6f      	bgt.n	80133fe <ip4_reass+0x12e>
 801331e:	4eb6      	ldr	r6, [pc, #728]	; (80135f8 <ip4_reass+0x328>)
 8013320:	6834      	ldr	r4, [r6, #0]
 8013322:	2c00      	cmp	r4, #0
 8013324:	d179      	bne.n	801341a <ip4_reass+0x14a>
 8013326:	2004      	movs	r0, #4
 8013328:	f7fa fcbc 	bl	800dca4 <memp_malloc>
 801332c:	4604      	mov	r4, r0
 801332e:	b958      	cbnz	r0, 8013348 <ip4_reass+0x78>
 8013330:	4651      	mov	r1, sl
 8013332:	4628      	mov	r0, r5
 8013334:	f7ff ff4a 	bl	80131cc <ip_reass_remove_oldest_datagram>
 8013338:	4582      	cmp	sl, r0
 801333a:	dc69      	bgt.n	8013410 <ip4_reass+0x140>
 801333c:	2004      	movs	r0, #4
 801333e:	f7fa fcb1 	bl	800dca4 <memp_malloc>
 8013342:	4604      	mov	r4, r0
 8013344:	2800      	cmp	r0, #0
 8013346:	d063      	beq.n	8013410 <ip4_reass+0x140>
 8013348:	221c      	movs	r2, #28
 801334a:	2100      	movs	r1, #0
 801334c:	1d20      	adds	r0, r4, #4
 801334e:	f000 fbc3 	bl	8013ad8 <memset>
 8013352:	230f      	movs	r3, #15
 8013354:	f104 0208 	add.w	r2, r4, #8
 8013358:	f105 0114 	add.w	r1, r5, #20
 801335c:	77e3      	strb	r3, [r4, #31]
 801335e:	6833      	ldr	r3, [r6, #0]
 8013360:	6034      	str	r4, [r6, #0]
 8013362:	6023      	str	r3, [r4, #0]
 8013364:	462b      	mov	r3, r5
 8013366:	f853 0b04 	ldr.w	r0, [r3], #4
 801336a:	428b      	cmp	r3, r1
 801336c:	f842 0b04 	str.w	r0, [r2], #4
 8013370:	d1f9      	bne.n	8013366 <ip4_reass+0x96>
 8013372:	f8b5 b006 	ldrh.w	fp, [r5, #6]
 8013376:	f01b 0b20 	ands.w	fp, fp, #32
 801337a:	d10a      	bne.n	8013392 <ip4_reass+0xc2>
 801337c:	9b01      	ldr	r3, [sp, #4]
 801337e:	444b      	add	r3, r9
 8013380:	b29b      	uxth	r3, r3
 8013382:	4599      	cmp	r9, r3
 8013384:	f200 8122 	bhi.w	80135cc <ip4_reass+0x2fc>
 8013388:	f64f 72eb 	movw	r2, #65515	; 0xffeb
 801338c:	4293      	cmp	r3, r2
 801338e:	f200 811d 	bhi.w	80135cc <ip4_reass+0x2fc>
 8013392:	687d      	ldr	r5, [r7, #4]
 8013394:	8868      	ldrh	r0, [r5, #2]
 8013396:	f7fa f983 	bl	800d6a0 <lwip_htons>
 801339a:	782b      	ldrb	r3, [r5, #0]
 801339c:	f003 030f 	and.w	r3, r3, #15
 80133a0:	009b      	lsls	r3, r3, #2
 80133a2:	4298      	cmp	r0, r3
 80133a4:	f0c0 8112 	bcc.w	80135cc <ip4_reass+0x2fc>
 80133a8:	1ac3      	subs	r3, r0, r3
 80133aa:	88e8      	ldrh	r0, [r5, #6]
 80133ac:	2500      	movs	r5, #0
 80133ae:	fa1f f883 	uxth.w	r8, r3
 80133b2:	f7fa f975 	bl	800d6a0 <lwip_htons>
 80133b6:	f3c0 000c 	ubfx	r0, r0, #0, #13
 80133ba:	687e      	ldr	r6, [r7, #4]
 80133bc:	00c0      	lsls	r0, r0, #3
 80133be:	7035      	strb	r5, [r6, #0]
 80133c0:	eb08 0300 	add.w	r3, r8, r0
 80133c4:	7075      	strb	r5, [r6, #1]
 80133c6:	70b5      	strb	r5, [r6, #2]
 80133c8:	b29b      	uxth	r3, r3
 80133ca:	70f5      	strb	r5, [r6, #3]
 80133cc:	80b0      	strh	r0, [r6, #4]
 80133ce:	4298      	cmp	r0, r3
 80133d0:	80f3      	strh	r3, [r6, #6]
 80133d2:	f200 80fb 	bhi.w	80135cc <ip4_reass+0x2fc>
 80133d6:	f8d4 c004 	ldr.w	ip, [r4, #4]
 80133da:	f04f 0801 	mov.w	r8, #1
 80133de:	4662      	mov	r2, ip
 80133e0:	bb52      	cbnz	r2, 8013438 <ip4_reass+0x168>
 80133e2:	2d00      	cmp	r5, #0
 80133e4:	f040 8091 	bne.w	801350a <ip4_reass+0x23a>
 80133e8:	f1bc 0f00 	cmp.w	ip, #0
 80133ec:	d07c      	beq.n	80134e8 <ip4_reass+0x218>
 80133ee:	4b83      	ldr	r3, [pc, #524]	; (80135fc <ip4_reass+0x32c>)
 80133f0:	f240 12bf 	movw	r2, #447	; 0x1bf
 80133f4:	4982      	ldr	r1, [pc, #520]	; (8013600 <ip4_reass+0x330>)
 80133f6:	4883      	ldr	r0, [pc, #524]	; (8013604 <ip4_reass+0x334>)
 80133f8:	f000 fb76 	bl	8013ae8 <iprintf>
 80133fc:	e074      	b.n	80134e8 <ip4_reass+0x218>
 80133fe:	4601      	mov	r1, r0
 8013400:	4628      	mov	r0, r5
 8013402:	f7ff fee3 	bl	80131cc <ip_reass_remove_oldest_datagram>
 8013406:	b118      	cbz	r0, 8013410 <ip4_reass+0x140>
 8013408:	8823      	ldrh	r3, [r4, #0]
 801340a:	4453      	add	r3, sl
 801340c:	2b0a      	cmp	r3, #10
 801340e:	dd86      	ble.n	801331e <ip4_reass+0x4e>
 8013410:	4638      	mov	r0, r7
 8013412:	f7fa fee7 	bl	800e1e4 <pbuf_free>
 8013416:	2600      	movs	r6, #0
 8013418:	e0d4      	b.n	80135c4 <ip4_reass+0x2f4>
 801341a:	68eb      	ldr	r3, [r5, #12]
 801341c:	6962      	ldr	r2, [r4, #20]
 801341e:	429a      	cmp	r2, r3
 8013420:	d108      	bne.n	8013434 <ip4_reass+0x164>
 8013422:	692b      	ldr	r3, [r5, #16]
 8013424:	69a2      	ldr	r2, [r4, #24]
 8013426:	429a      	cmp	r2, r3
 8013428:	d104      	bne.n	8013434 <ip4_reass+0x164>
 801342a:	89a2      	ldrh	r2, [r4, #12]
 801342c:	88ab      	ldrh	r3, [r5, #4]
 801342e:	429a      	cmp	r2, r3
 8013430:	f000 80f4 	beq.w	801361c <ip4_reass+0x34c>
 8013434:	6824      	ldr	r4, [r4, #0]
 8013436:	e774      	b.n	8013322 <ip4_reass+0x52>
 8013438:	f8d2 e004 	ldr.w	lr, [r2, #4]
 801343c:	f8be 1004 	ldrh.w	r1, [lr, #4]
 8013440:	4288      	cmp	r0, r1
 8013442:	d253      	bcs.n	80134ec <ip4_reass+0x21c>
 8013444:	6032      	str	r2, [r6, #0]
 8013446:	2d00      	cmp	r5, #0
 8013448:	d04c      	beq.n	80134e4 <ip4_reass+0x214>
 801344a:	88ea      	ldrh	r2, [r5, #6]
 801344c:	4290      	cmp	r0, r2
 801344e:	f0c0 80bd 	bcc.w	80135cc <ip4_reass+0x2fc>
 8013452:	428b      	cmp	r3, r1
 8013454:	f200 80ba 	bhi.w	80135cc <ip4_reass+0x2fc>
 8013458:	4290      	cmp	r0, r2
 801345a:	602f      	str	r7, [r5, #0]
 801345c:	f040 80fa 	bne.w	8013654 <ip4_reass+0x384>
 8013460:	f1bb 0f00 	cmp.w	fp, #0
 8013464:	d004      	beq.n	8013470 <ip4_reass+0x1a0>
 8013466:	7fa3      	ldrb	r3, [r4, #30]
 8013468:	f013 0301 	ands.w	r3, r3, #1
 801346c:	f000 8081 	beq.w	8013572 <ip4_reass+0x2a2>
 8013470:	f1b8 0f00 	cmp.w	r8, #0
 8013474:	d158      	bne.n	8013528 <ip4_reass+0x258>
 8013476:	f04f 0800 	mov.w	r8, #0
 801347a:	4d5e      	ldr	r5, [pc, #376]	; (80135f4 <ip4_reass+0x324>)
 801347c:	882b      	ldrh	r3, [r5, #0]
 801347e:	449a      	add	sl, r3
 8013480:	f8a5 a000 	strh.w	sl, [r5]
 8013484:	f1bb 0f00 	cmp.w	fp, #0
 8013488:	d107      	bne.n	801349a <ip4_reass+0x1ca>
 801348a:	9b01      	ldr	r3, [sp, #4]
 801348c:	4499      	add	r9, r3
 801348e:	7fa3      	ldrb	r3, [r4, #30]
 8013490:	f043 0301 	orr.w	r3, r3, #1
 8013494:	f8a4 901c 	strh.w	r9, [r4, #28]
 8013498:	77a3      	strb	r3, [r4, #30]
 801349a:	f1b8 0f01 	cmp.w	r8, #1
 801349e:	d1ba      	bne.n	8013416 <ip4_reass+0x146>
 80134a0:	6863      	ldr	r3, [r4, #4]
 80134a2:	f104 011c 	add.w	r1, r4, #28
 80134a6:	8ba0      	ldrh	r0, [r4, #28]
 80134a8:	685e      	ldr	r6, [r3, #4]
 80134aa:	f104 0308 	add.w	r3, r4, #8
 80134ae:	3014      	adds	r0, #20
 80134b0:	6837      	ldr	r7, [r6, #0]
 80134b2:	4632      	mov	r2, r6
 80134b4:	b280      	uxth	r0, r0
 80134b6:	f853 cb04 	ldr.w	ip, [r3], #4
 80134ba:	428b      	cmp	r3, r1
 80134bc:	f842 cb04 	str.w	ip, [r2], #4
 80134c0:	d1f9      	bne.n	80134b6 <ip4_reass+0x1e6>
 80134c2:	f7fa f8ed 	bl	800d6a0 <lwip_htons>
 80134c6:	2300      	movs	r3, #0
 80134c8:	8070      	strh	r0, [r6, #2]
 80134ca:	71b3      	strb	r3, [r6, #6]
 80134cc:	71f3      	strb	r3, [r6, #7]
 80134ce:	72b3      	strb	r3, [r6, #10]
 80134d0:	72f3      	strb	r3, [r6, #11]
 80134d2:	6866      	ldr	r6, [r4, #4]
 80134d4:	2f00      	cmp	r7, #0
 80134d6:	d14e      	bne.n	8013576 <ip4_reass+0x2a6>
 80134d8:	4b47      	ldr	r3, [pc, #284]	; (80135f8 <ip4_reass+0x328>)
 80134da:	6819      	ldr	r1, [r3, #0]
 80134dc:	42a1      	cmp	r1, r4
 80134de:	d15b      	bne.n	8013598 <ip4_reass+0x2c8>
 80134e0:	4639      	mov	r1, r7
 80134e2:	e05b      	b.n	801359c <ip4_reass+0x2cc>
 80134e4:	428b      	cmp	r3, r1
 80134e6:	d871      	bhi.n	80135cc <ip4_reass+0x2fc>
 80134e8:	6067      	str	r7, [r4, #4]
 80134ea:	e7b9      	b.n	8013460 <ip4_reass+0x190>
 80134ec:	d06e      	beq.n	80135cc <ip4_reass+0x2fc>
 80134ee:	f8be 2006 	ldrh.w	r2, [lr, #6]
 80134f2:	4282      	cmp	r2, r0
 80134f4:	d86a      	bhi.n	80135cc <ip4_reass+0x2fc>
 80134f6:	b125      	cbz	r5, 8013502 <ip4_reass+0x232>
 80134f8:	88ea      	ldrh	r2, [r5, #6]
 80134fa:	428a      	cmp	r2, r1
 80134fc:	bf18      	it	ne
 80134fe:	f04f 0800 	movne.w	r8, #0
 8013502:	f8de 2000 	ldr.w	r2, [lr]
 8013506:	4675      	mov	r5, lr
 8013508:	e76a      	b.n	80133e0 <ip4_reass+0x110>
 801350a:	88eb      	ldrh	r3, [r5, #6]
 801350c:	4283      	cmp	r3, r0
 801350e:	d906      	bls.n	801351e <ip4_reass+0x24e>
 8013510:	4b3a      	ldr	r3, [pc, #232]	; (80135fc <ip4_reass+0x32c>)
 8013512:	f44f 72db 	mov.w	r2, #438	; 0x1b6
 8013516:	493c      	ldr	r1, [pc, #240]	; (8013608 <ip4_reass+0x338>)
 8013518:	483a      	ldr	r0, [pc, #232]	; (8013604 <ip4_reass+0x334>)
 801351a:	f000 fae5 	bl	8013ae8 <iprintf>
 801351e:	602f      	str	r7, [r5, #0]
 8013520:	88ea      	ldrh	r2, [r5, #6]
 8013522:	88b3      	ldrh	r3, [r6, #4]
 8013524:	429a      	cmp	r2, r3
 8013526:	e799      	b.n	801345c <ip4_reass+0x18c>
 8013528:	6863      	ldr	r3, [r4, #4]
 801352a:	2b00      	cmp	r3, #0
 801352c:	d0a3      	beq.n	8013476 <ip4_reass+0x1a6>
 801352e:	6859      	ldr	r1, [r3, #4]
 8013530:	888b      	ldrh	r3, [r1, #4]
 8013532:	2b00      	cmp	r3, #0
 8013534:	d19f      	bne.n	8013476 <ip4_reass+0x1a6>
 8013536:	6833      	ldr	r3, [r6, #0]
 8013538:	b99b      	cbnz	r3, 8013562 <ip4_reass+0x292>
 801353a:	42b1      	cmp	r1, r6
 801353c:	d106      	bne.n	801354c <ip4_reass+0x27c>
 801353e:	4b2f      	ldr	r3, [pc, #188]	; (80135fc <ip4_reass+0x32c>)
 8013540:	f240 12e1 	movw	r2, #481	; 0x1e1
 8013544:	4931      	ldr	r1, [pc, #196]	; (801360c <ip4_reass+0x33c>)
 8013546:	482f      	ldr	r0, [pc, #188]	; (8013604 <ip4_reass+0x334>)
 8013548:	f000 face 	bl	8013ae8 <iprintf>
 801354c:	6833      	ldr	r3, [r6, #0]
 801354e:	2b00      	cmp	r3, #0
 8013550:	d093      	beq.n	801347a <ip4_reass+0x1aa>
 8013552:	4b2a      	ldr	r3, [pc, #168]	; (80135fc <ip4_reass+0x32c>)
 8013554:	f240 12e3 	movw	r2, #483	; 0x1e3
 8013558:	492d      	ldr	r1, [pc, #180]	; (8013610 <ip4_reass+0x340>)
 801355a:	482a      	ldr	r0, [pc, #168]	; (8013604 <ip4_reass+0x334>)
 801355c:	f000 fac4 	bl	8013ae8 <iprintf>
 8013560:	e78b      	b.n	801347a <ip4_reass+0x1aa>
 8013562:	685a      	ldr	r2, [r3, #4]
 8013564:	88f0      	ldrh	r0, [r6, #6]
 8013566:	8893      	ldrh	r3, [r2, #4]
 8013568:	4298      	cmp	r0, r3
 801356a:	d184      	bne.n	8013476 <ip4_reass+0x1a6>
 801356c:	6813      	ldr	r3, [r2, #0]
 801356e:	4616      	mov	r6, r2
 8013570:	e7e2      	b.n	8013538 <ip4_reass+0x268>
 8013572:	4698      	mov	r8, r3
 8013574:	e781      	b.n	801347a <ip4_reass+0x1aa>
 8013576:	f8d7 8004 	ldr.w	r8, [r7, #4]
 801357a:	2114      	movs	r1, #20
 801357c:	4638      	mov	r0, r7
 801357e:	f7fa fdfd 	bl	800e17c <pbuf_remove_header>
 8013582:	4639      	mov	r1, r7
 8013584:	4630      	mov	r0, r6
 8013586:	f7fa ffa3 	bl	800e4d0 <pbuf_cat>
 801358a:	f8d8 7000 	ldr.w	r7, [r8]
 801358e:	e7a1      	b.n	80134d4 <ip4_reass+0x204>
 8013590:	680b      	ldr	r3, [r1, #0]
 8013592:	42a3      	cmp	r3, r4
 8013594:	d002      	beq.n	801359c <ip4_reass+0x2cc>
 8013596:	4619      	mov	r1, r3
 8013598:	2900      	cmp	r1, #0
 801359a:	d1f9      	bne.n	8013590 <ip4_reass+0x2c0>
 801359c:	4620      	mov	r0, r4
 801359e:	f7ff fd7f 	bl	80130a0 <ip_reass_dequeue_datagram>
 80135a2:	4630      	mov	r0, r6
 80135a4:	f7fa ff70 	bl	800e488 <pbuf_clen>
 80135a8:	882b      	ldrh	r3, [r5, #0]
 80135aa:	4604      	mov	r4, r0
 80135ac:	4283      	cmp	r3, r0
 80135ae:	d206      	bcs.n	80135be <ip4_reass+0x2ee>
 80135b0:	4b12      	ldr	r3, [pc, #72]	; (80135fc <ip4_reass+0x32c>)
 80135b2:	f240 229b 	movw	r2, #667	; 0x29b
 80135b6:	4917      	ldr	r1, [pc, #92]	; (8013614 <ip4_reass+0x344>)
 80135b8:	4812      	ldr	r0, [pc, #72]	; (8013604 <ip4_reass+0x334>)
 80135ba:	f000 fa95 	bl	8013ae8 <iprintf>
 80135be:	8828      	ldrh	r0, [r5, #0]
 80135c0:	1b00      	subs	r0, r0, r4
 80135c2:	8028      	strh	r0, [r5, #0]
 80135c4:	4630      	mov	r0, r6
 80135c6:	b003      	add	sp, #12
 80135c8:	e8bd 8ff0 	ldmia.w	sp!, {r4, r5, r6, r7, r8, r9, sl, fp, pc}
 80135cc:	6863      	ldr	r3, [r4, #4]
 80135ce:	2b00      	cmp	r3, #0
 80135d0:	f47f af1e 	bne.w	8013410 <ip4_reass+0x140>
 80135d4:	4b08      	ldr	r3, [pc, #32]	; (80135f8 <ip4_reass+0x328>)
 80135d6:	681b      	ldr	r3, [r3, #0]
 80135d8:	42a3      	cmp	r3, r4
 80135da:	d006      	beq.n	80135ea <ip4_reass+0x31a>
 80135dc:	4b07      	ldr	r3, [pc, #28]	; (80135fc <ip4_reass+0x32c>)
 80135de:	f240 22ab 	movw	r2, #683	; 0x2ab
 80135e2:	490d      	ldr	r1, [pc, #52]	; (8013618 <ip4_reass+0x348>)
 80135e4:	4807      	ldr	r0, [pc, #28]	; (8013604 <ip4_reass+0x334>)
 80135e6:	f000 fa7f 	bl	8013ae8 <iprintf>
 80135ea:	2100      	movs	r1, #0
 80135ec:	4620      	mov	r0, r4
 80135ee:	f7ff fd57 	bl	80130a0 <ip_reass_dequeue_datagram>
 80135f2:	e70d      	b.n	8013410 <ip4_reass+0x140>
 80135f4:	20004650 	.word	0x20004650
 80135f8:	20004654 	.word	0x20004654
 80135fc:	080275ad 	.word	0x080275ad
 8013600:	0802750c 	.word	0x0802750c
 8013604:	08014a3b 	.word	0x08014a3b
 8013608:	080274ee 	.word	0x080274ee
 801360c:	08027543 	.word	0x08027543
 8013610:	08027550 	.word	0x08027550
 8013614:	08027572 	.word	0x08027572
 8013618:	0802758d 	.word	0x0802758d
 801361c:	88e8      	ldrh	r0, [r5, #6]
 801361e:	f7fa f83f 	bl	800d6a0 <lwip_htons>
 8013622:	f3c0 000c 	ubfx	r0, r0, #0, #13
 8013626:	2800      	cmp	r0, #0
 8013628:	f47f aea3 	bne.w	8013372 <ip4_reass+0xa2>
 801362c:	89e0      	ldrh	r0, [r4, #14]
 801362e:	f7fa f837 	bl	800d6a0 <lwip_htons>
 8013632:	f3c0 000c 	ubfx	r0, r0, #0, #13
 8013636:	2800      	cmp	r0, #0
 8013638:	f43f ae9b 	beq.w	8013372 <ip4_reass+0xa2>
 801363c:	462b      	mov	r3, r5
 801363e:	f104 0208 	add.w	r2, r4, #8
 8013642:	f105 0114 	add.w	r1, r5, #20
 8013646:	f853 0b04 	ldr.w	r0, [r3], #4
 801364a:	428b      	cmp	r3, r1
 801364c:	f842 0b04 	str.w	r0, [r2], #4
 8013650:	d1f9      	bne.n	8013646 <ip4_reass+0x376>
 8013652:	e68e      	b.n	8013372 <ip4_reass+0xa2>
 8013654:	f1bb 0f00 	cmp.w	fp, #0
 8013658:	f43f af0d 	beq.w	8013476 <ip4_reass+0x1a6>
 801365c:	f04f 0800 	mov.w	r8, #0
 8013660:	e701      	b.n	8013466 <ip4_reass+0x196>
 8013662:	bf00      	nop

08013664 <ip4_frag>:
 8013664:	e92d 4ff0 	stmdb	sp!, {r4, r5, r6, r7, r8, r9, sl, fp, lr}
 8013668:	8c8b      	ldrh	r3, [r1, #36]	; 0x24
 801366a:	b08d      	sub	sp, #52	; 0x34
 801366c:	4607      	mov	r7, r0
 801366e:	468b      	mov	fp, r1
 8013670:	920a      	str	r2, [sp, #40]	; 0x28
 8013672:	3b14      	subs	r3, #20
 8013674:	2208      	movs	r2, #8
 8013676:	fb93 f3f2 	sdiv	r3, r3, r2
 801367a:	b29b      	uxth	r3, r3
 801367c:	9307      	str	r3, [sp, #28]
 801367e:	6843      	ldr	r3, [r0, #4]
 8013680:	781d      	ldrb	r5, [r3, #0]
 8013682:	9303      	str	r3, [sp, #12]
 8013684:	f005 050f 	and.w	r5, r5, #15
 8013688:	00ad      	lsls	r5, r5, #2
 801368a:	2d14      	cmp	r5, #20
 801368c:	d109      	bne.n	80136a2 <ip4_frag+0x3e>
 801368e:	8943      	ldrh	r3, [r0, #10]
 8013690:	2b13      	cmp	r3, #19
 8013692:	d809      	bhi.n	80136a8 <ip4_frag+0x44>
 8013694:	4b5e      	ldr	r3, [pc, #376]	; (8013810 <ip4_frag+0x1ac>)
 8013696:	f44f 723f 	mov.w	r2, #764	; 0x2fc
 801369a:	495e      	ldr	r1, [pc, #376]	; (8013814 <ip4_frag+0x1b0>)
 801369c:	485e      	ldr	r0, [pc, #376]	; (8013818 <ip4_frag+0x1b4>)
 801369e:	f000 fa23 	bl	8013ae8 <iprintf>
 80136a2:	f06f 0005 	mvn.w	r0, #5
 80136a6:	e013      	b.n	80136d0 <ip4_frag+0x6c>
 80136a8:	9b03      	ldr	r3, [sp, #12]
 80136aa:	2600      	movs	r6, #0
 80136ac:	88d8      	ldrh	r0, [r3, #6]
 80136ae:	f7f9 fff7 	bl	800d6a0 <lwip_htons>
 80136b2:	f3c0 030c 	ubfx	r3, r0, #0, #13
 80136b6:	893c      	ldrh	r4, [r7, #8]
 80136b8:	9305      	str	r3, [sp, #20]
 80136ba:	f400 5300 	and.w	r3, r0, #8192	; 0x2000
 80136be:	3c14      	subs	r4, #20
 80136c0:	9309      	str	r3, [sp, #36]	; 0x24
 80136c2:	9b07      	ldr	r3, [sp, #28]
 80136c4:	b2a4      	uxth	r4, r4
 80136c6:	00db      	lsls	r3, r3, #3
 80136c8:	b29b      	uxth	r3, r3
 80136ca:	9308      	str	r3, [sp, #32]
 80136cc:	b91c      	cbnz	r4, 80136d6 <ip4_frag+0x72>
 80136ce:	4620      	mov	r0, r4
 80136d0:	b00d      	add	sp, #52	; 0x34
 80136d2:	e8bd 8ff0 	ldmia.w	sp!, {r4, r5, r6, r7, r8, r9, sl, fp, pc}
 80136d6:	9b08      	ldr	r3, [sp, #32]
 80136d8:	f44f 7220 	mov.w	r2, #640	; 0x280
 80136dc:	2114      	movs	r1, #20
 80136de:	200e      	movs	r0, #14
 80136e0:	42a3      	cmp	r3, r4
 80136e2:	bf28      	it	cs
 80136e4:	4623      	movcs	r3, r4
 80136e6:	9306      	str	r3, [sp, #24]
 80136e8:	f7fa fde4 	bl	800e2b4 <pbuf_alloc>
 80136ec:	4680      	mov	r8, r0
 80136ee:	2800      	cmp	r0, #0
 80136f0:	d037      	beq.n	8013762 <ip4_frag+0xfe>
 80136f2:	8943      	ldrh	r3, [r0, #10]
 80136f4:	2b13      	cmp	r3, #19
 80136f6:	d806      	bhi.n	8013706 <ip4_frag+0xa2>
 80136f8:	4b45      	ldr	r3, [pc, #276]	; (8013810 <ip4_frag+0x1ac>)
 80136fa:	f240 3225 	movw	r2, #805	; 0x325
 80136fe:	4947      	ldr	r1, [pc, #284]	; (801381c <ip4_frag+0x1b8>)
 8013700:	4845      	ldr	r0, [pc, #276]	; (8013818 <ip4_frag+0x1b4>)
 8013702:	f000 f9f1 	bl	8013ae8 <iprintf>
 8013706:	9b03      	ldr	r3, [sp, #12]
 8013708:	f8d8 2004 	ldr.w	r2, [r8, #4]
 801370c:	4619      	mov	r1, r3
 801370e:	3114      	adds	r1, #20
 8013710:	f853 0b04 	ldr.w	r0, [r3], #4
 8013714:	428b      	cmp	r3, r1
 8013716:	f842 0b04 	str.w	r0, [r2], #4
 801371a:	d1f9      	bne.n	8013710 <ip4_frag+0xac>
 801371c:	f8d8 3004 	ldr.w	r3, [r8, #4]
 8013720:	f8dd 9018 	ldr.w	r9, [sp, #24]
 8013724:	9304      	str	r3, [sp, #16]
 8013726:	f1b9 0f00 	cmp.w	r9, #0
 801372a:	d040      	beq.n	80137ae <ip4_frag+0x14a>
 801372c:	897b      	ldrh	r3, [r7, #10]
 801372e:	1b5e      	subs	r6, r3, r5
 8013730:	42ab      	cmp	r3, r5
 8013732:	b2b6      	uxth	r6, r6
 8013734:	d206      	bcs.n	8013744 <ip4_frag+0xe0>
 8013736:	4b36      	ldr	r3, [pc, #216]	; (8013810 <ip4_frag+0x1ac>)
 8013738:	f240 322d 	movw	r2, #813	; 0x32d
 801373c:	4938      	ldr	r1, [pc, #224]	; (8013820 <ip4_frag+0x1bc>)
 801373e:	4836      	ldr	r0, [pc, #216]	; (8013818 <ip4_frag+0x1b4>)
 8013740:	f000 f9d2 	bl	8013ae8 <iprintf>
 8013744:	454e      	cmp	r6, r9
 8013746:	bf28      	it	cs
 8013748:	464e      	movcs	r6, r9
 801374a:	b916      	cbnz	r6, 8013752 <ip4_frag+0xee>
 801374c:	683f      	ldr	r7, [r7, #0]
 801374e:	2500      	movs	r5, #0
 8013750:	e7e9      	b.n	8013726 <ip4_frag+0xc2>
 8013752:	2005      	movs	r0, #5
 8013754:	f7fa faa6 	bl	800dca4 <memp_malloc>
 8013758:	4682      	mov	sl, r0
 801375a:	b928      	cbnz	r0, 8013768 <ip4_frag+0x104>
 801375c:	4640      	mov	r0, r8
 801375e:	f7fa fd41 	bl	800e1e4 <pbuf_free>
 8013762:	f04f 30ff 	mov.w	r0, #4294967295	; 0xffffffff
 8013766:	e7b3      	b.n	80136d0 <ip4_frag+0x6c>
 8013768:	9601      	str	r6, [sp, #4]
 801376a:	2241      	movs	r2, #65	; 0x41
 801376c:	687b      	ldr	r3, [r7, #4]
 801376e:	4631      	mov	r1, r6
 8013770:	442b      	add	r3, r5
 8013772:	9300      	str	r3, [sp, #0]
 8013774:	4603      	mov	r3, r0
 8013776:	2000      	movs	r0, #0
 8013778:	f7fa fce2 	bl	800e140 <pbuf_alloced_custom>
 801377c:	b918      	cbnz	r0, 8013786 <ip4_frag+0x122>
 801377e:	4650      	mov	r0, sl
 8013780:	f7ff fd60 	bl	8013244 <ip_frag_free_pbuf_custom_ref>
 8013784:	e7ea      	b.n	801375c <ip4_frag+0xf8>
 8013786:	900b      	str	r0, [sp, #44]	; 0x2c
 8013788:	eba9 0906 	sub.w	r9, r9, r6
 801378c:	4638      	mov	r0, r7
 801378e:	f7fa fe83 	bl	800e498 <pbuf_ref>
 8013792:	4b24      	ldr	r3, [pc, #144]	; (8013824 <ip4_frag+0x1c0>)
 8013794:	fa1f f989 	uxth.w	r9, r9
 8013798:	f8ca 7014 	str.w	r7, [sl, #20]
 801379c:	f8ca 3010 	str.w	r3, [sl, #16]
 80137a0:	4640      	mov	r0, r8
 80137a2:	990b      	ldr	r1, [sp, #44]	; 0x2c
 80137a4:	f7fa fe94 	bl	800e4d0 <pbuf_cat>
 80137a8:	f1b9 0f00 	cmp.w	r9, #0
 80137ac:	d1ce      	bne.n	801374c <ip4_frag+0xe8>
 80137ae:	9b05      	ldr	r3, [sp, #20]
 80137b0:	4435      	add	r5, r6
 80137b2:	f3c3 000c 	ubfx	r0, r3, #0, #13
 80137b6:	f8bb 3024 	ldrh.w	r3, [fp, #36]	; 0x24
 80137ba:	b2ad      	uxth	r5, r5
 80137bc:	3b13      	subs	r3, #19
 80137be:	42a3      	cmp	r3, r4
 80137c0:	dd01      	ble.n	80137c6 <ip4_frag+0x162>
 80137c2:	9b09      	ldr	r3, [sp, #36]	; 0x24
 80137c4:	b10b      	cbz	r3, 80137ca <ip4_frag+0x166>
 80137c6:	f440 5000 	orr.w	r0, r0, #8192	; 0x2000
 80137ca:	f7f9 ff69 	bl	800d6a0 <lwip_htons>
 80137ce:	9b04      	ldr	r3, [sp, #16]
 80137d0:	80d8      	strh	r0, [r3, #6]
 80137d2:	9b06      	ldr	r3, [sp, #24]
 80137d4:	f103 0014 	add.w	r0, r3, #20
 80137d8:	b280      	uxth	r0, r0
 80137da:	f7f9 ff61 	bl	800d6a0 <lwip_htons>
 80137de:	9b04      	ldr	r3, [sp, #16]
 80137e0:	9a04      	ldr	r2, [sp, #16]
 80137e2:	4641      	mov	r1, r8
 80137e4:	8058      	strh	r0, [r3, #2]
 80137e6:	2300      	movs	r3, #0
 80137e8:	4658      	mov	r0, fp
 80137ea:	7293      	strb	r3, [r2, #10]
 80137ec:	72d3      	strb	r3, [r2, #11]
 80137ee:	f8db 3014 	ldr.w	r3, [fp, #20]
 80137f2:	9a0a      	ldr	r2, [sp, #40]	; 0x28
 80137f4:	4798      	blx	r3
 80137f6:	4640      	mov	r0, r8
 80137f8:	f7fa fcf4 	bl	800e1e4 <pbuf_free>
 80137fc:	9b06      	ldr	r3, [sp, #24]
 80137fe:	9a07      	ldr	r2, [sp, #28]
 8013800:	1ae4      	subs	r4, r4, r3
 8013802:	9b05      	ldr	r3, [sp, #20]
 8013804:	4413      	add	r3, r2
 8013806:	b2a4      	uxth	r4, r4
 8013808:	b29b      	uxth	r3, r3
 801380a:	9305      	str	r3, [sp, #20]
 801380c:	e75e      	b.n	80136cc <ip4_frag+0x68>
 801380e:	bf00      	nop
 8013810:	080275ad 	.word	0x080275ad
 8013814:	080274a4 	.word	0x080274a4
 8013818:	08014a3b 	.word	0x08014a3b
 801381c:	080274bf 	.word	0x080274bf
 8013820:	080274df 	.word	0x080274df
 8013824:	08013271 	.word	0x08013271

08013828 <ethernet_input>:
 8013828:	8943      	ldrh	r3, [r0, #10]
 801382a:	2b0e      	cmp	r3, #14
 801382c:	b570      	push	{r4, r5, r6, lr}
 801382e:	4604      	mov	r4, r0
 8013830:	460d      	mov	r5, r1
 8013832:	d91a      	bls.n	801386a <ethernet_input+0x42>
 8013834:	7bc3      	ldrb	r3, [r0, #15]
 8013836:	b91b      	cbnz	r3, 8013840 <ethernet_input+0x18>
 8013838:	f891 3030 	ldrb.w	r3, [r1, #48]	; 0x30
 801383c:	3301      	adds	r3, #1
 801383e:	73c3      	strb	r3, [r0, #15]
 8013840:	6860      	ldr	r0, [r4, #4]
 8013842:	7803      	ldrb	r3, [r0, #0]
 8013844:	8986      	ldrh	r6, [r0, #12]
 8013846:	07d9      	lsls	r1, r3, #31
 8013848:	d50a      	bpl.n	8013860 <ethernet_input+0x38>
 801384a:	2b01      	cmp	r3, #1
 801384c:	d111      	bne.n	8013872 <ethernet_input+0x4a>
 801384e:	7843      	ldrb	r3, [r0, #1]
 8013850:	b933      	cbnz	r3, 8013860 <ethernet_input+0x38>
 8013852:	7883      	ldrb	r3, [r0, #2]
 8013854:	2b5e      	cmp	r3, #94	; 0x5e
 8013856:	d103      	bne.n	8013860 <ethernet_input+0x38>
 8013858:	7b63      	ldrb	r3, [r4, #13]
 801385a:	f043 0310 	orr.w	r3, r3, #16
 801385e:	7363      	strb	r3, [r4, #13]
 8013860:	2e08      	cmp	r6, #8
 8013862:	d010      	beq.n	8013886 <ethernet_input+0x5e>
 8013864:	f5b6 6fc1 	cmp.w	r6, #1544	; 0x608
 8013868:	d01d      	beq.n	80138a6 <ethernet_input+0x7e>
 801386a:	4620      	mov	r0, r4
 801386c:	f7fa fcba 	bl	800e1e4 <pbuf_free>
 8013870:	e017      	b.n	80138a2 <ethernet_input+0x7a>
 8013872:	2206      	movs	r2, #6
 8013874:	4913      	ldr	r1, [pc, #76]	; (80138c4 <ethernet_input+0x9c>)
 8013876:	f000 f915 	bl	8013aa4 <memcmp>
 801387a:	2800      	cmp	r0, #0
 801387c:	d1f0      	bne.n	8013860 <ethernet_input+0x38>
 801387e:	7b63      	ldrb	r3, [r4, #13]
 8013880:	f043 0308 	orr.w	r3, r3, #8
 8013884:	e7eb      	b.n	801385e <ethernet_input+0x36>
 8013886:	f895 302d 	ldrb.w	r3, [r5, #45]	; 0x2d
 801388a:	071a      	lsls	r2, r3, #28
 801388c:	d5ed      	bpl.n	801386a <ethernet_input+0x42>
 801388e:	210e      	movs	r1, #14
 8013890:	4620      	mov	r0, r4
 8013892:	f7fa fc73 	bl	800e17c <pbuf_remove_header>
 8013896:	2800      	cmp	r0, #0
 8013898:	d1e7      	bne.n	801386a <ethernet_input+0x42>
 801389a:	4629      	mov	r1, r5
 801389c:	4620      	mov	r0, r4
 801389e:	f7ff faa5 	bl	8012dec <ip4_input>
 80138a2:	2000      	movs	r0, #0
 80138a4:	bd70      	pop	{r4, r5, r6, pc}
 80138a6:	f895 302d 	ldrb.w	r3, [r5, #45]	; 0x2d
 80138aa:	071b      	lsls	r3, r3, #28
 80138ac:	d5dd      	bpl.n	801386a <ethernet_input+0x42>
 80138ae:	210e      	movs	r1, #14
 80138b0:	4620      	mov	r0, r4
 80138b2:	f7fa fc63 	bl	800e17c <pbuf_remove_header>
 80138b6:	2800      	cmp	r0, #0
 80138b8:	d1d7      	bne.n	801386a <ethernet_input+0x42>
 80138ba:	4629      	mov	r1, r5
 80138bc:	4620      	mov	r0, r4
 80138be:	f7fe fedd 	bl	801267c <etharp_input>
 80138c2:	e7ee      	b.n	80138a2 <ethernet_input+0x7a>
 80138c4:	08027668 	.word	0x08027668

080138c8 <ethernet_output>:
 80138c8:	e92d 41f0 	stmdb	sp!, {r4, r5, r6, r7, r8, lr}
 80138cc:	460d      	mov	r5, r1
 80138ce:	4604      	mov	r4, r0
 80138d0:	f8bd 0018 	ldrh.w	r0, [sp, #24]
 80138d4:	4616      	mov	r6, r2
 80138d6:	461f      	mov	r7, r3
 80138d8:	f7f9 fee2 	bl	800d6a0 <lwip_htons>
 80138dc:	210e      	movs	r1, #14
 80138de:	4680      	mov	r8, r0
 80138e0:	4628      	mov	r0, r5
 80138e2:	f7fa fc48 	bl	800e176 <pbuf_add_header>
 80138e6:	b9e0      	cbnz	r0, 8013922 <ethernet_output+0x5a>
 80138e8:	6869      	ldr	r1, [r5, #4]
 80138ea:	f8a1 800c 	strh.w	r8, [r1, #12]
 80138ee:	683b      	ldr	r3, [r7, #0]
 80138f0:	600b      	str	r3, [r1, #0]
 80138f2:	88bb      	ldrh	r3, [r7, #4]
 80138f4:	808b      	strh	r3, [r1, #4]
 80138f6:	6833      	ldr	r3, [r6, #0]
 80138f8:	f8c1 3006 	str.w	r3, [r1, #6]
 80138fc:	88b3      	ldrh	r3, [r6, #4]
 80138fe:	814b      	strh	r3, [r1, #10]
 8013900:	f894 302c 	ldrb.w	r3, [r4, #44]	; 0x2c
 8013904:	2b06      	cmp	r3, #6
 8013906:	d006      	beq.n	8013916 <ethernet_output+0x4e>
 8013908:	4b08      	ldr	r3, [pc, #32]	; (801392c <ethernet_output+0x64>)
 801390a:	f240 1233 	movw	r2, #307	; 0x133
 801390e:	4908      	ldr	r1, [pc, #32]	; (8013930 <ethernet_output+0x68>)
 8013910:	4808      	ldr	r0, [pc, #32]	; (8013934 <ethernet_output+0x6c>)
 8013912:	f000 f8e9 	bl	8013ae8 <iprintf>
 8013916:	69a3      	ldr	r3, [r4, #24]
 8013918:	4629      	mov	r1, r5
 801391a:	4620      	mov	r0, r4
 801391c:	e8bd 41f0 	ldmia.w	sp!, {r4, r5, r6, r7, r8, lr}
 8013920:	4718      	bx	r3
 8013922:	f06f 0001 	mvn.w	r0, #1
 8013926:	e8bd 81f0 	ldmia.w	sp!, {r4, r5, r6, r7, r8, pc}
 801392a:	bf00      	nop
 801392c:	0802766e 	.word	0x0802766e
 8013930:	080276a3 	.word	0x080276a3
 8013934:	08014a3b 	.word	0x08014a3b

08013938 <sys_mbox_new>:
 8013938:	b51f      	push	{r0, r1, r2, r3, r4, lr}
 801393a:	4604      	mov	r4, r0
 801393c:	9100      	str	r1, [sp, #0]
 801393e:	2304      	movs	r3, #4
 8013940:	2100      	movs	r1, #0
 8013942:	4668      	mov	r0, sp
 8013944:	9103      	str	r1, [sp, #12]
 8013946:	e9cd 3101 	strd	r3, r1, [sp, #4]
 801394a:	f7f7 fd2b 	bl	800b3a4 <osMessageCreate>
 801394e:	6020      	str	r0, [r4, #0]
 8013950:	fab0 f080 	clz	r0, r0
 8013954:	0940      	lsrs	r0, r0, #5
 8013956:	4240      	negs	r0, r0
 8013958:	b004      	add	sp, #16
 801395a:	bd10      	pop	{r4, pc}

0801395c <sys_mbox_trypost>:
 801395c:	b508      	push	{r3, lr}
 801395e:	2200      	movs	r2, #0
 8013960:	6800      	ldr	r0, [r0, #0]
 8013962:	f7f7 fd31 	bl	800b3c8 <osMessagePut>
 8013966:	3000      	adds	r0, #0
 8013968:	bf18      	it	ne
 801396a:	2001      	movne	r0, #1
 801396c:	4240      	negs	r0, r0
 801396e:	bd08      	pop	{r3, pc}

08013970 <sys_arch_mbox_fetch>:
 8013970:	b5f0      	push	{r4, r5, r6, r7, lr}
 8013972:	4617      	mov	r7, r2
 8013974:	b085      	sub	sp, #20
 8013976:	4606      	mov	r6, r0
 8013978:	460d      	mov	r5, r1
 801397a:	f7f7 fc3c 	bl	800b1f6 <osKernelSysTick>
 801397e:	4604      	mov	r4, r0
 8013980:	b177      	cbz	r7, 80139a0 <sys_arch_mbox_fetch+0x30>
 8013982:	463a      	mov	r2, r7
 8013984:	6831      	ldr	r1, [r6, #0]
 8013986:	a801      	add	r0, sp, #4
 8013988:	f7f7 fd46 	bl	800b418 <osMessageGet>
 801398c:	9b01      	ldr	r3, [sp, #4]
 801398e:	2b10      	cmp	r3, #16
 8013990:	d10d      	bne.n	80139ae <sys_arch_mbox_fetch+0x3e>
 8013992:	9b02      	ldr	r3, [sp, #8]
 8013994:	602b      	str	r3, [r5, #0]
 8013996:	f7f7 fc2e 	bl	800b1f6 <osKernelSysTick>
 801399a:	1b00      	subs	r0, r0, r4
 801399c:	b005      	add	sp, #20
 801399e:	bdf0      	pop	{r4, r5, r6, r7, pc}
 80139a0:	f04f 32ff 	mov.w	r2, #4294967295	; 0xffffffff
 80139a4:	6831      	ldr	r1, [r6, #0]
 80139a6:	a801      	add	r0, sp, #4
 80139a8:	f7f7 fd36 	bl	800b418 <osMessageGet>
 80139ac:	e7f1      	b.n	8013992 <sys_arch_mbox_fetch+0x22>
 80139ae:	f04f 30ff 	mov.w	r0, #4294967295	; 0xffffffff
 80139b2:	e7f3      	b.n	801399c <sys_arch_mbox_fetch+0x2c>

080139b4 <sys_mbox_valid>:
 80139b4:	6800      	ldr	r0, [r0, #0]
 80139b6:	3000      	adds	r0, #0
 80139b8:	bf18      	it	ne
 80139ba:	2001      	movne	r0, #1
 80139bc:	4770      	bx	lr
	...

080139c0 <sys_init>:
 80139c0:	b508      	push	{r3, lr}
 80139c2:	4803      	ldr	r0, [pc, #12]	; (80139d0 <sys_init+0x10>)
 80139c4:	f7f7 fc4e 	bl	800b264 <osMutexCreate>
 80139c8:	4b02      	ldr	r3, [pc, #8]	; (80139d4 <sys_init+0x14>)
 80139ca:	6018      	str	r0, [r3, #0]
 80139cc:	bd08      	pop	{r3, pc}
 80139ce:	bf00      	nop
 80139d0:	080276dc 	.word	0x080276dc
 80139d4:	2000b354 	.word	0x2000b354

080139d8 <sys_mutex_new>:
 80139d8:	b513      	push	{r0, r1, r4, lr}
 80139da:	2300      	movs	r3, #0
 80139dc:	4604      	mov	r4, r0
 80139de:	4668      	mov	r0, sp
 80139e0:	e9cd 3300 	strd	r3, r3, [sp]
 80139e4:	f7f7 fc3e 	bl	800b264 <osMutexCreate>
 80139e8:	6020      	str	r0, [r4, #0]
 80139ea:	fab0 f080 	clz	r0, r0
 80139ee:	0940      	lsrs	r0, r0, #5
 80139f0:	4240      	negs	r0, r0
 80139f2:	b002      	add	sp, #8
 80139f4:	bd10      	pop	{r4, pc}

080139f6 <sys_mutex_lock>:
 80139f6:	f04f 31ff 	mov.w	r1, #4294967295	; 0xffffffff
 80139fa:	6800      	ldr	r0, [r0, #0]
 80139fc:	f7f7 bc3a 	b.w	800b274 <osMutexWait>

08013a00 <sys_mutex_unlock>:
 8013a00:	6800      	ldr	r0, [r0, #0]
 8013a02:	f7f7 bc5d 	b.w	800b2c0 <osMutexRelease>

08013a06 <sys_thread_new>:
 8013a06:	b5f0      	push	{r4, r5, r6, r7, lr}
 8013a08:	b089      	sub	sp, #36	; 0x24
 8013a0a:	4614      	mov	r4, r2
 8013a0c:	4607      	mov	r7, r0
 8013a0e:	460e      	mov	r6, r1
 8013a10:	2212      	movs	r2, #18
 8013a12:	2100      	movs	r1, #0
 8013a14:	f10d 000e 	add.w	r0, sp, #14
 8013a18:	461d      	mov	r5, r3
 8013a1a:	f000 f85d 	bl	8013ad8 <memset>
 8013a1e:	9b0e      	ldr	r3, [sp, #56]	; 0x38
 8013a20:	4621      	mov	r1, r4
 8013a22:	a801      	add	r0, sp, #4
 8013a24:	f8ad 300c 	strh.w	r3, [sp, #12]
 8013a28:	9505      	str	r5, [sp, #20]
 8013a2a:	e9cd 7601 	strd	r7, r6, [sp, #4]
 8013a2e:	f7f7 fbe9 	bl	800b204 <osThreadCreate>
 8013a32:	b009      	add	sp, #36	; 0x24
 8013a34:	bdf0      	pop	{r4, r5, r6, r7, pc}
	...

08013a38 <sys_arch_protect>:
 8013a38:	b508      	push	{r3, lr}
 8013a3a:	4b04      	ldr	r3, [pc, #16]	; (8013a4c <sys_arch_protect+0x14>)
 8013a3c:	f04f 31ff 	mov.w	r1, #4294967295	; 0xffffffff
 8013a40:	6818      	ldr	r0, [r3, #0]
 8013a42:	f7f7 fc17 	bl	800b274 <osMutexWait>
 8013a46:	2001      	movs	r0, #1
 8013a48:	bd08      	pop	{r3, pc}
 8013a4a:	bf00      	nop
 8013a4c:	2000b354 	.word	0x2000b354

08013a50 <sys_arch_unprotect>:
 8013a50:	4b01      	ldr	r3, [pc, #4]	; (8013a58 <sys_arch_unprotect+0x8>)
 8013a52:	6818      	ldr	r0, [r3, #0]
 8013a54:	f7f7 bc34 	b.w	800b2c0 <osMutexRelease>
 8013a58:	2000b354 	.word	0x2000b354

08013a5c <__libc_init_array>:
 8013a5c:	b570      	push	{r4, r5, r6, lr}
 8013a5e:	4e0d      	ldr	r6, [pc, #52]	; (8013a94 <__libc_init_array+0x38>)
 8013a60:	4c0d      	ldr	r4, [pc, #52]	; (8013a98 <__libc_init_array+0x3c>)
 8013a62:	1ba4      	subs	r4, r4, r6
 8013a64:	10a4      	asrs	r4, r4, #2
 8013a66:	2500      	movs	r5, #0
 8013a68:	42a5      	cmp	r5, r4
 8013a6a:	d109      	bne.n	8013a80 <__libc_init_array+0x24>
 8013a6c:	4e0b      	ldr	r6, [pc, #44]	; (8013a9c <__libc_init_array+0x40>)
 8013a6e:	4c0c      	ldr	r4, [pc, #48]	; (8013aa0 <__libc_init_array+0x44>)
 8013a70:	f000 ff7a 	bl	8014968 <_init>
 8013a74:	1ba4      	subs	r4, r4, r6
 8013a76:	10a4      	asrs	r4, r4, #2
 8013a78:	2500      	movs	r5, #0
 8013a7a:	42a5      	cmp	r5, r4
 8013a7c:	d105      	bne.n	8013a8a <__libc_init_array+0x2e>
 8013a7e:	bd70      	pop	{r4, r5, r6, pc}
 8013a80:	f856 3025 	ldr.w	r3, [r6, r5, lsl #2]
 8013a84:	4798      	blx	r3
 8013a86:	3501      	adds	r5, #1
 8013a88:	e7ee      	b.n	8013a68 <__libc_init_array+0xc>
 8013a8a:	f856 3025 	ldr.w	r3, [r6, r5, lsl #2]
 8013a8e:	4798      	blx	r3
 8013a90:	3501      	adds	r5, #1
 8013a92:	e7f2      	b.n	8013a7a <__libc_init_array+0x1e>
 8013a94:	08027784 	.word	0x08027784
 8013a98:	08027784 	.word	0x08027784
 8013a9c:	08027784 	.word	0x08027784
 8013aa0:	08027788 	.word	0x08027788

08013aa4 <memcmp>:
 8013aa4:	b530      	push	{r4, r5, lr}
 8013aa6:	2400      	movs	r4, #0
 8013aa8:	42a2      	cmp	r2, r4
 8013aaa:	d101      	bne.n	8013ab0 <memcmp+0xc>
 8013aac:	2000      	movs	r0, #0
 8013aae:	e007      	b.n	8013ac0 <memcmp+0x1c>
 8013ab0:	5d03      	ldrb	r3, [r0, r4]
 8013ab2:	3401      	adds	r4, #1
 8013ab4:	190d      	adds	r5, r1, r4
 8013ab6:	f815 5c01 	ldrb.w	r5, [r5, #-1]
 8013aba:	42ab      	cmp	r3, r5
 8013abc:	d0f4      	beq.n	8013aa8 <memcmp+0x4>
 8013abe:	1b58      	subs	r0, r3, r5
 8013ac0:	bd30      	pop	{r4, r5, pc}

08013ac2 <memcpy>:
 8013ac2:	b510      	push	{r4, lr}
 8013ac4:	1e43      	subs	r3, r0, #1
 8013ac6:	440a      	add	r2, r1
 8013ac8:	4291      	cmp	r1, r2
 8013aca:	d100      	bne.n	8013ace <memcpy+0xc>
 8013acc:	bd10      	pop	{r4, pc}
 8013ace:	f811 4b01 	ldrb.w	r4, [r1], #1
 8013ad2:	f803 4f01 	strb.w	r4, [r3, #1]!
 8013ad6:	e7f7      	b.n	8013ac8 <memcpy+0x6>

08013ad8 <memset>:
 8013ad8:	4402      	add	r2, r0
 8013ada:	4603      	mov	r3, r0
 8013adc:	4293      	cmp	r3, r2
 8013ade:	d100      	bne.n	8013ae2 <memset+0xa>
 8013ae0:	4770      	bx	lr
 8013ae2:	f803 1b01 	strb.w	r1, [r3], #1
 8013ae6:	e7f9      	b.n	8013adc <memset+0x4>

08013ae8 <iprintf>:
 8013ae8:	b40f      	push	{r0, r1, r2, r3}
 8013aea:	4b0a      	ldr	r3, [pc, #40]	; (8013b14 <iprintf+0x2c>)
 8013aec:	b513      	push	{r0, r1, r4, lr}
 8013aee:	681c      	ldr	r4, [r3, #0]
 8013af0:	b124      	cbz	r4, 8013afc <iprintf+0x14>
 8013af2:	69a3      	ldr	r3, [r4, #24]
 8013af4:	b913      	cbnz	r3, 8013afc <iprintf+0x14>
 8013af6:	4620      	mov	r0, r4
 8013af8:	f000 f8a2 	bl	8013c40 <__sinit>
 8013afc:	ab05      	add	r3, sp, #20
 8013afe:	9a04      	ldr	r2, [sp, #16]
 8013b00:	68a1      	ldr	r1, [r4, #8]
 8013b02:	9301      	str	r3, [sp, #4]
 8013b04:	4620      	mov	r0, r4
 8013b06:	f000 f9ff 	bl	8013f08 <_vfiprintf_r>
 8013b0a:	b002      	add	sp, #8
 8013b0c:	e8bd 4010 	ldmia.w	sp!, {r4, lr}
 8013b10:	b004      	add	sp, #16
 8013b12:	4770      	bx	lr
 8013b14:	20000058 	.word	0x20000058

08013b18 <rand>:
 8013b18:	b538      	push	{r3, r4, r5, lr}
 8013b1a:	4b13      	ldr	r3, [pc, #76]	; (8013b68 <rand+0x50>)
 8013b1c:	681c      	ldr	r4, [r3, #0]
 8013b1e:	6ba3      	ldr	r3, [r4, #56]	; 0x38
 8013b20:	b97b      	cbnz	r3, 8013b42 <rand+0x2a>
 8013b22:	2018      	movs	r0, #24
 8013b24:	f000 f916 	bl	8013d54 <malloc>
 8013b28:	4a10      	ldr	r2, [pc, #64]	; (8013b6c <rand+0x54>)
 8013b2a:	4b11      	ldr	r3, [pc, #68]	; (8013b70 <rand+0x58>)
 8013b2c:	63a0      	str	r0, [r4, #56]	; 0x38
 8013b2e:	e9c0 2300 	strd	r2, r3, [r0]
 8013b32:	4b10      	ldr	r3, [pc, #64]	; (8013b74 <rand+0x5c>)
 8013b34:	6083      	str	r3, [r0, #8]
 8013b36:	230b      	movs	r3, #11
 8013b38:	8183      	strh	r3, [r0, #12]
 8013b3a:	2201      	movs	r2, #1
 8013b3c:	2300      	movs	r3, #0
 8013b3e:	e9c0 2304 	strd	r2, r3, [r0, #16]
 8013b42:	6ba1      	ldr	r1, [r4, #56]	; 0x38
 8013b44:	480c      	ldr	r0, [pc, #48]	; (8013b78 <rand+0x60>)
 8013b46:	690a      	ldr	r2, [r1, #16]
 8013b48:	694b      	ldr	r3, [r1, #20]
 8013b4a:	4c0c      	ldr	r4, [pc, #48]	; (8013b7c <rand+0x64>)
 8013b4c:	4350      	muls	r0, r2
 8013b4e:	fb04 0003 	mla	r0, r4, r3, r0
 8013b52:	fba2 2304 	umull	r2, r3, r2, r4
 8013b56:	4403      	add	r3, r0
 8013b58:	1c54      	adds	r4, r2, #1
 8013b5a:	f143 0500 	adc.w	r5, r3, #0
 8013b5e:	e9c1 4504 	strd	r4, r5, [r1, #16]
 8013b62:	f025 4000 	bic.w	r0, r5, #2147483648	; 0x80000000
 8013b66:	bd38      	pop	{r3, r4, r5, pc}
 8013b68:	20000058 	.word	0x20000058
 8013b6c:	abcd330e 	.word	0xabcd330e
 8013b70:	e66d1234 	.word	0xe66d1234
 8013b74:	0005deec 	.word	0x0005deec
 8013b78:	5851f42d 	.word	0x5851f42d
 8013b7c:	4c957f2d 	.word	0x4c957f2d

08013b80 <strchr>:
 8013b80:	b2c9      	uxtb	r1, r1
 8013b82:	4603      	mov	r3, r0
 8013b84:	f810 2b01 	ldrb.w	r2, [r0], #1
 8013b88:	b11a      	cbz	r2, 8013b92 <strchr+0x12>
 8013b8a:	428a      	cmp	r2, r1
 8013b8c:	d1f9      	bne.n	8013b82 <strchr+0x2>
 8013b8e:	4618      	mov	r0, r3
 8013b90:	4770      	bx	lr
 8013b92:	2900      	cmp	r1, #0
 8013b94:	bf18      	it	ne
 8013b96:	2300      	movne	r3, #0
 8013b98:	e7f9      	b.n	8013b8e <strchr+0xe>

08013b9a <strncmp>:
 8013b9a:	b510      	push	{r4, lr}
 8013b9c:	b16a      	cbz	r2, 8013bba <strncmp+0x20>
 8013b9e:	3901      	subs	r1, #1
 8013ba0:	1884      	adds	r4, r0, r2
 8013ba2:	f810 3b01 	ldrb.w	r3, [r0], #1
 8013ba6:	f811 2f01 	ldrb.w	r2, [r1, #1]!
 8013baa:	4293      	cmp	r3, r2
 8013bac:	d103      	bne.n	8013bb6 <strncmp+0x1c>
 8013bae:	42a0      	cmp	r0, r4
 8013bb0:	d001      	beq.n	8013bb6 <strncmp+0x1c>
 8013bb2:	2b00      	cmp	r3, #0
 8013bb4:	d1f5      	bne.n	8013ba2 <strncmp+0x8>
 8013bb6:	1a98      	subs	r0, r3, r2
 8013bb8:	bd10      	pop	{r4, pc}
 8013bba:	4610      	mov	r0, r2
 8013bbc:	e7fc      	b.n	8013bb8 <strncmp+0x1e>
	...

08013bc0 <std>:
 8013bc0:	2300      	movs	r3, #0
 8013bc2:	b510      	push	{r4, lr}
 8013bc4:	4604      	mov	r4, r0
 8013bc6:	e9c0 3300 	strd	r3, r3, [r0]
 8013bca:	6083      	str	r3, [r0, #8]
 8013bcc:	8181      	strh	r1, [r0, #12]
 8013bce:	6643      	str	r3, [r0, #100]	; 0x64
 8013bd0:	81c2      	strh	r2, [r0, #14]
 8013bd2:	e9c0 3304 	strd	r3, r3, [r0, #16]
 8013bd6:	6183      	str	r3, [r0, #24]
 8013bd8:	4619      	mov	r1, r3
 8013bda:	2208      	movs	r2, #8
 8013bdc:	305c      	adds	r0, #92	; 0x5c
 8013bde:	f7ff ff7b 	bl	8013ad8 <memset>
 8013be2:	4b05      	ldr	r3, [pc, #20]	; (8013bf8 <std+0x38>)
 8013be4:	6263      	str	r3, [r4, #36]	; 0x24
 8013be6:	4b05      	ldr	r3, [pc, #20]	; (8013bfc <std+0x3c>)
 8013be8:	62a3      	str	r3, [r4, #40]	; 0x28
 8013bea:	4b05      	ldr	r3, [pc, #20]	; (8013c00 <std+0x40>)
 8013bec:	62e3      	str	r3, [r4, #44]	; 0x2c
 8013bee:	4b05      	ldr	r3, [pc, #20]	; (8013c04 <std+0x44>)
 8013bf0:	6224      	str	r4, [r4, #32]
 8013bf2:	6323      	str	r3, [r4, #48]	; 0x30
 8013bf4:	bd10      	pop	{r4, pc}
 8013bf6:	bf00      	nop
 8013bf8:	08014465 	.word	0x08014465
 8013bfc:	08014487 	.word	0x08014487
 8013c00:	080144bf 	.word	0x080144bf
 8013c04:	080144e3 	.word	0x080144e3

08013c08 <_cleanup_r>:
 8013c08:	4901      	ldr	r1, [pc, #4]	; (8013c10 <_cleanup_r+0x8>)
 8013c0a:	f000 b885 	b.w	8013d18 <_fwalk_reent>
 8013c0e:	bf00      	nop
 8013c10:	080147bd 	.word	0x080147bd

08013c14 <__sfmoreglue>:
 8013c14:	b570      	push	{r4, r5, r6, lr}
 8013c16:	1e4a      	subs	r2, r1, #1
 8013c18:	2568      	movs	r5, #104	; 0x68
 8013c1a:	4355      	muls	r5, r2
 8013c1c:	460e      	mov	r6, r1
 8013c1e:	f105 0174 	add.w	r1, r5, #116	; 0x74
 8013c22:	f000 f8ed 	bl	8013e00 <_malloc_r>
 8013c26:	4604      	mov	r4, r0
 8013c28:	b140      	cbz	r0, 8013c3c <__sfmoreglue+0x28>
 8013c2a:	2100      	movs	r1, #0
 8013c2c:	e9c0 1600 	strd	r1, r6, [r0]
 8013c30:	300c      	adds	r0, #12
 8013c32:	60a0      	str	r0, [r4, #8]
 8013c34:	f105 0268 	add.w	r2, r5, #104	; 0x68
 8013c38:	f7ff ff4e 	bl	8013ad8 <memset>
 8013c3c:	4620      	mov	r0, r4
 8013c3e:	bd70      	pop	{r4, r5, r6, pc}

08013c40 <__sinit>:
 8013c40:	6983      	ldr	r3, [r0, #24]
 8013c42:	b510      	push	{r4, lr}
 8013c44:	4604      	mov	r4, r0
 8013c46:	bb33      	cbnz	r3, 8013c96 <__sinit+0x56>
 8013c48:	e9c0 3312 	strd	r3, r3, [r0, #72]	; 0x48
 8013c4c:	6503      	str	r3, [r0, #80]	; 0x50
 8013c4e:	4b12      	ldr	r3, [pc, #72]	; (8013c98 <__sinit+0x58>)
 8013c50:	4a12      	ldr	r2, [pc, #72]	; (8013c9c <__sinit+0x5c>)
 8013c52:	681b      	ldr	r3, [r3, #0]
 8013c54:	6282      	str	r2, [r0, #40]	; 0x28
 8013c56:	4298      	cmp	r0, r3
 8013c58:	bf04      	itt	eq
 8013c5a:	2301      	moveq	r3, #1
 8013c5c:	6183      	streq	r3, [r0, #24]
 8013c5e:	f000 f81f 	bl	8013ca0 <__sfp>
 8013c62:	6060      	str	r0, [r4, #4]
 8013c64:	4620      	mov	r0, r4
 8013c66:	f000 f81b 	bl	8013ca0 <__sfp>
 8013c6a:	60a0      	str	r0, [r4, #8]
 8013c6c:	4620      	mov	r0, r4
 8013c6e:	f000 f817 	bl	8013ca0 <__sfp>
 8013c72:	2200      	movs	r2, #0
 8013c74:	60e0      	str	r0, [r4, #12]
 8013c76:	2104      	movs	r1, #4
 8013c78:	6860      	ldr	r0, [r4, #4]
 8013c7a:	f7ff ffa1 	bl	8013bc0 <std>
 8013c7e:	2201      	movs	r2, #1
 8013c80:	2109      	movs	r1, #9
 8013c82:	68a0      	ldr	r0, [r4, #8]
 8013c84:	f7ff ff9c 	bl	8013bc0 <std>
 8013c88:	2202      	movs	r2, #2
 8013c8a:	2112      	movs	r1, #18
 8013c8c:	68e0      	ldr	r0, [r4, #12]
 8013c8e:	f7ff ff97 	bl	8013bc0 <std>
 8013c92:	2301      	movs	r3, #1
 8013c94:	61a3      	str	r3, [r4, #24]
 8013c96:	bd10      	pop	{r4, pc}
 8013c98:	080276e4 	.word	0x080276e4
 8013c9c:	08013c09 	.word	0x08013c09

08013ca0 <__sfp>:
 8013ca0:	b5f8      	push	{r3, r4, r5, r6, r7, lr}
 8013ca2:	4b1b      	ldr	r3, [pc, #108]	; (8013d10 <__sfp+0x70>)
 8013ca4:	681e      	ldr	r6, [r3, #0]
 8013ca6:	69b3      	ldr	r3, [r6, #24]
 8013ca8:	4607      	mov	r7, r0
 8013caa:	b913      	cbnz	r3, 8013cb2 <__sfp+0x12>
 8013cac:	4630      	mov	r0, r6
 8013cae:	f7ff ffc7 	bl	8013c40 <__sinit>
 8013cb2:	3648      	adds	r6, #72	; 0x48
 8013cb4:	e9d6 3401 	ldrd	r3, r4, [r6, #4]
 8013cb8:	3b01      	subs	r3, #1
 8013cba:	d503      	bpl.n	8013cc4 <__sfp+0x24>
 8013cbc:	6833      	ldr	r3, [r6, #0]
 8013cbe:	b133      	cbz	r3, 8013cce <__sfp+0x2e>
 8013cc0:	6836      	ldr	r6, [r6, #0]
 8013cc2:	e7f7      	b.n	8013cb4 <__sfp+0x14>
 8013cc4:	f9b4 500c 	ldrsh.w	r5, [r4, #12]
 8013cc8:	b16d      	cbz	r5, 8013ce6 <__sfp+0x46>
 8013cca:	3468      	adds	r4, #104	; 0x68
 8013ccc:	e7f4      	b.n	8013cb8 <__sfp+0x18>
 8013cce:	2104      	movs	r1, #4
 8013cd0:	4638      	mov	r0, r7
 8013cd2:	f7ff ff9f 	bl	8013c14 <__sfmoreglue>
 8013cd6:	6030      	str	r0, [r6, #0]
 8013cd8:	2800      	cmp	r0, #0
 8013cda:	d1f1      	bne.n	8013cc0 <__sfp+0x20>
 8013cdc:	230c      	movs	r3, #12
 8013cde:	603b      	str	r3, [r7, #0]
 8013ce0:	4604      	mov	r4, r0
 8013ce2:	4620      	mov	r0, r4
 8013ce4:	bdf8      	pop	{r3, r4, r5, r6, r7, pc}
 8013ce6:	4b0b      	ldr	r3, [pc, #44]	; (8013d14 <__sfp+0x74>)
 8013ce8:	6665      	str	r5, [r4, #100]	; 0x64
 8013cea:	e9c4 5500 	strd	r5, r5, [r4]
 8013cee:	60a5      	str	r5, [r4, #8]
 8013cf0:	e9c4 3503 	strd	r3, r5, [r4, #12]
 8013cf4:	e9c4 5505 	strd	r5, r5, [r4, #20]
 8013cf8:	2208      	movs	r2, #8
 8013cfa:	4629      	mov	r1, r5
 8013cfc:	f104 005c 	add.w	r0, r4, #92	; 0x5c
 8013d00:	f7ff feea 	bl	8013ad8 <memset>
 8013d04:	e9c4 550d 	strd	r5, r5, [r4, #52]	; 0x34
 8013d08:	e9c4 5512 	strd	r5, r5, [r4, #72]	; 0x48
 8013d0c:	e7e9      	b.n	8013ce2 <__sfp+0x42>
 8013d0e:	bf00      	nop
 8013d10:	080276e4 	.word	0x080276e4
 8013d14:	ffff0001 	.word	0xffff0001

08013d18 <_fwalk_reent>:
 8013d18:	e92d 43f8 	stmdb	sp!, {r3, r4, r5, r6, r7, r8, r9, lr}
 8013d1c:	4680      	mov	r8, r0
 8013d1e:	4689      	mov	r9, r1
 8013d20:	f100 0448 	add.w	r4, r0, #72	; 0x48
 8013d24:	2600      	movs	r6, #0
 8013d26:	b914      	cbnz	r4, 8013d2e <_fwalk_reent+0x16>
 8013d28:	4630      	mov	r0, r6
 8013d2a:	e8bd 83f8 	ldmia.w	sp!, {r3, r4, r5, r6, r7, r8, r9, pc}
 8013d2e:	e9d4 7501 	ldrd	r7, r5, [r4, #4]
 8013d32:	3f01      	subs	r7, #1
 8013d34:	d501      	bpl.n	8013d3a <_fwalk_reent+0x22>
 8013d36:	6824      	ldr	r4, [r4, #0]
 8013d38:	e7f5      	b.n	8013d26 <_fwalk_reent+0xe>
 8013d3a:	89ab      	ldrh	r3, [r5, #12]
 8013d3c:	2b01      	cmp	r3, #1
 8013d3e:	d907      	bls.n	8013d50 <_fwalk_reent+0x38>
 8013d40:	f9b5 300e 	ldrsh.w	r3, [r5, #14]
 8013d44:	3301      	adds	r3, #1
 8013d46:	d003      	beq.n	8013d50 <_fwalk_reent+0x38>
 8013d48:	4629      	mov	r1, r5
 8013d4a:	4640      	mov	r0, r8
 8013d4c:	47c8      	blx	r9
 8013d4e:	4306      	orrs	r6, r0
 8013d50:	3568      	adds	r5, #104	; 0x68
 8013d52:	e7ee      	b.n	8013d32 <_fwalk_reent+0x1a>

08013d54 <malloc>:
 8013d54:	4b02      	ldr	r3, [pc, #8]	; (8013d60 <malloc+0xc>)
 8013d56:	4601      	mov	r1, r0
 8013d58:	6818      	ldr	r0, [r3, #0]
 8013d5a:	f000 b851 	b.w	8013e00 <_malloc_r>
 8013d5e:	bf00      	nop
 8013d60:	20000058 	.word	0x20000058

08013d64 <_free_r>:
 8013d64:	b538      	push	{r3, r4, r5, lr}
 8013d66:	4605      	mov	r5, r0
 8013d68:	2900      	cmp	r1, #0
 8013d6a:	d045      	beq.n	8013df8 <_free_r+0x94>
 8013d6c:	f851 3c04 	ldr.w	r3, [r1, #-4]
 8013d70:	1f0c      	subs	r4, r1, #4
 8013d72:	2b00      	cmp	r3, #0
 8013d74:	bfb8      	it	lt
 8013d76:	18e4      	addlt	r4, r4, r3
 8013d78:	f000 fdc0 	bl	80148fc <__malloc_lock>
 8013d7c:	4a1f      	ldr	r2, [pc, #124]	; (8013dfc <_free_r+0x98>)
 8013d7e:	6813      	ldr	r3, [r2, #0]
 8013d80:	4610      	mov	r0, r2
 8013d82:	b933      	cbnz	r3, 8013d92 <_free_r+0x2e>
 8013d84:	6063      	str	r3, [r4, #4]
 8013d86:	6014      	str	r4, [r2, #0]
 8013d88:	4628      	mov	r0, r5
 8013d8a:	e8bd 4038 	ldmia.w	sp!, {r3, r4, r5, lr}
 8013d8e:	f000 bdb6 	b.w	80148fe <__malloc_unlock>
 8013d92:	42a3      	cmp	r3, r4
 8013d94:	d90c      	bls.n	8013db0 <_free_r+0x4c>
 8013d96:	6821      	ldr	r1, [r4, #0]
 8013d98:	1862      	adds	r2, r4, r1
 8013d9a:	4293      	cmp	r3, r2
 8013d9c:	bf04      	itt	eq
 8013d9e:	681a      	ldreq	r2, [r3, #0]
 8013da0:	685b      	ldreq	r3, [r3, #4]
 8013da2:	6063      	str	r3, [r4, #4]
 8013da4:	bf04      	itt	eq
 8013da6:	1852      	addeq	r2, r2, r1
 8013da8:	6022      	streq	r2, [r4, #0]
 8013daa:	6004      	str	r4, [r0, #0]
 8013dac:	e7ec      	b.n	8013d88 <_free_r+0x24>
 8013dae:	4613      	mov	r3, r2
 8013db0:	685a      	ldr	r2, [r3, #4]
 8013db2:	b10a      	cbz	r2, 8013db8 <_free_r+0x54>
 8013db4:	42a2      	cmp	r2, r4
 8013db6:	d9fa      	bls.n	8013dae <_free_r+0x4a>
 8013db8:	6819      	ldr	r1, [r3, #0]
 8013dba:	1858      	adds	r0, r3, r1
 8013dbc:	42a0      	cmp	r0, r4
 8013dbe:	d10b      	bne.n	8013dd8 <_free_r+0x74>
 8013dc0:	6820      	ldr	r0, [r4, #0]
 8013dc2:	4401      	add	r1, r0
 8013dc4:	1858      	adds	r0, r3, r1
 8013dc6:	4282      	cmp	r2, r0
 8013dc8:	6019      	str	r1, [r3, #0]
 8013dca:	d1dd      	bne.n	8013d88 <_free_r+0x24>
 8013dcc:	6810      	ldr	r0, [r2, #0]
 8013dce:	6852      	ldr	r2, [r2, #4]
 8013dd0:	605a      	str	r2, [r3, #4]
 8013dd2:	4401      	add	r1, r0
 8013dd4:	6019      	str	r1, [r3, #0]
 8013dd6:	e7d7      	b.n	8013d88 <_free_r+0x24>
 8013dd8:	d902      	bls.n	8013de0 <_free_r+0x7c>
 8013dda:	230c      	movs	r3, #12
 8013ddc:	602b      	str	r3, [r5, #0]
 8013dde:	e7d3      	b.n	8013d88 <_free_r+0x24>
 8013de0:	6820      	ldr	r0, [r4, #0]
 8013de2:	1821      	adds	r1, r4, r0
 8013de4:	428a      	cmp	r2, r1
 8013de6:	bf04      	itt	eq
 8013de8:	6811      	ldreq	r1, [r2, #0]
 8013dea:	6852      	ldreq	r2, [r2, #4]
 8013dec:	6062      	str	r2, [r4, #4]
 8013dee:	bf04      	itt	eq
 8013df0:	1809      	addeq	r1, r1, r0
 8013df2:	6021      	streq	r1, [r4, #0]
 8013df4:	605c      	str	r4, [r3, #4]
 8013df6:	e7c7      	b.n	8013d88 <_free_r+0x24>
 8013df8:	bd38      	pop	{r3, r4, r5, pc}
 8013dfa:	bf00      	nop
 8013dfc:	20004658 	.word	0x20004658

08013e00 <_malloc_r>:
 8013e00:	b570      	push	{r4, r5, r6, lr}
 8013e02:	1ccd      	adds	r5, r1, #3
 8013e04:	f025 0503 	bic.w	r5, r5, #3
 8013e08:	3508      	adds	r5, #8
 8013e0a:	2d0c      	cmp	r5, #12
 8013e0c:	bf38      	it	cc
 8013e0e:	250c      	movcc	r5, #12
 8013e10:	2d00      	cmp	r5, #0
 8013e12:	4606      	mov	r6, r0
 8013e14:	db01      	blt.n	8013e1a <_malloc_r+0x1a>
 8013e16:	42a9      	cmp	r1, r5
 8013e18:	d903      	bls.n	8013e22 <_malloc_r+0x22>
 8013e1a:	230c      	movs	r3, #12
 8013e1c:	6033      	str	r3, [r6, #0]
 8013e1e:	2000      	movs	r0, #0
 8013e20:	bd70      	pop	{r4, r5, r6, pc}
 8013e22:	f000 fd6b 	bl	80148fc <__malloc_lock>
 8013e26:	4a21      	ldr	r2, [pc, #132]	; (8013eac <_malloc_r+0xac>)
 8013e28:	6814      	ldr	r4, [r2, #0]
 8013e2a:	4621      	mov	r1, r4
 8013e2c:	b991      	cbnz	r1, 8013e54 <_malloc_r+0x54>
 8013e2e:	4c20      	ldr	r4, [pc, #128]	; (8013eb0 <_malloc_r+0xb0>)
 8013e30:	6823      	ldr	r3, [r4, #0]
 8013e32:	b91b      	cbnz	r3, 8013e3c <_malloc_r+0x3c>
 8013e34:	4630      	mov	r0, r6
 8013e36:	f000 fb05 	bl	8014444 <_sbrk_r>
 8013e3a:	6020      	str	r0, [r4, #0]
 8013e3c:	4629      	mov	r1, r5
 8013e3e:	4630      	mov	r0, r6
 8013e40:	f000 fb00 	bl	8014444 <_sbrk_r>
 8013e44:	1c43      	adds	r3, r0, #1
 8013e46:	d124      	bne.n	8013e92 <_malloc_r+0x92>
 8013e48:	230c      	movs	r3, #12
 8013e4a:	6033      	str	r3, [r6, #0]
 8013e4c:	4630      	mov	r0, r6
 8013e4e:	f000 fd56 	bl	80148fe <__malloc_unlock>
 8013e52:	e7e4      	b.n	8013e1e <_malloc_r+0x1e>
 8013e54:	680b      	ldr	r3, [r1, #0]
 8013e56:	1b5b      	subs	r3, r3, r5
 8013e58:	d418      	bmi.n	8013e8c <_malloc_r+0x8c>
 8013e5a:	2b0b      	cmp	r3, #11
 8013e5c:	d90f      	bls.n	8013e7e <_malloc_r+0x7e>
 8013e5e:	600b      	str	r3, [r1, #0]
 8013e60:	50cd      	str	r5, [r1, r3]
 8013e62:	18cc      	adds	r4, r1, r3
 8013e64:	4630      	mov	r0, r6
 8013e66:	f000 fd4a 	bl	80148fe <__malloc_unlock>
 8013e6a:	f104 000b 	add.w	r0, r4, #11
 8013e6e:	1d23      	adds	r3, r4, #4
 8013e70:	f020 0007 	bic.w	r0, r0, #7
 8013e74:	1ac3      	subs	r3, r0, r3
 8013e76:	d0d3      	beq.n	8013e20 <_malloc_r+0x20>
 8013e78:	425a      	negs	r2, r3
 8013e7a:	50e2      	str	r2, [r4, r3]
 8013e7c:	e7d0      	b.n	8013e20 <_malloc_r+0x20>
 8013e7e:	428c      	cmp	r4, r1
 8013e80:	684b      	ldr	r3, [r1, #4]
 8013e82:	bf16      	itet	ne
 8013e84:	6063      	strne	r3, [r4, #4]
 8013e86:	6013      	streq	r3, [r2, #0]
 8013e88:	460c      	movne	r4, r1
 8013e8a:	e7eb      	b.n	8013e64 <_malloc_r+0x64>
 8013e8c:	460c      	mov	r4, r1
 8013e8e:	6849      	ldr	r1, [r1, #4]
 8013e90:	e7cc      	b.n	8013e2c <_malloc_r+0x2c>
 8013e92:	1cc4      	adds	r4, r0, #3
 8013e94:	f024 0403 	bic.w	r4, r4, #3
 8013e98:	42a0      	cmp	r0, r4
 8013e9a:	d005      	beq.n	8013ea8 <_malloc_r+0xa8>
 8013e9c:	1a21      	subs	r1, r4, r0
 8013e9e:	4630      	mov	r0, r6
 8013ea0:	f000 fad0 	bl	8014444 <_sbrk_r>
 8013ea4:	3001      	adds	r0, #1
 8013ea6:	d0cf      	beq.n	8013e48 <_malloc_r+0x48>
 8013ea8:	6025      	str	r5, [r4, #0]
 8013eaa:	e7db      	b.n	8013e64 <_malloc_r+0x64>
 8013eac:	20004658 	.word	0x20004658
 8013eb0:	2000465c 	.word	0x2000465c

08013eb4 <__sfputc_r>:
 8013eb4:	6893      	ldr	r3, [r2, #8]
 8013eb6:	3b01      	subs	r3, #1
 8013eb8:	2b00      	cmp	r3, #0
 8013eba:	b410      	push	{r4}
 8013ebc:	6093      	str	r3, [r2, #8]
 8013ebe:	da08      	bge.n	8013ed2 <__sfputc_r+0x1e>
 8013ec0:	6994      	ldr	r4, [r2, #24]
 8013ec2:	42a3      	cmp	r3, r4
 8013ec4:	db01      	blt.n	8013eca <__sfputc_r+0x16>
 8013ec6:	290a      	cmp	r1, #10
 8013ec8:	d103      	bne.n	8013ed2 <__sfputc_r+0x1e>
 8013eca:	f85d 4b04 	ldr.w	r4, [sp], #4
 8013ece:	f000 bb0d 	b.w	80144ec <__swbuf_r>
 8013ed2:	6813      	ldr	r3, [r2, #0]
 8013ed4:	1c58      	adds	r0, r3, #1
 8013ed6:	6010      	str	r0, [r2, #0]
 8013ed8:	7019      	strb	r1, [r3, #0]
 8013eda:	4608      	mov	r0, r1
 8013edc:	f85d 4b04 	ldr.w	r4, [sp], #4
 8013ee0:	4770      	bx	lr

08013ee2 <__sfputs_r>:
 8013ee2:	b5f8      	push	{r3, r4, r5, r6, r7, lr}
 8013ee4:	4606      	mov	r6, r0
 8013ee6:	460f      	mov	r7, r1
 8013ee8:	4614      	mov	r4, r2
 8013eea:	18d5      	adds	r5, r2, r3
 8013eec:	42ac      	cmp	r4, r5
 8013eee:	d101      	bne.n	8013ef4 <__sfputs_r+0x12>
 8013ef0:	2000      	movs	r0, #0
 8013ef2:	e007      	b.n	8013f04 <__sfputs_r+0x22>
 8013ef4:	463a      	mov	r2, r7
 8013ef6:	f814 1b01 	ldrb.w	r1, [r4], #1
 8013efa:	4630      	mov	r0, r6
 8013efc:	f7ff ffda 	bl	8013eb4 <__sfputc_r>
 8013f00:	1c43      	adds	r3, r0, #1
 8013f02:	d1f3      	bne.n	8013eec <__sfputs_r+0xa>
 8013f04:	bdf8      	pop	{r3, r4, r5, r6, r7, pc}
	...

08013f08 <_vfiprintf_r>:
 8013f08:	e92d 4ff0 	stmdb	sp!, {r4, r5, r6, r7, r8, r9, sl, fp, lr}
 8013f0c:	460c      	mov	r4, r1
 8013f0e:	b09d      	sub	sp, #116	; 0x74
 8013f10:	4617      	mov	r7, r2
 8013f12:	461d      	mov	r5, r3
 8013f14:	4606      	mov	r6, r0
 8013f16:	b118      	cbz	r0, 8013f20 <_vfiprintf_r+0x18>
 8013f18:	6983      	ldr	r3, [r0, #24]
 8013f1a:	b90b      	cbnz	r3, 8013f20 <_vfiprintf_r+0x18>
 8013f1c:	f7ff fe90 	bl	8013c40 <__sinit>
 8013f20:	4b7c      	ldr	r3, [pc, #496]	; (8014114 <_vfiprintf_r+0x20c>)
 8013f22:	429c      	cmp	r4, r3
 8013f24:	d158      	bne.n	8013fd8 <_vfiprintf_r+0xd0>
 8013f26:	6874      	ldr	r4, [r6, #4]
 8013f28:	89a3      	ldrh	r3, [r4, #12]
 8013f2a:	0718      	lsls	r0, r3, #28
 8013f2c:	d55e      	bpl.n	8013fec <_vfiprintf_r+0xe4>
 8013f2e:	6923      	ldr	r3, [r4, #16]
 8013f30:	2b00      	cmp	r3, #0
 8013f32:	d05b      	beq.n	8013fec <_vfiprintf_r+0xe4>
 8013f34:	2300      	movs	r3, #0
 8013f36:	9309      	str	r3, [sp, #36]	; 0x24
 8013f38:	2320      	movs	r3, #32
 8013f3a:	f88d 3029 	strb.w	r3, [sp, #41]	; 0x29
 8013f3e:	2330      	movs	r3, #48	; 0x30
 8013f40:	f88d 302a 	strb.w	r3, [sp, #42]	; 0x2a
 8013f44:	9503      	str	r5, [sp, #12]
 8013f46:	f04f 0b01 	mov.w	fp, #1
 8013f4a:	46b8      	mov	r8, r7
 8013f4c:	4645      	mov	r5, r8
 8013f4e:	f815 3b01 	ldrb.w	r3, [r5], #1
 8013f52:	b10b      	cbz	r3, 8013f58 <_vfiprintf_r+0x50>
 8013f54:	2b25      	cmp	r3, #37	; 0x25
 8013f56:	d154      	bne.n	8014002 <_vfiprintf_r+0xfa>
 8013f58:	ebb8 0a07 	subs.w	sl, r8, r7
 8013f5c:	d00b      	beq.n	8013f76 <_vfiprintf_r+0x6e>
 8013f5e:	4653      	mov	r3, sl
 8013f60:	463a      	mov	r2, r7
 8013f62:	4621      	mov	r1, r4
 8013f64:	4630      	mov	r0, r6
 8013f66:	f7ff ffbc 	bl	8013ee2 <__sfputs_r>
 8013f6a:	3001      	adds	r0, #1
 8013f6c:	f000 80c2 	beq.w	80140f4 <_vfiprintf_r+0x1ec>
 8013f70:	9b09      	ldr	r3, [sp, #36]	; 0x24
 8013f72:	4453      	add	r3, sl
 8013f74:	9309      	str	r3, [sp, #36]	; 0x24
 8013f76:	f898 3000 	ldrb.w	r3, [r8]
 8013f7a:	2b00      	cmp	r3, #0
 8013f7c:	f000 80ba 	beq.w	80140f4 <_vfiprintf_r+0x1ec>
 8013f80:	2300      	movs	r3, #0
 8013f82:	f04f 32ff 	mov.w	r2, #4294967295	; 0xffffffff
 8013f86:	e9cd 2305 	strd	r2, r3, [sp, #20]
 8013f8a:	9304      	str	r3, [sp, #16]
 8013f8c:	9307      	str	r3, [sp, #28]
 8013f8e:	f88d 3053 	strb.w	r3, [sp, #83]	; 0x53
 8013f92:	931a      	str	r3, [sp, #104]	; 0x68
 8013f94:	46a8      	mov	r8, r5
 8013f96:	2205      	movs	r2, #5
 8013f98:	f818 1b01 	ldrb.w	r1, [r8], #1
 8013f9c:	485e      	ldr	r0, [pc, #376]	; (8014118 <_vfiprintf_r+0x210>)
 8013f9e:	f7f4 f967 	bl	8008270 <memchr>
 8013fa2:	9b04      	ldr	r3, [sp, #16]
 8013fa4:	bb78      	cbnz	r0, 8014006 <_vfiprintf_r+0xfe>
 8013fa6:	06d9      	lsls	r1, r3, #27
 8013fa8:	bf44      	itt	mi
 8013faa:	2220      	movmi	r2, #32
 8013fac:	f88d 2053 	strbmi.w	r2, [sp, #83]	; 0x53
 8013fb0:	071a      	lsls	r2, r3, #28
 8013fb2:	bf44      	itt	mi
 8013fb4:	222b      	movmi	r2, #43	; 0x2b
 8013fb6:	f88d 2053 	strbmi.w	r2, [sp, #83]	; 0x53
 8013fba:	782a      	ldrb	r2, [r5, #0]
 8013fbc:	2a2a      	cmp	r2, #42	; 0x2a
 8013fbe:	d02a      	beq.n	8014016 <_vfiprintf_r+0x10e>
 8013fc0:	9a07      	ldr	r2, [sp, #28]
 8013fc2:	46a8      	mov	r8, r5
 8013fc4:	2000      	movs	r0, #0
 8013fc6:	250a      	movs	r5, #10
 8013fc8:	4641      	mov	r1, r8
 8013fca:	f811 3b01 	ldrb.w	r3, [r1], #1
 8013fce:	3b30      	subs	r3, #48	; 0x30
 8013fd0:	2b09      	cmp	r3, #9
 8013fd2:	d969      	bls.n	80140a8 <_vfiprintf_r+0x1a0>
 8013fd4:	b360      	cbz	r0, 8014030 <_vfiprintf_r+0x128>
 8013fd6:	e024      	b.n	8014022 <_vfiprintf_r+0x11a>
 8013fd8:	4b50      	ldr	r3, [pc, #320]	; (801411c <_vfiprintf_r+0x214>)
 8013fda:	429c      	cmp	r4, r3
 8013fdc:	d101      	bne.n	8013fe2 <_vfiprintf_r+0xda>
 8013fde:	68b4      	ldr	r4, [r6, #8]
 8013fe0:	e7a2      	b.n	8013f28 <_vfiprintf_r+0x20>
 8013fe2:	4b4f      	ldr	r3, [pc, #316]	; (8014120 <_vfiprintf_r+0x218>)
 8013fe4:	429c      	cmp	r4, r3
 8013fe6:	bf08      	it	eq
 8013fe8:	68f4      	ldreq	r4, [r6, #12]
 8013fea:	e79d      	b.n	8013f28 <_vfiprintf_r+0x20>
 8013fec:	4621      	mov	r1, r4
 8013fee:	4630      	mov	r0, r6
 8013ff0:	f000 fae0 	bl	80145b4 <__swsetup_r>
 8013ff4:	2800      	cmp	r0, #0
 8013ff6:	d09d      	beq.n	8013f34 <_vfiprintf_r+0x2c>
 8013ff8:	f04f 30ff 	mov.w	r0, #4294967295	; 0xffffffff
 8013ffc:	b01d      	add	sp, #116	; 0x74
 8013ffe:	e8bd 8ff0 	ldmia.w	sp!, {r4, r5, r6, r7, r8, r9, sl, fp, pc}
 8014002:	46a8      	mov	r8, r5
 8014004:	e7a2      	b.n	8013f4c <_vfiprintf_r+0x44>
 8014006:	4a44      	ldr	r2, [pc, #272]	; (8014118 <_vfiprintf_r+0x210>)
 8014008:	1a80      	subs	r0, r0, r2
 801400a:	fa0b f000 	lsl.w	r0, fp, r0
 801400e:	4318      	orrs	r0, r3
 8014010:	9004      	str	r0, [sp, #16]
 8014012:	4645      	mov	r5, r8
 8014014:	e7be      	b.n	8013f94 <_vfiprintf_r+0x8c>
 8014016:	9a03      	ldr	r2, [sp, #12]
 8014018:	1d11      	adds	r1, r2, #4
 801401a:	6812      	ldr	r2, [r2, #0]
 801401c:	9103      	str	r1, [sp, #12]
 801401e:	2a00      	cmp	r2, #0
 8014020:	db01      	blt.n	8014026 <_vfiprintf_r+0x11e>
 8014022:	9207      	str	r2, [sp, #28]
 8014024:	e004      	b.n	8014030 <_vfiprintf_r+0x128>
 8014026:	4252      	negs	r2, r2
 8014028:	f043 0302 	orr.w	r3, r3, #2
 801402c:	9207      	str	r2, [sp, #28]
 801402e:	9304      	str	r3, [sp, #16]
 8014030:	f898 3000 	ldrb.w	r3, [r8]
 8014034:	2b2e      	cmp	r3, #46	; 0x2e
 8014036:	d10e      	bne.n	8014056 <_vfiprintf_r+0x14e>
 8014038:	f898 3001 	ldrb.w	r3, [r8, #1]
 801403c:	2b2a      	cmp	r3, #42	; 0x2a
 801403e:	d138      	bne.n	80140b2 <_vfiprintf_r+0x1aa>
 8014040:	9b03      	ldr	r3, [sp, #12]
 8014042:	1d1a      	adds	r2, r3, #4
 8014044:	681b      	ldr	r3, [r3, #0]
 8014046:	9203      	str	r2, [sp, #12]
 8014048:	2b00      	cmp	r3, #0
 801404a:	bfb8      	it	lt
 801404c:	f04f 33ff 	movlt.w	r3, #4294967295	; 0xffffffff
 8014050:	f108 0802 	add.w	r8, r8, #2
 8014054:	9305      	str	r3, [sp, #20]
 8014056:	4d33      	ldr	r5, [pc, #204]	; (8014124 <_vfiprintf_r+0x21c>)
 8014058:	f898 1000 	ldrb.w	r1, [r8]
 801405c:	2203      	movs	r2, #3
 801405e:	4628      	mov	r0, r5
 8014060:	f7f4 f906 	bl	8008270 <memchr>
 8014064:	b140      	cbz	r0, 8014078 <_vfiprintf_r+0x170>
 8014066:	2340      	movs	r3, #64	; 0x40
 8014068:	1b40      	subs	r0, r0, r5
 801406a:	fa03 f000 	lsl.w	r0, r3, r0
 801406e:	9b04      	ldr	r3, [sp, #16]
 8014070:	4303      	orrs	r3, r0
 8014072:	f108 0801 	add.w	r8, r8, #1
 8014076:	9304      	str	r3, [sp, #16]
 8014078:	f898 1000 	ldrb.w	r1, [r8]
 801407c:	482a      	ldr	r0, [pc, #168]	; (8014128 <_vfiprintf_r+0x220>)
 801407e:	f88d 1028 	strb.w	r1, [sp, #40]	; 0x28
 8014082:	2206      	movs	r2, #6
 8014084:	f108 0701 	add.w	r7, r8, #1
 8014088:	f7f4 f8f2 	bl	8008270 <memchr>
 801408c:	2800      	cmp	r0, #0
 801408e:	d037      	beq.n	8014100 <_vfiprintf_r+0x1f8>
 8014090:	4b26      	ldr	r3, [pc, #152]	; (801412c <_vfiprintf_r+0x224>)
 8014092:	bb1b      	cbnz	r3, 80140dc <_vfiprintf_r+0x1d4>
 8014094:	9b03      	ldr	r3, [sp, #12]
 8014096:	3307      	adds	r3, #7
 8014098:	f023 0307 	bic.w	r3, r3, #7
 801409c:	3308      	adds	r3, #8
 801409e:	9303      	str	r3, [sp, #12]
 80140a0:	9b09      	ldr	r3, [sp, #36]	; 0x24
 80140a2:	444b      	add	r3, r9
 80140a4:	9309      	str	r3, [sp, #36]	; 0x24
 80140a6:	e750      	b.n	8013f4a <_vfiprintf_r+0x42>
 80140a8:	fb05 3202 	mla	r2, r5, r2, r3
 80140ac:	2001      	movs	r0, #1
 80140ae:	4688      	mov	r8, r1
 80140b0:	e78a      	b.n	8013fc8 <_vfiprintf_r+0xc0>
 80140b2:	2300      	movs	r3, #0
 80140b4:	f108 0801 	add.w	r8, r8, #1
 80140b8:	9305      	str	r3, [sp, #20]
 80140ba:	4619      	mov	r1, r3
 80140bc:	250a      	movs	r5, #10
 80140be:	4640      	mov	r0, r8
 80140c0:	f810 2b01 	ldrb.w	r2, [r0], #1
 80140c4:	3a30      	subs	r2, #48	; 0x30
 80140c6:	2a09      	cmp	r2, #9
 80140c8:	d903      	bls.n	80140d2 <_vfiprintf_r+0x1ca>
 80140ca:	2b00      	cmp	r3, #0
 80140cc:	d0c3      	beq.n	8014056 <_vfiprintf_r+0x14e>
 80140ce:	9105      	str	r1, [sp, #20]
 80140d0:	e7c1      	b.n	8014056 <_vfiprintf_r+0x14e>
 80140d2:	fb05 2101 	mla	r1, r5, r1, r2
 80140d6:	2301      	movs	r3, #1
 80140d8:	4680      	mov	r8, r0
 80140da:	e7f0      	b.n	80140be <_vfiprintf_r+0x1b6>
 80140dc:	ab03      	add	r3, sp, #12
 80140de:	9300      	str	r3, [sp, #0]
 80140e0:	4622      	mov	r2, r4
 80140e2:	4b13      	ldr	r3, [pc, #76]	; (8014130 <_vfiprintf_r+0x228>)
 80140e4:	a904      	add	r1, sp, #16
 80140e6:	4630      	mov	r0, r6
 80140e8:	f3af 8000 	nop.w
 80140ec:	f1b0 3fff 	cmp.w	r0, #4294967295	; 0xffffffff
 80140f0:	4681      	mov	r9, r0
 80140f2:	d1d5      	bne.n	80140a0 <_vfiprintf_r+0x198>
 80140f4:	89a3      	ldrh	r3, [r4, #12]
 80140f6:	065b      	lsls	r3, r3, #25
 80140f8:	f53f af7e 	bmi.w	8013ff8 <_vfiprintf_r+0xf0>
 80140fc:	9809      	ldr	r0, [sp, #36]	; 0x24
 80140fe:	e77d      	b.n	8013ffc <_vfiprintf_r+0xf4>
 8014100:	ab03      	add	r3, sp, #12
 8014102:	9300      	str	r3, [sp, #0]
 8014104:	4622      	mov	r2, r4
 8014106:	4b0a      	ldr	r3, [pc, #40]	; (8014130 <_vfiprintf_r+0x228>)
 8014108:	a904      	add	r1, sp, #16
 801410a:	4630      	mov	r0, r6
 801410c:	f000 f888 	bl	8014220 <_printf_i>
 8014110:	e7ec      	b.n	80140ec <_vfiprintf_r+0x1e4>
 8014112:	bf00      	nop
 8014114:	08027708 	.word	0x08027708
 8014118:	08027748 	.word	0x08027748
 801411c:	08027728 	.word	0x08027728
 8014120:	080276e8 	.word	0x080276e8
 8014124:	0802774e 	.word	0x0802774e
 8014128:	08027752 	.word	0x08027752
 801412c:	00000000 	.word	0x00000000
 8014130:	08013ee3 	.word	0x08013ee3

08014134 <_printf_common>:
 8014134:	e92d 47f0 	stmdb	sp!, {r4, r5, r6, r7, r8, r9, sl, lr}
 8014138:	4691      	mov	r9, r2
 801413a:	461f      	mov	r7, r3
 801413c:	688a      	ldr	r2, [r1, #8]
 801413e:	690b      	ldr	r3, [r1, #16]
 8014140:	f8dd 8020 	ldr.w	r8, [sp, #32]
 8014144:	4293      	cmp	r3, r2
 8014146:	bfb8      	it	lt
 8014148:	4613      	movlt	r3, r2
 801414a:	f8c9 3000 	str.w	r3, [r9]
 801414e:	f891 2043 	ldrb.w	r2, [r1, #67]	; 0x43
 8014152:	4606      	mov	r6, r0
 8014154:	460c      	mov	r4, r1
 8014156:	b112      	cbz	r2, 801415e <_printf_common+0x2a>
 8014158:	3301      	adds	r3, #1
 801415a:	f8c9 3000 	str.w	r3, [r9]
 801415e:	6823      	ldr	r3, [r4, #0]
 8014160:	0699      	lsls	r1, r3, #26
 8014162:	bf42      	ittt	mi
 8014164:	f8d9 3000 	ldrmi.w	r3, [r9]
 8014168:	3302      	addmi	r3, #2
 801416a:	f8c9 3000 	strmi.w	r3, [r9]
 801416e:	6825      	ldr	r5, [r4, #0]
 8014170:	f015 0506 	ands.w	r5, r5, #6
 8014174:	d107      	bne.n	8014186 <_printf_common+0x52>
 8014176:	f104 0a19 	add.w	sl, r4, #25
 801417a:	68e3      	ldr	r3, [r4, #12]
 801417c:	f8d9 2000 	ldr.w	r2, [r9]
 8014180:	1a9b      	subs	r3, r3, r2
 8014182:	42ab      	cmp	r3, r5
 8014184:	dc28      	bgt.n	80141d8 <_printf_common+0xa4>
 8014186:	f894 3043 	ldrb.w	r3, [r4, #67]	; 0x43
 801418a:	6822      	ldr	r2, [r4, #0]
 801418c:	3300      	adds	r3, #0
 801418e:	bf18      	it	ne
 8014190:	2301      	movne	r3, #1
 8014192:	0692      	lsls	r2, r2, #26
 8014194:	d42d      	bmi.n	80141f2 <_printf_common+0xbe>
 8014196:	f104 0243 	add.w	r2, r4, #67	; 0x43
 801419a:	4639      	mov	r1, r7
 801419c:	4630      	mov	r0, r6
 801419e:	47c0      	blx	r8
 80141a0:	3001      	adds	r0, #1
 80141a2:	d020      	beq.n	80141e6 <_printf_common+0xb2>
 80141a4:	6823      	ldr	r3, [r4, #0]
 80141a6:	68e5      	ldr	r5, [r4, #12]
 80141a8:	f8d9 2000 	ldr.w	r2, [r9]
 80141ac:	f003 0306 	and.w	r3, r3, #6
 80141b0:	2b04      	cmp	r3, #4
 80141b2:	bf08      	it	eq
 80141b4:	1aad      	subeq	r5, r5, r2
 80141b6:	68a3      	ldr	r3, [r4, #8]
 80141b8:	6922      	ldr	r2, [r4, #16]
 80141ba:	bf0c      	ite	eq
 80141bc:	ea25 75e5 	biceq.w	r5, r5, r5, asr #31
 80141c0:	2500      	movne	r5, #0
 80141c2:	4293      	cmp	r3, r2
 80141c4:	bfc4      	itt	gt
 80141c6:	1a9b      	subgt	r3, r3, r2
 80141c8:	18ed      	addgt	r5, r5, r3
 80141ca:	f04f 0900 	mov.w	r9, #0
 80141ce:	341a      	adds	r4, #26
 80141d0:	454d      	cmp	r5, r9
 80141d2:	d11a      	bne.n	801420a <_printf_common+0xd6>
 80141d4:	2000      	movs	r0, #0
 80141d6:	e008      	b.n	80141ea <_printf_common+0xb6>
 80141d8:	2301      	movs	r3, #1
 80141da:	4652      	mov	r2, sl
 80141dc:	4639      	mov	r1, r7
 80141de:	4630      	mov	r0, r6
 80141e0:	47c0      	blx	r8
 80141e2:	3001      	adds	r0, #1
 80141e4:	d103      	bne.n	80141ee <_printf_common+0xba>
 80141e6:	f04f 30ff 	mov.w	r0, #4294967295	; 0xffffffff
 80141ea:	e8bd 87f0 	ldmia.w	sp!, {r4, r5, r6, r7, r8, r9, sl, pc}
 80141ee:	3501      	adds	r5, #1
 80141f0:	e7c3      	b.n	801417a <_printf_common+0x46>
 80141f2:	18e1      	adds	r1, r4, r3
 80141f4:	1c5a      	adds	r2, r3, #1
 80141f6:	2030      	movs	r0, #48	; 0x30
 80141f8:	f881 0043 	strb.w	r0, [r1, #67]	; 0x43
 80141fc:	4422      	add	r2, r4
 80141fe:	f894 1045 	ldrb.w	r1, [r4, #69]	; 0x45
 8014202:	f882 1043 	strb.w	r1, [r2, #67]	; 0x43
 8014206:	3302      	adds	r3, #2
 8014208:	e7c5      	b.n	8014196 <_printf_common+0x62>
 801420a:	2301      	movs	r3, #1
 801420c:	4622      	mov	r2, r4
 801420e:	4639      	mov	r1, r7
 8014210:	4630      	mov	r0, r6
 8014212:	47c0      	blx	r8
 8014214:	3001      	adds	r0, #1
 8014216:	d0e6      	beq.n	80141e6 <_printf_common+0xb2>
 8014218:	f109 0901 	add.w	r9, r9, #1
 801421c:	e7d8      	b.n	80141d0 <_printf_common+0x9c>
	...

08014220 <_printf_i>:
 8014220:	e92d 43f0 	stmdb	sp!, {r4, r5, r6, r7, r8, r9, lr}
 8014224:	f101 0c43 	add.w	ip, r1, #67	; 0x43
 8014228:	460c      	mov	r4, r1
 801422a:	7e09      	ldrb	r1, [r1, #24]
 801422c:	b085      	sub	sp, #20
 801422e:	296e      	cmp	r1, #110	; 0x6e
 8014230:	4617      	mov	r7, r2
 8014232:	4606      	mov	r6, r0
 8014234:	4698      	mov	r8, r3
 8014236:	9a0c      	ldr	r2, [sp, #48]	; 0x30
 8014238:	f000 80b3 	beq.w	80143a2 <_printf_i+0x182>
 801423c:	d822      	bhi.n	8014284 <_printf_i+0x64>
 801423e:	2963      	cmp	r1, #99	; 0x63
 8014240:	d036      	beq.n	80142b0 <_printf_i+0x90>
 8014242:	d80a      	bhi.n	801425a <_printf_i+0x3a>
 8014244:	2900      	cmp	r1, #0
 8014246:	f000 80b9 	beq.w	80143bc <_printf_i+0x19c>
 801424a:	2958      	cmp	r1, #88	; 0x58
 801424c:	f000 8083 	beq.w	8014356 <_printf_i+0x136>
 8014250:	f104 0542 	add.w	r5, r4, #66	; 0x42
 8014254:	f884 1042 	strb.w	r1, [r4, #66]	; 0x42
 8014258:	e032      	b.n	80142c0 <_printf_i+0xa0>
 801425a:	2964      	cmp	r1, #100	; 0x64
 801425c:	d001      	beq.n	8014262 <_printf_i+0x42>
 801425e:	2969      	cmp	r1, #105	; 0x69
 8014260:	d1f6      	bne.n	8014250 <_printf_i+0x30>
 8014262:	6820      	ldr	r0, [r4, #0]
 8014264:	6813      	ldr	r3, [r2, #0]
 8014266:	0605      	lsls	r5, r0, #24
 8014268:	f103 0104 	add.w	r1, r3, #4
 801426c:	d52a      	bpl.n	80142c4 <_printf_i+0xa4>
 801426e:	681b      	ldr	r3, [r3, #0]
 8014270:	6011      	str	r1, [r2, #0]
 8014272:	2b00      	cmp	r3, #0
 8014274:	da03      	bge.n	801427e <_printf_i+0x5e>
 8014276:	222d      	movs	r2, #45	; 0x2d
 8014278:	425b      	negs	r3, r3
 801427a:	f884 2043 	strb.w	r2, [r4, #67]	; 0x43
 801427e:	486f      	ldr	r0, [pc, #444]	; (801443c <_printf_i+0x21c>)
 8014280:	220a      	movs	r2, #10
 8014282:	e039      	b.n	80142f8 <_printf_i+0xd8>
 8014284:	2973      	cmp	r1, #115	; 0x73
 8014286:	f000 809d 	beq.w	80143c4 <_printf_i+0x1a4>
 801428a:	d808      	bhi.n	801429e <_printf_i+0x7e>
 801428c:	296f      	cmp	r1, #111	; 0x6f
 801428e:	d020      	beq.n	80142d2 <_printf_i+0xb2>
 8014290:	2970      	cmp	r1, #112	; 0x70
 8014292:	d1dd      	bne.n	8014250 <_printf_i+0x30>
 8014294:	6823      	ldr	r3, [r4, #0]
 8014296:	f043 0320 	orr.w	r3, r3, #32
 801429a:	6023      	str	r3, [r4, #0]
 801429c:	e003      	b.n	80142a6 <_printf_i+0x86>
 801429e:	2975      	cmp	r1, #117	; 0x75
 80142a0:	d017      	beq.n	80142d2 <_printf_i+0xb2>
 80142a2:	2978      	cmp	r1, #120	; 0x78
 80142a4:	d1d4      	bne.n	8014250 <_printf_i+0x30>
 80142a6:	2378      	movs	r3, #120	; 0x78
 80142a8:	f884 3045 	strb.w	r3, [r4, #69]	; 0x45
 80142ac:	4864      	ldr	r0, [pc, #400]	; (8014440 <_printf_i+0x220>)
 80142ae:	e055      	b.n	801435c <_printf_i+0x13c>
 80142b0:	6813      	ldr	r3, [r2, #0]
 80142b2:	1d19      	adds	r1, r3, #4
 80142b4:	681b      	ldr	r3, [r3, #0]
 80142b6:	6011      	str	r1, [r2, #0]
 80142b8:	f104 0542 	add.w	r5, r4, #66	; 0x42
 80142bc:	f884 3042 	strb.w	r3, [r4, #66]	; 0x42
 80142c0:	2301      	movs	r3, #1
 80142c2:	e08c      	b.n	80143de <_printf_i+0x1be>
 80142c4:	681b      	ldr	r3, [r3, #0]
 80142c6:	6011      	str	r1, [r2, #0]
 80142c8:	f010 0f40 	tst.w	r0, #64	; 0x40
 80142cc:	bf18      	it	ne
 80142ce:	b21b      	sxthne	r3, r3
 80142d0:	e7cf      	b.n	8014272 <_printf_i+0x52>
 80142d2:	6813      	ldr	r3, [r2, #0]
 80142d4:	6825      	ldr	r5, [r4, #0]
 80142d6:	1d18      	adds	r0, r3, #4
 80142d8:	6010      	str	r0, [r2, #0]
 80142da:	0628      	lsls	r0, r5, #24
 80142dc:	d501      	bpl.n	80142e2 <_printf_i+0xc2>
 80142de:	681b      	ldr	r3, [r3, #0]
 80142e0:	e002      	b.n	80142e8 <_printf_i+0xc8>
 80142e2:	0668      	lsls	r0, r5, #25
 80142e4:	d5fb      	bpl.n	80142de <_printf_i+0xbe>
 80142e6:	881b      	ldrh	r3, [r3, #0]
 80142e8:	4854      	ldr	r0, [pc, #336]	; (801443c <_printf_i+0x21c>)
 80142ea:	296f      	cmp	r1, #111	; 0x6f
 80142ec:	bf14      	ite	ne
 80142ee:	220a      	movne	r2, #10
 80142f0:	2208      	moveq	r2, #8
 80142f2:	2100      	movs	r1, #0
 80142f4:	f884 1043 	strb.w	r1, [r4, #67]	; 0x43
 80142f8:	6865      	ldr	r5, [r4, #4]
 80142fa:	60a5      	str	r5, [r4, #8]
 80142fc:	2d00      	cmp	r5, #0
 80142fe:	f2c0 8095 	blt.w	801442c <_printf_i+0x20c>
 8014302:	6821      	ldr	r1, [r4, #0]
 8014304:	f021 0104 	bic.w	r1, r1, #4
 8014308:	6021      	str	r1, [r4, #0]
 801430a:	2b00      	cmp	r3, #0
 801430c:	d13d      	bne.n	801438a <_printf_i+0x16a>
 801430e:	2d00      	cmp	r5, #0
 8014310:	f040 808e 	bne.w	8014430 <_printf_i+0x210>
 8014314:	4665      	mov	r5, ip
 8014316:	2a08      	cmp	r2, #8
 8014318:	d10b      	bne.n	8014332 <_printf_i+0x112>
 801431a:	6823      	ldr	r3, [r4, #0]
 801431c:	07db      	lsls	r3, r3, #31
 801431e:	d508      	bpl.n	8014332 <_printf_i+0x112>
 8014320:	6923      	ldr	r3, [r4, #16]
 8014322:	6862      	ldr	r2, [r4, #4]
 8014324:	429a      	cmp	r2, r3
 8014326:	bfde      	ittt	le
 8014328:	2330      	movle	r3, #48	; 0x30
 801432a:	f805 3c01 	strble.w	r3, [r5, #-1]
 801432e:	f105 35ff 	addle.w	r5, r5, #4294967295	; 0xffffffff
 8014332:	ebac 0305 	sub.w	r3, ip, r5
 8014336:	6123      	str	r3, [r4, #16]
 8014338:	f8cd 8000 	str.w	r8, [sp]
 801433c:	463b      	mov	r3, r7
 801433e:	aa03      	add	r2, sp, #12
 8014340:	4621      	mov	r1, r4
 8014342:	4630      	mov	r0, r6
 8014344:	f7ff fef6 	bl	8014134 <_printf_common>
 8014348:	3001      	adds	r0, #1
 801434a:	d14d      	bne.n	80143e8 <_printf_i+0x1c8>
 801434c:	f04f 30ff 	mov.w	r0, #4294967295	; 0xffffffff
 8014350:	b005      	add	sp, #20
 8014352:	e8bd 83f0 	ldmia.w	sp!, {r4, r5, r6, r7, r8, r9, pc}
 8014356:	4839      	ldr	r0, [pc, #228]	; (801443c <_printf_i+0x21c>)
 8014358:	f884 1045 	strb.w	r1, [r4, #69]	; 0x45
 801435c:	6813      	ldr	r3, [r2, #0]
 801435e:	6821      	ldr	r1, [r4, #0]
 8014360:	1d1d      	adds	r5, r3, #4
 8014362:	681b      	ldr	r3, [r3, #0]
 8014364:	6015      	str	r5, [r2, #0]
 8014366:	060a      	lsls	r2, r1, #24
 8014368:	d50b      	bpl.n	8014382 <_printf_i+0x162>
 801436a:	07ca      	lsls	r2, r1, #31
 801436c:	bf44      	itt	mi
 801436e:	f041 0120 	orrmi.w	r1, r1, #32
 8014372:	6021      	strmi	r1, [r4, #0]
 8014374:	b91b      	cbnz	r3, 801437e <_printf_i+0x15e>
 8014376:	6822      	ldr	r2, [r4, #0]
 8014378:	f022 0220 	bic.w	r2, r2, #32
 801437c:	6022      	str	r2, [r4, #0]
 801437e:	2210      	movs	r2, #16
 8014380:	e7b7      	b.n	80142f2 <_printf_i+0xd2>
 8014382:	064d      	lsls	r5, r1, #25
 8014384:	bf48      	it	mi
 8014386:	b29b      	uxthmi	r3, r3
 8014388:	e7ef      	b.n	801436a <_printf_i+0x14a>
 801438a:	4665      	mov	r5, ip
 801438c:	fbb3 f1f2 	udiv	r1, r3, r2
 8014390:	fb02 3311 	mls	r3, r2, r1, r3
 8014394:	5cc3      	ldrb	r3, [r0, r3]
 8014396:	f805 3d01 	strb.w	r3, [r5, #-1]!
 801439a:	460b      	mov	r3, r1
 801439c:	2900      	cmp	r1, #0
 801439e:	d1f5      	bne.n	801438c <_printf_i+0x16c>
 80143a0:	e7b9      	b.n	8014316 <_printf_i+0xf6>
 80143a2:	6813      	ldr	r3, [r2, #0]
 80143a4:	6825      	ldr	r5, [r4, #0]
 80143a6:	6961      	ldr	r1, [r4, #20]
 80143a8:	1d18      	adds	r0, r3, #4
 80143aa:	6010      	str	r0, [r2, #0]
 80143ac:	0628      	lsls	r0, r5, #24
 80143ae:	681b      	ldr	r3, [r3, #0]
 80143b0:	d501      	bpl.n	80143b6 <_printf_i+0x196>
 80143b2:	6019      	str	r1, [r3, #0]
 80143b4:	e002      	b.n	80143bc <_printf_i+0x19c>
 80143b6:	066a      	lsls	r2, r5, #25
 80143b8:	d5fb      	bpl.n	80143b2 <_printf_i+0x192>
 80143ba:	8019      	strh	r1, [r3, #0]
 80143bc:	2300      	movs	r3, #0
 80143be:	6123      	str	r3, [r4, #16]
 80143c0:	4665      	mov	r5, ip
 80143c2:	e7b9      	b.n	8014338 <_printf_i+0x118>
 80143c4:	6813      	ldr	r3, [r2, #0]
 80143c6:	1d19      	adds	r1, r3, #4
 80143c8:	6011      	str	r1, [r2, #0]
 80143ca:	681d      	ldr	r5, [r3, #0]
 80143cc:	6862      	ldr	r2, [r4, #4]
 80143ce:	2100      	movs	r1, #0
 80143d0:	4628      	mov	r0, r5
 80143d2:	f7f3 ff4d 	bl	8008270 <memchr>
 80143d6:	b108      	cbz	r0, 80143dc <_printf_i+0x1bc>
 80143d8:	1b40      	subs	r0, r0, r5
 80143da:	6060      	str	r0, [r4, #4]
 80143dc:	6863      	ldr	r3, [r4, #4]
 80143de:	6123      	str	r3, [r4, #16]
 80143e0:	2300      	movs	r3, #0
 80143e2:	f884 3043 	strb.w	r3, [r4, #67]	; 0x43
 80143e6:	e7a7      	b.n	8014338 <_printf_i+0x118>
 80143e8:	6923      	ldr	r3, [r4, #16]
 80143ea:	462a      	mov	r2, r5
 80143ec:	4639      	mov	r1, r7
 80143ee:	4630      	mov	r0, r6
 80143f0:	47c0      	blx	r8
 80143f2:	3001      	adds	r0, #1
 80143f4:	d0aa      	beq.n	801434c <_printf_i+0x12c>
 80143f6:	6823      	ldr	r3, [r4, #0]
 80143f8:	079b      	lsls	r3, r3, #30
 80143fa:	d413      	bmi.n	8014424 <_printf_i+0x204>
 80143fc:	68e0      	ldr	r0, [r4, #12]
 80143fe:	9b03      	ldr	r3, [sp, #12]
 8014400:	4298      	cmp	r0, r3
 8014402:	bfb8      	it	lt
 8014404:	4618      	movlt	r0, r3
 8014406:	e7a3      	b.n	8014350 <_printf_i+0x130>
 8014408:	2301      	movs	r3, #1
 801440a:	464a      	mov	r2, r9
 801440c:	4639      	mov	r1, r7
 801440e:	4630      	mov	r0, r6
 8014410:	47c0      	blx	r8
 8014412:	3001      	adds	r0, #1
 8014414:	d09a      	beq.n	801434c <_printf_i+0x12c>
 8014416:	3501      	adds	r5, #1
 8014418:	68e3      	ldr	r3, [r4, #12]
 801441a:	9a03      	ldr	r2, [sp, #12]
 801441c:	1a9b      	subs	r3, r3, r2
 801441e:	42ab      	cmp	r3, r5
 8014420:	dcf2      	bgt.n	8014408 <_printf_i+0x1e8>
 8014422:	e7eb      	b.n	80143fc <_printf_i+0x1dc>
 8014424:	2500      	movs	r5, #0
 8014426:	f104 0919 	add.w	r9, r4, #25
 801442a:	e7f5      	b.n	8014418 <_printf_i+0x1f8>
 801442c:	2b00      	cmp	r3, #0
 801442e:	d1ac      	bne.n	801438a <_printf_i+0x16a>
 8014430:	7803      	ldrb	r3, [r0, #0]
 8014432:	f884 3042 	strb.w	r3, [r4, #66]	; 0x42
 8014436:	f104 0542 	add.w	r5, r4, #66	; 0x42
 801443a:	e76c      	b.n	8014316 <_printf_i+0xf6>
 801443c:	08027759 	.word	0x08027759
 8014440:	0802776a 	.word	0x0802776a

08014444 <_sbrk_r>:
 8014444:	b538      	push	{r3, r4, r5, lr}
 8014446:	4c06      	ldr	r4, [pc, #24]	; (8014460 <_sbrk_r+0x1c>)
 8014448:	2300      	movs	r3, #0
 801444a:	4605      	mov	r5, r0
 801444c:	4608      	mov	r0, r1
 801444e:	6023      	str	r3, [r4, #0]
 8014450:	f7f4 fb7a 	bl	8008b48 <_sbrk>
 8014454:	1c43      	adds	r3, r0, #1
 8014456:	d102      	bne.n	801445e <_sbrk_r+0x1a>
 8014458:	6823      	ldr	r3, [r4, #0]
 801445a:	b103      	cbz	r3, 801445e <_sbrk_r+0x1a>
 801445c:	602b      	str	r3, [r5, #0]
 801445e:	bd38      	pop	{r3, r4, r5, pc}
 8014460:	2000b350 	.word	0x2000b350

08014464 <__sread>:
 8014464:	b510      	push	{r4, lr}
 8014466:	460c      	mov	r4, r1
 8014468:	f9b1 100e 	ldrsh.w	r1, [r1, #14]
 801446c:	f000 fa48 	bl	8014900 <_read_r>
 8014470:	2800      	cmp	r0, #0
 8014472:	bfab      	itete	ge
 8014474:	6d63      	ldrge	r3, [r4, #84]	; 0x54
 8014476:	89a3      	ldrhlt	r3, [r4, #12]
 8014478:	181b      	addge	r3, r3, r0
 801447a:	f423 5380 	biclt.w	r3, r3, #4096	; 0x1000
 801447e:	bfac      	ite	ge
 8014480:	6563      	strge	r3, [r4, #84]	; 0x54
 8014482:	81a3      	strhlt	r3, [r4, #12]
 8014484:	bd10      	pop	{r4, pc}

08014486 <__swrite>:
 8014486:	e92d 41f0 	stmdb	sp!, {r4, r5, r6, r7, r8, lr}
 801448a:	461f      	mov	r7, r3
 801448c:	898b      	ldrh	r3, [r1, #12]
 801448e:	05db      	lsls	r3, r3, #23
 8014490:	4605      	mov	r5, r0
 8014492:	460c      	mov	r4, r1
 8014494:	4616      	mov	r6, r2
 8014496:	d505      	bpl.n	80144a4 <__swrite+0x1e>
 8014498:	2302      	movs	r3, #2
 801449a:	2200      	movs	r2, #0
 801449c:	f9b1 100e 	ldrsh.w	r1, [r1, #14]
 80144a0:	f000 f9b6 	bl	8014810 <_lseek_r>
 80144a4:	89a3      	ldrh	r3, [r4, #12]
 80144a6:	f9b4 100e 	ldrsh.w	r1, [r4, #14]
 80144aa:	f423 5380 	bic.w	r3, r3, #4096	; 0x1000
 80144ae:	81a3      	strh	r3, [r4, #12]
 80144b0:	4632      	mov	r2, r6
 80144b2:	463b      	mov	r3, r7
 80144b4:	4628      	mov	r0, r5
 80144b6:	e8bd 41f0 	ldmia.w	sp!, {r4, r5, r6, r7, r8, lr}
 80144ba:	f000 b869 	b.w	8014590 <_write_r>

080144be <__sseek>:
 80144be:	b510      	push	{r4, lr}
 80144c0:	460c      	mov	r4, r1
 80144c2:	f9b1 100e 	ldrsh.w	r1, [r1, #14]
 80144c6:	f000 f9a3 	bl	8014810 <_lseek_r>
 80144ca:	1c43      	adds	r3, r0, #1
 80144cc:	89a3      	ldrh	r3, [r4, #12]
 80144ce:	bf15      	itete	ne
 80144d0:	6560      	strne	r0, [r4, #84]	; 0x54
 80144d2:	f423 5380 	biceq.w	r3, r3, #4096	; 0x1000
 80144d6:	f443 5380 	orrne.w	r3, r3, #4096	; 0x1000
 80144da:	81a3      	strheq	r3, [r4, #12]
 80144dc:	bf18      	it	ne
 80144de:	81a3      	strhne	r3, [r4, #12]
 80144e0:	bd10      	pop	{r4, pc}

080144e2 <__sclose>:
 80144e2:	f9b1 100e 	ldrsh.w	r1, [r1, #14]
 80144e6:	f000 b8d3 	b.w	8014690 <_close_r>
	...

080144ec <__swbuf_r>:
 80144ec:	b5f8      	push	{r3, r4, r5, r6, r7, lr}
 80144ee:	460e      	mov	r6, r1
 80144f0:	4614      	mov	r4, r2
 80144f2:	4605      	mov	r5, r0
 80144f4:	b118      	cbz	r0, 80144fe <__swbuf_r+0x12>
 80144f6:	6983      	ldr	r3, [r0, #24]
 80144f8:	b90b      	cbnz	r3, 80144fe <__swbuf_r+0x12>
 80144fa:	f7ff fba1 	bl	8013c40 <__sinit>
 80144fe:	4b21      	ldr	r3, [pc, #132]	; (8014584 <__swbuf_r+0x98>)
 8014500:	429c      	cmp	r4, r3
 8014502:	d12a      	bne.n	801455a <__swbuf_r+0x6e>
 8014504:	686c      	ldr	r4, [r5, #4]
 8014506:	69a3      	ldr	r3, [r4, #24]
 8014508:	60a3      	str	r3, [r4, #8]
 801450a:	89a3      	ldrh	r3, [r4, #12]
 801450c:	071a      	lsls	r2, r3, #28
 801450e:	d52e      	bpl.n	801456e <__swbuf_r+0x82>
 8014510:	6923      	ldr	r3, [r4, #16]
 8014512:	b363      	cbz	r3, 801456e <__swbuf_r+0x82>
 8014514:	6923      	ldr	r3, [r4, #16]
 8014516:	6820      	ldr	r0, [r4, #0]
 8014518:	1ac0      	subs	r0, r0, r3
 801451a:	6963      	ldr	r3, [r4, #20]
 801451c:	b2f6      	uxtb	r6, r6
 801451e:	4283      	cmp	r3, r0
 8014520:	4637      	mov	r7, r6
 8014522:	dc04      	bgt.n	801452e <__swbuf_r+0x42>
 8014524:	4621      	mov	r1, r4
 8014526:	4628      	mov	r0, r5
 8014528:	f000 f948 	bl	80147bc <_fflush_r>
 801452c:	bb28      	cbnz	r0, 801457a <__swbuf_r+0x8e>
 801452e:	68a3      	ldr	r3, [r4, #8]
 8014530:	3b01      	subs	r3, #1
 8014532:	60a3      	str	r3, [r4, #8]
 8014534:	6823      	ldr	r3, [r4, #0]
 8014536:	1c5a      	adds	r2, r3, #1
 8014538:	6022      	str	r2, [r4, #0]
 801453a:	701e      	strb	r6, [r3, #0]
 801453c:	6963      	ldr	r3, [r4, #20]
 801453e:	3001      	adds	r0, #1
 8014540:	4283      	cmp	r3, r0
 8014542:	d004      	beq.n	801454e <__swbuf_r+0x62>
 8014544:	89a3      	ldrh	r3, [r4, #12]
 8014546:	07db      	lsls	r3, r3, #31
 8014548:	d519      	bpl.n	801457e <__swbuf_r+0x92>
 801454a:	2e0a      	cmp	r6, #10
 801454c:	d117      	bne.n	801457e <__swbuf_r+0x92>
 801454e:	4621      	mov	r1, r4
 8014550:	4628      	mov	r0, r5
 8014552:	f000 f933 	bl	80147bc <_fflush_r>
 8014556:	b190      	cbz	r0, 801457e <__swbuf_r+0x92>
 8014558:	e00f      	b.n	801457a <__swbuf_r+0x8e>
 801455a:	4b0b      	ldr	r3, [pc, #44]	; (8014588 <__swbuf_r+0x9c>)
 801455c:	429c      	cmp	r4, r3
 801455e:	d101      	bne.n	8014564 <__swbuf_r+0x78>
 8014560:	68ac      	ldr	r4, [r5, #8]
 8014562:	e7d0      	b.n	8014506 <__swbuf_r+0x1a>
 8014564:	4b09      	ldr	r3, [pc, #36]	; (801458c <__swbuf_r+0xa0>)
 8014566:	429c      	cmp	r4, r3
 8014568:	bf08      	it	eq
 801456a:	68ec      	ldreq	r4, [r5, #12]
 801456c:	e7cb      	b.n	8014506 <__swbuf_r+0x1a>
 801456e:	4621      	mov	r1, r4
 8014570:	4628      	mov	r0, r5
 8014572:	f000 f81f 	bl	80145b4 <__swsetup_r>
 8014576:	2800      	cmp	r0, #0
 8014578:	d0cc      	beq.n	8014514 <__swbuf_r+0x28>
 801457a:	f04f 37ff 	mov.w	r7, #4294967295	; 0xffffffff
 801457e:	4638      	mov	r0, r7
 8014580:	bdf8      	pop	{r3, r4, r5, r6, r7, pc}
 8014582:	bf00      	nop
 8014584:	08027708 	.word	0x08027708
 8014588:	08027728 	.word	0x08027728
 801458c:	080276e8 	.word	0x080276e8

08014590 <_write_r>:
 8014590:	b538      	push	{r3, r4, r5, lr}
 8014592:	4c07      	ldr	r4, [pc, #28]	; (80145b0 <_write_r+0x20>)
 8014594:	4605      	mov	r5, r0
 8014596:	4608      	mov	r0, r1
 8014598:	4611      	mov	r1, r2
 801459a:	2200      	movs	r2, #0
 801459c:	6022      	str	r2, [r4, #0]
 801459e:	461a      	mov	r2, r3
 80145a0:	f7f4 fab8 	bl	8008b14 <_write>
 80145a4:	1c43      	adds	r3, r0, #1
 80145a6:	d102      	bne.n	80145ae <_write_r+0x1e>
 80145a8:	6823      	ldr	r3, [r4, #0]
 80145aa:	b103      	cbz	r3, 80145ae <_write_r+0x1e>
 80145ac:	602b      	str	r3, [r5, #0]
 80145ae:	bd38      	pop	{r3, r4, r5, pc}
 80145b0:	2000b350 	.word	0x2000b350

080145b4 <__swsetup_r>:
 80145b4:	4b32      	ldr	r3, [pc, #200]	; (8014680 <__swsetup_r+0xcc>)
 80145b6:	b570      	push	{r4, r5, r6, lr}
 80145b8:	681d      	ldr	r5, [r3, #0]
 80145ba:	4606      	mov	r6, r0
 80145bc:	460c      	mov	r4, r1
 80145be:	b125      	cbz	r5, 80145ca <__swsetup_r+0x16>
 80145c0:	69ab      	ldr	r3, [r5, #24]
 80145c2:	b913      	cbnz	r3, 80145ca <__swsetup_r+0x16>
 80145c4:	4628      	mov	r0, r5
 80145c6:	f7ff fb3b 	bl	8013c40 <__sinit>
 80145ca:	4b2e      	ldr	r3, [pc, #184]	; (8014684 <__swsetup_r+0xd0>)
 80145cc:	429c      	cmp	r4, r3
 80145ce:	d10f      	bne.n	80145f0 <__swsetup_r+0x3c>
 80145d0:	686c      	ldr	r4, [r5, #4]
 80145d2:	f9b4 300c 	ldrsh.w	r3, [r4, #12]
 80145d6:	b29a      	uxth	r2, r3
 80145d8:	0715      	lsls	r5, r2, #28
 80145da:	d42c      	bmi.n	8014636 <__swsetup_r+0x82>
 80145dc:	06d0      	lsls	r0, r2, #27
 80145de:	d411      	bmi.n	8014604 <__swsetup_r+0x50>
 80145e0:	2209      	movs	r2, #9
 80145e2:	6032      	str	r2, [r6, #0]
 80145e4:	f043 0340 	orr.w	r3, r3, #64	; 0x40
 80145e8:	81a3      	strh	r3, [r4, #12]
 80145ea:	f04f 30ff 	mov.w	r0, #4294967295	; 0xffffffff
 80145ee:	e03e      	b.n	801466e <__swsetup_r+0xba>
 80145f0:	4b25      	ldr	r3, [pc, #148]	; (8014688 <__swsetup_r+0xd4>)
 80145f2:	429c      	cmp	r4, r3
 80145f4:	d101      	bne.n	80145fa <__swsetup_r+0x46>
 80145f6:	68ac      	ldr	r4, [r5, #8]
 80145f8:	e7eb      	b.n	80145d2 <__swsetup_r+0x1e>
 80145fa:	4b24      	ldr	r3, [pc, #144]	; (801468c <__swsetup_r+0xd8>)
 80145fc:	429c      	cmp	r4, r3
 80145fe:	bf08      	it	eq
 8014600:	68ec      	ldreq	r4, [r5, #12]
 8014602:	e7e6      	b.n	80145d2 <__swsetup_r+0x1e>
 8014604:	0751      	lsls	r1, r2, #29
 8014606:	d512      	bpl.n	801462e <__swsetup_r+0x7a>
 8014608:	6b61      	ldr	r1, [r4, #52]	; 0x34
 801460a:	b141      	cbz	r1, 801461e <__swsetup_r+0x6a>
 801460c:	f104 0344 	add.w	r3, r4, #68	; 0x44
 8014610:	4299      	cmp	r1, r3
 8014612:	d002      	beq.n	801461a <__swsetup_r+0x66>
 8014614:	4630      	mov	r0, r6
 8014616:	f7ff fba5 	bl	8013d64 <_free_r>
 801461a:	2300      	movs	r3, #0
 801461c:	6363      	str	r3, [r4, #52]	; 0x34
 801461e:	89a3      	ldrh	r3, [r4, #12]
 8014620:	f023 0324 	bic.w	r3, r3, #36	; 0x24
 8014624:	81a3      	strh	r3, [r4, #12]
 8014626:	2300      	movs	r3, #0
 8014628:	6063      	str	r3, [r4, #4]
 801462a:	6923      	ldr	r3, [r4, #16]
 801462c:	6023      	str	r3, [r4, #0]
 801462e:	89a3      	ldrh	r3, [r4, #12]
 8014630:	f043 0308 	orr.w	r3, r3, #8
 8014634:	81a3      	strh	r3, [r4, #12]
 8014636:	6923      	ldr	r3, [r4, #16]
 8014638:	b94b      	cbnz	r3, 801464e <__swsetup_r+0x9a>
 801463a:	89a3      	ldrh	r3, [r4, #12]
 801463c:	f403 7320 	and.w	r3, r3, #640	; 0x280
 8014640:	f5b3 7f00 	cmp.w	r3, #512	; 0x200
 8014644:	d003      	beq.n	801464e <__swsetup_r+0x9a>
 8014646:	4621      	mov	r1, r4
 8014648:	4630      	mov	r0, r6
 801464a:	f000 f917 	bl	801487c <__smakebuf_r>
 801464e:	89a2      	ldrh	r2, [r4, #12]
 8014650:	f012 0301 	ands.w	r3, r2, #1
 8014654:	d00c      	beq.n	8014670 <__swsetup_r+0xbc>
 8014656:	2300      	movs	r3, #0
 8014658:	60a3      	str	r3, [r4, #8]
 801465a:	6963      	ldr	r3, [r4, #20]
 801465c:	425b      	negs	r3, r3
 801465e:	61a3      	str	r3, [r4, #24]
 8014660:	6923      	ldr	r3, [r4, #16]
 8014662:	b953      	cbnz	r3, 801467a <__swsetup_r+0xc6>
 8014664:	f9b4 300c 	ldrsh.w	r3, [r4, #12]
 8014668:	f013 0080 	ands.w	r0, r3, #128	; 0x80
 801466c:	d1ba      	bne.n	80145e4 <__swsetup_r+0x30>
 801466e:	bd70      	pop	{r4, r5, r6, pc}
 8014670:	0792      	lsls	r2, r2, #30
 8014672:	bf58      	it	pl
 8014674:	6963      	ldrpl	r3, [r4, #20]
 8014676:	60a3      	str	r3, [r4, #8]
 8014678:	e7f2      	b.n	8014660 <__swsetup_r+0xac>
 801467a:	2000      	movs	r0, #0
 801467c:	e7f7      	b.n	801466e <__swsetup_r+0xba>
 801467e:	bf00      	nop
 8014680:	20000058 	.word	0x20000058
 8014684:	08027708 	.word	0x08027708
 8014688:	08027728 	.word	0x08027728
 801468c:	080276e8 	.word	0x080276e8

08014690 <_close_r>:
 8014690:	b538      	push	{r3, r4, r5, lr}
 8014692:	4c06      	ldr	r4, [pc, #24]	; (80146ac <_close_r+0x1c>)
 8014694:	2300      	movs	r3, #0
 8014696:	4605      	mov	r5, r0
 8014698:	4608      	mov	r0, r1
 801469a:	6023      	str	r3, [r4, #0]
 801469c:	f7f4 fa48 	bl	8008b30 <_close>
 80146a0:	1c43      	adds	r3, r0, #1
 80146a2:	d102      	bne.n	80146aa <_close_r+0x1a>
 80146a4:	6823      	ldr	r3, [r4, #0]
 80146a6:	b103      	cbz	r3, 80146aa <_close_r+0x1a>
 80146a8:	602b      	str	r3, [r5, #0]
 80146aa:	bd38      	pop	{r3, r4, r5, pc}
 80146ac:	2000b350 	.word	0x2000b350

080146b0 <__sflush_r>:
 80146b0:	898a      	ldrh	r2, [r1, #12]
 80146b2:	e92d 41f0 	stmdb	sp!, {r4, r5, r6, r7, r8, lr}
 80146b6:	4605      	mov	r5, r0
 80146b8:	0710      	lsls	r0, r2, #28
 80146ba:	460c      	mov	r4, r1
 80146bc:	d458      	bmi.n	8014770 <__sflush_r+0xc0>
 80146be:	684b      	ldr	r3, [r1, #4]
 80146c0:	2b00      	cmp	r3, #0
 80146c2:	dc05      	bgt.n	80146d0 <__sflush_r+0x20>
 80146c4:	6c0b      	ldr	r3, [r1, #64]	; 0x40
 80146c6:	2b00      	cmp	r3, #0
 80146c8:	dc02      	bgt.n	80146d0 <__sflush_r+0x20>
 80146ca:	2000      	movs	r0, #0
 80146cc:	e8bd 81f0 	ldmia.w	sp!, {r4, r5, r6, r7, r8, pc}
 80146d0:	6ae6      	ldr	r6, [r4, #44]	; 0x2c
 80146d2:	2e00      	cmp	r6, #0
 80146d4:	d0f9      	beq.n	80146ca <__sflush_r+0x1a>
 80146d6:	2300      	movs	r3, #0
 80146d8:	f412 5280 	ands.w	r2, r2, #4096	; 0x1000
 80146dc:	682f      	ldr	r7, [r5, #0]
 80146de:	6a21      	ldr	r1, [r4, #32]
 80146e0:	602b      	str	r3, [r5, #0]
 80146e2:	d032      	beq.n	801474a <__sflush_r+0x9a>
 80146e4:	6d60      	ldr	r0, [r4, #84]	; 0x54
 80146e6:	89a3      	ldrh	r3, [r4, #12]
 80146e8:	075a      	lsls	r2, r3, #29
 80146ea:	d505      	bpl.n	80146f8 <__sflush_r+0x48>
 80146ec:	6863      	ldr	r3, [r4, #4]
 80146ee:	1ac0      	subs	r0, r0, r3
 80146f0:	6b63      	ldr	r3, [r4, #52]	; 0x34
 80146f2:	b10b      	cbz	r3, 80146f8 <__sflush_r+0x48>
 80146f4:	6c23      	ldr	r3, [r4, #64]	; 0x40
 80146f6:	1ac0      	subs	r0, r0, r3
 80146f8:	2300      	movs	r3, #0
 80146fa:	4602      	mov	r2, r0
 80146fc:	6ae6      	ldr	r6, [r4, #44]	; 0x2c
 80146fe:	6a21      	ldr	r1, [r4, #32]
 8014700:	4628      	mov	r0, r5
 8014702:	47b0      	blx	r6
 8014704:	1c43      	adds	r3, r0, #1
 8014706:	89a3      	ldrh	r3, [r4, #12]
 8014708:	d106      	bne.n	8014718 <__sflush_r+0x68>
 801470a:	6829      	ldr	r1, [r5, #0]
 801470c:	291d      	cmp	r1, #29
 801470e:	d848      	bhi.n	80147a2 <__sflush_r+0xf2>
 8014710:	4a29      	ldr	r2, [pc, #164]	; (80147b8 <__sflush_r+0x108>)
 8014712:	40ca      	lsrs	r2, r1
 8014714:	07d6      	lsls	r6, r2, #31
 8014716:	d544      	bpl.n	80147a2 <__sflush_r+0xf2>
 8014718:	2200      	movs	r2, #0
 801471a:	6062      	str	r2, [r4, #4]
 801471c:	04d9      	lsls	r1, r3, #19
 801471e:	6922      	ldr	r2, [r4, #16]
 8014720:	6022      	str	r2, [r4, #0]
 8014722:	d504      	bpl.n	801472e <__sflush_r+0x7e>
 8014724:	1c42      	adds	r2, r0, #1
 8014726:	d101      	bne.n	801472c <__sflush_r+0x7c>
 8014728:	682b      	ldr	r3, [r5, #0]
 801472a:	b903      	cbnz	r3, 801472e <__sflush_r+0x7e>
 801472c:	6560      	str	r0, [r4, #84]	; 0x54
 801472e:	6b61      	ldr	r1, [r4, #52]	; 0x34
 8014730:	602f      	str	r7, [r5, #0]
 8014732:	2900      	cmp	r1, #0
 8014734:	d0c9      	beq.n	80146ca <__sflush_r+0x1a>
 8014736:	f104 0344 	add.w	r3, r4, #68	; 0x44
 801473a:	4299      	cmp	r1, r3
 801473c:	d002      	beq.n	8014744 <__sflush_r+0x94>
 801473e:	4628      	mov	r0, r5
 8014740:	f7ff fb10 	bl	8013d64 <_free_r>
 8014744:	2000      	movs	r0, #0
 8014746:	6360      	str	r0, [r4, #52]	; 0x34
 8014748:	e7c0      	b.n	80146cc <__sflush_r+0x1c>
 801474a:	2301      	movs	r3, #1
 801474c:	4628      	mov	r0, r5
 801474e:	47b0      	blx	r6
 8014750:	1c41      	adds	r1, r0, #1
 8014752:	d1c8      	bne.n	80146e6 <__sflush_r+0x36>
 8014754:	682b      	ldr	r3, [r5, #0]
 8014756:	2b00      	cmp	r3, #0
 8014758:	d0c5      	beq.n	80146e6 <__sflush_r+0x36>
 801475a:	2b1d      	cmp	r3, #29
 801475c:	d001      	beq.n	8014762 <__sflush_r+0xb2>
 801475e:	2b16      	cmp	r3, #22
 8014760:	d101      	bne.n	8014766 <__sflush_r+0xb6>
 8014762:	602f      	str	r7, [r5, #0]
 8014764:	e7b1      	b.n	80146ca <__sflush_r+0x1a>
 8014766:	89a3      	ldrh	r3, [r4, #12]
 8014768:	f043 0340 	orr.w	r3, r3, #64	; 0x40
 801476c:	81a3      	strh	r3, [r4, #12]
 801476e:	e7ad      	b.n	80146cc <__sflush_r+0x1c>
 8014770:	690f      	ldr	r7, [r1, #16]
 8014772:	2f00      	cmp	r7, #0
 8014774:	d0a9      	beq.n	80146ca <__sflush_r+0x1a>
 8014776:	0793      	lsls	r3, r2, #30
 8014778:	680e      	ldr	r6, [r1, #0]
 801477a:	bf08      	it	eq
 801477c:	694b      	ldreq	r3, [r1, #20]
 801477e:	600f      	str	r7, [r1, #0]
 8014780:	bf18      	it	ne
 8014782:	2300      	movne	r3, #0
 8014784:	eba6 0807 	sub.w	r8, r6, r7
 8014788:	608b      	str	r3, [r1, #8]
 801478a:	f1b8 0f00 	cmp.w	r8, #0
 801478e:	dd9c      	ble.n	80146ca <__sflush_r+0x1a>
 8014790:	4643      	mov	r3, r8
 8014792:	463a      	mov	r2, r7
 8014794:	6a21      	ldr	r1, [r4, #32]
 8014796:	6aa6      	ldr	r6, [r4, #40]	; 0x28
 8014798:	4628      	mov	r0, r5
 801479a:	47b0      	blx	r6
 801479c:	2800      	cmp	r0, #0
 801479e:	dc06      	bgt.n	80147ae <__sflush_r+0xfe>
 80147a0:	89a3      	ldrh	r3, [r4, #12]
 80147a2:	f043 0340 	orr.w	r3, r3, #64	; 0x40
 80147a6:	81a3      	strh	r3, [r4, #12]
 80147a8:	f04f 30ff 	mov.w	r0, #4294967295	; 0xffffffff
 80147ac:	e78e      	b.n	80146cc <__sflush_r+0x1c>
 80147ae:	4407      	add	r7, r0
 80147b0:	eba8 0800 	sub.w	r8, r8, r0
 80147b4:	e7e9      	b.n	801478a <__sflush_r+0xda>
 80147b6:	bf00      	nop
 80147b8:	20400001 	.word	0x20400001

080147bc <_fflush_r>:
 80147bc:	b538      	push	{r3, r4, r5, lr}
 80147be:	690b      	ldr	r3, [r1, #16]
 80147c0:	4605      	mov	r5, r0
 80147c2:	460c      	mov	r4, r1
 80147c4:	b1db      	cbz	r3, 80147fe <_fflush_r+0x42>
 80147c6:	b118      	cbz	r0, 80147d0 <_fflush_r+0x14>
 80147c8:	6983      	ldr	r3, [r0, #24]
 80147ca:	b90b      	cbnz	r3, 80147d0 <_fflush_r+0x14>
 80147cc:	f7ff fa38 	bl	8013c40 <__sinit>
 80147d0:	4b0c      	ldr	r3, [pc, #48]	; (8014804 <_fflush_r+0x48>)
 80147d2:	429c      	cmp	r4, r3
 80147d4:	d109      	bne.n	80147ea <_fflush_r+0x2e>
 80147d6:	686c      	ldr	r4, [r5, #4]
 80147d8:	f9b4 300c 	ldrsh.w	r3, [r4, #12]
 80147dc:	b17b      	cbz	r3, 80147fe <_fflush_r+0x42>
 80147de:	4621      	mov	r1, r4
 80147e0:	4628      	mov	r0, r5
 80147e2:	e8bd 4038 	ldmia.w	sp!, {r3, r4, r5, lr}
 80147e6:	f7ff bf63 	b.w	80146b0 <__sflush_r>
 80147ea:	4b07      	ldr	r3, [pc, #28]	; (8014808 <_fflush_r+0x4c>)
 80147ec:	429c      	cmp	r4, r3
 80147ee:	d101      	bne.n	80147f4 <_fflush_r+0x38>
 80147f0:	68ac      	ldr	r4, [r5, #8]
 80147f2:	e7f1      	b.n	80147d8 <_fflush_r+0x1c>
 80147f4:	4b05      	ldr	r3, [pc, #20]	; (801480c <_fflush_r+0x50>)
 80147f6:	429c      	cmp	r4, r3
 80147f8:	bf08      	it	eq
 80147fa:	68ec      	ldreq	r4, [r5, #12]
 80147fc:	e7ec      	b.n	80147d8 <_fflush_r+0x1c>
 80147fe:	2000      	movs	r0, #0
 8014800:	bd38      	pop	{r3, r4, r5, pc}
 8014802:	bf00      	nop
 8014804:	08027708 	.word	0x08027708
 8014808:	08027728 	.word	0x08027728
 801480c:	080276e8 	.word	0x080276e8

08014810 <_lseek_r>:
 8014810:	b538      	push	{r3, r4, r5, lr}
 8014812:	4c07      	ldr	r4, [pc, #28]	; (8014830 <_lseek_r+0x20>)
 8014814:	4605      	mov	r5, r0
 8014816:	4608      	mov	r0, r1
 8014818:	4611      	mov	r1, r2
 801481a:	2200      	movs	r2, #0
 801481c:	6022      	str	r2, [r4, #0]
 801481e:	461a      	mov	r2, r3
 8014820:	f7f4 f990 	bl	8008b44 <_lseek>
 8014824:	1c43      	adds	r3, r0, #1
 8014826:	d102      	bne.n	801482e <_lseek_r+0x1e>
 8014828:	6823      	ldr	r3, [r4, #0]
 801482a:	b103      	cbz	r3, 801482e <_lseek_r+0x1e>
 801482c:	602b      	str	r3, [r5, #0]
 801482e:	bd38      	pop	{r3, r4, r5, pc}
 8014830:	2000b350 	.word	0x2000b350

08014834 <__swhatbuf_r>:
 8014834:	b570      	push	{r4, r5, r6, lr}
 8014836:	460e      	mov	r6, r1
 8014838:	f9b1 100e 	ldrsh.w	r1, [r1, #14]
 801483c:	2900      	cmp	r1, #0
 801483e:	b096      	sub	sp, #88	; 0x58
 8014840:	4614      	mov	r4, r2
 8014842:	461d      	mov	r5, r3
 8014844:	da07      	bge.n	8014856 <__swhatbuf_r+0x22>
 8014846:	2300      	movs	r3, #0
 8014848:	602b      	str	r3, [r5, #0]
 801484a:	89b3      	ldrh	r3, [r6, #12]
 801484c:	061a      	lsls	r2, r3, #24
 801484e:	d410      	bmi.n	8014872 <__swhatbuf_r+0x3e>
 8014850:	f44f 6380 	mov.w	r3, #1024	; 0x400
 8014854:	e00e      	b.n	8014874 <__swhatbuf_r+0x40>
 8014856:	466a      	mov	r2, sp
 8014858:	f000 f864 	bl	8014924 <_fstat_r>
 801485c:	2800      	cmp	r0, #0
 801485e:	dbf2      	blt.n	8014846 <__swhatbuf_r+0x12>
 8014860:	9a01      	ldr	r2, [sp, #4]
 8014862:	f402 4270 	and.w	r2, r2, #61440	; 0xf000
 8014866:	f5a2 5300 	sub.w	r3, r2, #8192	; 0x2000
 801486a:	425a      	negs	r2, r3
 801486c:	415a      	adcs	r2, r3
 801486e:	602a      	str	r2, [r5, #0]
 8014870:	e7ee      	b.n	8014850 <__swhatbuf_r+0x1c>
 8014872:	2340      	movs	r3, #64	; 0x40
 8014874:	2000      	movs	r0, #0
 8014876:	6023      	str	r3, [r4, #0]
 8014878:	b016      	add	sp, #88	; 0x58
 801487a:	bd70      	pop	{r4, r5, r6, pc}

0801487c <__smakebuf_r>:
 801487c:	898b      	ldrh	r3, [r1, #12]
 801487e:	b573      	push	{r0, r1, r4, r5, r6, lr}
 8014880:	079d      	lsls	r5, r3, #30
 8014882:	4606      	mov	r6, r0
 8014884:	460c      	mov	r4, r1
 8014886:	d507      	bpl.n	8014898 <__smakebuf_r+0x1c>
 8014888:	f104 0347 	add.w	r3, r4, #71	; 0x47
 801488c:	6023      	str	r3, [r4, #0]
 801488e:	6123      	str	r3, [r4, #16]
 8014890:	2301      	movs	r3, #1
 8014892:	6163      	str	r3, [r4, #20]
 8014894:	b002      	add	sp, #8
 8014896:	bd70      	pop	{r4, r5, r6, pc}
 8014898:	ab01      	add	r3, sp, #4
 801489a:	466a      	mov	r2, sp
 801489c:	f7ff ffca 	bl	8014834 <__swhatbuf_r>
 80148a0:	9900      	ldr	r1, [sp, #0]
 80148a2:	4605      	mov	r5, r0
 80148a4:	4630      	mov	r0, r6
 80148a6:	f7ff faab 	bl	8013e00 <_malloc_r>
 80148aa:	b948      	cbnz	r0, 80148c0 <__smakebuf_r+0x44>
 80148ac:	f9b4 300c 	ldrsh.w	r3, [r4, #12]
 80148b0:	059a      	lsls	r2, r3, #22
 80148b2:	d4ef      	bmi.n	8014894 <__smakebuf_r+0x18>
 80148b4:	f023 0303 	bic.w	r3, r3, #3
 80148b8:	f043 0302 	orr.w	r3, r3, #2
 80148bc:	81a3      	strh	r3, [r4, #12]
 80148be:	e7e3      	b.n	8014888 <__smakebuf_r+0xc>
 80148c0:	4b0d      	ldr	r3, [pc, #52]	; (80148f8 <__smakebuf_r+0x7c>)
 80148c2:	62b3      	str	r3, [r6, #40]	; 0x28
 80148c4:	89a3      	ldrh	r3, [r4, #12]
 80148c6:	6020      	str	r0, [r4, #0]
 80148c8:	f043 0380 	orr.w	r3, r3, #128	; 0x80
 80148cc:	81a3      	strh	r3, [r4, #12]
 80148ce:	9b00      	ldr	r3, [sp, #0]
 80148d0:	6163      	str	r3, [r4, #20]
 80148d2:	9b01      	ldr	r3, [sp, #4]
 80148d4:	6120      	str	r0, [r4, #16]
 80148d6:	b15b      	cbz	r3, 80148f0 <__smakebuf_r+0x74>
 80148d8:	f9b4 100e 	ldrsh.w	r1, [r4, #14]
 80148dc:	4630      	mov	r0, r6
 80148de:	f000 f833 	bl	8014948 <_isatty_r>
 80148e2:	b128      	cbz	r0, 80148f0 <__smakebuf_r+0x74>
 80148e4:	89a3      	ldrh	r3, [r4, #12]
 80148e6:	f023 0303 	bic.w	r3, r3, #3
 80148ea:	f043 0301 	orr.w	r3, r3, #1
 80148ee:	81a3      	strh	r3, [r4, #12]
 80148f0:	89a3      	ldrh	r3, [r4, #12]
 80148f2:	431d      	orrs	r5, r3
 80148f4:	81a5      	strh	r5, [r4, #12]
 80148f6:	e7cd      	b.n	8014894 <__smakebuf_r+0x18>
 80148f8:	08013c09 	.word	0x08013c09

080148fc <__malloc_lock>:
 80148fc:	4770      	bx	lr

080148fe <__malloc_unlock>:
 80148fe:	4770      	bx	lr

08014900 <_read_r>:
 8014900:	b538      	push	{r3, r4, r5, lr}
 8014902:	4c07      	ldr	r4, [pc, #28]	; (8014920 <_read_r+0x20>)
 8014904:	4605      	mov	r5, r0
 8014906:	4608      	mov	r0, r1
 8014908:	4611      	mov	r1, r2
 801490a:	2200      	movs	r2, #0
 801490c:	6022      	str	r2, [r4, #0]
 801490e:	461a      	mov	r2, r3
 8014910:	f7f4 f8f2 	bl	8008af8 <_read>
 8014914:	1c43      	adds	r3, r0, #1
 8014916:	d102      	bne.n	801491e <_read_r+0x1e>
 8014918:	6823      	ldr	r3, [r4, #0]
 801491a:	b103      	cbz	r3, 801491e <_read_r+0x1e>
 801491c:	602b      	str	r3, [r5, #0]
 801491e:	bd38      	pop	{r3, r4, r5, pc}
 8014920:	2000b350 	.word	0x2000b350

08014924 <_fstat_r>:
 8014924:	b538      	push	{r3, r4, r5, lr}
 8014926:	4c07      	ldr	r4, [pc, #28]	; (8014944 <_fstat_r+0x20>)
 8014928:	2300      	movs	r3, #0
 801492a:	4605      	mov	r5, r0
 801492c:	4608      	mov	r0, r1
 801492e:	4611      	mov	r1, r2
 8014930:	6023      	str	r3, [r4, #0]
 8014932:	f7f4 f900 	bl	8008b36 <_fstat>
 8014936:	1c43      	adds	r3, r0, #1
 8014938:	d102      	bne.n	8014940 <_fstat_r+0x1c>
 801493a:	6823      	ldr	r3, [r4, #0]
 801493c:	b103      	cbz	r3, 8014940 <_fstat_r+0x1c>
 801493e:	602b      	str	r3, [r5, #0]
 8014940:	bd38      	pop	{r3, r4, r5, pc}
 8014942:	bf00      	nop
 8014944:	2000b350 	.word	0x2000b350

08014948 <_isatty_r>:
 8014948:	b538      	push	{r3, r4, r5, lr}
 801494a:	4c06      	ldr	r4, [pc, #24]	; (8014964 <_isatty_r+0x1c>)
 801494c:	2300      	movs	r3, #0
 801494e:	4605      	mov	r5, r0
 8014950:	4608      	mov	r0, r1
 8014952:	6023      	str	r3, [r4, #0]
 8014954:	f7f4 f8f4 	bl	8008b40 <_isatty>
 8014958:	1c43      	adds	r3, r0, #1
 801495a:	d102      	bne.n	8014962 <_isatty_r+0x1a>
 801495c:	6823      	ldr	r3, [r4, #0]
 801495e:	b103      	cbz	r3, 8014962 <_isatty_r+0x1a>
 8014960:	602b      	str	r3, [r5, #0]
 8014962:	bd38      	pop	{r3, r4, r5, pc}
 8014964:	2000b350 	.word	0x2000b350

08014968 <_init>:
 8014968:	b5f8      	push	{r3, r4, r5, r6, r7, lr}
 801496a:	bf00      	nop
 801496c:	bcf8      	pop	{r3, r4, r5, r6, r7}
 801496e:	bc08      	pop	{r3}
 8014970:	469e      	mov	lr, r3
 8014972:	4770      	bx	lr

08014974 <_fini>:
 8014974:	b5f8      	push	{r3, r4, r5, r6, r7, lr}
 8014976:	bf00      	nop
 8014978:	bcf8      	pop	{r3, r4, r5, r6, r7}
 801497a:	bc08      	pop	{r3}
 801497c:	469e      	mov	lr, r3
 801497e:	4770      	bx	lr
